ARM GAS  C:\Users\psmus\AppData\Local\Temp\cc7FfqyC.s 			page 1


   1              		.syntax unified
   2              		.cpu cortex-m0
   3              		.fpu softvfp
   4              		.eabi_attribute 20, 1
   5              		.eabi_attribute 21, 1
   6              		.eabi_attribute 23, 3
   7              		.eabi_attribute 24, 1
   8              		.eabi_attribute 25, 1
   9              		.eabi_attribute 26, 1
  10              		.eabi_attribute 30, 1
  11              		.eabi_attribute 34, 0
  12              		.eabi_attribute 18, 4
  13              		.thumb
  14              		.syntax unified
  15              		.file	"AudioOut.c"
  16              		.text
  17              	.Ltext0:
  18              		.cfi_sections	.debug_frame
  19              		.section	.text.InitializeAudioOutPath,"ax",%progbits
  20              		.align	2
  21              		.global	InitializeAudioOutPath
  22              		.code	16
  23              		.thumb_func
  24              		.type	InitializeAudioOutPath, %function
  25              	InitializeAudioOutPath:
  26              	.LFB130:
  27              		.file 1 "AudioOut.c"
   1:AudioOut.c    **** /*******************************************************************************
   2:AudioOut.c    **** * File Name: AudioOut.c
   3:AudioOut.c    **** *
   4:AudioOut.c    **** * Version 1.0
   5:AudioOut.c    **** *
   6:AudioOut.c    **** *  Description: This file contains the Audio Out path configuration and 
   7:AudioOut.c    **** *               processing code
   8:AudioOut.c    **** *
   9:AudioOut.c    **** *******************************************************************************
  10:AudioOut.c    **** * Copyright (2018), Cypress Semiconductor Corporation. All rights reserved.
  11:AudioOut.c    **** *******************************************************************************
  12:AudioOut.c    **** * This software, including source code, documentation and related materials
  13:AudioOut.c    **** * (“Software”), is owned by Cypress Semiconductor Corporation or one of its
  14:AudioOut.c    **** * subsidiaries (“Cypress”) and is protected by and subject to worldwide patent
  15:AudioOut.c    **** * protection (United States and foreign), United States copyright laws and
  16:AudioOut.c    **** * international treaty provisions. Therefore, you may use this Software only
  17:AudioOut.c    **** * as provided in the license agreement accompanying the software package from
  18:AudioOut.c    **** * which you obtained this Software (“EULA”).
  19:AudioOut.c    **** *
  20:AudioOut.c    **** * If no EULA applies, Cypress hereby grants you a personal, nonexclusive,
  21:AudioOut.c    **** * non-transferable license to copy, modify, and compile the Software source
  22:AudioOut.c    **** * code solely for use in connection with Cypress’s integrated circuit products.
  23:AudioOut.c    **** * Any reproduction, modification, translation, compilation, or representation
  24:AudioOut.c    **** * of this Software except as specified above is prohibited without the express
  25:AudioOut.c    **** * written permission of Cypress.
  26:AudioOut.c    **** *
  27:AudioOut.c    **** * Disclaimer: THIS SOFTWARE IS PROVIDED AS-IS, WITH NO WARRANTY OF ANY KIND, 
  28:AudioOut.c    **** * EXPRESS OR IMPLIED, INCLUDING, BUT NOT LIMITED TO, NONINFRINGEMENT, IMPLIED 
  29:AudioOut.c    **** * WARRANTIES OF MERCHANTABILITY AND FITNESS FOR A PARTICULAR PURPOSE. Cypress 
  30:AudioOut.c    **** * reserves the right to make changes to the Software without notice. Cypress 
ARM GAS  C:\Users\psmus\AppData\Local\Temp\cc7FfqyC.s 			page 2


  31:AudioOut.c    **** * does not assume any liability arising out of the application or use of the 
  32:AudioOut.c    **** * Software or any product or circuit described in the Software. Cypress does 
  33:AudioOut.c    **** * not authorize its products for use in any products where a malfunction or 
  34:AudioOut.c    **** * failure of the Cypress product may reasonably be expected to result in 
  35:AudioOut.c    **** * significant property damage, injury or death (“High Risk Product”). By 
  36:AudioOut.c    **** * including Cypress’s product in a High Risk Product, the manufacturer of such 
  37:AudioOut.c    **** * system or application assumes all risk of such use and in doing so agrees to 
  38:AudioOut.c    **** * indemnify Cypress against all liability.
  39:AudioOut.c    **** *******************************************************************************/
  40:AudioOut.c    **** 
  41:AudioOut.c    **** #include <AudioControl.h>
  42:AudioOut.c    **** #include <Interrupts.h>
  43:AudioOut.c    **** #include <AudioControl.h>
  44:AudioOut.c    **** #include <Config.h>
  45:AudioOut.c    **** #include <AudioOut.h>
  46:AudioOut.c    **** #include <project.h>
  47:AudioOut.c    **** #include <Codec.h>
  48:AudioOut.c    **** #include <math.h>
  49:AudioOut.c    **** #include "waves.h"
  50:AudioOut.c    **** #include "globals.h"
  51:AudioOut.c    **** 
  52:AudioOut.c    **** uint16_t freq;
  53:AudioOut.c    **** uint16_t freq2;
  54:AudioOut.c    **** uint16_t freq3;
  55:AudioOut.c    **** uint16_t freq4;
  56:AudioOut.c    **** uint16_t freq5;
  57:AudioOut.c    **** uint16_t freq6;
  58:AudioOut.c    **** uint16_t freq7;
  59:AudioOut.c    **** uint16_t freq8;
  60:AudioOut.c    **** uint32_t lfo_freq;
  61:AudioOut.c    **** uint16_t lfo_multiplier = 1;
  62:AudioOut.c    **** uint16_t envelope_multiplier = 0;
  63:AudioOut.c    **** 
  64:AudioOut.c    **** CYBIT outPlaying = 0;
  65:AudioOut.c    **** int8_t output_buffer[OUT_BUFSIZE];
  66:AudioOut.c    **** int8_t output_buffer2[OUT_BUFSIZE];
  67:AudioOut.c    **** uint32_t buffer_index;
  68:AudioOut.c    **** uint32_t buffer_index2;
  69:AudioOut.c    **** extern CYBIT audioClkConfigured;
  70:AudioOut.c    **** 
  71:AudioOut.c    **** /*******************************************************************************
  72:AudioOut.c    **** * Function Name: InitializeAudioOutPath
  73:AudioOut.c    **** ********************************************************************************
  74:AudioOut.c    **** * Summary:
  75:AudioOut.c    **** *       This function initializes all the associated DMAs for the Audio OUT
  76:AudioOut.c    **** *       path
  77:AudioOut.c    **** *
  78:AudioOut.c    **** * Parameters:
  79:AudioOut.c    **** *  void
  80:AudioOut.c    **** *
  81:AudioOut.c    **** * Return:
  82:AudioOut.c    **** *  void
  83:AudioOut.c    **** *
  84:AudioOut.c    **** *******************************************************************************/
  85:AudioOut.c    **** void InitializeAudioOutPath(void)
  86:AudioOut.c    **** {
  28              		.loc 1 86 0
ARM GAS  C:\Users\psmus\AppData\Local\Temp\cc7FfqyC.s 			page 3


  29              		.cfi_startproc
  30              		@ args = 0, pretend = 0, frame = 0
  31              		@ frame_needed = 0, uses_anonymous_args = 0
  32 0000 70B5     		push	{r4, r5, r6, lr}
  33              		.cfi_def_cfa_offset 16
  34              		.cfi_offset 4, -16
  35              		.cfi_offset 5, -12
  36              		.cfi_offset 6, -8
  37              		.cfi_offset 14, -4
  87:AudioOut.c    ****     SPI_RxDMA_Start((void *)SPI_RX_FIFO_RD_PTR, (void *)masterRxBuffer);
  38              		.loc 1 87 0
  39 0002 324C     		ldr	r4, .L2
  40 0004 3249     		ldr	r1, .L2+4
  41 0006 2000     		movs	r0, r4
  42 0008 FFF7FEFF 		bl	SPI_RxDMA_Start
  43              	.LVL0:
  88:AudioOut.c    ****     SPI_TxDMA_Start((void *)masterTxBuffer, (void *)SPI_TX_FIFO_WR_PTR);
  44              		.loc 1 88 0
  45 000c 3149     		ldr	r1, .L2+8
  46 000e 3248     		ldr	r0, .L2+12
  47 0010 FFF7FEFF 		bl	SPI_TxDMA_Start
  48              	.LVL1:
  49              	.LBB24:
  50              	.LBB25:
  51              		.file 2 "Generated_Source\\PSoC4/SPI_RxDMA.h"
   1:Generated_Source\PSoC4/SPI_RxDMA.h **** /*******************************************************************************
   2:Generated_Source\PSoC4/SPI_RxDMA.h **** * File Name: SPI_RxDMA.h
   3:Generated_Source\PSoC4/SPI_RxDMA.h **** * Version 1.0
   4:Generated_Source\PSoC4/SPI_RxDMA.h **** *
   5:Generated_Source\PSoC4/SPI_RxDMA.h **** * Description:
   6:Generated_Source\PSoC4/SPI_RxDMA.h **** *  This file provides DMA channel defines and API function definitions.
   7:Generated_Source\PSoC4/SPI_RxDMA.h **** *
   8:Generated_Source\PSoC4/SPI_RxDMA.h **** ********************************************************************************
   9:Generated_Source\PSoC4/SPI_RxDMA.h **** * Copyright 2015, Cypress Semiconductor Corporation. All rights reserved.
  10:Generated_Source\PSoC4/SPI_RxDMA.h **** * You may use this file only in accordance with the license, terms, conditions,
  11:Generated_Source\PSoC4/SPI_RxDMA.h **** * disclaimers, and limitations in the end user license agreement accompanying
  12:Generated_Source\PSoC4/SPI_RxDMA.h **** * the software package with which this file was provided.
  13:Generated_Source\PSoC4/SPI_RxDMA.h **** *******************************************************************************/
  14:Generated_Source\PSoC4/SPI_RxDMA.h **** 
  15:Generated_Source\PSoC4/SPI_RxDMA.h **** #ifndef CY_DMA_CHANNEL_SPI_RxDMA_H
  16:Generated_Source\PSoC4/SPI_RxDMA.h **** #define CY_DMA_CHANNEL_SPI_RxDMA_H
  17:Generated_Source\PSoC4/SPI_RxDMA.h **** 
  18:Generated_Source\PSoC4/SPI_RxDMA.h **** #include "CyDMA.h"
  19:Generated_Source\PSoC4/SPI_RxDMA.h **** 
  20:Generated_Source\PSoC4/SPI_RxDMA.h ****     
  21:Generated_Source\PSoC4/SPI_RxDMA.h **** /***************************************
  22:Generated_Source\PSoC4/SPI_RxDMA.h **** *   Conditional Compilation Parameters
  23:Generated_Source\PSoC4/SPI_RxDMA.h **** ***************************************/
  24:Generated_Source\PSoC4/SPI_RxDMA.h **** 
  25:Generated_Source\PSoC4/SPI_RxDMA.h **** #define SPI_RxDMA_CHANNEL           (SPI_RxDMA__CHANNEL_NUMBER)
  26:Generated_Source\PSoC4/SPI_RxDMA.h **** #define SPI_RxDMA_CHANNEL_MASK      ((uint32)(1UL << SPI_RxDMA_CHANNEL))
  27:Generated_Source\PSoC4/SPI_RxDMA.h **** 
  28:Generated_Source\PSoC4/SPI_RxDMA.h **** 
  29:Generated_Source\PSoC4/SPI_RxDMA.h **** /***************************************
  30:Generated_Source\PSoC4/SPI_RxDMA.h **** *        Function Prototypes
  31:Generated_Source\PSoC4/SPI_RxDMA.h **** ***************************************/
  32:Generated_Source\PSoC4/SPI_RxDMA.h **** 
ARM GAS  C:\Users\psmus\AppData\Local\Temp\cc7FfqyC.s 			page 4


  33:Generated_Source\PSoC4/SPI_RxDMA.h **** /* Functions specific to this DMA channel */
  34:Generated_Source\PSoC4/SPI_RxDMA.h **** void SPI_RxDMA_Init(void);
  35:Generated_Source\PSoC4/SPI_RxDMA.h **** void SPI_RxDMA_Start(void * srcAddress, void * dstAddress);
  36:Generated_Source\PSoC4/SPI_RxDMA.h **** 
  37:Generated_Source\PSoC4/SPI_RxDMA.h **** /* Inline functions that call global API functions */
  38:Generated_Source\PSoC4/SPI_RxDMA.h **** static void   SPI_RxDMA_ChEnable(void);
  39:Generated_Source\PSoC4/SPI_RxDMA.h **** static void   SPI_RxDMA_ChDisable(void);
  40:Generated_Source\PSoC4/SPI_RxDMA.h **** static void   SPI_RxDMA_Trigger(void);
  41:Generated_Source\PSoC4/SPI_RxDMA.h **** static void   SPI_RxDMA_SetPriority(int32 priority);
  42:Generated_Source\PSoC4/SPI_RxDMA.h **** static int32  SPI_RxDMA_GetPriority(void);
  43:Generated_Source\PSoC4/SPI_RxDMA.h **** static void   SPI_RxDMA_SetNextDescriptor(int32 descriptor);
  44:Generated_Source\PSoC4/SPI_RxDMA.h **** static int32  SPI_RxDMA_GetNextDescriptor(void);
  45:Generated_Source\PSoC4/SPI_RxDMA.h **** static void   SPI_RxDMA_SetConfiguration(int32 descriptor, const cydma_init_struct * config);
  46:Generated_Source\PSoC4/SPI_RxDMA.h **** static void   SPI_RxDMA_ValidateDescriptor(int32 descriptor);
  47:Generated_Source\PSoC4/SPI_RxDMA.h **** static uint32 SPI_RxDMA_GetDescriptorStatus(int32 descriptor);
  48:Generated_Source\PSoC4/SPI_RxDMA.h **** static void   SPI_RxDMA_SetSrcAddress(int32 descriptor, void * srcAddress);
  49:Generated_Source\PSoC4/SPI_RxDMA.h **** static void * SPI_RxDMA_GetSrcAddress(int32 descriptor);
  50:Generated_Source\PSoC4/SPI_RxDMA.h **** static void   SPI_RxDMA_SetDstAddress(int32 descriptor, void * dstAddress);
  51:Generated_Source\PSoC4/SPI_RxDMA.h **** static void * SPI_RxDMA_GetDstAddress(int32 descriptor);
  52:Generated_Source\PSoC4/SPI_RxDMA.h **** static void   SPI_RxDMA_SetDataElementSize(int32 descriptor, uint32 dataElementSize);
  53:Generated_Source\PSoC4/SPI_RxDMA.h **** static uint32 SPI_RxDMA_GetDataElementSize(int32 descriptor);
  54:Generated_Source\PSoC4/SPI_RxDMA.h **** static void   SPI_RxDMA_SetNumDataElements(int32 descriptor, int32 numDataElements);
  55:Generated_Source\PSoC4/SPI_RxDMA.h **** static int32  SPI_RxDMA_GetNumDataElements(int32 descriptor);
  56:Generated_Source\PSoC4/SPI_RxDMA.h **** static void   SPI_RxDMA_SetSrcDstTransferWidth(int32 descriptor, uint32 transferWidth);
  57:Generated_Source\PSoC4/SPI_RxDMA.h **** static uint32 SPI_RxDMA_GetSrcDstTransferWidth(int32 descriptor);
  58:Generated_Source\PSoC4/SPI_RxDMA.h **** static void   SPI_RxDMA_SetAddressIncrement(int32 descriptor, uint32 addressIncrement);
  59:Generated_Source\PSoC4/SPI_RxDMA.h **** static uint32 SPI_RxDMA_GetAddressIncrement(int32 descriptor);
  60:Generated_Source\PSoC4/SPI_RxDMA.h **** static void   SPI_RxDMA_SetTriggerType(int32 descriptor, uint32 triggerType);
  61:Generated_Source\PSoC4/SPI_RxDMA.h **** static uint32 SPI_RxDMA_GetTriggerType(int32 descriptor);
  62:Generated_Source\PSoC4/SPI_RxDMA.h **** static void   SPI_RxDMA_SetTransferMode(int32 descriptor, uint32 transferMode);
  63:Generated_Source\PSoC4/SPI_RxDMA.h **** static uint32 SPI_RxDMA_GetTransferMode(int32 descriptor);
  64:Generated_Source\PSoC4/SPI_RxDMA.h **** static void   SPI_RxDMA_SetPreemptable(int32 descriptor, uint32 preemptable);
  65:Generated_Source\PSoC4/SPI_RxDMA.h **** static uint32 SPI_RxDMA_GetPreemptable(int32 descriptor);
  66:Generated_Source\PSoC4/SPI_RxDMA.h **** static void   SPI_RxDMA_SetPostCompletionActions(int32 descriptor, uint32 actions);
  67:Generated_Source\PSoC4/SPI_RxDMA.h **** static uint32 SPI_RxDMA_GetPostCompletionAction(int32 descriptor);
  68:Generated_Source\PSoC4/SPI_RxDMA.h **** static cydma_callback_t SPI_RxDMA_SetInterruptCallback(cydma_callback_t callback);
  69:Generated_Source\PSoC4/SPI_RxDMA.h **** static cydma_callback_t SPI_RxDMA_GetInterruptCallback(void);
  70:Generated_Source\PSoC4/SPI_RxDMA.h **** 
  71:Generated_Source\PSoC4/SPI_RxDMA.h **** 
  72:Generated_Source\PSoC4/SPI_RxDMA.h **** /*******************************************************************************
  73:Generated_Source\PSoC4/SPI_RxDMA.h **** * Function Name: SPI_RxDMA_ChEnable
  74:Generated_Source\PSoC4/SPI_RxDMA.h **** ********************************************************************************
  75:Generated_Source\PSoC4/SPI_RxDMA.h **** *
  76:Generated_Source\PSoC4/SPI_RxDMA.h **** * Summary:
  77:Generated_Source\PSoC4/SPI_RxDMA.h **** *  Enables the DMA channel. It is not necessary to call SPI_RxDMA_ChEnable()
  78:Generated_Source\PSoC4/SPI_RxDMA.h **** *  because the SPI_RxDMA_Start() API calls this function, which is the
  79:Generated_Source\PSoC4/SPI_RxDMA.h **** *  preferred method to begin the component operation.
  80:Generated_Source\PSoC4/SPI_RxDMA.h **** *
  81:Generated_Source\PSoC4/SPI_RxDMA.h **** * Parameters:
  82:Generated_Source\PSoC4/SPI_RxDMA.h **** *  None.
  83:Generated_Source\PSoC4/SPI_RxDMA.h **** *                   
  84:Generated_Source\PSoC4/SPI_RxDMA.h **** * Return:
  85:Generated_Source\PSoC4/SPI_RxDMA.h **** *  None.
  86:Generated_Source\PSoC4/SPI_RxDMA.h **** *
  87:Generated_Source\PSoC4/SPI_RxDMA.h **** * Side effect:
  88:Generated_Source\PSoC4/SPI_RxDMA.h **** *  If this function is called before SPI_RxDMA_Start(), or SPI_RxDMA_Init()
  89:Generated_Source\PSoC4/SPI_RxDMA.h **** *  or SPI_RxDMA_SetConfiguration(), and SPI_RxDMA_SetSrcAddress()
ARM GAS  C:\Users\psmus\AppData\Local\Temp\cc7FfqyC.s 			page 5


  90:Generated_Source\PSoC4/SPI_RxDMA.h **** *  and SPI_RxDMA_SetDstAddress the operation of the DMA is 
  91:Generated_Source\PSoC4/SPI_RxDMA.h **** *  undefined and could result in system data corruption. 
  92:Generated_Source\PSoC4/SPI_RxDMA.h **** *
  93:Generated_Source\PSoC4/SPI_RxDMA.h **** *******************************************************************************/
  94:Generated_Source\PSoC4/SPI_RxDMA.h **** static CY_INLINE void SPI_RxDMA_ChEnable(void)
  95:Generated_Source\PSoC4/SPI_RxDMA.h **** {
  96:Generated_Source\PSoC4/SPI_RxDMA.h ****     CyDmaChEnable(SPI_RxDMA_CHANNEL);
  97:Generated_Source\PSoC4/SPI_RxDMA.h **** }
  98:Generated_Source\PSoC4/SPI_RxDMA.h **** 
  99:Generated_Source\PSoC4/SPI_RxDMA.h **** 
 100:Generated_Source\PSoC4/SPI_RxDMA.h **** /*******************************************************************************
 101:Generated_Source\PSoC4/SPI_RxDMA.h **** * Function Name: SPI_RxDMA_ChDisable
 102:Generated_Source\PSoC4/SPI_RxDMA.h **** ********************************************************************************
 103:Generated_Source\PSoC4/SPI_RxDMA.h **** *
 104:Generated_Source\PSoC4/SPI_RxDMA.h **** * Summary:
 105:Generated_Source\PSoC4/SPI_RxDMA.h **** *  Disables the DMA channel.
 106:Generated_Source\PSoC4/SPI_RxDMA.h **** *
 107:Generated_Source\PSoC4/SPI_RxDMA.h **** * Parameters:
 108:Generated_Source\PSoC4/SPI_RxDMA.h **** *  None.
 109:Generated_Source\PSoC4/SPI_RxDMA.h **** *                   
 110:Generated_Source\PSoC4/SPI_RxDMA.h **** * Return:
 111:Generated_Source\PSoC4/SPI_RxDMA.h **** *  None.
 112:Generated_Source\PSoC4/SPI_RxDMA.h **** *
 113:Generated_Source\PSoC4/SPI_RxDMA.h **** * Side effect:
 114:Generated_Source\PSoC4/SPI_RxDMA.h **** *  If this function is called during a DMA transfer the transfer is aborted. 
 115:Generated_Source\PSoC4/SPI_RxDMA.h **** *
 116:Generated_Source\PSoC4/SPI_RxDMA.h **** *******************************************************************************/
 117:Generated_Source\PSoC4/SPI_RxDMA.h **** static CY_INLINE void SPI_RxDMA_ChDisable(void)
 118:Generated_Source\PSoC4/SPI_RxDMA.h **** {
 119:Generated_Source\PSoC4/SPI_RxDMA.h ****     CyDmaChDisable(SPI_RxDMA_CHANNEL);
 120:Generated_Source\PSoC4/SPI_RxDMA.h **** }
 121:Generated_Source\PSoC4/SPI_RxDMA.h **** 
 122:Generated_Source\PSoC4/SPI_RxDMA.h **** 
 123:Generated_Source\PSoC4/SPI_RxDMA.h **** /*******************************************************************************
 124:Generated_Source\PSoC4/SPI_RxDMA.h **** * Function Name: SPI_RxDMA_Trigger
 125:Generated_Source\PSoC4/SPI_RxDMA.h **** ********************************************************************************
 126:Generated_Source\PSoC4/SPI_RxDMA.h **** *
 127:Generated_Source\PSoC4/SPI_RxDMA.h **** * Summary:
 128:Generated_Source\PSoC4/SPI_RxDMA.h **** *  Triggers the DMA channel, this is useful only for software triggers. This is
 129:Generated_Source\PSoC4/SPI_RxDMA.h **** *  not needed when hardware triggers are used.
 130:Generated_Source\PSoC4/SPI_RxDMA.h **** *
 131:Generated_Source\PSoC4/SPI_RxDMA.h **** * Parameters:
 132:Generated_Source\PSoC4/SPI_RxDMA.h **** *  None.
 133:Generated_Source\PSoC4/SPI_RxDMA.h **** *                   
 134:Generated_Source\PSoC4/SPI_RxDMA.h **** * Return:
 135:Generated_Source\PSoC4/SPI_RxDMA.h **** *  None. 
 136:Generated_Source\PSoC4/SPI_RxDMA.h **** *
 137:Generated_Source\PSoC4/SPI_RxDMA.h **** *******************************************************************************/
 138:Generated_Source\PSoC4/SPI_RxDMA.h **** static CY_INLINE void SPI_RxDMA_Trigger(void)
 139:Generated_Source\PSoC4/SPI_RxDMA.h **** {
 140:Generated_Source\PSoC4/SPI_RxDMA.h ****     CyDmaTrigger(SPI_RxDMA_CHANNEL);
 141:Generated_Source\PSoC4/SPI_RxDMA.h **** }
 142:Generated_Source\PSoC4/SPI_RxDMA.h **** 
 143:Generated_Source\PSoC4/SPI_RxDMA.h **** 
 144:Generated_Source\PSoC4/SPI_RxDMA.h **** /*******************************************************************************
 145:Generated_Source\PSoC4/SPI_RxDMA.h **** * Function Name: SPI_RxDMA_SetPriority
 146:Generated_Source\PSoC4/SPI_RxDMA.h **** ********************************************************************************
ARM GAS  C:\Users\psmus\AppData\Local\Temp\cc7FfqyC.s 			page 6


 147:Generated_Source\PSoC4/SPI_RxDMA.h **** *
 148:Generated_Source\PSoC4/SPI_RxDMA.h **** * Summary:
 149:Generated_Source\PSoC4/SPI_RxDMA.h **** *  Sets the priority for the channel.
 150:Generated_Source\PSoC4/SPI_RxDMA.h **** *
 151:Generated_Source\PSoC4/SPI_RxDMA.h **** * Parameters:
 152:Generated_Source\PSoC4/SPI_RxDMA.h **** *  priority: Priority for channel. Priority can be 0,1,2, or 3.
 153:Generated_Source\PSoC4/SPI_RxDMA.h **** *            0 is the highest priority.
 154:Generated_Source\PSoC4/SPI_RxDMA.h **** *                   
 155:Generated_Source\PSoC4/SPI_RxDMA.h **** * Return:
 156:Generated_Source\PSoC4/SPI_RxDMA.h **** *  None.
 157:Generated_Source\PSoC4/SPI_RxDMA.h **** *
 158:Generated_Source\PSoC4/SPI_RxDMA.h **** * Side effect:
 159:Generated_Source\PSoC4/SPI_RxDMA.h **** *  This function should not be called while the channel is enabled.
 160:Generated_Source\PSoC4/SPI_RxDMA.h **** *
 161:Generated_Source\PSoC4/SPI_RxDMA.h **** *******************************************************************************/
 162:Generated_Source\PSoC4/SPI_RxDMA.h **** static CY_INLINE void SPI_RxDMA_SetPriority(int32 priority)
 163:Generated_Source\PSoC4/SPI_RxDMA.h **** {
 164:Generated_Source\PSoC4/SPI_RxDMA.h ****     CyDmaSetPriority(SPI_RxDMA_CHANNEL, priority);
 165:Generated_Source\PSoC4/SPI_RxDMA.h **** }
 166:Generated_Source\PSoC4/SPI_RxDMA.h **** 
 167:Generated_Source\PSoC4/SPI_RxDMA.h **** 
 168:Generated_Source\PSoC4/SPI_RxDMA.h **** /*******************************************************************************
 169:Generated_Source\PSoC4/SPI_RxDMA.h **** * Function Name: SPI_RxDMA_GetPriority
 170:Generated_Source\PSoC4/SPI_RxDMA.h **** ********************************************************************************
 171:Generated_Source\PSoC4/SPI_RxDMA.h **** *
 172:Generated_Source\PSoC4/SPI_RxDMA.h **** * Summary:
 173:Generated_Source\PSoC4/SPI_RxDMA.h **** *  Gets the priority for the channel.
 174:Generated_Source\PSoC4/SPI_RxDMA.h **** *
 175:Generated_Source\PSoC4/SPI_RxDMA.h **** * Parameters:
 176:Generated_Source\PSoC4/SPI_RxDMA.h **** *  None.
 177:Generated_Source\PSoC4/SPI_RxDMA.h **** *                   
 178:Generated_Source\PSoC4/SPI_RxDMA.h **** * Return:
 179:Generated_Source\PSoC4/SPI_RxDMA.h **** *  Priority for channel. Priority can be 0,1,2, or 3. 0 is the highest priority.
 180:Generated_Source\PSoC4/SPI_RxDMA.h **** *
 181:Generated_Source\PSoC4/SPI_RxDMA.h **** *******************************************************************************/
 182:Generated_Source\PSoC4/SPI_RxDMA.h **** static CY_INLINE int32 SPI_RxDMA_GetPriority(void)
 183:Generated_Source\PSoC4/SPI_RxDMA.h **** {
 184:Generated_Source\PSoC4/SPI_RxDMA.h ****     return (CyDmaGetPriority(SPI_RxDMA_CHANNEL));
 185:Generated_Source\PSoC4/SPI_RxDMA.h **** }
 186:Generated_Source\PSoC4/SPI_RxDMA.h **** 
 187:Generated_Source\PSoC4/SPI_RxDMA.h **** 
 188:Generated_Source\PSoC4/SPI_RxDMA.h **** /*******************************************************************************
 189:Generated_Source\PSoC4/SPI_RxDMA.h **** * Function Name: SPI_RxDMA_SetNextDescriptor
 190:Generated_Source\PSoC4/SPI_RxDMA.h **** ********************************************************************************
 191:Generated_Source\PSoC4/SPI_RxDMA.h **** *
 192:Generated_Source\PSoC4/SPI_RxDMA.h **** * Summary:
 193:Generated_Source\PSoC4/SPI_RxDMA.h **** *  Sets the descriptor that should be run the next time the channel is
 194:Generated_Source\PSoC4/SPI_RxDMA.h **** *  triggered.
 195:Generated_Source\PSoC4/SPI_RxDMA.h **** *
 196:Generated_Source\PSoC4/SPI_RxDMA.h **** * Parameters:
 197:Generated_Source\PSoC4/SPI_RxDMA.h **** *  descriptor: Next Descriptor to run (0 or 1).
 198:Generated_Source\PSoC4/SPI_RxDMA.h **** *                   
 199:Generated_Source\PSoC4/SPI_RxDMA.h **** * Side effect:
 200:Generated_Source\PSoC4/SPI_RxDMA.h **** *  This function should not be called while the channel is enabled.
 201:Generated_Source\PSoC4/SPI_RxDMA.h **** *
 202:Generated_Source\PSoC4/SPI_RxDMA.h **** *******************************************************************************/
 203:Generated_Source\PSoC4/SPI_RxDMA.h **** static CY_INLINE void SPI_RxDMA_SetNextDescriptor(int32 descriptor)
ARM GAS  C:\Users\psmus\AppData\Local\Temp\cc7FfqyC.s 			page 7


 204:Generated_Source\PSoC4/SPI_RxDMA.h **** {
 205:Generated_Source\PSoC4/SPI_RxDMA.h ****     CyDmaSetNextDescriptor(SPI_RxDMA_CHANNEL, descriptor);
 206:Generated_Source\PSoC4/SPI_RxDMA.h **** }
 207:Generated_Source\PSoC4/SPI_RxDMA.h **** 
 208:Generated_Source\PSoC4/SPI_RxDMA.h **** 
 209:Generated_Source\PSoC4/SPI_RxDMA.h **** /*******************************************************************************
 210:Generated_Source\PSoC4/SPI_RxDMA.h **** * Function Name: SPI_RxDMA_GetNextDescriptor
 211:Generated_Source\PSoC4/SPI_RxDMA.h **** ********************************************************************************
 212:Generated_Source\PSoC4/SPI_RxDMA.h **** *
 213:Generated_Source\PSoC4/SPI_RxDMA.h **** * Summary:
 214:Generated_Source\PSoC4/SPI_RxDMA.h **** *  Returns the next descriptor that should be run, as set by 
 215:Generated_Source\PSoC4/SPI_RxDMA.h **** *  SPI_RxDMA_SetNextDescriptor().
 216:Generated_Source\PSoC4/SPI_RxDMA.h **** *
 217:Generated_Source\PSoC4/SPI_RxDMA.h **** * Parameters:
 218:Generated_Source\PSoC4/SPI_RxDMA.h **** *  None.
 219:Generated_Source\PSoC4/SPI_RxDMA.h **** *                   
 220:Generated_Source\PSoC4/SPI_RxDMA.h **** * Return:
 221:Generated_Source\PSoC4/SPI_RxDMA.h **** *  Next Descriptor to run (0 or 1).
 222:Generated_Source\PSoC4/SPI_RxDMA.h **** *
 223:Generated_Source\PSoC4/SPI_RxDMA.h **** *******************************************************************************/
 224:Generated_Source\PSoC4/SPI_RxDMA.h **** static CY_INLINE int32 SPI_RxDMA_GetNextDescriptor(void)
 225:Generated_Source\PSoC4/SPI_RxDMA.h **** {
 226:Generated_Source\PSoC4/SPI_RxDMA.h ****     return (CyDmaGetNextDescriptor(SPI_RxDMA_CHANNEL));
 227:Generated_Source\PSoC4/SPI_RxDMA.h **** }
 228:Generated_Source\PSoC4/SPI_RxDMA.h **** 
 229:Generated_Source\PSoC4/SPI_RxDMA.h **** 
 230:Generated_Source\PSoC4/SPI_RxDMA.h **** /*******************************************************************************
 231:Generated_Source\PSoC4/SPI_RxDMA.h **** * Function Name: SPI_RxDMA_SetConfiguration
 232:Generated_Source\PSoC4/SPI_RxDMA.h **** ********************************************************************************
 233:Generated_Source\PSoC4/SPI_RxDMA.h **** *
 234:Generated_Source\PSoC4/SPI_RxDMA.h **** * Summary:
 235:Generated_Source\PSoC4/SPI_RxDMA.h **** *  Sets configuration information for the specified descriptor.
 236:Generated_Source\PSoC4/SPI_RxDMA.h **** *
 237:Generated_Source\PSoC4/SPI_RxDMA.h **** * Parameters:
 238:Generated_Source\PSoC4/SPI_RxDMA.h **** *  descriptor: Descriptor (0 or 1) modified by this function.
 239:Generated_Source\PSoC4/SPI_RxDMA.h **** *  config: Pointer to a configuration structure. Refer to cydma_init_struct
 240:Generated_Source\PSoC4/SPI_RxDMA.h **** *          structure definition in CyDMA_P4.h or the component datasheet.
 241:Generated_Source\PSoC4/SPI_RxDMA.h **** *                   
 242:Generated_Source\PSoC4/SPI_RxDMA.h **** * Return:
 243:Generated_Source\PSoC4/SPI_RxDMA.h **** *  None.
 244:Generated_Source\PSoC4/SPI_RxDMA.h **** *
 245:Generated_Source\PSoC4/SPI_RxDMA.h **** * Side effect:
 246:Generated_Source\PSoC4/SPI_RxDMA.h **** *  The status register associated with the specified descriptor is reset to
 247:Generated_Source\PSoC4/SPI_RxDMA.h **** *  zero after this function call. This function also validates the descriptor.
 248:Generated_Source\PSoC4/SPI_RxDMA.h **** *  This function should not be called while the descriptor is active.
 249:Generated_Source\PSoC4/SPI_RxDMA.h **** *  This can be checked by calling CyDmaGetStatus().
 250:Generated_Source\PSoC4/SPI_RxDMA.h **** *
 251:Generated_Source\PSoC4/SPI_RxDMA.h **** *******************************************************************************/
 252:Generated_Source\PSoC4/SPI_RxDMA.h **** static CY_INLINE void SPI_RxDMA_SetConfiguration(int32 descriptor, const cydma_init_struct * config
 253:Generated_Source\PSoC4/SPI_RxDMA.h **** {
 254:Generated_Source\PSoC4/SPI_RxDMA.h ****     CyDmaSetConfiguration(SPI_RxDMA_CHANNEL, descriptor, config);
 255:Generated_Source\PSoC4/SPI_RxDMA.h **** }
 256:Generated_Source\PSoC4/SPI_RxDMA.h **** 
 257:Generated_Source\PSoC4/SPI_RxDMA.h **** 
 258:Generated_Source\PSoC4/SPI_RxDMA.h **** /*******************************************************************************
 259:Generated_Source\PSoC4/SPI_RxDMA.h **** * Function Name: SPI_RxDMA_ValidateDescriptor
 260:Generated_Source\PSoC4/SPI_RxDMA.h **** ********************************************************************************
ARM GAS  C:\Users\psmus\AppData\Local\Temp\cc7FfqyC.s 			page 8


 261:Generated_Source\PSoC4/SPI_RxDMA.h **** *
 262:Generated_Source\PSoC4/SPI_RxDMA.h **** * Summary:
 263:Generated_Source\PSoC4/SPI_RxDMA.h **** *  Validates the specified descriptor after it has been invalidated.
 264:Generated_Source\PSoC4/SPI_RxDMA.h **** *
 265:Generated_Source\PSoC4/SPI_RxDMA.h **** * Parameters:
 266:Generated_Source\PSoC4/SPI_RxDMA.h **** *  descriptor: Descriptor (0 or 1) modified by this function.
 267:Generated_Source\PSoC4/SPI_RxDMA.h **** *                   
 268:Generated_Source\PSoC4/SPI_RxDMA.h **** * Return:
 269:Generated_Source\PSoC4/SPI_RxDMA.h **** *  None. 
 270:Generated_Source\PSoC4/SPI_RxDMA.h **** *
 271:Generated_Source\PSoC4/SPI_RxDMA.h **** * Side effect:
 272:Generated_Source\PSoC4/SPI_RxDMA.h **** *  The status register associated with the specified descriptor is reset to
 273:Generated_Source\PSoC4/SPI_RxDMA.h **** *  zero after this function call. This function should not be called while the
 274:Generated_Source\PSoC4/SPI_RxDMA.h **** *  descriptor is active. This can be checked by calling CyDmaGetStatus().
 275:Generated_Source\PSoC4/SPI_RxDMA.h **** *
 276:Generated_Source\PSoC4/SPI_RxDMA.h **** *******************************************************************************/
 277:Generated_Source\PSoC4/SPI_RxDMA.h **** static CY_INLINE void SPI_RxDMA_ValidateDescriptor(int32 descriptor)
 278:Generated_Source\PSoC4/SPI_RxDMA.h **** {
 279:Generated_Source\PSoC4/SPI_RxDMA.h ****     CyDmaValidateDescriptor(SPI_RxDMA_CHANNEL, descriptor);
 280:Generated_Source\PSoC4/SPI_RxDMA.h **** }
 281:Generated_Source\PSoC4/SPI_RxDMA.h **** 
 282:Generated_Source\PSoC4/SPI_RxDMA.h **** 
 283:Generated_Source\PSoC4/SPI_RxDMA.h **** /*******************************************************************************
 284:Generated_Source\PSoC4/SPI_RxDMA.h **** * Function Name: SPI_RxDMA_GetDescriptorStatus
 285:Generated_Source\PSoC4/SPI_RxDMA.h **** ********************************************************************************
 286:Generated_Source\PSoC4/SPI_RxDMA.h **** *
 287:Generated_Source\PSoC4/SPI_RxDMA.h **** * Summary:
 288:Generated_Source\PSoC4/SPI_RxDMA.h **** *  Returns the status of the specified descriptor.
 289:Generated_Source\PSoC4/SPI_RxDMA.h **** *
 290:Generated_Source\PSoC4/SPI_RxDMA.h **** * Parameters:
 291:Generated_Source\PSoC4/SPI_RxDMA.h **** *  descriptor: Descriptor (0 or 1) modified by this function.
 292:Generated_Source\PSoC4/SPI_RxDMA.h **** *                   
 293:Generated_Source\PSoC4/SPI_RxDMA.h **** * Return:
 294:Generated_Source\PSoC4/SPI_RxDMA.h **** *  Returns the contents of the specified descriptors status register. Refer to 
 295:Generated_Source\PSoC4/SPI_RxDMA.h **** *  descriptor status register bit definitions in CyDMA_P4.h or the API
 296:Generated_Source\PSoC4/SPI_RxDMA.h **** *  description in the DMA channel datasheet for more information.
 297:Generated_Source\PSoC4/SPI_RxDMA.h **** *
 298:Generated_Source\PSoC4/SPI_RxDMA.h **** *******************************************************************************/
 299:Generated_Source\PSoC4/SPI_RxDMA.h **** static CY_INLINE uint32 SPI_RxDMA_GetDescriptorStatus(int32 descriptor)
 300:Generated_Source\PSoC4/SPI_RxDMA.h **** {
 301:Generated_Source\PSoC4/SPI_RxDMA.h ****     return (CyDmaGetDescriptorStatus(SPI_RxDMA_CHANNEL, descriptor));
 302:Generated_Source\PSoC4/SPI_RxDMA.h **** }
 303:Generated_Source\PSoC4/SPI_RxDMA.h **** 
 304:Generated_Source\PSoC4/SPI_RxDMA.h **** 
 305:Generated_Source\PSoC4/SPI_RxDMA.h **** /*******************************************************************************
 306:Generated_Source\PSoC4/SPI_RxDMA.h **** * Function Name: SPI_RxDMA_SetSrcAddress
 307:Generated_Source\PSoC4/SPI_RxDMA.h **** ********************************************************************************
 308:Generated_Source\PSoC4/SPI_RxDMA.h **** *
 309:Generated_Source\PSoC4/SPI_RxDMA.h **** * Summary:
 310:Generated_Source\PSoC4/SPI_RxDMA.h **** *  Configures the source address for the specified descriptor.
 311:Generated_Source\PSoC4/SPI_RxDMA.h **** *
 312:Generated_Source\PSoC4/SPI_RxDMA.h **** * Parameters:
 313:Generated_Source\PSoC4/SPI_RxDMA.h **** *  descriptor: Descriptor (0 or 1) modified by this function.
 314:Generated_Source\PSoC4/SPI_RxDMA.h **** *  srcAddress: Address of DMA transfer source.
 315:Generated_Source\PSoC4/SPI_RxDMA.h **** *                   
 316:Generated_Source\PSoC4/SPI_RxDMA.h **** * Return:
 317:Generated_Source\PSoC4/SPI_RxDMA.h **** *  None.
ARM GAS  C:\Users\psmus\AppData\Local\Temp\cc7FfqyC.s 			page 9


 318:Generated_Source\PSoC4/SPI_RxDMA.h **** *
 319:Generated_Source\PSoC4/SPI_RxDMA.h **** * Side effect:
 320:Generated_Source\PSoC4/SPI_RxDMA.h **** *  This function should not be called when the specified descriptor is active
 321:Generated_Source\PSoC4/SPI_RxDMA.h **** *  in the DMA transfer engine. This can be checked by calling CyDmaGetStatus(). 
 322:Generated_Source\PSoC4/SPI_RxDMA.h **** *
 323:Generated_Source\PSoC4/SPI_RxDMA.h **** *******************************************************************************/
 324:Generated_Source\PSoC4/SPI_RxDMA.h **** static CY_INLINE void SPI_RxDMA_SetSrcAddress(int32 descriptor, void * srcAddress)
 325:Generated_Source\PSoC4/SPI_RxDMA.h **** {
 326:Generated_Source\PSoC4/SPI_RxDMA.h ****     CyDmaSetSrcAddress(SPI_RxDMA_CHANNEL, descriptor, srcAddress);
 327:Generated_Source\PSoC4/SPI_RxDMA.h **** }
 328:Generated_Source\PSoC4/SPI_RxDMA.h **** 
 329:Generated_Source\PSoC4/SPI_RxDMA.h **** 
 330:Generated_Source\PSoC4/SPI_RxDMA.h **** /*******************************************************************************
 331:Generated_Source\PSoC4/SPI_RxDMA.h **** * Function Name: SPI_RxDMA_GetSrcAddress
 332:Generated_Source\PSoC4/SPI_RxDMA.h **** ********************************************************************************
 333:Generated_Source\PSoC4/SPI_RxDMA.h **** *
 334:Generated_Source\PSoC4/SPI_RxDMA.h **** * Summary:
 335:Generated_Source\PSoC4/SPI_RxDMA.h **** *  Returns the source address for the specified descriptor, set by either 
 336:Generated_Source\PSoC4/SPI_RxDMA.h **** *  SPI_RxDMA_Start() or SPI_RxDMA_SetSrcAddress().
 337:Generated_Source\PSoC4/SPI_RxDMA.h **** *
 338:Generated_Source\PSoC4/SPI_RxDMA.h **** * Parameters:
 339:Generated_Source\PSoC4/SPI_RxDMA.h **** *  descriptor: Specifies descriptor (0 or 1) used by this function.
 340:Generated_Source\PSoC4/SPI_RxDMA.h **** *                   
 341:Generated_Source\PSoC4/SPI_RxDMA.h **** * Return:
 342:Generated_Source\PSoC4/SPI_RxDMA.h **** *  Source address written to specified descriptor.
 343:Generated_Source\PSoC4/SPI_RxDMA.h **** *
 344:Generated_Source\PSoC4/SPI_RxDMA.h **** *******************************************************************************/
 345:Generated_Source\PSoC4/SPI_RxDMA.h **** static CY_INLINE void * SPI_RxDMA_GetSrcAddress(int32 descriptor)
 346:Generated_Source\PSoC4/SPI_RxDMA.h **** {
 347:Generated_Source\PSoC4/SPI_RxDMA.h ****     return (CyDmaGetSrcAddress(SPI_RxDMA_CHANNEL, descriptor));
 348:Generated_Source\PSoC4/SPI_RxDMA.h **** }
 349:Generated_Source\PSoC4/SPI_RxDMA.h **** 
 350:Generated_Source\PSoC4/SPI_RxDMA.h **** 
 351:Generated_Source\PSoC4/SPI_RxDMA.h **** /*******************************************************************************
 352:Generated_Source\PSoC4/SPI_RxDMA.h **** * Function Name: SPI_RxDMA_SetDstAddress
 353:Generated_Source\PSoC4/SPI_RxDMA.h **** ********************************************************************************
 354:Generated_Source\PSoC4/SPI_RxDMA.h **** *
 355:Generated_Source\PSoC4/SPI_RxDMA.h **** * Summary:
 356:Generated_Source\PSoC4/SPI_RxDMA.h **** *  Configures the destination address for the specified descriptor.
 357:Generated_Source\PSoC4/SPI_RxDMA.h **** *
 358:Generated_Source\PSoC4/SPI_RxDMA.h **** * Parameters:
 359:Generated_Source\PSoC4/SPI_RxDMA.h **** *  descriptor: Descriptor (0 or 1) modified by this function.
 360:Generated_Source\PSoC4/SPI_RxDMA.h **** *  dstAddress: Address of DMA transfer destination.
 361:Generated_Source\PSoC4/SPI_RxDMA.h **** *                   
 362:Generated_Source\PSoC4/SPI_RxDMA.h **** * Return:
 363:Generated_Source\PSoC4/SPI_RxDMA.h **** *  None.
 364:Generated_Source\PSoC4/SPI_RxDMA.h **** *
 365:Generated_Source\PSoC4/SPI_RxDMA.h **** * Side effect:
 366:Generated_Source\PSoC4/SPI_RxDMA.h **** *  This function should not be called when the specified descriptor is active
 367:Generated_Source\PSoC4/SPI_RxDMA.h **** *  in the DMA transfer engine. This can be checked by calling CyDmaGetStatus(). 
 368:Generated_Source\PSoC4/SPI_RxDMA.h **** *
 369:Generated_Source\PSoC4/SPI_RxDMA.h **** *******************************************************************************/
 370:Generated_Source\PSoC4/SPI_RxDMA.h **** static CY_INLINE void SPI_RxDMA_SetDstAddress(int32 descriptor, void * dstAddress)
 371:Generated_Source\PSoC4/SPI_RxDMA.h **** {
 372:Generated_Source\PSoC4/SPI_RxDMA.h ****     CyDmaSetDstAddress(SPI_RxDMA_CHANNEL, descriptor, dstAddress);
 373:Generated_Source\PSoC4/SPI_RxDMA.h **** }
 374:Generated_Source\PSoC4/SPI_RxDMA.h **** 
ARM GAS  C:\Users\psmus\AppData\Local\Temp\cc7FfqyC.s 			page 10


 375:Generated_Source\PSoC4/SPI_RxDMA.h **** 
 376:Generated_Source\PSoC4/SPI_RxDMA.h **** /*******************************************************************************
 377:Generated_Source\PSoC4/SPI_RxDMA.h **** * Function Name: SPI_RxDMA_GetDstAddress
 378:Generated_Source\PSoC4/SPI_RxDMA.h **** ********************************************************************************
 379:Generated_Source\PSoC4/SPI_RxDMA.h **** *
 380:Generated_Source\PSoC4/SPI_RxDMA.h **** * Summary:
 381:Generated_Source\PSoC4/SPI_RxDMA.h **** *  Returns the destination address for the specified descriptor, set by either 
 382:Generated_Source\PSoC4/SPI_RxDMA.h **** *  SPI_RxDMA_Start() or SPI_RxDMA_SetDstAddress().
 383:Generated_Source\PSoC4/SPI_RxDMA.h **** *
 384:Generated_Source\PSoC4/SPI_RxDMA.h **** * Parameters:
 385:Generated_Source\PSoC4/SPI_RxDMA.h **** *  descriptor: Specifies descriptor (0 or 1) used by this function.
 386:Generated_Source\PSoC4/SPI_RxDMA.h **** *                   
 387:Generated_Source\PSoC4/SPI_RxDMA.h **** * Return:
 388:Generated_Source\PSoC4/SPI_RxDMA.h **** *  Destination address written to specified descriptor.
 389:Generated_Source\PSoC4/SPI_RxDMA.h **** *
 390:Generated_Source\PSoC4/SPI_RxDMA.h **** *******************************************************************************/
 391:Generated_Source\PSoC4/SPI_RxDMA.h **** static CY_INLINE void * SPI_RxDMA_GetDstAddress(int32 descriptor)
 392:Generated_Source\PSoC4/SPI_RxDMA.h **** {
 393:Generated_Source\PSoC4/SPI_RxDMA.h ****     return (CyDmaGetDstAddress(SPI_RxDMA_CHANNEL, descriptor));
 394:Generated_Source\PSoC4/SPI_RxDMA.h **** }
 395:Generated_Source\PSoC4/SPI_RxDMA.h **** 
 396:Generated_Source\PSoC4/SPI_RxDMA.h **** 
 397:Generated_Source\PSoC4/SPI_RxDMA.h **** /*******************************************************************************
 398:Generated_Source\PSoC4/SPI_RxDMA.h **** * Function Name: SPI_RxDMA_SetDataElementSize
 399:Generated_Source\PSoC4/SPI_RxDMA.h **** ********************************************************************************
 400:Generated_Source\PSoC4/SPI_RxDMA.h **** *
 401:Generated_Source\PSoC4/SPI_RxDMA.h **** * Summary:
 402:Generated_Source\PSoC4/SPI_RxDMA.h **** *  Sets the data element size for the specified descriptor.
 403:Generated_Source\PSoC4/SPI_RxDMA.h **** *
 404:Generated_Source\PSoC4/SPI_RxDMA.h **** * Parameters:
 405:Generated_Source\PSoC4/SPI_RxDMA.h **** *  descriptor:      Descriptor (0 or 1) modified by this function.
 406:Generated_Source\PSoC4/SPI_RxDMA.h **** *  dataElementSize: Specifies the size of the data element. The DMA transfer
 407:Generated_Source\PSoC4/SPI_RxDMA.h **** *                   engine transfers one data element at a time. How these
 408:Generated_Source\PSoC4/SPI_RxDMA.h **** *                   transfers occur is controlled by the transfer mode.
 409:Generated_Source\PSoC4/SPI_RxDMA.h **** *                   Refer to the API bit field definitions in CyDMA_P4.h or API
 410:Generated_Source\PSoC4/SPI_RxDMA.h **** *                   description in the DMA channel datasheet for the parameter
 411:Generated_Source\PSoC4/SPI_RxDMA.h **** *                   options.
 412:Generated_Source\PSoC4/SPI_RxDMA.h **** *
 413:Generated_Source\PSoC4/SPI_RxDMA.h **** * Return:
 414:Generated_Source\PSoC4/SPI_RxDMA.h **** *  None.
 415:Generated_Source\PSoC4/SPI_RxDMA.h **** *
 416:Generated_Source\PSoC4/SPI_RxDMA.h **** * Side effect:
 417:Generated_Source\PSoC4/SPI_RxDMA.h **** *  This function should not be called when the specified descriptor is active
 418:Generated_Source\PSoC4/SPI_RxDMA.h **** *  in the DMA transfer engine. This can be checked by calling CyDmaGetStatus(). 
 419:Generated_Source\PSoC4/SPI_RxDMA.h **** *
 420:Generated_Source\PSoC4/SPI_RxDMA.h **** *******************************************************************************/
 421:Generated_Source\PSoC4/SPI_RxDMA.h **** static CY_INLINE void SPI_RxDMA_SetDataElementSize(int32 descriptor, uint32 dataElementSize)
 422:Generated_Source\PSoC4/SPI_RxDMA.h **** {
 423:Generated_Source\PSoC4/SPI_RxDMA.h ****     CyDmaSetDataElementSize(SPI_RxDMA_CHANNEL, descriptor, dataElementSize);
 424:Generated_Source\PSoC4/SPI_RxDMA.h **** }
 425:Generated_Source\PSoC4/SPI_RxDMA.h **** 
 426:Generated_Source\PSoC4/SPI_RxDMA.h **** 
 427:Generated_Source\PSoC4/SPI_RxDMA.h **** /*******************************************************************************
 428:Generated_Source\PSoC4/SPI_RxDMA.h **** * Function Name: SPI_RxDMA_GetDataElementSize
 429:Generated_Source\PSoC4/SPI_RxDMA.h **** ********************************************************************************
 430:Generated_Source\PSoC4/SPI_RxDMA.h **** *
 431:Generated_Source\PSoC4/SPI_RxDMA.h **** * Summary:
ARM GAS  C:\Users\psmus\AppData\Local\Temp\cc7FfqyC.s 			page 11


 432:Generated_Source\PSoC4/SPI_RxDMA.h **** *  Returns the data element size configured for the specified descriptor, set by
 433:Generated_Source\PSoC4/SPI_RxDMA.h **** *  SPI_RxDMA_SetDataElementSize() or SPI_RxDMA_SetConfiguration().
 434:Generated_Source\PSoC4/SPI_RxDMA.h **** *
 435:Generated_Source\PSoC4/SPI_RxDMA.h **** * Parameters:
 436:Generated_Source\PSoC4/SPI_RxDMA.h **** *  descriptor: Descriptor (0 or 1) modified by this function.
 437:Generated_Source\PSoC4/SPI_RxDMA.h **** *                   
 438:Generated_Source\PSoC4/SPI_RxDMA.h **** * Return:
 439:Generated_Source\PSoC4/SPI_RxDMA.h **** *  The size of the data element. The DMA transfer engine transfers one data
 440:Generated_Source\PSoC4/SPI_RxDMA.h **** *  element at a time. How these transfers occur is controlled by the transfer
 441:Generated_Source\PSoC4/SPI_RxDMA.h **** *  mode. Refer to the API bit field definitions in CyDMA_P4.h or the API 
 442:Generated_Source\PSoC4/SPI_RxDMA.h **** *  description in the DMA channel datasheet for more information.
 443:Generated_Source\PSoC4/SPI_RxDMA.h **** *
 444:Generated_Source\PSoC4/SPI_RxDMA.h **** * Note:
 445:Generated_Source\PSoC4/SPI_RxDMA.h **** *  The size of the source and destination can be configured to use the
 446:Generated_Source\PSoC4/SPI_RxDMA.h **** *  data element size, or a Word, this is set in SPI_RxDMA_SetSrcDstTransferWidth().
 447:Generated_Source\PSoC4/SPI_RxDMA.h **** *
 448:Generated_Source\PSoC4/SPI_RxDMA.h **** *******************************************************************************/
 449:Generated_Source\PSoC4/SPI_RxDMA.h **** static CY_INLINE uint32 SPI_RxDMA_GetDataElementSize(int32 descriptor)
 450:Generated_Source\PSoC4/SPI_RxDMA.h **** {
 451:Generated_Source\PSoC4/SPI_RxDMA.h ****     return (CyDmaGetDataElementSize(SPI_RxDMA_CHANNEL, descriptor));
 452:Generated_Source\PSoC4/SPI_RxDMA.h **** }
 453:Generated_Source\PSoC4/SPI_RxDMA.h **** 
 454:Generated_Source\PSoC4/SPI_RxDMA.h **** 
 455:Generated_Source\PSoC4/SPI_RxDMA.h **** /*******************************************************************************
 456:Generated_Source\PSoC4/SPI_RxDMA.h **** * Function Name: SPI_RxDMA_SetNumDataElements
 457:Generated_Source\PSoC4/SPI_RxDMA.h **** ********************************************************************************
 458:Generated_Source\PSoC4/SPI_RxDMA.h **** *
 459:Generated_Source\PSoC4/SPI_RxDMA.h **** * Summary:
 460:Generated_Source\PSoC4/SPI_RxDMA.h **** *  Sets the number of data elements to transfer for specified descriptor.
 461:Generated_Source\PSoC4/SPI_RxDMA.h **** *
 462:Generated_Source\PSoC4/SPI_RxDMA.h **** * Parameters:
 463:Generated_Source\PSoC4/SPI_RxDMA.h **** *  descriptor:      Descriptor (0 or 1) modified by this function.
 464:Generated_Source\PSoC4/SPI_RxDMA.h **** *  numDataElements: Total number of data elements this descriptor transfers.
 465:Generated_Source\PSoC4/SPI_RxDMA.h **** *                   Valid ranges are 1 to 65536.
 466:Generated_Source\PSoC4/SPI_RxDMA.h **** *                   
 467:Generated_Source\PSoC4/SPI_RxDMA.h **** * Return:
 468:Generated_Source\PSoC4/SPI_RxDMA.h **** *  None.
 469:Generated_Source\PSoC4/SPI_RxDMA.h **** *
 470:Generated_Source\PSoC4/SPI_RxDMA.h **** * Side effect:
 471:Generated_Source\PSoC4/SPI_RxDMA.h **** *  This function should not be called when the specified descriptor is active
 472:Generated_Source\PSoC4/SPI_RxDMA.h **** *  in the DMA transfer engine. This can be checked by calling CyDmaGetStatus(). 
 473:Generated_Source\PSoC4/SPI_RxDMA.h **** *
 474:Generated_Source\PSoC4/SPI_RxDMA.h **** *******************************************************************************/
 475:Generated_Source\PSoC4/SPI_RxDMA.h **** static CY_INLINE void SPI_RxDMA_SetNumDataElements(int32 descriptor, int32 numDataElements)
 476:Generated_Source\PSoC4/SPI_RxDMA.h **** {
 477:Generated_Source\PSoC4/SPI_RxDMA.h ****     CyDmaSetNumDataElements(SPI_RxDMA_CHANNEL, descriptor, numDataElements);
 478:Generated_Source\PSoC4/SPI_RxDMA.h **** }
 479:Generated_Source\PSoC4/SPI_RxDMA.h **** 
 480:Generated_Source\PSoC4/SPI_RxDMA.h **** 
 481:Generated_Source\PSoC4/SPI_RxDMA.h **** /*******************************************************************************
 482:Generated_Source\PSoC4/SPI_RxDMA.h **** * Function Name: SPI_RxDMA_GetNumDataElements
 483:Generated_Source\PSoC4/SPI_RxDMA.h **** ********************************************************************************
 484:Generated_Source\PSoC4/SPI_RxDMA.h **** *
 485:Generated_Source\PSoC4/SPI_RxDMA.h **** * Summary:
 486:Generated_Source\PSoC4/SPI_RxDMA.h **** *  Returns the number of data elements to be transferred. Only reflects the
 487:Generated_Source\PSoC4/SPI_RxDMA.h **** *  value written by SPI_RxDMA_SetNumDataElements() or SPI_RxDMA_SetConfiguration().
 488:Generated_Source\PSoC4/SPI_RxDMA.h **** *  This does not reflect how many elements have been transferred. For that
ARM GAS  C:\Users\psmus\AppData\Local\Temp\cc7FfqyC.s 			page 12


 489:Generated_Source\PSoC4/SPI_RxDMA.h **** *  information use the SPI_RxDMA_GetDescriptorStatus() function.
 490:Generated_Source\PSoC4/SPI_RxDMA.h **** *
 491:Generated_Source\PSoC4/SPI_RxDMA.h **** * Parameters:
 492:Generated_Source\PSoC4/SPI_RxDMA.h **** *  descriptor: Descriptor (0 or 1) modified by this function.
 493:Generated_Source\PSoC4/SPI_RxDMA.h **** *                   
 494:Generated_Source\PSoC4/SPI_RxDMA.h **** * Return:
 495:Generated_Source\PSoC4/SPI_RxDMA.h **** *  Number of data elements to transfer.
 496:Generated_Source\PSoC4/SPI_RxDMA.h **** *
 497:Generated_Source\PSoC4/SPI_RxDMA.h **** *******************************************************************************/
 498:Generated_Source\PSoC4/SPI_RxDMA.h **** static CY_INLINE int32 SPI_RxDMA_GetNumDataElements(int32 descriptor)
 499:Generated_Source\PSoC4/SPI_RxDMA.h **** {
 500:Generated_Source\PSoC4/SPI_RxDMA.h ****     return (CyDmaGetNumDataElements(SPI_RxDMA_CHANNEL, descriptor));
 501:Generated_Source\PSoC4/SPI_RxDMA.h **** }
 502:Generated_Source\PSoC4/SPI_RxDMA.h **** 
 503:Generated_Source\PSoC4/SPI_RxDMA.h **** 
 504:Generated_Source\PSoC4/SPI_RxDMA.h **** /*******************************************************************************
 505:Generated_Source\PSoC4/SPI_RxDMA.h **** * Function Name: SPI_RxDMA_SetSrcDstTransferWidth
 506:Generated_Source\PSoC4/SPI_RxDMA.h **** ********************************************************************************
 507:Generated_Source\PSoC4/SPI_RxDMA.h **** *
 508:Generated_Source\PSoC4/SPI_RxDMA.h **** * Summary:
 509:Generated_Source\PSoC4/SPI_RxDMA.h **** *  Sets the width of the source and destination. The DMA can either read and
 510:Generated_Source\PSoC4/SPI_RxDMA.h **** *  write data from the source and destination at the size specified by
 511:Generated_Source\PSoC4/SPI_RxDMA.h **** *  SPI_RxDMA_SetDataElementSize() or by a word (4bytes). This also determines how
 512:Generated_Source\PSoC4/SPI_RxDMA.h **** *  many bytes the addresses are incremented if increment source and destination
 513:Generated_Source\PSoC4/SPI_RxDMA.h **** *  address are turned on.
 514:Generated_Source\PSoC4/SPI_RxDMA.h **** *
 515:Generated_Source\PSoC4/SPI_RxDMA.h **** * Parameters:
 516:Generated_Source\PSoC4/SPI_RxDMA.h **** *  descriptor:    Descriptor (0 or 1) modified by this function.
 517:Generated_Source\PSoC4/SPI_RxDMA.h **** *  transferWidth: Specifies the source and destination widths. Refer to the API
 518:Generated_Source\PSoC4/SPI_RxDMA.h **** *                 bit field definitions in CyDMA_P4.h or the API description in
 519:Generated_Source\PSoC4/SPI_RxDMA.h **** *                 the DMA channel datasheet for the parameter options.
 520:Generated_Source\PSoC4/SPI_RxDMA.h **** *                   
 521:Generated_Source\PSoC4/SPI_RxDMA.h **** * Return:
 522:Generated_Source\PSoC4/SPI_RxDMA.h **** *  None.
 523:Generated_Source\PSoC4/SPI_RxDMA.h **** *
 524:Generated_Source\PSoC4/SPI_RxDMA.h **** * Side effect:
 525:Generated_Source\PSoC4/SPI_RxDMA.h **** *  This function should not be called when the specified descriptor is active
 526:Generated_Source\PSoC4/SPI_RxDMA.h **** *  in the DMA transfer engine. This can be checked by calling CyDmaGetStatus(). 
 527:Generated_Source\PSoC4/SPI_RxDMA.h **** *
 528:Generated_Source\PSoC4/SPI_RxDMA.h **** *******************************************************************************/
 529:Generated_Source\PSoC4/SPI_RxDMA.h **** static CY_INLINE void SPI_RxDMA_SetSrcDstTransferWidth(int32 descriptor, uint32 transferWidth)
 530:Generated_Source\PSoC4/SPI_RxDMA.h **** {
 531:Generated_Source\PSoC4/SPI_RxDMA.h ****     CyDmaSetSrcDstTransferWidth(SPI_RxDMA_CHANNEL, descriptor, transferWidth);
 532:Generated_Source\PSoC4/SPI_RxDMA.h **** }
 533:Generated_Source\PSoC4/SPI_RxDMA.h **** 
 534:Generated_Source\PSoC4/SPI_RxDMA.h **** 
 535:Generated_Source\PSoC4/SPI_RxDMA.h **** /*******************************************************************************
 536:Generated_Source\PSoC4/SPI_RxDMA.h **** * Function Name: SPI_RxDMA_GetSrcDstTransferWidth
 537:Generated_Source\PSoC4/SPI_RxDMA.h **** ********************************************************************************
 538:Generated_Source\PSoC4/SPI_RxDMA.h **** *
 539:Generated_Source\PSoC4/SPI_RxDMA.h **** * Summary:
 540:Generated_Source\PSoC4/SPI_RxDMA.h **** *  Returns the width of the source and destination, as set by 
 541:Generated_Source\PSoC4/SPI_RxDMA.h **** *  SPI_RxDMA_SetSrcDstTransferWidth() or SPI_RxDMA_SetConfiguration().
 542:Generated_Source\PSoC4/SPI_RxDMA.h **** *
 543:Generated_Source\PSoC4/SPI_RxDMA.h **** * Parameters:
 544:Generated_Source\PSoC4/SPI_RxDMA.h **** *  descriptor: Descriptor (0 or 1) modified by this function.
 545:Generated_Source\PSoC4/SPI_RxDMA.h **** *                   
ARM GAS  C:\Users\psmus\AppData\Local\Temp\cc7FfqyC.s 			page 13


 546:Generated_Source\PSoC4/SPI_RxDMA.h **** * Return:
 547:Generated_Source\PSoC4/SPI_RxDMA.h **** *  Width of source and destination. Refer to the API bit field definitions in
 548:Generated_Source\PSoC4/SPI_RxDMA.h **** *  CyDMA_P4.h or the API description in the DMA channel datasheet for more
 549:Generated_Source\PSoC4/SPI_RxDMA.h **** *  information.
 550:Generated_Source\PSoC4/SPI_RxDMA.h **** *
 551:Generated_Source\PSoC4/SPI_RxDMA.h **** *******************************************************************************/
 552:Generated_Source\PSoC4/SPI_RxDMA.h **** static CY_INLINE uint32 SPI_RxDMA_GetSrcDstTransferWidth(int32 descriptor)
 553:Generated_Source\PSoC4/SPI_RxDMA.h **** {
 554:Generated_Source\PSoC4/SPI_RxDMA.h ****     return (CyDmaGetSrcDstTransferWidth(SPI_RxDMA_CHANNEL, descriptor));
 555:Generated_Source\PSoC4/SPI_RxDMA.h **** }
 556:Generated_Source\PSoC4/SPI_RxDMA.h **** 
 557:Generated_Source\PSoC4/SPI_RxDMA.h **** 
 558:Generated_Source\PSoC4/SPI_RxDMA.h **** /*******************************************************************************
 559:Generated_Source\PSoC4/SPI_RxDMA.h **** * Function Name: SPI_RxDMA_SetAddressIncrement
 560:Generated_Source\PSoC4/SPI_RxDMA.h **** ********************************************************************************
 561:Generated_Source\PSoC4/SPI_RxDMA.h **** *
 562:Generated_Source\PSoC4/SPI_RxDMA.h **** * Summary:
 563:Generated_Source\PSoC4/SPI_RxDMA.h **** *  Sets whether the source or destination addresses are incremented after the
 564:Generated_Source\PSoC4/SPI_RxDMA.h **** *  transfer of each data element. The amount that the source and destination
 565:Generated_Source\PSoC4/SPI_RxDMA.h **** *  address are incremented is determined by the SPI_RxDMA_SetSrcDstTransferWidth()
 566:Generated_Source\PSoC4/SPI_RxDMA.h **** *  function. The addresses will either be incremented by the data element size
 567:Generated_Source\PSoC4/SPI_RxDMA.h **** *  or by a word (4 bytes).
 568:Generated_Source\PSoC4/SPI_RxDMA.h **** *
 569:Generated_Source\PSoC4/SPI_RxDMA.h **** * Parameters:
 570:Generated_Source\PSoC4/SPI_RxDMA.h **** *  descriptor:       Descriptor (0 or 1) modified by this function.
 571:Generated_Source\PSoC4/SPI_RxDMA.h **** *  addressIncrement: Address increment settings. Refer to the API bit field
 572:Generated_Source\PSoC4/SPI_RxDMA.h **** *                    definitions in CyDMA_P4.h or the API description in the DMA
 573:Generated_Source\PSoC4/SPI_RxDMA.h **** *                    channel datasheet for the parameter options.
 574:Generated_Source\PSoC4/SPI_RxDMA.h **** *    
 575:Generated_Source\PSoC4/SPI_RxDMA.h **** * Return:
 576:Generated_Source\PSoC4/SPI_RxDMA.h **** *  None.
 577:Generated_Source\PSoC4/SPI_RxDMA.h **** *
 578:Generated_Source\PSoC4/SPI_RxDMA.h **** * Side effect:
 579:Generated_Source\PSoC4/SPI_RxDMA.h **** *  This function should not be called when the specified descriptor is active
 580:Generated_Source\PSoC4/SPI_RxDMA.h **** *  in the DMA transfer engine. This can be checked by calling CyDmaGetStatus(). 
 581:Generated_Source\PSoC4/SPI_RxDMA.h **** *
 582:Generated_Source\PSoC4/SPI_RxDMA.h **** *******************************************************************************/
 583:Generated_Source\PSoC4/SPI_RxDMA.h **** static CY_INLINE void SPI_RxDMA_SetAddressIncrement(int32 descriptor, uint32 addressIncrement)
 584:Generated_Source\PSoC4/SPI_RxDMA.h **** {
 585:Generated_Source\PSoC4/SPI_RxDMA.h ****     CyDmaSetAddressIncrement(SPI_RxDMA_CHANNEL, descriptor, addressIncrement);
 586:Generated_Source\PSoC4/SPI_RxDMA.h **** }
 587:Generated_Source\PSoC4/SPI_RxDMA.h **** 
 588:Generated_Source\PSoC4/SPI_RxDMA.h **** 
 589:Generated_Source\PSoC4/SPI_RxDMA.h **** /*******************************************************************************
 590:Generated_Source\PSoC4/SPI_RxDMA.h **** * Function Name: SPI_RxDMA_GetAddressIncrement
 591:Generated_Source\PSoC4/SPI_RxDMA.h **** ********************************************************************************
 592:Generated_Source\PSoC4/SPI_RxDMA.h **** *
 593:Generated_Source\PSoC4/SPI_RxDMA.h **** * Summary:
 594:Generated_Source\PSoC4/SPI_RxDMA.h **** *  Returns address increment settings as set by SPI_RxDMA_SetAddressIncrement()
 595:Generated_Source\PSoC4/SPI_RxDMA.h **** *  or SPI_RxDMA_SetConfiguration().
 596:Generated_Source\PSoC4/SPI_RxDMA.h **** *
 597:Generated_Source\PSoC4/SPI_RxDMA.h **** * Parameters:
 598:Generated_Source\PSoC4/SPI_RxDMA.h **** *  descriptor: Descriptor (0 or 1) modified by this function.
 599:Generated_Source\PSoC4/SPI_RxDMA.h **** *                   
 600:Generated_Source\PSoC4/SPI_RxDMA.h **** * Return:
 601:Generated_Source\PSoC4/SPI_RxDMA.h **** *  Address increment settings. Refer to the API bit field definitions in
 602:Generated_Source\PSoC4/SPI_RxDMA.h **** *  CyDMA_P4.h or the API description in the DMA channel datasheet for more
ARM GAS  C:\Users\psmus\AppData\Local\Temp\cc7FfqyC.s 			page 14


 603:Generated_Source\PSoC4/SPI_RxDMA.h **** *  information.
 604:Generated_Source\PSoC4/SPI_RxDMA.h **** *
 605:Generated_Source\PSoC4/SPI_RxDMA.h **** *******************************************************************************/
 606:Generated_Source\PSoC4/SPI_RxDMA.h **** static CY_INLINE uint32 SPI_RxDMA_GetAddressIncrement(int32 descriptor)
 607:Generated_Source\PSoC4/SPI_RxDMA.h **** {
 608:Generated_Source\PSoC4/SPI_RxDMA.h ****     return (CyDmaGetAddressIncrement(SPI_RxDMA_CHANNEL, descriptor));
 609:Generated_Source\PSoC4/SPI_RxDMA.h **** }
 610:Generated_Source\PSoC4/SPI_RxDMA.h **** 
 611:Generated_Source\PSoC4/SPI_RxDMA.h **** 
 612:Generated_Source\PSoC4/SPI_RxDMA.h **** /*******************************************************************************
 613:Generated_Source\PSoC4/SPI_RxDMA.h **** * Function Name: SPI_RxDMA_SetTriggerType
 614:Generated_Source\PSoC4/SPI_RxDMA.h **** ********************************************************************************
 615:Generated_Source\PSoC4/SPI_RxDMA.h **** *
 616:Generated_Source\PSoC4/SPI_RxDMA.h **** * Summary:
 617:Generated_Source\PSoC4/SPI_RxDMA.h **** *  Sets the type of input trigger for the DMA For level sensitive triggers sets
 618:Generated_Source\PSoC4/SPI_RxDMA.h **** *  how long the DMA waits for the trigger to go low (deactivate) before
 619:Generated_Source\PSoC4/SPI_RxDMA.h **** *  triggering the channel again.
 620:Generated_Source\PSoC4/SPI_RxDMA.h **** *
 621:Generated_Source\PSoC4/SPI_RxDMA.h **** * Parameters:
 622:Generated_Source\PSoC4/SPI_RxDMA.h **** *  descriptor:  Descriptor (0 or 1) modified by this function.
 623:Generated_Source\PSoC4/SPI_RxDMA.h **** *  triggerType: Type of DMA trigger. Refer to the API bit field definitions in
 624:Generated_Source\PSoC4/SPI_RxDMA.h **** *               CyDMA_P4.h or the API description in the DMA channel datasheet
 625:Generated_Source\PSoC4/SPI_RxDMA.h **** *               for the parameter options.
 626:Generated_Source\PSoC4/SPI_RxDMA.h **** *                   
 627:Generated_Source\PSoC4/SPI_RxDMA.h **** * Return:
 628:Generated_Source\PSoC4/SPI_RxDMA.h **** *  None.
 629:Generated_Source\PSoC4/SPI_RxDMA.h **** *
 630:Generated_Source\PSoC4/SPI_RxDMA.h **** * Side effect:
 631:Generated_Source\PSoC4/SPI_RxDMA.h **** *  This function should not be called when the specified descriptor is active
 632:Generated_Source\PSoC4/SPI_RxDMA.h **** *  in the DMA transfer engine. This can be checked by calling CyDmaGetStatus(). 
 633:Generated_Source\PSoC4/SPI_RxDMA.h **** *
 634:Generated_Source\PSoC4/SPI_RxDMA.h **** *******************************************************************************/
 635:Generated_Source\PSoC4/SPI_RxDMA.h **** static CY_INLINE void SPI_RxDMA_SetTriggerType(int32 descriptor, uint32 triggerType)
 636:Generated_Source\PSoC4/SPI_RxDMA.h **** {
 637:Generated_Source\PSoC4/SPI_RxDMA.h ****     CyDmaSetTriggerType(SPI_RxDMA_CHANNEL, descriptor, triggerType);
 638:Generated_Source\PSoC4/SPI_RxDMA.h **** }
 639:Generated_Source\PSoC4/SPI_RxDMA.h **** 
 640:Generated_Source\PSoC4/SPI_RxDMA.h **** 
 641:Generated_Source\PSoC4/SPI_RxDMA.h **** /*******************************************************************************
 642:Generated_Source\PSoC4/SPI_RxDMA.h **** * Function Name: SPI_RxDMA_GetTriggerType
 643:Generated_Source\PSoC4/SPI_RxDMA.h **** ********************************************************************************
 644:Generated_Source\PSoC4/SPI_RxDMA.h **** *
 645:Generated_Source\PSoC4/SPI_RxDMA.h **** * Summary:
 646:Generated_Source\PSoC4/SPI_RxDMA.h **** *  Returns the trigger deactivation settings as set by SPI_RxDMA_SetTriggerType()
 647:Generated_Source\PSoC4/SPI_RxDMA.h **** *  or SPI_RxDMA_SetConfiguration().
 648:Generated_Source\PSoC4/SPI_RxDMA.h **** *
 649:Generated_Source\PSoC4/SPI_RxDMA.h **** * Parameters:
 650:Generated_Source\PSoC4/SPI_RxDMA.h **** *  descriptor: Descriptor (0 or 1) modified by this function.
 651:Generated_Source\PSoC4/SPI_RxDMA.h **** *                   
 652:Generated_Source\PSoC4/SPI_RxDMA.h **** * Return:
 653:Generated_Source\PSoC4/SPI_RxDMA.h **** *  Trigger deactivation settings. Refer to the API bit field definitions in
 654:Generated_Source\PSoC4/SPI_RxDMA.h **** *  CyDMA_P4.h or the API description in the DMA channel datasheet for more
 655:Generated_Source\PSoC4/SPI_RxDMA.h **** *  information.
 656:Generated_Source\PSoC4/SPI_RxDMA.h **** *
 657:Generated_Source\PSoC4/SPI_RxDMA.h **** *******************************************************************************/
 658:Generated_Source\PSoC4/SPI_RxDMA.h **** static CY_INLINE uint32 SPI_RxDMA_GetTriggerType(int32 descriptor)
 659:Generated_Source\PSoC4/SPI_RxDMA.h **** {
ARM GAS  C:\Users\psmus\AppData\Local\Temp\cc7FfqyC.s 			page 15


 660:Generated_Source\PSoC4/SPI_RxDMA.h ****     return (CyDmaGetTriggerType(SPI_RxDMA_CHANNEL, descriptor));
 661:Generated_Source\PSoC4/SPI_RxDMA.h **** }
 662:Generated_Source\PSoC4/SPI_RxDMA.h **** 
 663:Generated_Source\PSoC4/SPI_RxDMA.h **** 
 664:Generated_Source\PSoC4/SPI_RxDMA.h **** /*******************************************************************************
 665:Generated_Source\PSoC4/SPI_RxDMA.h **** * Function Name: SPI_RxDMA_SetTransferMode
 666:Generated_Source\PSoC4/SPI_RxDMA.h **** ********************************************************************************
 667:Generated_Source\PSoC4/SPI_RxDMA.h **** *
 668:Generated_Source\PSoC4/SPI_RxDMA.h **** * Summary:
 669:Generated_Source\PSoC4/SPI_RxDMA.h **** *  Sets the DMA transfer mode. This determines how the DMA reacts to each trigger
 670:Generated_Source\PSoC4/SPI_RxDMA.h **** *  event.
 671:Generated_Source\PSoC4/SPI_RxDMA.h **** *
 672:Generated_Source\PSoC4/SPI_RxDMA.h **** * Parameters:
 673:Generated_Source\PSoC4/SPI_RxDMA.h **** *  descriptor:   Descriptor (0 or 1) modified by this function.
 674:Generated_Source\PSoC4/SPI_RxDMA.h **** *  transferMode: Specifies the DMA transfer mode settings. Refer to the API bit
 675:Generated_Source\PSoC4/SPI_RxDMA.h **** *                field definitions in CyDMA_P4.h or the API description in the
 676:Generated_Source\PSoC4/SPI_RxDMA.h **** *                DMA channel datasheet for the parameter options.
 677:Generated_Source\PSoC4/SPI_RxDMA.h **** *                   
 678:Generated_Source\PSoC4/SPI_RxDMA.h **** * Return:
 679:Generated_Source\PSoC4/SPI_RxDMA.h **** *  None.
 680:Generated_Source\PSoC4/SPI_RxDMA.h **** *
 681:Generated_Source\PSoC4/SPI_RxDMA.h **** * Side effect:
 682:Generated_Source\PSoC4/SPI_RxDMA.h **** *  This function should not be called when the specified descriptor is active
 683:Generated_Source\PSoC4/SPI_RxDMA.h **** *  in the DMA transfer engine. This can be checked by calling CyDmaGetStatus(). 
 684:Generated_Source\PSoC4/SPI_RxDMA.h **** *
 685:Generated_Source\PSoC4/SPI_RxDMA.h **** *******************************************************************************/
 686:Generated_Source\PSoC4/SPI_RxDMA.h **** static CY_INLINE void SPI_RxDMA_SetTransferMode(int32 descriptor, uint32 transferMode)
 687:Generated_Source\PSoC4/SPI_RxDMA.h **** {
 688:Generated_Source\PSoC4/SPI_RxDMA.h ****     CyDmaSetTransferMode(SPI_RxDMA_CHANNEL, descriptor, transferMode);
 689:Generated_Source\PSoC4/SPI_RxDMA.h **** }
 690:Generated_Source\PSoC4/SPI_RxDMA.h **** 
 691:Generated_Source\PSoC4/SPI_RxDMA.h **** 
 692:Generated_Source\PSoC4/SPI_RxDMA.h **** /*******************************************************************************
 693:Generated_Source\PSoC4/SPI_RxDMA.h **** * Function Name: SPI_RxDMA_GetTransferMode
 694:Generated_Source\PSoC4/SPI_RxDMA.h **** ********************************************************************************
 695:Generated_Source\PSoC4/SPI_RxDMA.h **** *
 696:Generated_Source\PSoC4/SPI_RxDMA.h **** * Summary:
 697:Generated_Source\PSoC4/SPI_RxDMA.h **** *  Returns the transfer mode for the specified descriptor as set by 
 698:Generated_Source\PSoC4/SPI_RxDMA.h **** *  SPI_RxDMA_SetTransferMode() or SPI_RxDMA_SetConfiguration().
 699:Generated_Source\PSoC4/SPI_RxDMA.h **** *
 700:Generated_Source\PSoC4/SPI_RxDMA.h **** * Parameters:
 701:Generated_Source\PSoC4/SPI_RxDMA.h **** *  descriptor: Descriptor (0 or 1) modified by this function.
 702:Generated_Source\PSoC4/SPI_RxDMA.h **** *                   
 703:Generated_Source\PSoC4/SPI_RxDMA.h **** * Return:
 704:Generated_Source\PSoC4/SPI_RxDMA.h **** *  DMA transfer mode settings. Refer to the API bit field definitions in
 705:Generated_Source\PSoC4/SPI_RxDMA.h **** *  CyDMA_P4.h or the API description in the DMA channel datasheet for more
 706:Generated_Source\PSoC4/SPI_RxDMA.h **** *  information.
 707:Generated_Source\PSoC4/SPI_RxDMA.h **** *
 708:Generated_Source\PSoC4/SPI_RxDMA.h **** *******************************************************************************/
 709:Generated_Source\PSoC4/SPI_RxDMA.h **** static CY_INLINE uint32 SPI_RxDMA_GetTransferMode(int32 descriptor)
 710:Generated_Source\PSoC4/SPI_RxDMA.h **** {
 711:Generated_Source\PSoC4/SPI_RxDMA.h ****     return (CyDmaGetTransferMode(SPI_RxDMA_CHANNEL, descriptor));
 712:Generated_Source\PSoC4/SPI_RxDMA.h **** }
 713:Generated_Source\PSoC4/SPI_RxDMA.h **** 
 714:Generated_Source\PSoC4/SPI_RxDMA.h **** 
 715:Generated_Source\PSoC4/SPI_RxDMA.h **** /*******************************************************************************
 716:Generated_Source\PSoC4/SPI_RxDMA.h **** * Function Name: SPI_RxDMA_SetPreemptable
ARM GAS  C:\Users\psmus\AppData\Local\Temp\cc7FfqyC.s 			page 16


 717:Generated_Source\PSoC4/SPI_RxDMA.h **** ********************************************************************************
 718:Generated_Source\PSoC4/SPI_RxDMA.h **** *
 719:Generated_Source\PSoC4/SPI_RxDMA.h **** * Summary:
 720:Generated_Source\PSoC4/SPI_RxDMA.h **** *  Determines if the descriptor is preemptable.
 721:Generated_Source\PSoC4/SPI_RxDMA.h **** *
 722:Generated_Source\PSoC4/SPI_RxDMA.h **** * Parameters:
 723:Generated_Source\PSoC4/SPI_RxDMA.h **** *  descriptor:  Descriptor (0 or 1) modified by this function.
 724:Generated_Source\PSoC4/SPI_RxDMA.h **** *  preemptable: Descriptor preemption settings. Refer to the API bit field
 725:Generated_Source\PSoC4/SPI_RxDMA.h **** *               definitions in CyDMA_P4.h or the API description in the DMA 
 726:Generated_Source\PSoC4/SPI_RxDMA.h **** *               channel datasheet for the parameter options.
 727:Generated_Source\PSoC4/SPI_RxDMA.h **** *                   
 728:Generated_Source\PSoC4/SPI_RxDMA.h **** * Return:
 729:Generated_Source\PSoC4/SPI_RxDMA.h **** *  None.
 730:Generated_Source\PSoC4/SPI_RxDMA.h **** *
 731:Generated_Source\PSoC4/SPI_RxDMA.h **** * Side effect:
 732:Generated_Source\PSoC4/SPI_RxDMA.h **** *  This function should not be called when the specified descriptor is active
 733:Generated_Source\PSoC4/SPI_RxDMA.h **** *  in the DMA transfer engine. This can be checked by calling CyDmaGetStatus(). 
 734:Generated_Source\PSoC4/SPI_RxDMA.h **** *
 735:Generated_Source\PSoC4/SPI_RxDMA.h **** *******************************************************************************/
 736:Generated_Source\PSoC4/SPI_RxDMA.h **** static CY_INLINE void SPI_RxDMA_SetPreemptable(int32 descriptor, uint32 preemptable)
 737:Generated_Source\PSoC4/SPI_RxDMA.h **** {
 738:Generated_Source\PSoC4/SPI_RxDMA.h ****     CyDmaSetPreemptable(SPI_RxDMA_CHANNEL, descriptor, preemptable);
 739:Generated_Source\PSoC4/SPI_RxDMA.h **** }
 740:Generated_Source\PSoC4/SPI_RxDMA.h **** 
 741:Generated_Source\PSoC4/SPI_RxDMA.h **** 
 742:Generated_Source\PSoC4/SPI_RxDMA.h **** /*******************************************************************************
 743:Generated_Source\PSoC4/SPI_RxDMA.h **** * Function Name: SPI_RxDMA_GetPreemptable
 744:Generated_Source\PSoC4/SPI_RxDMA.h **** ********************************************************************************
 745:Generated_Source\PSoC4/SPI_RxDMA.h **** *
 746:Generated_Source\PSoC4/SPI_RxDMA.h **** * Summary:
 747:Generated_Source\PSoC4/SPI_RxDMA.h **** *  Returns whether or not the descriptor is preemptable.
 748:Generated_Source\PSoC4/SPI_RxDMA.h **** *
 749:Generated_Source\PSoC4/SPI_RxDMA.h **** * Parameters:
 750:Generated_Source\PSoC4/SPI_RxDMA.h **** *  descriptor: Descriptor (0 or 1) modified by this function.
 751:Generated_Source\PSoC4/SPI_RxDMA.h **** *                   
 752:Generated_Source\PSoC4/SPI_RxDMA.h **** * Return:
 753:Generated_Source\PSoC4/SPI_RxDMA.h **** *  Descriptor preemption setting. Refer to the API bit field definitions in
 754:Generated_Source\PSoC4/SPI_RxDMA.h **** *  CyDMA_P4.h or the API description in the DMA channel datasheet for more
 755:Generated_Source\PSoC4/SPI_RxDMA.h **** *  information.
 756:Generated_Source\PSoC4/SPI_RxDMA.h **** *
 757:Generated_Source\PSoC4/SPI_RxDMA.h **** *******************************************************************************/
 758:Generated_Source\PSoC4/SPI_RxDMA.h **** static CY_INLINE uint32 SPI_RxDMA_GetPreemptable(int32 descriptor)
 759:Generated_Source\PSoC4/SPI_RxDMA.h **** {
 760:Generated_Source\PSoC4/SPI_RxDMA.h ****     return (CyDmaGetPreemptable(SPI_RxDMA_CHANNEL, descriptor));
 761:Generated_Source\PSoC4/SPI_RxDMA.h **** }
 762:Generated_Source\PSoC4/SPI_RxDMA.h **** 
 763:Generated_Source\PSoC4/SPI_RxDMA.h **** 
 764:Generated_Source\PSoC4/SPI_RxDMA.h **** /*******************************************************************************
 765:Generated_Source\PSoC4/SPI_RxDMA.h **** * Function Name: SPI_RxDMA_SetPostCompletionActions
 766:Generated_Source\PSoC4/SPI_RxDMA.h **** ********************************************************************************
 767:Generated_Source\PSoC4/SPI_RxDMA.h **** *
 768:Generated_Source\PSoC4/SPI_RxDMA.h **** * Summary:
 769:Generated_Source\PSoC4/SPI_RxDMA.h **** *  Determines what occurs after a descriptor completes.
 770:Generated_Source\PSoC4/SPI_RxDMA.h **** *
 771:Generated_Source\PSoC4/SPI_RxDMA.h **** * Parameters:
 772:Generated_Source\PSoC4/SPI_RxDMA.h **** *  descriptor: Descriptor (0 or 1) modified by this function.
 773:Generated_Source\PSoC4/SPI_RxDMA.h **** *  actions:    Specifies descriptor post completion actions. Refer to the API
ARM GAS  C:\Users\psmus\AppData\Local\Temp\cc7FfqyC.s 			page 17


 774:Generated_Source\PSoC4/SPI_RxDMA.h **** *              bit field definitions in CyDMA_P4.h or the API description in the
 775:Generated_Source\PSoC4/SPI_RxDMA.h **** *              DMA channel datasheet for the parameter options.
 776:Generated_Source\PSoC4/SPI_RxDMA.h **** *                   
 777:Generated_Source\PSoC4/SPI_RxDMA.h **** * Return:
 778:Generated_Source\PSoC4/SPI_RxDMA.h **** *  None.  
 779:Generated_Source\PSoC4/SPI_RxDMA.h **** *
 780:Generated_Source\PSoC4/SPI_RxDMA.h **** * Side effect:
 781:Generated_Source\PSoC4/SPI_RxDMA.h **** *  This function should not be called when the specified descriptor is active
 782:Generated_Source\PSoC4/SPI_RxDMA.h **** *  in the DMA transfer engine. This can be checked by calling CyDmaGetStatus(). 
 783:Generated_Source\PSoC4/SPI_RxDMA.h **** *
 784:Generated_Source\PSoC4/SPI_RxDMA.h **** *******************************************************************************/
 785:Generated_Source\PSoC4/SPI_RxDMA.h **** static CY_INLINE void SPI_RxDMA_SetPostCompletionActions(int32 descriptor, uint32 actions)
 786:Generated_Source\PSoC4/SPI_RxDMA.h **** {
 787:Generated_Source\PSoC4/SPI_RxDMA.h ****     CyDmaSetPostCompletionActions(SPI_RxDMA_CHANNEL, descriptor, actions);
 788:Generated_Source\PSoC4/SPI_RxDMA.h **** }
 789:Generated_Source\PSoC4/SPI_RxDMA.h **** 
 790:Generated_Source\PSoC4/SPI_RxDMA.h **** 
 791:Generated_Source\PSoC4/SPI_RxDMA.h **** /*******************************************************************************
 792:Generated_Source\PSoC4/SPI_RxDMA.h **** * Function Name: SPI_RxDMA_GetPostCompletionAction
 793:Generated_Source\PSoC4/SPI_RxDMA.h **** ********************************************************************************
 794:Generated_Source\PSoC4/SPI_RxDMA.h **** *
 795:Generated_Source\PSoC4/SPI_RxDMA.h **** * Summary:
 796:Generated_Source\PSoC4/SPI_RxDMA.h **** *  Returns the post descriptor action settings as set by 
 797:Generated_Source\PSoC4/SPI_RxDMA.h **** *  SPI_RxDMA_SetPostCompletionActions() or SPI_RxDMA_SetConfiguration().
 798:Generated_Source\PSoC4/SPI_RxDMA.h **** *
 799:Generated_Source\PSoC4/SPI_RxDMA.h **** * Parameters:
 800:Generated_Source\PSoC4/SPI_RxDMA.h **** *  descriptor: Descriptor (0 or 1) modified by this function.
 801:Generated_Source\PSoC4/SPI_RxDMA.h **** *                   
 802:Generated_Source\PSoC4/SPI_RxDMA.h **** * Return:
 803:Generated_Source\PSoC4/SPI_RxDMA.h **** *  Post descriptor actions. Refer to the API bit field definitions in CyDMA_P4.h
 804:Generated_Source\PSoC4/SPI_RxDMA.h **** *  or the API description in the DMA channel datasheet for more information.
 805:Generated_Source\PSoC4/SPI_RxDMA.h **** *
 806:Generated_Source\PSoC4/SPI_RxDMA.h **** *******************************************************************************/
 807:Generated_Source\PSoC4/SPI_RxDMA.h **** static CY_INLINE uint32 SPI_RxDMA_GetPostCompletionAction(int32 descriptor)
 808:Generated_Source\PSoC4/SPI_RxDMA.h **** {
 809:Generated_Source\PSoC4/SPI_RxDMA.h ****     return (CyDmaGetPostCompletionActions(SPI_RxDMA_CHANNEL, descriptor));
 810:Generated_Source\PSoC4/SPI_RxDMA.h **** }
 811:Generated_Source\PSoC4/SPI_RxDMA.h **** 
 812:Generated_Source\PSoC4/SPI_RxDMA.h **** 
 813:Generated_Source\PSoC4/SPI_RxDMA.h **** /*******************************************************************************
 814:Generated_Source\PSoC4/SPI_RxDMA.h **** * Function Name: SPI_RxDMA_SetInterruptCallback
 815:Generated_Source\PSoC4/SPI_RxDMA.h **** ********************************************************************************
 816:Generated_Source\PSoC4/SPI_RxDMA.h **** *
 817:Generated_Source\PSoC4/SPI_RxDMA.h **** * Summary:
 818:Generated_Source\PSoC4/SPI_RxDMA.h **** *  Sets a user defined callback function to be called by the DMA interrupt. The
 819:Generated_Source\PSoC4/SPI_RxDMA.h **** *  function should contain code to process the interrupt request for the 
 820:Generated_Source\PSoC4/SPI_RxDMA.h **** *  associated DMA channel.
 821:Generated_Source\PSoC4/SPI_RxDMA.h **** *
 822:Generated_Source\PSoC4/SPI_RxDMA.h **** * Parameters:
 823:Generated_Source\PSoC4/SPI_RxDMA.h **** *  callback: Pointer to the user defined callback function.
 824:Generated_Source\PSoC4/SPI_RxDMA.h **** *
 825:Generated_Source\PSoC4/SPI_RxDMA.h **** * Return:
 826:Generated_Source\PSoC4/SPI_RxDMA.h **** *  Pointer to the function previously set for the specified channel. 
 827:Generated_Source\PSoC4/SPI_RxDMA.h **** *
 828:Generated_Source\PSoC4/SPI_RxDMA.h **** *******************************************************************************/
 829:Generated_Source\PSoC4/SPI_RxDMA.h **** static CY_INLINE cydma_callback_t SPI_RxDMA_SetInterruptCallback(cydma_callback_t callback)
 830:Generated_Source\PSoC4/SPI_RxDMA.h **** {
ARM GAS  C:\Users\psmus\AppData\Local\Temp\cc7FfqyC.s 			page 18


 831:Generated_Source\PSoC4/SPI_RxDMA.h ****     return (CyDmaSetInterruptCallback(SPI_RxDMA_CHANNEL, callback));
  52              		.loc 2 831 0
  53 0014 3149     		ldr	r1, .L2+16
  54 0016 0020     		movs	r0, #0
  55 0018 FFF7FEFF 		bl	CyDmaSetInterruptCallback
  56              	.LVL2:
  57              	.LBE25:
  58              	.LBE24:
  59              	.LBB26:
  60              	.LBB27:
  61              		.file 3 "Generated_Source\\PSoC4/SPI_TxDMA.h"
   1:Generated_Source\PSoC4/SPI_TxDMA.h **** /*******************************************************************************
   2:Generated_Source\PSoC4/SPI_TxDMA.h **** * File Name: SPI_TxDMA.h
   3:Generated_Source\PSoC4/SPI_TxDMA.h **** * Version 1.0
   4:Generated_Source\PSoC4/SPI_TxDMA.h **** *
   5:Generated_Source\PSoC4/SPI_TxDMA.h **** * Description:
   6:Generated_Source\PSoC4/SPI_TxDMA.h **** *  This file provides DMA channel defines and API function definitions.
   7:Generated_Source\PSoC4/SPI_TxDMA.h **** *
   8:Generated_Source\PSoC4/SPI_TxDMA.h **** ********************************************************************************
   9:Generated_Source\PSoC4/SPI_TxDMA.h **** * Copyright 2015, Cypress Semiconductor Corporation. All rights reserved.
  10:Generated_Source\PSoC4/SPI_TxDMA.h **** * You may use this file only in accordance with the license, terms, conditions,
  11:Generated_Source\PSoC4/SPI_TxDMA.h **** * disclaimers, and limitations in the end user license agreement accompanying
  12:Generated_Source\PSoC4/SPI_TxDMA.h **** * the software package with which this file was provided.
  13:Generated_Source\PSoC4/SPI_TxDMA.h **** *******************************************************************************/
  14:Generated_Source\PSoC4/SPI_TxDMA.h **** 
  15:Generated_Source\PSoC4/SPI_TxDMA.h **** #ifndef CY_DMA_CHANNEL_SPI_TxDMA_H
  16:Generated_Source\PSoC4/SPI_TxDMA.h **** #define CY_DMA_CHANNEL_SPI_TxDMA_H
  17:Generated_Source\PSoC4/SPI_TxDMA.h **** 
  18:Generated_Source\PSoC4/SPI_TxDMA.h **** #include "CyDMA.h"
  19:Generated_Source\PSoC4/SPI_TxDMA.h **** 
  20:Generated_Source\PSoC4/SPI_TxDMA.h ****     
  21:Generated_Source\PSoC4/SPI_TxDMA.h **** /***************************************
  22:Generated_Source\PSoC4/SPI_TxDMA.h **** *   Conditional Compilation Parameters
  23:Generated_Source\PSoC4/SPI_TxDMA.h **** ***************************************/
  24:Generated_Source\PSoC4/SPI_TxDMA.h **** 
  25:Generated_Source\PSoC4/SPI_TxDMA.h **** #define SPI_TxDMA_CHANNEL           (SPI_TxDMA__CHANNEL_NUMBER)
  26:Generated_Source\PSoC4/SPI_TxDMA.h **** #define SPI_TxDMA_CHANNEL_MASK      ((uint32)(1UL << SPI_TxDMA_CHANNEL))
  27:Generated_Source\PSoC4/SPI_TxDMA.h **** 
  28:Generated_Source\PSoC4/SPI_TxDMA.h **** 
  29:Generated_Source\PSoC4/SPI_TxDMA.h **** /***************************************
  30:Generated_Source\PSoC4/SPI_TxDMA.h **** *        Function Prototypes
  31:Generated_Source\PSoC4/SPI_TxDMA.h **** ***************************************/
  32:Generated_Source\PSoC4/SPI_TxDMA.h **** 
  33:Generated_Source\PSoC4/SPI_TxDMA.h **** /* Functions specific to this DMA channel */
  34:Generated_Source\PSoC4/SPI_TxDMA.h **** void SPI_TxDMA_Init(void);
  35:Generated_Source\PSoC4/SPI_TxDMA.h **** void SPI_TxDMA_Start(void * srcAddress, void * dstAddress);
  36:Generated_Source\PSoC4/SPI_TxDMA.h **** 
  37:Generated_Source\PSoC4/SPI_TxDMA.h **** /* Inline functions that call global API functions */
  38:Generated_Source\PSoC4/SPI_TxDMA.h **** static void   SPI_TxDMA_ChEnable(void);
  39:Generated_Source\PSoC4/SPI_TxDMA.h **** static void   SPI_TxDMA_ChDisable(void);
  40:Generated_Source\PSoC4/SPI_TxDMA.h **** static void   SPI_TxDMA_Trigger(void);
  41:Generated_Source\PSoC4/SPI_TxDMA.h **** static void   SPI_TxDMA_SetPriority(int32 priority);
  42:Generated_Source\PSoC4/SPI_TxDMA.h **** static int32  SPI_TxDMA_GetPriority(void);
  43:Generated_Source\PSoC4/SPI_TxDMA.h **** static void   SPI_TxDMA_SetNextDescriptor(int32 descriptor);
  44:Generated_Source\PSoC4/SPI_TxDMA.h **** static int32  SPI_TxDMA_GetNextDescriptor(void);
  45:Generated_Source\PSoC4/SPI_TxDMA.h **** static void   SPI_TxDMA_SetConfiguration(int32 descriptor, const cydma_init_struct * config);
  46:Generated_Source\PSoC4/SPI_TxDMA.h **** static void   SPI_TxDMA_ValidateDescriptor(int32 descriptor);
ARM GAS  C:\Users\psmus\AppData\Local\Temp\cc7FfqyC.s 			page 19


  47:Generated_Source\PSoC4/SPI_TxDMA.h **** static uint32 SPI_TxDMA_GetDescriptorStatus(int32 descriptor);
  48:Generated_Source\PSoC4/SPI_TxDMA.h **** static void   SPI_TxDMA_SetSrcAddress(int32 descriptor, void * srcAddress);
  49:Generated_Source\PSoC4/SPI_TxDMA.h **** static void * SPI_TxDMA_GetSrcAddress(int32 descriptor);
  50:Generated_Source\PSoC4/SPI_TxDMA.h **** static void   SPI_TxDMA_SetDstAddress(int32 descriptor, void * dstAddress);
  51:Generated_Source\PSoC4/SPI_TxDMA.h **** static void * SPI_TxDMA_GetDstAddress(int32 descriptor);
  52:Generated_Source\PSoC4/SPI_TxDMA.h **** static void   SPI_TxDMA_SetDataElementSize(int32 descriptor, uint32 dataElementSize);
  53:Generated_Source\PSoC4/SPI_TxDMA.h **** static uint32 SPI_TxDMA_GetDataElementSize(int32 descriptor);
  54:Generated_Source\PSoC4/SPI_TxDMA.h **** static void   SPI_TxDMA_SetNumDataElements(int32 descriptor, int32 numDataElements);
  55:Generated_Source\PSoC4/SPI_TxDMA.h **** static int32  SPI_TxDMA_GetNumDataElements(int32 descriptor);
  56:Generated_Source\PSoC4/SPI_TxDMA.h **** static void   SPI_TxDMA_SetSrcDstTransferWidth(int32 descriptor, uint32 transferWidth);
  57:Generated_Source\PSoC4/SPI_TxDMA.h **** static uint32 SPI_TxDMA_GetSrcDstTransferWidth(int32 descriptor);
  58:Generated_Source\PSoC4/SPI_TxDMA.h **** static void   SPI_TxDMA_SetAddressIncrement(int32 descriptor, uint32 addressIncrement);
  59:Generated_Source\PSoC4/SPI_TxDMA.h **** static uint32 SPI_TxDMA_GetAddressIncrement(int32 descriptor);
  60:Generated_Source\PSoC4/SPI_TxDMA.h **** static void   SPI_TxDMA_SetTriggerType(int32 descriptor, uint32 triggerType);
  61:Generated_Source\PSoC4/SPI_TxDMA.h **** static uint32 SPI_TxDMA_GetTriggerType(int32 descriptor);
  62:Generated_Source\PSoC4/SPI_TxDMA.h **** static void   SPI_TxDMA_SetTransferMode(int32 descriptor, uint32 transferMode);
  63:Generated_Source\PSoC4/SPI_TxDMA.h **** static uint32 SPI_TxDMA_GetTransferMode(int32 descriptor);
  64:Generated_Source\PSoC4/SPI_TxDMA.h **** static void   SPI_TxDMA_SetPreemptable(int32 descriptor, uint32 preemptable);
  65:Generated_Source\PSoC4/SPI_TxDMA.h **** static uint32 SPI_TxDMA_GetPreemptable(int32 descriptor);
  66:Generated_Source\PSoC4/SPI_TxDMA.h **** static void   SPI_TxDMA_SetPostCompletionActions(int32 descriptor, uint32 actions);
  67:Generated_Source\PSoC4/SPI_TxDMA.h **** static uint32 SPI_TxDMA_GetPostCompletionAction(int32 descriptor);
  68:Generated_Source\PSoC4/SPI_TxDMA.h **** static cydma_callback_t SPI_TxDMA_SetInterruptCallback(cydma_callback_t callback);
  69:Generated_Source\PSoC4/SPI_TxDMA.h **** static cydma_callback_t SPI_TxDMA_GetInterruptCallback(void);
  70:Generated_Source\PSoC4/SPI_TxDMA.h **** 
  71:Generated_Source\PSoC4/SPI_TxDMA.h **** 
  72:Generated_Source\PSoC4/SPI_TxDMA.h **** /*******************************************************************************
  73:Generated_Source\PSoC4/SPI_TxDMA.h **** * Function Name: SPI_TxDMA_ChEnable
  74:Generated_Source\PSoC4/SPI_TxDMA.h **** ********************************************************************************
  75:Generated_Source\PSoC4/SPI_TxDMA.h **** *
  76:Generated_Source\PSoC4/SPI_TxDMA.h **** * Summary:
  77:Generated_Source\PSoC4/SPI_TxDMA.h **** *  Enables the DMA channel. It is not necessary to call SPI_TxDMA_ChEnable()
  78:Generated_Source\PSoC4/SPI_TxDMA.h **** *  because the SPI_TxDMA_Start() API calls this function, which is the
  79:Generated_Source\PSoC4/SPI_TxDMA.h **** *  preferred method to begin the component operation.
  80:Generated_Source\PSoC4/SPI_TxDMA.h **** *
  81:Generated_Source\PSoC4/SPI_TxDMA.h **** * Parameters:
  82:Generated_Source\PSoC4/SPI_TxDMA.h **** *  None.
  83:Generated_Source\PSoC4/SPI_TxDMA.h **** *                   
  84:Generated_Source\PSoC4/SPI_TxDMA.h **** * Return:
  85:Generated_Source\PSoC4/SPI_TxDMA.h **** *  None.
  86:Generated_Source\PSoC4/SPI_TxDMA.h **** *
  87:Generated_Source\PSoC4/SPI_TxDMA.h **** * Side effect:
  88:Generated_Source\PSoC4/SPI_TxDMA.h **** *  If this function is called before SPI_TxDMA_Start(), or SPI_TxDMA_Init()
  89:Generated_Source\PSoC4/SPI_TxDMA.h **** *  or SPI_TxDMA_SetConfiguration(), and SPI_TxDMA_SetSrcAddress()
  90:Generated_Source\PSoC4/SPI_TxDMA.h **** *  and SPI_TxDMA_SetDstAddress the operation of the DMA is 
  91:Generated_Source\PSoC4/SPI_TxDMA.h **** *  undefined and could result in system data corruption. 
  92:Generated_Source\PSoC4/SPI_TxDMA.h **** *
  93:Generated_Source\PSoC4/SPI_TxDMA.h **** *******************************************************************************/
  94:Generated_Source\PSoC4/SPI_TxDMA.h **** static CY_INLINE void SPI_TxDMA_ChEnable(void)
  95:Generated_Source\PSoC4/SPI_TxDMA.h **** {
  96:Generated_Source\PSoC4/SPI_TxDMA.h ****     CyDmaChEnable(SPI_TxDMA_CHANNEL);
  97:Generated_Source\PSoC4/SPI_TxDMA.h **** }
  98:Generated_Source\PSoC4/SPI_TxDMA.h **** 
  99:Generated_Source\PSoC4/SPI_TxDMA.h **** 
 100:Generated_Source\PSoC4/SPI_TxDMA.h **** /*******************************************************************************
 101:Generated_Source\PSoC4/SPI_TxDMA.h **** * Function Name: SPI_TxDMA_ChDisable
 102:Generated_Source\PSoC4/SPI_TxDMA.h **** ********************************************************************************
 103:Generated_Source\PSoC4/SPI_TxDMA.h **** *
ARM GAS  C:\Users\psmus\AppData\Local\Temp\cc7FfqyC.s 			page 20


 104:Generated_Source\PSoC4/SPI_TxDMA.h **** * Summary:
 105:Generated_Source\PSoC4/SPI_TxDMA.h **** *  Disables the DMA channel.
 106:Generated_Source\PSoC4/SPI_TxDMA.h **** *
 107:Generated_Source\PSoC4/SPI_TxDMA.h **** * Parameters:
 108:Generated_Source\PSoC4/SPI_TxDMA.h **** *  None.
 109:Generated_Source\PSoC4/SPI_TxDMA.h **** *                   
 110:Generated_Source\PSoC4/SPI_TxDMA.h **** * Return:
 111:Generated_Source\PSoC4/SPI_TxDMA.h **** *  None.
 112:Generated_Source\PSoC4/SPI_TxDMA.h **** *
 113:Generated_Source\PSoC4/SPI_TxDMA.h **** * Side effect:
 114:Generated_Source\PSoC4/SPI_TxDMA.h **** *  If this function is called during a DMA transfer the transfer is aborted. 
 115:Generated_Source\PSoC4/SPI_TxDMA.h **** *
 116:Generated_Source\PSoC4/SPI_TxDMA.h **** *******************************************************************************/
 117:Generated_Source\PSoC4/SPI_TxDMA.h **** static CY_INLINE void SPI_TxDMA_ChDisable(void)
 118:Generated_Source\PSoC4/SPI_TxDMA.h **** {
 119:Generated_Source\PSoC4/SPI_TxDMA.h ****     CyDmaChDisable(SPI_TxDMA_CHANNEL);
 120:Generated_Source\PSoC4/SPI_TxDMA.h **** }
 121:Generated_Source\PSoC4/SPI_TxDMA.h **** 
 122:Generated_Source\PSoC4/SPI_TxDMA.h **** 
 123:Generated_Source\PSoC4/SPI_TxDMA.h **** /*******************************************************************************
 124:Generated_Source\PSoC4/SPI_TxDMA.h **** * Function Name: SPI_TxDMA_Trigger
 125:Generated_Source\PSoC4/SPI_TxDMA.h **** ********************************************************************************
 126:Generated_Source\PSoC4/SPI_TxDMA.h **** *
 127:Generated_Source\PSoC4/SPI_TxDMA.h **** * Summary:
 128:Generated_Source\PSoC4/SPI_TxDMA.h **** *  Triggers the DMA channel, this is useful only for software triggers. This is
 129:Generated_Source\PSoC4/SPI_TxDMA.h **** *  not needed when hardware triggers are used.
 130:Generated_Source\PSoC4/SPI_TxDMA.h **** *
 131:Generated_Source\PSoC4/SPI_TxDMA.h **** * Parameters:
 132:Generated_Source\PSoC4/SPI_TxDMA.h **** *  None.
 133:Generated_Source\PSoC4/SPI_TxDMA.h **** *                   
 134:Generated_Source\PSoC4/SPI_TxDMA.h **** * Return:
 135:Generated_Source\PSoC4/SPI_TxDMA.h **** *  None. 
 136:Generated_Source\PSoC4/SPI_TxDMA.h **** *
 137:Generated_Source\PSoC4/SPI_TxDMA.h **** *******************************************************************************/
 138:Generated_Source\PSoC4/SPI_TxDMA.h **** static CY_INLINE void SPI_TxDMA_Trigger(void)
 139:Generated_Source\PSoC4/SPI_TxDMA.h **** {
 140:Generated_Source\PSoC4/SPI_TxDMA.h ****     CyDmaTrigger(SPI_TxDMA_CHANNEL);
 141:Generated_Source\PSoC4/SPI_TxDMA.h **** }
 142:Generated_Source\PSoC4/SPI_TxDMA.h **** 
 143:Generated_Source\PSoC4/SPI_TxDMA.h **** 
 144:Generated_Source\PSoC4/SPI_TxDMA.h **** /*******************************************************************************
 145:Generated_Source\PSoC4/SPI_TxDMA.h **** * Function Name: SPI_TxDMA_SetPriority
 146:Generated_Source\PSoC4/SPI_TxDMA.h **** ********************************************************************************
 147:Generated_Source\PSoC4/SPI_TxDMA.h **** *
 148:Generated_Source\PSoC4/SPI_TxDMA.h **** * Summary:
 149:Generated_Source\PSoC4/SPI_TxDMA.h **** *  Sets the priority for the channel.
 150:Generated_Source\PSoC4/SPI_TxDMA.h **** *
 151:Generated_Source\PSoC4/SPI_TxDMA.h **** * Parameters:
 152:Generated_Source\PSoC4/SPI_TxDMA.h **** *  priority: Priority for channel. Priority can be 0,1,2, or 3.
 153:Generated_Source\PSoC4/SPI_TxDMA.h **** *            0 is the highest priority.
 154:Generated_Source\PSoC4/SPI_TxDMA.h **** *                   
 155:Generated_Source\PSoC4/SPI_TxDMA.h **** * Return:
 156:Generated_Source\PSoC4/SPI_TxDMA.h **** *  None.
 157:Generated_Source\PSoC4/SPI_TxDMA.h **** *
 158:Generated_Source\PSoC4/SPI_TxDMA.h **** * Side effect:
 159:Generated_Source\PSoC4/SPI_TxDMA.h **** *  This function should not be called while the channel is enabled.
 160:Generated_Source\PSoC4/SPI_TxDMA.h **** *
ARM GAS  C:\Users\psmus\AppData\Local\Temp\cc7FfqyC.s 			page 21


 161:Generated_Source\PSoC4/SPI_TxDMA.h **** *******************************************************************************/
 162:Generated_Source\PSoC4/SPI_TxDMA.h **** static CY_INLINE void SPI_TxDMA_SetPriority(int32 priority)
 163:Generated_Source\PSoC4/SPI_TxDMA.h **** {
 164:Generated_Source\PSoC4/SPI_TxDMA.h ****     CyDmaSetPriority(SPI_TxDMA_CHANNEL, priority);
 165:Generated_Source\PSoC4/SPI_TxDMA.h **** }
 166:Generated_Source\PSoC4/SPI_TxDMA.h **** 
 167:Generated_Source\PSoC4/SPI_TxDMA.h **** 
 168:Generated_Source\PSoC4/SPI_TxDMA.h **** /*******************************************************************************
 169:Generated_Source\PSoC4/SPI_TxDMA.h **** * Function Name: SPI_TxDMA_GetPriority
 170:Generated_Source\PSoC4/SPI_TxDMA.h **** ********************************************************************************
 171:Generated_Source\PSoC4/SPI_TxDMA.h **** *
 172:Generated_Source\PSoC4/SPI_TxDMA.h **** * Summary:
 173:Generated_Source\PSoC4/SPI_TxDMA.h **** *  Gets the priority for the channel.
 174:Generated_Source\PSoC4/SPI_TxDMA.h **** *
 175:Generated_Source\PSoC4/SPI_TxDMA.h **** * Parameters:
 176:Generated_Source\PSoC4/SPI_TxDMA.h **** *  None.
 177:Generated_Source\PSoC4/SPI_TxDMA.h **** *                   
 178:Generated_Source\PSoC4/SPI_TxDMA.h **** * Return:
 179:Generated_Source\PSoC4/SPI_TxDMA.h **** *  Priority for channel. Priority can be 0,1,2, or 3. 0 is the highest priority.
 180:Generated_Source\PSoC4/SPI_TxDMA.h **** *
 181:Generated_Source\PSoC4/SPI_TxDMA.h **** *******************************************************************************/
 182:Generated_Source\PSoC4/SPI_TxDMA.h **** static CY_INLINE int32 SPI_TxDMA_GetPriority(void)
 183:Generated_Source\PSoC4/SPI_TxDMA.h **** {
 184:Generated_Source\PSoC4/SPI_TxDMA.h ****     return (CyDmaGetPriority(SPI_TxDMA_CHANNEL));
 185:Generated_Source\PSoC4/SPI_TxDMA.h **** }
 186:Generated_Source\PSoC4/SPI_TxDMA.h **** 
 187:Generated_Source\PSoC4/SPI_TxDMA.h **** 
 188:Generated_Source\PSoC4/SPI_TxDMA.h **** /*******************************************************************************
 189:Generated_Source\PSoC4/SPI_TxDMA.h **** * Function Name: SPI_TxDMA_SetNextDescriptor
 190:Generated_Source\PSoC4/SPI_TxDMA.h **** ********************************************************************************
 191:Generated_Source\PSoC4/SPI_TxDMA.h **** *
 192:Generated_Source\PSoC4/SPI_TxDMA.h **** * Summary:
 193:Generated_Source\PSoC4/SPI_TxDMA.h **** *  Sets the descriptor that should be run the next time the channel is
 194:Generated_Source\PSoC4/SPI_TxDMA.h **** *  triggered.
 195:Generated_Source\PSoC4/SPI_TxDMA.h **** *
 196:Generated_Source\PSoC4/SPI_TxDMA.h **** * Parameters:
 197:Generated_Source\PSoC4/SPI_TxDMA.h **** *  descriptor: Next Descriptor to run (0 or 1).
 198:Generated_Source\PSoC4/SPI_TxDMA.h **** *                   
 199:Generated_Source\PSoC4/SPI_TxDMA.h **** * Side effect:
 200:Generated_Source\PSoC4/SPI_TxDMA.h **** *  This function should not be called while the channel is enabled.
 201:Generated_Source\PSoC4/SPI_TxDMA.h **** *
 202:Generated_Source\PSoC4/SPI_TxDMA.h **** *******************************************************************************/
 203:Generated_Source\PSoC4/SPI_TxDMA.h **** static CY_INLINE void SPI_TxDMA_SetNextDescriptor(int32 descriptor)
 204:Generated_Source\PSoC4/SPI_TxDMA.h **** {
 205:Generated_Source\PSoC4/SPI_TxDMA.h ****     CyDmaSetNextDescriptor(SPI_TxDMA_CHANNEL, descriptor);
 206:Generated_Source\PSoC4/SPI_TxDMA.h **** }
 207:Generated_Source\PSoC4/SPI_TxDMA.h **** 
 208:Generated_Source\PSoC4/SPI_TxDMA.h **** 
 209:Generated_Source\PSoC4/SPI_TxDMA.h **** /*******************************************************************************
 210:Generated_Source\PSoC4/SPI_TxDMA.h **** * Function Name: SPI_TxDMA_GetNextDescriptor
 211:Generated_Source\PSoC4/SPI_TxDMA.h **** ********************************************************************************
 212:Generated_Source\PSoC4/SPI_TxDMA.h **** *
 213:Generated_Source\PSoC4/SPI_TxDMA.h **** * Summary:
 214:Generated_Source\PSoC4/SPI_TxDMA.h **** *  Returns the next descriptor that should be run, as set by 
 215:Generated_Source\PSoC4/SPI_TxDMA.h **** *  SPI_TxDMA_SetNextDescriptor().
 216:Generated_Source\PSoC4/SPI_TxDMA.h **** *
 217:Generated_Source\PSoC4/SPI_TxDMA.h **** * Parameters:
ARM GAS  C:\Users\psmus\AppData\Local\Temp\cc7FfqyC.s 			page 22


 218:Generated_Source\PSoC4/SPI_TxDMA.h **** *  None.
 219:Generated_Source\PSoC4/SPI_TxDMA.h **** *                   
 220:Generated_Source\PSoC4/SPI_TxDMA.h **** * Return:
 221:Generated_Source\PSoC4/SPI_TxDMA.h **** *  Next Descriptor to run (0 or 1).
 222:Generated_Source\PSoC4/SPI_TxDMA.h **** *
 223:Generated_Source\PSoC4/SPI_TxDMA.h **** *******************************************************************************/
 224:Generated_Source\PSoC4/SPI_TxDMA.h **** static CY_INLINE int32 SPI_TxDMA_GetNextDescriptor(void)
 225:Generated_Source\PSoC4/SPI_TxDMA.h **** {
 226:Generated_Source\PSoC4/SPI_TxDMA.h ****     return (CyDmaGetNextDescriptor(SPI_TxDMA_CHANNEL));
 227:Generated_Source\PSoC4/SPI_TxDMA.h **** }
 228:Generated_Source\PSoC4/SPI_TxDMA.h **** 
 229:Generated_Source\PSoC4/SPI_TxDMA.h **** 
 230:Generated_Source\PSoC4/SPI_TxDMA.h **** /*******************************************************************************
 231:Generated_Source\PSoC4/SPI_TxDMA.h **** * Function Name: SPI_TxDMA_SetConfiguration
 232:Generated_Source\PSoC4/SPI_TxDMA.h **** ********************************************************************************
 233:Generated_Source\PSoC4/SPI_TxDMA.h **** *
 234:Generated_Source\PSoC4/SPI_TxDMA.h **** * Summary:
 235:Generated_Source\PSoC4/SPI_TxDMA.h **** *  Sets configuration information for the specified descriptor.
 236:Generated_Source\PSoC4/SPI_TxDMA.h **** *
 237:Generated_Source\PSoC4/SPI_TxDMA.h **** * Parameters:
 238:Generated_Source\PSoC4/SPI_TxDMA.h **** *  descriptor: Descriptor (0 or 1) modified by this function.
 239:Generated_Source\PSoC4/SPI_TxDMA.h **** *  config: Pointer to a configuration structure. Refer to cydma_init_struct
 240:Generated_Source\PSoC4/SPI_TxDMA.h **** *          structure definition in CyDMA_P4.h or the component datasheet.
 241:Generated_Source\PSoC4/SPI_TxDMA.h **** *                   
 242:Generated_Source\PSoC4/SPI_TxDMA.h **** * Return:
 243:Generated_Source\PSoC4/SPI_TxDMA.h **** *  None.
 244:Generated_Source\PSoC4/SPI_TxDMA.h **** *
 245:Generated_Source\PSoC4/SPI_TxDMA.h **** * Side effect:
 246:Generated_Source\PSoC4/SPI_TxDMA.h **** *  The status register associated with the specified descriptor is reset to
 247:Generated_Source\PSoC4/SPI_TxDMA.h **** *  zero after this function call. This function also validates the descriptor.
 248:Generated_Source\PSoC4/SPI_TxDMA.h **** *  This function should not be called while the descriptor is active.
 249:Generated_Source\PSoC4/SPI_TxDMA.h **** *  This can be checked by calling CyDmaGetStatus().
 250:Generated_Source\PSoC4/SPI_TxDMA.h **** *
 251:Generated_Source\PSoC4/SPI_TxDMA.h **** *******************************************************************************/
 252:Generated_Source\PSoC4/SPI_TxDMA.h **** static CY_INLINE void SPI_TxDMA_SetConfiguration(int32 descriptor, const cydma_init_struct * config
 253:Generated_Source\PSoC4/SPI_TxDMA.h **** {
 254:Generated_Source\PSoC4/SPI_TxDMA.h ****     CyDmaSetConfiguration(SPI_TxDMA_CHANNEL, descriptor, config);
 255:Generated_Source\PSoC4/SPI_TxDMA.h **** }
 256:Generated_Source\PSoC4/SPI_TxDMA.h **** 
 257:Generated_Source\PSoC4/SPI_TxDMA.h **** 
 258:Generated_Source\PSoC4/SPI_TxDMA.h **** /*******************************************************************************
 259:Generated_Source\PSoC4/SPI_TxDMA.h **** * Function Name: SPI_TxDMA_ValidateDescriptor
 260:Generated_Source\PSoC4/SPI_TxDMA.h **** ********************************************************************************
 261:Generated_Source\PSoC4/SPI_TxDMA.h **** *
 262:Generated_Source\PSoC4/SPI_TxDMA.h **** * Summary:
 263:Generated_Source\PSoC4/SPI_TxDMA.h **** *  Validates the specified descriptor after it has been invalidated.
 264:Generated_Source\PSoC4/SPI_TxDMA.h **** *
 265:Generated_Source\PSoC4/SPI_TxDMA.h **** * Parameters:
 266:Generated_Source\PSoC4/SPI_TxDMA.h **** *  descriptor: Descriptor (0 or 1) modified by this function.
 267:Generated_Source\PSoC4/SPI_TxDMA.h **** *                   
 268:Generated_Source\PSoC4/SPI_TxDMA.h **** * Return:
 269:Generated_Source\PSoC4/SPI_TxDMA.h **** *  None. 
 270:Generated_Source\PSoC4/SPI_TxDMA.h **** *
 271:Generated_Source\PSoC4/SPI_TxDMA.h **** * Side effect:
 272:Generated_Source\PSoC4/SPI_TxDMA.h **** *  The status register associated with the specified descriptor is reset to
 273:Generated_Source\PSoC4/SPI_TxDMA.h **** *  zero after this function call. This function should not be called while the
 274:Generated_Source\PSoC4/SPI_TxDMA.h **** *  descriptor is active. This can be checked by calling CyDmaGetStatus().
ARM GAS  C:\Users\psmus\AppData\Local\Temp\cc7FfqyC.s 			page 23


 275:Generated_Source\PSoC4/SPI_TxDMA.h **** *
 276:Generated_Source\PSoC4/SPI_TxDMA.h **** *******************************************************************************/
 277:Generated_Source\PSoC4/SPI_TxDMA.h **** static CY_INLINE void SPI_TxDMA_ValidateDescriptor(int32 descriptor)
 278:Generated_Source\PSoC4/SPI_TxDMA.h **** {
 279:Generated_Source\PSoC4/SPI_TxDMA.h ****     CyDmaValidateDescriptor(SPI_TxDMA_CHANNEL, descriptor);
 280:Generated_Source\PSoC4/SPI_TxDMA.h **** }
 281:Generated_Source\PSoC4/SPI_TxDMA.h **** 
 282:Generated_Source\PSoC4/SPI_TxDMA.h **** 
 283:Generated_Source\PSoC4/SPI_TxDMA.h **** /*******************************************************************************
 284:Generated_Source\PSoC4/SPI_TxDMA.h **** * Function Name: SPI_TxDMA_GetDescriptorStatus
 285:Generated_Source\PSoC4/SPI_TxDMA.h **** ********************************************************************************
 286:Generated_Source\PSoC4/SPI_TxDMA.h **** *
 287:Generated_Source\PSoC4/SPI_TxDMA.h **** * Summary:
 288:Generated_Source\PSoC4/SPI_TxDMA.h **** *  Returns the status of the specified descriptor.
 289:Generated_Source\PSoC4/SPI_TxDMA.h **** *
 290:Generated_Source\PSoC4/SPI_TxDMA.h **** * Parameters:
 291:Generated_Source\PSoC4/SPI_TxDMA.h **** *  descriptor: Descriptor (0 or 1) modified by this function.
 292:Generated_Source\PSoC4/SPI_TxDMA.h **** *                   
 293:Generated_Source\PSoC4/SPI_TxDMA.h **** * Return:
 294:Generated_Source\PSoC4/SPI_TxDMA.h **** *  Returns the contents of the specified descriptors status register. Refer to 
 295:Generated_Source\PSoC4/SPI_TxDMA.h **** *  descriptor status register bit definitions in CyDMA_P4.h or the API
 296:Generated_Source\PSoC4/SPI_TxDMA.h **** *  description in the DMA channel datasheet for more information.
 297:Generated_Source\PSoC4/SPI_TxDMA.h **** *
 298:Generated_Source\PSoC4/SPI_TxDMA.h **** *******************************************************************************/
 299:Generated_Source\PSoC4/SPI_TxDMA.h **** static CY_INLINE uint32 SPI_TxDMA_GetDescriptorStatus(int32 descriptor)
 300:Generated_Source\PSoC4/SPI_TxDMA.h **** {
 301:Generated_Source\PSoC4/SPI_TxDMA.h ****     return (CyDmaGetDescriptorStatus(SPI_TxDMA_CHANNEL, descriptor));
 302:Generated_Source\PSoC4/SPI_TxDMA.h **** }
 303:Generated_Source\PSoC4/SPI_TxDMA.h **** 
 304:Generated_Source\PSoC4/SPI_TxDMA.h **** 
 305:Generated_Source\PSoC4/SPI_TxDMA.h **** /*******************************************************************************
 306:Generated_Source\PSoC4/SPI_TxDMA.h **** * Function Name: SPI_TxDMA_SetSrcAddress
 307:Generated_Source\PSoC4/SPI_TxDMA.h **** ********************************************************************************
 308:Generated_Source\PSoC4/SPI_TxDMA.h **** *
 309:Generated_Source\PSoC4/SPI_TxDMA.h **** * Summary:
 310:Generated_Source\PSoC4/SPI_TxDMA.h **** *  Configures the source address for the specified descriptor.
 311:Generated_Source\PSoC4/SPI_TxDMA.h **** *
 312:Generated_Source\PSoC4/SPI_TxDMA.h **** * Parameters:
 313:Generated_Source\PSoC4/SPI_TxDMA.h **** *  descriptor: Descriptor (0 or 1) modified by this function.
 314:Generated_Source\PSoC4/SPI_TxDMA.h **** *  srcAddress: Address of DMA transfer source.
 315:Generated_Source\PSoC4/SPI_TxDMA.h **** *                   
 316:Generated_Source\PSoC4/SPI_TxDMA.h **** * Return:
 317:Generated_Source\PSoC4/SPI_TxDMA.h **** *  None.
 318:Generated_Source\PSoC4/SPI_TxDMA.h **** *
 319:Generated_Source\PSoC4/SPI_TxDMA.h **** * Side effect:
 320:Generated_Source\PSoC4/SPI_TxDMA.h **** *  This function should not be called when the specified descriptor is active
 321:Generated_Source\PSoC4/SPI_TxDMA.h **** *  in the DMA transfer engine. This can be checked by calling CyDmaGetStatus(). 
 322:Generated_Source\PSoC4/SPI_TxDMA.h **** *
 323:Generated_Source\PSoC4/SPI_TxDMA.h **** *******************************************************************************/
 324:Generated_Source\PSoC4/SPI_TxDMA.h **** static CY_INLINE void SPI_TxDMA_SetSrcAddress(int32 descriptor, void * srcAddress)
 325:Generated_Source\PSoC4/SPI_TxDMA.h **** {
 326:Generated_Source\PSoC4/SPI_TxDMA.h ****     CyDmaSetSrcAddress(SPI_TxDMA_CHANNEL, descriptor, srcAddress);
 327:Generated_Source\PSoC4/SPI_TxDMA.h **** }
 328:Generated_Source\PSoC4/SPI_TxDMA.h **** 
 329:Generated_Source\PSoC4/SPI_TxDMA.h **** 
 330:Generated_Source\PSoC4/SPI_TxDMA.h **** /*******************************************************************************
 331:Generated_Source\PSoC4/SPI_TxDMA.h **** * Function Name: SPI_TxDMA_GetSrcAddress
ARM GAS  C:\Users\psmus\AppData\Local\Temp\cc7FfqyC.s 			page 24


 332:Generated_Source\PSoC4/SPI_TxDMA.h **** ********************************************************************************
 333:Generated_Source\PSoC4/SPI_TxDMA.h **** *
 334:Generated_Source\PSoC4/SPI_TxDMA.h **** * Summary:
 335:Generated_Source\PSoC4/SPI_TxDMA.h **** *  Returns the source address for the specified descriptor, set by either 
 336:Generated_Source\PSoC4/SPI_TxDMA.h **** *  SPI_TxDMA_Start() or SPI_TxDMA_SetSrcAddress().
 337:Generated_Source\PSoC4/SPI_TxDMA.h **** *
 338:Generated_Source\PSoC4/SPI_TxDMA.h **** * Parameters:
 339:Generated_Source\PSoC4/SPI_TxDMA.h **** *  descriptor: Specifies descriptor (0 or 1) used by this function.
 340:Generated_Source\PSoC4/SPI_TxDMA.h **** *                   
 341:Generated_Source\PSoC4/SPI_TxDMA.h **** * Return:
 342:Generated_Source\PSoC4/SPI_TxDMA.h **** *  Source address written to specified descriptor.
 343:Generated_Source\PSoC4/SPI_TxDMA.h **** *
 344:Generated_Source\PSoC4/SPI_TxDMA.h **** *******************************************************************************/
 345:Generated_Source\PSoC4/SPI_TxDMA.h **** static CY_INLINE void * SPI_TxDMA_GetSrcAddress(int32 descriptor)
 346:Generated_Source\PSoC4/SPI_TxDMA.h **** {
 347:Generated_Source\PSoC4/SPI_TxDMA.h ****     return (CyDmaGetSrcAddress(SPI_TxDMA_CHANNEL, descriptor));
 348:Generated_Source\PSoC4/SPI_TxDMA.h **** }
 349:Generated_Source\PSoC4/SPI_TxDMA.h **** 
 350:Generated_Source\PSoC4/SPI_TxDMA.h **** 
 351:Generated_Source\PSoC4/SPI_TxDMA.h **** /*******************************************************************************
 352:Generated_Source\PSoC4/SPI_TxDMA.h **** * Function Name: SPI_TxDMA_SetDstAddress
 353:Generated_Source\PSoC4/SPI_TxDMA.h **** ********************************************************************************
 354:Generated_Source\PSoC4/SPI_TxDMA.h **** *
 355:Generated_Source\PSoC4/SPI_TxDMA.h **** * Summary:
 356:Generated_Source\PSoC4/SPI_TxDMA.h **** *  Configures the destination address for the specified descriptor.
 357:Generated_Source\PSoC4/SPI_TxDMA.h **** *
 358:Generated_Source\PSoC4/SPI_TxDMA.h **** * Parameters:
 359:Generated_Source\PSoC4/SPI_TxDMA.h **** *  descriptor: Descriptor (0 or 1) modified by this function.
 360:Generated_Source\PSoC4/SPI_TxDMA.h **** *  dstAddress: Address of DMA transfer destination.
 361:Generated_Source\PSoC4/SPI_TxDMA.h **** *                   
 362:Generated_Source\PSoC4/SPI_TxDMA.h **** * Return:
 363:Generated_Source\PSoC4/SPI_TxDMA.h **** *  None.
 364:Generated_Source\PSoC4/SPI_TxDMA.h **** *
 365:Generated_Source\PSoC4/SPI_TxDMA.h **** * Side effect:
 366:Generated_Source\PSoC4/SPI_TxDMA.h **** *  This function should not be called when the specified descriptor is active
 367:Generated_Source\PSoC4/SPI_TxDMA.h **** *  in the DMA transfer engine. This can be checked by calling CyDmaGetStatus(). 
 368:Generated_Source\PSoC4/SPI_TxDMA.h **** *
 369:Generated_Source\PSoC4/SPI_TxDMA.h **** *******************************************************************************/
 370:Generated_Source\PSoC4/SPI_TxDMA.h **** static CY_INLINE void SPI_TxDMA_SetDstAddress(int32 descriptor, void * dstAddress)
 371:Generated_Source\PSoC4/SPI_TxDMA.h **** {
 372:Generated_Source\PSoC4/SPI_TxDMA.h ****     CyDmaSetDstAddress(SPI_TxDMA_CHANNEL, descriptor, dstAddress);
 373:Generated_Source\PSoC4/SPI_TxDMA.h **** }
 374:Generated_Source\PSoC4/SPI_TxDMA.h **** 
 375:Generated_Source\PSoC4/SPI_TxDMA.h **** 
 376:Generated_Source\PSoC4/SPI_TxDMA.h **** /*******************************************************************************
 377:Generated_Source\PSoC4/SPI_TxDMA.h **** * Function Name: SPI_TxDMA_GetDstAddress
 378:Generated_Source\PSoC4/SPI_TxDMA.h **** ********************************************************************************
 379:Generated_Source\PSoC4/SPI_TxDMA.h **** *
 380:Generated_Source\PSoC4/SPI_TxDMA.h **** * Summary:
 381:Generated_Source\PSoC4/SPI_TxDMA.h **** *  Returns the destination address for the specified descriptor, set by either 
 382:Generated_Source\PSoC4/SPI_TxDMA.h **** *  SPI_TxDMA_Start() or SPI_TxDMA_SetDstAddress().
 383:Generated_Source\PSoC4/SPI_TxDMA.h **** *
 384:Generated_Source\PSoC4/SPI_TxDMA.h **** * Parameters:
 385:Generated_Source\PSoC4/SPI_TxDMA.h **** *  descriptor: Specifies descriptor (0 or 1) used by this function.
 386:Generated_Source\PSoC4/SPI_TxDMA.h **** *                   
 387:Generated_Source\PSoC4/SPI_TxDMA.h **** * Return:
 388:Generated_Source\PSoC4/SPI_TxDMA.h **** *  Destination address written to specified descriptor.
ARM GAS  C:\Users\psmus\AppData\Local\Temp\cc7FfqyC.s 			page 25


 389:Generated_Source\PSoC4/SPI_TxDMA.h **** *
 390:Generated_Source\PSoC4/SPI_TxDMA.h **** *******************************************************************************/
 391:Generated_Source\PSoC4/SPI_TxDMA.h **** static CY_INLINE void * SPI_TxDMA_GetDstAddress(int32 descriptor)
 392:Generated_Source\PSoC4/SPI_TxDMA.h **** {
 393:Generated_Source\PSoC4/SPI_TxDMA.h ****     return (CyDmaGetDstAddress(SPI_TxDMA_CHANNEL, descriptor));
 394:Generated_Source\PSoC4/SPI_TxDMA.h **** }
 395:Generated_Source\PSoC4/SPI_TxDMA.h **** 
 396:Generated_Source\PSoC4/SPI_TxDMA.h **** 
 397:Generated_Source\PSoC4/SPI_TxDMA.h **** /*******************************************************************************
 398:Generated_Source\PSoC4/SPI_TxDMA.h **** * Function Name: SPI_TxDMA_SetDataElementSize
 399:Generated_Source\PSoC4/SPI_TxDMA.h **** ********************************************************************************
 400:Generated_Source\PSoC4/SPI_TxDMA.h **** *
 401:Generated_Source\PSoC4/SPI_TxDMA.h **** * Summary:
 402:Generated_Source\PSoC4/SPI_TxDMA.h **** *  Sets the data element size for the specified descriptor.
 403:Generated_Source\PSoC4/SPI_TxDMA.h **** *
 404:Generated_Source\PSoC4/SPI_TxDMA.h **** * Parameters:
 405:Generated_Source\PSoC4/SPI_TxDMA.h **** *  descriptor:      Descriptor (0 or 1) modified by this function.
 406:Generated_Source\PSoC4/SPI_TxDMA.h **** *  dataElementSize: Specifies the size of the data element. The DMA transfer
 407:Generated_Source\PSoC4/SPI_TxDMA.h **** *                   engine transfers one data element at a time. How these
 408:Generated_Source\PSoC4/SPI_TxDMA.h **** *                   transfers occur is controlled by the transfer mode.
 409:Generated_Source\PSoC4/SPI_TxDMA.h **** *                   Refer to the API bit field definitions in CyDMA_P4.h or API
 410:Generated_Source\PSoC4/SPI_TxDMA.h **** *                   description in the DMA channel datasheet for the parameter
 411:Generated_Source\PSoC4/SPI_TxDMA.h **** *                   options.
 412:Generated_Source\PSoC4/SPI_TxDMA.h **** *
 413:Generated_Source\PSoC4/SPI_TxDMA.h **** * Return:
 414:Generated_Source\PSoC4/SPI_TxDMA.h **** *  None.
 415:Generated_Source\PSoC4/SPI_TxDMA.h **** *
 416:Generated_Source\PSoC4/SPI_TxDMA.h **** * Side effect:
 417:Generated_Source\PSoC4/SPI_TxDMA.h **** *  This function should not be called when the specified descriptor is active
 418:Generated_Source\PSoC4/SPI_TxDMA.h **** *  in the DMA transfer engine. This can be checked by calling CyDmaGetStatus(). 
 419:Generated_Source\PSoC4/SPI_TxDMA.h **** *
 420:Generated_Source\PSoC4/SPI_TxDMA.h **** *******************************************************************************/
 421:Generated_Source\PSoC4/SPI_TxDMA.h **** static CY_INLINE void SPI_TxDMA_SetDataElementSize(int32 descriptor, uint32 dataElementSize)
 422:Generated_Source\PSoC4/SPI_TxDMA.h **** {
 423:Generated_Source\PSoC4/SPI_TxDMA.h ****     CyDmaSetDataElementSize(SPI_TxDMA_CHANNEL, descriptor, dataElementSize);
 424:Generated_Source\PSoC4/SPI_TxDMA.h **** }
 425:Generated_Source\PSoC4/SPI_TxDMA.h **** 
 426:Generated_Source\PSoC4/SPI_TxDMA.h **** 
 427:Generated_Source\PSoC4/SPI_TxDMA.h **** /*******************************************************************************
 428:Generated_Source\PSoC4/SPI_TxDMA.h **** * Function Name: SPI_TxDMA_GetDataElementSize
 429:Generated_Source\PSoC4/SPI_TxDMA.h **** ********************************************************************************
 430:Generated_Source\PSoC4/SPI_TxDMA.h **** *
 431:Generated_Source\PSoC4/SPI_TxDMA.h **** * Summary:
 432:Generated_Source\PSoC4/SPI_TxDMA.h **** *  Returns the data element size configured for the specified descriptor, set by
 433:Generated_Source\PSoC4/SPI_TxDMA.h **** *  SPI_TxDMA_SetDataElementSize() or SPI_TxDMA_SetConfiguration().
 434:Generated_Source\PSoC4/SPI_TxDMA.h **** *
 435:Generated_Source\PSoC4/SPI_TxDMA.h **** * Parameters:
 436:Generated_Source\PSoC4/SPI_TxDMA.h **** *  descriptor: Descriptor (0 or 1) modified by this function.
 437:Generated_Source\PSoC4/SPI_TxDMA.h **** *                   
 438:Generated_Source\PSoC4/SPI_TxDMA.h **** * Return:
 439:Generated_Source\PSoC4/SPI_TxDMA.h **** *  The size of the data element. The DMA transfer engine transfers one data
 440:Generated_Source\PSoC4/SPI_TxDMA.h **** *  element at a time. How these transfers occur is controlled by the transfer
 441:Generated_Source\PSoC4/SPI_TxDMA.h **** *  mode. Refer to the API bit field definitions in CyDMA_P4.h or the API 
 442:Generated_Source\PSoC4/SPI_TxDMA.h **** *  description in the DMA channel datasheet for more information.
 443:Generated_Source\PSoC4/SPI_TxDMA.h **** *
 444:Generated_Source\PSoC4/SPI_TxDMA.h **** * Note:
 445:Generated_Source\PSoC4/SPI_TxDMA.h **** *  The size of the source and destination can be configured to use the
ARM GAS  C:\Users\psmus\AppData\Local\Temp\cc7FfqyC.s 			page 26


 446:Generated_Source\PSoC4/SPI_TxDMA.h **** *  data element size, or a Word, this is set in SPI_TxDMA_SetSrcDstTransferWidth().
 447:Generated_Source\PSoC4/SPI_TxDMA.h **** *
 448:Generated_Source\PSoC4/SPI_TxDMA.h **** *******************************************************************************/
 449:Generated_Source\PSoC4/SPI_TxDMA.h **** static CY_INLINE uint32 SPI_TxDMA_GetDataElementSize(int32 descriptor)
 450:Generated_Source\PSoC4/SPI_TxDMA.h **** {
 451:Generated_Source\PSoC4/SPI_TxDMA.h ****     return (CyDmaGetDataElementSize(SPI_TxDMA_CHANNEL, descriptor));
 452:Generated_Source\PSoC4/SPI_TxDMA.h **** }
 453:Generated_Source\PSoC4/SPI_TxDMA.h **** 
 454:Generated_Source\PSoC4/SPI_TxDMA.h **** 
 455:Generated_Source\PSoC4/SPI_TxDMA.h **** /*******************************************************************************
 456:Generated_Source\PSoC4/SPI_TxDMA.h **** * Function Name: SPI_TxDMA_SetNumDataElements
 457:Generated_Source\PSoC4/SPI_TxDMA.h **** ********************************************************************************
 458:Generated_Source\PSoC4/SPI_TxDMA.h **** *
 459:Generated_Source\PSoC4/SPI_TxDMA.h **** * Summary:
 460:Generated_Source\PSoC4/SPI_TxDMA.h **** *  Sets the number of data elements to transfer for specified descriptor.
 461:Generated_Source\PSoC4/SPI_TxDMA.h **** *
 462:Generated_Source\PSoC4/SPI_TxDMA.h **** * Parameters:
 463:Generated_Source\PSoC4/SPI_TxDMA.h **** *  descriptor:      Descriptor (0 or 1) modified by this function.
 464:Generated_Source\PSoC4/SPI_TxDMA.h **** *  numDataElements: Total number of data elements this descriptor transfers.
 465:Generated_Source\PSoC4/SPI_TxDMA.h **** *                   Valid ranges are 1 to 65536.
 466:Generated_Source\PSoC4/SPI_TxDMA.h **** *                   
 467:Generated_Source\PSoC4/SPI_TxDMA.h **** * Return:
 468:Generated_Source\PSoC4/SPI_TxDMA.h **** *  None.
 469:Generated_Source\PSoC4/SPI_TxDMA.h **** *
 470:Generated_Source\PSoC4/SPI_TxDMA.h **** * Side effect:
 471:Generated_Source\PSoC4/SPI_TxDMA.h **** *  This function should not be called when the specified descriptor is active
 472:Generated_Source\PSoC4/SPI_TxDMA.h **** *  in the DMA transfer engine. This can be checked by calling CyDmaGetStatus(). 
 473:Generated_Source\PSoC4/SPI_TxDMA.h **** *
 474:Generated_Source\PSoC4/SPI_TxDMA.h **** *******************************************************************************/
 475:Generated_Source\PSoC4/SPI_TxDMA.h **** static CY_INLINE void SPI_TxDMA_SetNumDataElements(int32 descriptor, int32 numDataElements)
 476:Generated_Source\PSoC4/SPI_TxDMA.h **** {
 477:Generated_Source\PSoC4/SPI_TxDMA.h ****     CyDmaSetNumDataElements(SPI_TxDMA_CHANNEL, descriptor, numDataElements);
 478:Generated_Source\PSoC4/SPI_TxDMA.h **** }
 479:Generated_Source\PSoC4/SPI_TxDMA.h **** 
 480:Generated_Source\PSoC4/SPI_TxDMA.h **** 
 481:Generated_Source\PSoC4/SPI_TxDMA.h **** /*******************************************************************************
 482:Generated_Source\PSoC4/SPI_TxDMA.h **** * Function Name: SPI_TxDMA_GetNumDataElements
 483:Generated_Source\PSoC4/SPI_TxDMA.h **** ********************************************************************************
 484:Generated_Source\PSoC4/SPI_TxDMA.h **** *
 485:Generated_Source\PSoC4/SPI_TxDMA.h **** * Summary:
 486:Generated_Source\PSoC4/SPI_TxDMA.h **** *  Returns the number of data elements to be transferred. Only reflects the
 487:Generated_Source\PSoC4/SPI_TxDMA.h **** *  value written by SPI_TxDMA_SetNumDataElements() or SPI_TxDMA_SetConfiguration().
 488:Generated_Source\PSoC4/SPI_TxDMA.h **** *  This does not reflect how many elements have been transferred. For that
 489:Generated_Source\PSoC4/SPI_TxDMA.h **** *  information use the SPI_TxDMA_GetDescriptorStatus() function.
 490:Generated_Source\PSoC4/SPI_TxDMA.h **** *
 491:Generated_Source\PSoC4/SPI_TxDMA.h **** * Parameters:
 492:Generated_Source\PSoC4/SPI_TxDMA.h **** *  descriptor: Descriptor (0 or 1) modified by this function.
 493:Generated_Source\PSoC4/SPI_TxDMA.h **** *                   
 494:Generated_Source\PSoC4/SPI_TxDMA.h **** * Return:
 495:Generated_Source\PSoC4/SPI_TxDMA.h **** *  Number of data elements to transfer.
 496:Generated_Source\PSoC4/SPI_TxDMA.h **** *
 497:Generated_Source\PSoC4/SPI_TxDMA.h **** *******************************************************************************/
 498:Generated_Source\PSoC4/SPI_TxDMA.h **** static CY_INLINE int32 SPI_TxDMA_GetNumDataElements(int32 descriptor)
 499:Generated_Source\PSoC4/SPI_TxDMA.h **** {
 500:Generated_Source\PSoC4/SPI_TxDMA.h ****     return (CyDmaGetNumDataElements(SPI_TxDMA_CHANNEL, descriptor));
 501:Generated_Source\PSoC4/SPI_TxDMA.h **** }
 502:Generated_Source\PSoC4/SPI_TxDMA.h **** 
ARM GAS  C:\Users\psmus\AppData\Local\Temp\cc7FfqyC.s 			page 27


 503:Generated_Source\PSoC4/SPI_TxDMA.h **** 
 504:Generated_Source\PSoC4/SPI_TxDMA.h **** /*******************************************************************************
 505:Generated_Source\PSoC4/SPI_TxDMA.h **** * Function Name: SPI_TxDMA_SetSrcDstTransferWidth
 506:Generated_Source\PSoC4/SPI_TxDMA.h **** ********************************************************************************
 507:Generated_Source\PSoC4/SPI_TxDMA.h **** *
 508:Generated_Source\PSoC4/SPI_TxDMA.h **** * Summary:
 509:Generated_Source\PSoC4/SPI_TxDMA.h **** *  Sets the width of the source and destination. The DMA can either read and
 510:Generated_Source\PSoC4/SPI_TxDMA.h **** *  write data from the source and destination at the size specified by
 511:Generated_Source\PSoC4/SPI_TxDMA.h **** *  SPI_TxDMA_SetDataElementSize() or by a word (4bytes). This also determines how
 512:Generated_Source\PSoC4/SPI_TxDMA.h **** *  many bytes the addresses are incremented if increment source and destination
 513:Generated_Source\PSoC4/SPI_TxDMA.h **** *  address are turned on.
 514:Generated_Source\PSoC4/SPI_TxDMA.h **** *
 515:Generated_Source\PSoC4/SPI_TxDMA.h **** * Parameters:
 516:Generated_Source\PSoC4/SPI_TxDMA.h **** *  descriptor:    Descriptor (0 or 1) modified by this function.
 517:Generated_Source\PSoC4/SPI_TxDMA.h **** *  transferWidth: Specifies the source and destination widths. Refer to the API
 518:Generated_Source\PSoC4/SPI_TxDMA.h **** *                 bit field definitions in CyDMA_P4.h or the API description in
 519:Generated_Source\PSoC4/SPI_TxDMA.h **** *                 the DMA channel datasheet for the parameter options.
 520:Generated_Source\PSoC4/SPI_TxDMA.h **** *                   
 521:Generated_Source\PSoC4/SPI_TxDMA.h **** * Return:
 522:Generated_Source\PSoC4/SPI_TxDMA.h **** *  None.
 523:Generated_Source\PSoC4/SPI_TxDMA.h **** *
 524:Generated_Source\PSoC4/SPI_TxDMA.h **** * Side effect:
 525:Generated_Source\PSoC4/SPI_TxDMA.h **** *  This function should not be called when the specified descriptor is active
 526:Generated_Source\PSoC4/SPI_TxDMA.h **** *  in the DMA transfer engine. This can be checked by calling CyDmaGetStatus(). 
 527:Generated_Source\PSoC4/SPI_TxDMA.h **** *
 528:Generated_Source\PSoC4/SPI_TxDMA.h **** *******************************************************************************/
 529:Generated_Source\PSoC4/SPI_TxDMA.h **** static CY_INLINE void SPI_TxDMA_SetSrcDstTransferWidth(int32 descriptor, uint32 transferWidth)
 530:Generated_Source\PSoC4/SPI_TxDMA.h **** {
 531:Generated_Source\PSoC4/SPI_TxDMA.h ****     CyDmaSetSrcDstTransferWidth(SPI_TxDMA_CHANNEL, descriptor, transferWidth);
 532:Generated_Source\PSoC4/SPI_TxDMA.h **** }
 533:Generated_Source\PSoC4/SPI_TxDMA.h **** 
 534:Generated_Source\PSoC4/SPI_TxDMA.h **** 
 535:Generated_Source\PSoC4/SPI_TxDMA.h **** /*******************************************************************************
 536:Generated_Source\PSoC4/SPI_TxDMA.h **** * Function Name: SPI_TxDMA_GetSrcDstTransferWidth
 537:Generated_Source\PSoC4/SPI_TxDMA.h **** ********************************************************************************
 538:Generated_Source\PSoC4/SPI_TxDMA.h **** *
 539:Generated_Source\PSoC4/SPI_TxDMA.h **** * Summary:
 540:Generated_Source\PSoC4/SPI_TxDMA.h **** *  Returns the width of the source and destination, as set by 
 541:Generated_Source\PSoC4/SPI_TxDMA.h **** *  SPI_TxDMA_SetSrcDstTransferWidth() or SPI_TxDMA_SetConfiguration().
 542:Generated_Source\PSoC4/SPI_TxDMA.h **** *
 543:Generated_Source\PSoC4/SPI_TxDMA.h **** * Parameters:
 544:Generated_Source\PSoC4/SPI_TxDMA.h **** *  descriptor: Descriptor (0 or 1) modified by this function.
 545:Generated_Source\PSoC4/SPI_TxDMA.h **** *                   
 546:Generated_Source\PSoC4/SPI_TxDMA.h **** * Return:
 547:Generated_Source\PSoC4/SPI_TxDMA.h **** *  Width of source and destination. Refer to the API bit field definitions in
 548:Generated_Source\PSoC4/SPI_TxDMA.h **** *  CyDMA_P4.h or the API description in the DMA channel datasheet for more
 549:Generated_Source\PSoC4/SPI_TxDMA.h **** *  information.
 550:Generated_Source\PSoC4/SPI_TxDMA.h **** *
 551:Generated_Source\PSoC4/SPI_TxDMA.h **** *******************************************************************************/
 552:Generated_Source\PSoC4/SPI_TxDMA.h **** static CY_INLINE uint32 SPI_TxDMA_GetSrcDstTransferWidth(int32 descriptor)
 553:Generated_Source\PSoC4/SPI_TxDMA.h **** {
 554:Generated_Source\PSoC4/SPI_TxDMA.h ****     return (CyDmaGetSrcDstTransferWidth(SPI_TxDMA_CHANNEL, descriptor));
 555:Generated_Source\PSoC4/SPI_TxDMA.h **** }
 556:Generated_Source\PSoC4/SPI_TxDMA.h **** 
 557:Generated_Source\PSoC4/SPI_TxDMA.h **** 
 558:Generated_Source\PSoC4/SPI_TxDMA.h **** /*******************************************************************************
 559:Generated_Source\PSoC4/SPI_TxDMA.h **** * Function Name: SPI_TxDMA_SetAddressIncrement
ARM GAS  C:\Users\psmus\AppData\Local\Temp\cc7FfqyC.s 			page 28


 560:Generated_Source\PSoC4/SPI_TxDMA.h **** ********************************************************************************
 561:Generated_Source\PSoC4/SPI_TxDMA.h **** *
 562:Generated_Source\PSoC4/SPI_TxDMA.h **** * Summary:
 563:Generated_Source\PSoC4/SPI_TxDMA.h **** *  Sets whether the source or destination addresses are incremented after the
 564:Generated_Source\PSoC4/SPI_TxDMA.h **** *  transfer of each data element. The amount that the source and destination
 565:Generated_Source\PSoC4/SPI_TxDMA.h **** *  address are incremented is determined by the SPI_TxDMA_SetSrcDstTransferWidth()
 566:Generated_Source\PSoC4/SPI_TxDMA.h **** *  function. The addresses will either be incremented by the data element size
 567:Generated_Source\PSoC4/SPI_TxDMA.h **** *  or by a word (4 bytes).
 568:Generated_Source\PSoC4/SPI_TxDMA.h **** *
 569:Generated_Source\PSoC4/SPI_TxDMA.h **** * Parameters:
 570:Generated_Source\PSoC4/SPI_TxDMA.h **** *  descriptor:       Descriptor (0 or 1) modified by this function.
 571:Generated_Source\PSoC4/SPI_TxDMA.h **** *  addressIncrement: Address increment settings. Refer to the API bit field
 572:Generated_Source\PSoC4/SPI_TxDMA.h **** *                    definitions in CyDMA_P4.h or the API description in the DMA
 573:Generated_Source\PSoC4/SPI_TxDMA.h **** *                    channel datasheet for the parameter options.
 574:Generated_Source\PSoC4/SPI_TxDMA.h **** *    
 575:Generated_Source\PSoC4/SPI_TxDMA.h **** * Return:
 576:Generated_Source\PSoC4/SPI_TxDMA.h **** *  None.
 577:Generated_Source\PSoC4/SPI_TxDMA.h **** *
 578:Generated_Source\PSoC4/SPI_TxDMA.h **** * Side effect:
 579:Generated_Source\PSoC4/SPI_TxDMA.h **** *  This function should not be called when the specified descriptor is active
 580:Generated_Source\PSoC4/SPI_TxDMA.h **** *  in the DMA transfer engine. This can be checked by calling CyDmaGetStatus(). 
 581:Generated_Source\PSoC4/SPI_TxDMA.h **** *
 582:Generated_Source\PSoC4/SPI_TxDMA.h **** *******************************************************************************/
 583:Generated_Source\PSoC4/SPI_TxDMA.h **** static CY_INLINE void SPI_TxDMA_SetAddressIncrement(int32 descriptor, uint32 addressIncrement)
 584:Generated_Source\PSoC4/SPI_TxDMA.h **** {
 585:Generated_Source\PSoC4/SPI_TxDMA.h ****     CyDmaSetAddressIncrement(SPI_TxDMA_CHANNEL, descriptor, addressIncrement);
 586:Generated_Source\PSoC4/SPI_TxDMA.h **** }
 587:Generated_Source\PSoC4/SPI_TxDMA.h **** 
 588:Generated_Source\PSoC4/SPI_TxDMA.h **** 
 589:Generated_Source\PSoC4/SPI_TxDMA.h **** /*******************************************************************************
 590:Generated_Source\PSoC4/SPI_TxDMA.h **** * Function Name: SPI_TxDMA_GetAddressIncrement
 591:Generated_Source\PSoC4/SPI_TxDMA.h **** ********************************************************************************
 592:Generated_Source\PSoC4/SPI_TxDMA.h **** *
 593:Generated_Source\PSoC4/SPI_TxDMA.h **** * Summary:
 594:Generated_Source\PSoC4/SPI_TxDMA.h **** *  Returns address increment settings as set by SPI_TxDMA_SetAddressIncrement()
 595:Generated_Source\PSoC4/SPI_TxDMA.h **** *  or SPI_TxDMA_SetConfiguration().
 596:Generated_Source\PSoC4/SPI_TxDMA.h **** *
 597:Generated_Source\PSoC4/SPI_TxDMA.h **** * Parameters:
 598:Generated_Source\PSoC4/SPI_TxDMA.h **** *  descriptor: Descriptor (0 or 1) modified by this function.
 599:Generated_Source\PSoC4/SPI_TxDMA.h **** *                   
 600:Generated_Source\PSoC4/SPI_TxDMA.h **** * Return:
 601:Generated_Source\PSoC4/SPI_TxDMA.h **** *  Address increment settings. Refer to the API bit field definitions in
 602:Generated_Source\PSoC4/SPI_TxDMA.h **** *  CyDMA_P4.h or the API description in the DMA channel datasheet for more
 603:Generated_Source\PSoC4/SPI_TxDMA.h **** *  information.
 604:Generated_Source\PSoC4/SPI_TxDMA.h **** *
 605:Generated_Source\PSoC4/SPI_TxDMA.h **** *******************************************************************************/
 606:Generated_Source\PSoC4/SPI_TxDMA.h **** static CY_INLINE uint32 SPI_TxDMA_GetAddressIncrement(int32 descriptor)
 607:Generated_Source\PSoC4/SPI_TxDMA.h **** {
 608:Generated_Source\PSoC4/SPI_TxDMA.h ****     return (CyDmaGetAddressIncrement(SPI_TxDMA_CHANNEL, descriptor));
 609:Generated_Source\PSoC4/SPI_TxDMA.h **** }
 610:Generated_Source\PSoC4/SPI_TxDMA.h **** 
 611:Generated_Source\PSoC4/SPI_TxDMA.h **** 
 612:Generated_Source\PSoC4/SPI_TxDMA.h **** /*******************************************************************************
 613:Generated_Source\PSoC4/SPI_TxDMA.h **** * Function Name: SPI_TxDMA_SetTriggerType
 614:Generated_Source\PSoC4/SPI_TxDMA.h **** ********************************************************************************
 615:Generated_Source\PSoC4/SPI_TxDMA.h **** *
 616:Generated_Source\PSoC4/SPI_TxDMA.h **** * Summary:
ARM GAS  C:\Users\psmus\AppData\Local\Temp\cc7FfqyC.s 			page 29


 617:Generated_Source\PSoC4/SPI_TxDMA.h **** *  Sets the type of input trigger for the DMA For level sensitive triggers sets
 618:Generated_Source\PSoC4/SPI_TxDMA.h **** *  how long the DMA waits for the trigger to go low (deactivate) before
 619:Generated_Source\PSoC4/SPI_TxDMA.h **** *  triggering the channel again.
 620:Generated_Source\PSoC4/SPI_TxDMA.h **** *
 621:Generated_Source\PSoC4/SPI_TxDMA.h **** * Parameters:
 622:Generated_Source\PSoC4/SPI_TxDMA.h **** *  descriptor:  Descriptor (0 or 1) modified by this function.
 623:Generated_Source\PSoC4/SPI_TxDMA.h **** *  triggerType: Type of DMA trigger. Refer to the API bit field definitions in
 624:Generated_Source\PSoC4/SPI_TxDMA.h **** *               CyDMA_P4.h or the API description in the DMA channel datasheet
 625:Generated_Source\PSoC4/SPI_TxDMA.h **** *               for the parameter options.
 626:Generated_Source\PSoC4/SPI_TxDMA.h **** *                   
 627:Generated_Source\PSoC4/SPI_TxDMA.h **** * Return:
 628:Generated_Source\PSoC4/SPI_TxDMA.h **** *  None.
 629:Generated_Source\PSoC4/SPI_TxDMA.h **** *
 630:Generated_Source\PSoC4/SPI_TxDMA.h **** * Side effect:
 631:Generated_Source\PSoC4/SPI_TxDMA.h **** *  This function should not be called when the specified descriptor is active
 632:Generated_Source\PSoC4/SPI_TxDMA.h **** *  in the DMA transfer engine. This can be checked by calling CyDmaGetStatus(). 
 633:Generated_Source\PSoC4/SPI_TxDMA.h **** *
 634:Generated_Source\PSoC4/SPI_TxDMA.h **** *******************************************************************************/
 635:Generated_Source\PSoC4/SPI_TxDMA.h **** static CY_INLINE void SPI_TxDMA_SetTriggerType(int32 descriptor, uint32 triggerType)
 636:Generated_Source\PSoC4/SPI_TxDMA.h **** {
 637:Generated_Source\PSoC4/SPI_TxDMA.h ****     CyDmaSetTriggerType(SPI_TxDMA_CHANNEL, descriptor, triggerType);
 638:Generated_Source\PSoC4/SPI_TxDMA.h **** }
 639:Generated_Source\PSoC4/SPI_TxDMA.h **** 
 640:Generated_Source\PSoC4/SPI_TxDMA.h **** 
 641:Generated_Source\PSoC4/SPI_TxDMA.h **** /*******************************************************************************
 642:Generated_Source\PSoC4/SPI_TxDMA.h **** * Function Name: SPI_TxDMA_GetTriggerType
 643:Generated_Source\PSoC4/SPI_TxDMA.h **** ********************************************************************************
 644:Generated_Source\PSoC4/SPI_TxDMA.h **** *
 645:Generated_Source\PSoC4/SPI_TxDMA.h **** * Summary:
 646:Generated_Source\PSoC4/SPI_TxDMA.h **** *  Returns the trigger deactivation settings as set by SPI_TxDMA_SetTriggerType()
 647:Generated_Source\PSoC4/SPI_TxDMA.h **** *  or SPI_TxDMA_SetConfiguration().
 648:Generated_Source\PSoC4/SPI_TxDMA.h **** *
 649:Generated_Source\PSoC4/SPI_TxDMA.h **** * Parameters:
 650:Generated_Source\PSoC4/SPI_TxDMA.h **** *  descriptor: Descriptor (0 or 1) modified by this function.
 651:Generated_Source\PSoC4/SPI_TxDMA.h **** *                   
 652:Generated_Source\PSoC4/SPI_TxDMA.h **** * Return:
 653:Generated_Source\PSoC4/SPI_TxDMA.h **** *  Trigger deactivation settings. Refer to the API bit field definitions in
 654:Generated_Source\PSoC4/SPI_TxDMA.h **** *  CyDMA_P4.h or the API description in the DMA channel datasheet for more
 655:Generated_Source\PSoC4/SPI_TxDMA.h **** *  information.
 656:Generated_Source\PSoC4/SPI_TxDMA.h **** *
 657:Generated_Source\PSoC4/SPI_TxDMA.h **** *******************************************************************************/
 658:Generated_Source\PSoC4/SPI_TxDMA.h **** static CY_INLINE uint32 SPI_TxDMA_GetTriggerType(int32 descriptor)
 659:Generated_Source\PSoC4/SPI_TxDMA.h **** {
 660:Generated_Source\PSoC4/SPI_TxDMA.h ****     return (CyDmaGetTriggerType(SPI_TxDMA_CHANNEL, descriptor));
 661:Generated_Source\PSoC4/SPI_TxDMA.h **** }
 662:Generated_Source\PSoC4/SPI_TxDMA.h **** 
 663:Generated_Source\PSoC4/SPI_TxDMA.h **** 
 664:Generated_Source\PSoC4/SPI_TxDMA.h **** /*******************************************************************************
 665:Generated_Source\PSoC4/SPI_TxDMA.h **** * Function Name: SPI_TxDMA_SetTransferMode
 666:Generated_Source\PSoC4/SPI_TxDMA.h **** ********************************************************************************
 667:Generated_Source\PSoC4/SPI_TxDMA.h **** *
 668:Generated_Source\PSoC4/SPI_TxDMA.h **** * Summary:
 669:Generated_Source\PSoC4/SPI_TxDMA.h **** *  Sets the DMA transfer mode. This determines how the DMA reacts to each trigger
 670:Generated_Source\PSoC4/SPI_TxDMA.h **** *  event.
 671:Generated_Source\PSoC4/SPI_TxDMA.h **** *
 672:Generated_Source\PSoC4/SPI_TxDMA.h **** * Parameters:
 673:Generated_Source\PSoC4/SPI_TxDMA.h **** *  descriptor:   Descriptor (0 or 1) modified by this function.
ARM GAS  C:\Users\psmus\AppData\Local\Temp\cc7FfqyC.s 			page 30


 674:Generated_Source\PSoC4/SPI_TxDMA.h **** *  transferMode: Specifies the DMA transfer mode settings. Refer to the API bit
 675:Generated_Source\PSoC4/SPI_TxDMA.h **** *                field definitions in CyDMA_P4.h or the API description in the
 676:Generated_Source\PSoC4/SPI_TxDMA.h **** *                DMA channel datasheet for the parameter options.
 677:Generated_Source\PSoC4/SPI_TxDMA.h **** *                   
 678:Generated_Source\PSoC4/SPI_TxDMA.h **** * Return:
 679:Generated_Source\PSoC4/SPI_TxDMA.h **** *  None.
 680:Generated_Source\PSoC4/SPI_TxDMA.h **** *
 681:Generated_Source\PSoC4/SPI_TxDMA.h **** * Side effect:
 682:Generated_Source\PSoC4/SPI_TxDMA.h **** *  This function should not be called when the specified descriptor is active
 683:Generated_Source\PSoC4/SPI_TxDMA.h **** *  in the DMA transfer engine. This can be checked by calling CyDmaGetStatus(). 
 684:Generated_Source\PSoC4/SPI_TxDMA.h **** *
 685:Generated_Source\PSoC4/SPI_TxDMA.h **** *******************************************************************************/
 686:Generated_Source\PSoC4/SPI_TxDMA.h **** static CY_INLINE void SPI_TxDMA_SetTransferMode(int32 descriptor, uint32 transferMode)
 687:Generated_Source\PSoC4/SPI_TxDMA.h **** {
 688:Generated_Source\PSoC4/SPI_TxDMA.h ****     CyDmaSetTransferMode(SPI_TxDMA_CHANNEL, descriptor, transferMode);
 689:Generated_Source\PSoC4/SPI_TxDMA.h **** }
 690:Generated_Source\PSoC4/SPI_TxDMA.h **** 
 691:Generated_Source\PSoC4/SPI_TxDMA.h **** 
 692:Generated_Source\PSoC4/SPI_TxDMA.h **** /*******************************************************************************
 693:Generated_Source\PSoC4/SPI_TxDMA.h **** * Function Name: SPI_TxDMA_GetTransferMode
 694:Generated_Source\PSoC4/SPI_TxDMA.h **** ********************************************************************************
 695:Generated_Source\PSoC4/SPI_TxDMA.h **** *
 696:Generated_Source\PSoC4/SPI_TxDMA.h **** * Summary:
 697:Generated_Source\PSoC4/SPI_TxDMA.h **** *  Returns the transfer mode for the specified descriptor as set by 
 698:Generated_Source\PSoC4/SPI_TxDMA.h **** *  SPI_TxDMA_SetTransferMode() or SPI_TxDMA_SetConfiguration().
 699:Generated_Source\PSoC4/SPI_TxDMA.h **** *
 700:Generated_Source\PSoC4/SPI_TxDMA.h **** * Parameters:
 701:Generated_Source\PSoC4/SPI_TxDMA.h **** *  descriptor: Descriptor (0 or 1) modified by this function.
 702:Generated_Source\PSoC4/SPI_TxDMA.h **** *                   
 703:Generated_Source\PSoC4/SPI_TxDMA.h **** * Return:
 704:Generated_Source\PSoC4/SPI_TxDMA.h **** *  DMA transfer mode settings. Refer to the API bit field definitions in
 705:Generated_Source\PSoC4/SPI_TxDMA.h **** *  CyDMA_P4.h or the API description in the DMA channel datasheet for more
 706:Generated_Source\PSoC4/SPI_TxDMA.h **** *  information.
 707:Generated_Source\PSoC4/SPI_TxDMA.h **** *
 708:Generated_Source\PSoC4/SPI_TxDMA.h **** *******************************************************************************/
 709:Generated_Source\PSoC4/SPI_TxDMA.h **** static CY_INLINE uint32 SPI_TxDMA_GetTransferMode(int32 descriptor)
 710:Generated_Source\PSoC4/SPI_TxDMA.h **** {
 711:Generated_Source\PSoC4/SPI_TxDMA.h ****     return (CyDmaGetTransferMode(SPI_TxDMA_CHANNEL, descriptor));
 712:Generated_Source\PSoC4/SPI_TxDMA.h **** }
 713:Generated_Source\PSoC4/SPI_TxDMA.h **** 
 714:Generated_Source\PSoC4/SPI_TxDMA.h **** 
 715:Generated_Source\PSoC4/SPI_TxDMA.h **** /*******************************************************************************
 716:Generated_Source\PSoC4/SPI_TxDMA.h **** * Function Name: SPI_TxDMA_SetPreemptable
 717:Generated_Source\PSoC4/SPI_TxDMA.h **** ********************************************************************************
 718:Generated_Source\PSoC4/SPI_TxDMA.h **** *
 719:Generated_Source\PSoC4/SPI_TxDMA.h **** * Summary:
 720:Generated_Source\PSoC4/SPI_TxDMA.h **** *  Determines if the descriptor is preemptable.
 721:Generated_Source\PSoC4/SPI_TxDMA.h **** *
 722:Generated_Source\PSoC4/SPI_TxDMA.h **** * Parameters:
 723:Generated_Source\PSoC4/SPI_TxDMA.h **** *  descriptor:  Descriptor (0 or 1) modified by this function.
 724:Generated_Source\PSoC4/SPI_TxDMA.h **** *  preemptable: Descriptor preemption settings. Refer to the API bit field
 725:Generated_Source\PSoC4/SPI_TxDMA.h **** *               definitions in CyDMA_P4.h or the API description in the DMA 
 726:Generated_Source\PSoC4/SPI_TxDMA.h **** *               channel datasheet for the parameter options.
 727:Generated_Source\PSoC4/SPI_TxDMA.h **** *                   
 728:Generated_Source\PSoC4/SPI_TxDMA.h **** * Return:
 729:Generated_Source\PSoC4/SPI_TxDMA.h **** *  None.
 730:Generated_Source\PSoC4/SPI_TxDMA.h **** *
ARM GAS  C:\Users\psmus\AppData\Local\Temp\cc7FfqyC.s 			page 31


 731:Generated_Source\PSoC4/SPI_TxDMA.h **** * Side effect:
 732:Generated_Source\PSoC4/SPI_TxDMA.h **** *  This function should not be called when the specified descriptor is active
 733:Generated_Source\PSoC4/SPI_TxDMA.h **** *  in the DMA transfer engine. This can be checked by calling CyDmaGetStatus(). 
 734:Generated_Source\PSoC4/SPI_TxDMA.h **** *
 735:Generated_Source\PSoC4/SPI_TxDMA.h **** *******************************************************************************/
 736:Generated_Source\PSoC4/SPI_TxDMA.h **** static CY_INLINE void SPI_TxDMA_SetPreemptable(int32 descriptor, uint32 preemptable)
 737:Generated_Source\PSoC4/SPI_TxDMA.h **** {
 738:Generated_Source\PSoC4/SPI_TxDMA.h ****     CyDmaSetPreemptable(SPI_TxDMA_CHANNEL, descriptor, preemptable);
 739:Generated_Source\PSoC4/SPI_TxDMA.h **** }
 740:Generated_Source\PSoC4/SPI_TxDMA.h **** 
 741:Generated_Source\PSoC4/SPI_TxDMA.h **** 
 742:Generated_Source\PSoC4/SPI_TxDMA.h **** /*******************************************************************************
 743:Generated_Source\PSoC4/SPI_TxDMA.h **** * Function Name: SPI_TxDMA_GetPreemptable
 744:Generated_Source\PSoC4/SPI_TxDMA.h **** ********************************************************************************
 745:Generated_Source\PSoC4/SPI_TxDMA.h **** *
 746:Generated_Source\PSoC4/SPI_TxDMA.h **** * Summary:
 747:Generated_Source\PSoC4/SPI_TxDMA.h **** *  Returns whether or not the descriptor is preemptable.
 748:Generated_Source\PSoC4/SPI_TxDMA.h **** *
 749:Generated_Source\PSoC4/SPI_TxDMA.h **** * Parameters:
 750:Generated_Source\PSoC4/SPI_TxDMA.h **** *  descriptor: Descriptor (0 or 1) modified by this function.
 751:Generated_Source\PSoC4/SPI_TxDMA.h **** *                   
 752:Generated_Source\PSoC4/SPI_TxDMA.h **** * Return:
 753:Generated_Source\PSoC4/SPI_TxDMA.h **** *  Descriptor preemption setting. Refer to the API bit field definitions in
 754:Generated_Source\PSoC4/SPI_TxDMA.h **** *  CyDMA_P4.h or the API description in the DMA channel datasheet for more
 755:Generated_Source\PSoC4/SPI_TxDMA.h **** *  information.
 756:Generated_Source\PSoC4/SPI_TxDMA.h **** *
 757:Generated_Source\PSoC4/SPI_TxDMA.h **** *******************************************************************************/
 758:Generated_Source\PSoC4/SPI_TxDMA.h **** static CY_INLINE uint32 SPI_TxDMA_GetPreemptable(int32 descriptor)
 759:Generated_Source\PSoC4/SPI_TxDMA.h **** {
 760:Generated_Source\PSoC4/SPI_TxDMA.h ****     return (CyDmaGetPreemptable(SPI_TxDMA_CHANNEL, descriptor));
 761:Generated_Source\PSoC4/SPI_TxDMA.h **** }
 762:Generated_Source\PSoC4/SPI_TxDMA.h **** 
 763:Generated_Source\PSoC4/SPI_TxDMA.h **** 
 764:Generated_Source\PSoC4/SPI_TxDMA.h **** /*******************************************************************************
 765:Generated_Source\PSoC4/SPI_TxDMA.h **** * Function Name: SPI_TxDMA_SetPostCompletionActions
 766:Generated_Source\PSoC4/SPI_TxDMA.h **** ********************************************************************************
 767:Generated_Source\PSoC4/SPI_TxDMA.h **** *
 768:Generated_Source\PSoC4/SPI_TxDMA.h **** * Summary:
 769:Generated_Source\PSoC4/SPI_TxDMA.h **** *  Determines what occurs after a descriptor completes.
 770:Generated_Source\PSoC4/SPI_TxDMA.h **** *
 771:Generated_Source\PSoC4/SPI_TxDMA.h **** * Parameters:
 772:Generated_Source\PSoC4/SPI_TxDMA.h **** *  descriptor: Descriptor (0 or 1) modified by this function.
 773:Generated_Source\PSoC4/SPI_TxDMA.h **** *  actions:    Specifies descriptor post completion actions. Refer to the API
 774:Generated_Source\PSoC4/SPI_TxDMA.h **** *              bit field definitions in CyDMA_P4.h or the API description in the
 775:Generated_Source\PSoC4/SPI_TxDMA.h **** *              DMA channel datasheet for the parameter options.
 776:Generated_Source\PSoC4/SPI_TxDMA.h **** *                   
 777:Generated_Source\PSoC4/SPI_TxDMA.h **** * Return:
 778:Generated_Source\PSoC4/SPI_TxDMA.h **** *  None.  
 779:Generated_Source\PSoC4/SPI_TxDMA.h **** *
 780:Generated_Source\PSoC4/SPI_TxDMA.h **** * Side effect:
 781:Generated_Source\PSoC4/SPI_TxDMA.h **** *  This function should not be called when the specified descriptor is active
 782:Generated_Source\PSoC4/SPI_TxDMA.h **** *  in the DMA transfer engine. This can be checked by calling CyDmaGetStatus(). 
 783:Generated_Source\PSoC4/SPI_TxDMA.h **** *
 784:Generated_Source\PSoC4/SPI_TxDMA.h **** *******************************************************************************/
 785:Generated_Source\PSoC4/SPI_TxDMA.h **** static CY_INLINE void SPI_TxDMA_SetPostCompletionActions(int32 descriptor, uint32 actions)
 786:Generated_Source\PSoC4/SPI_TxDMA.h **** {
 787:Generated_Source\PSoC4/SPI_TxDMA.h ****     CyDmaSetPostCompletionActions(SPI_TxDMA_CHANNEL, descriptor, actions);
ARM GAS  C:\Users\psmus\AppData\Local\Temp\cc7FfqyC.s 			page 32


 788:Generated_Source\PSoC4/SPI_TxDMA.h **** }
 789:Generated_Source\PSoC4/SPI_TxDMA.h **** 
 790:Generated_Source\PSoC4/SPI_TxDMA.h **** 
 791:Generated_Source\PSoC4/SPI_TxDMA.h **** /*******************************************************************************
 792:Generated_Source\PSoC4/SPI_TxDMA.h **** * Function Name: SPI_TxDMA_GetPostCompletionAction
 793:Generated_Source\PSoC4/SPI_TxDMA.h **** ********************************************************************************
 794:Generated_Source\PSoC4/SPI_TxDMA.h **** *
 795:Generated_Source\PSoC4/SPI_TxDMA.h **** * Summary:
 796:Generated_Source\PSoC4/SPI_TxDMA.h **** *  Returns the post descriptor action settings as set by 
 797:Generated_Source\PSoC4/SPI_TxDMA.h **** *  SPI_TxDMA_SetPostCompletionActions() or SPI_TxDMA_SetConfiguration().
 798:Generated_Source\PSoC4/SPI_TxDMA.h **** *
 799:Generated_Source\PSoC4/SPI_TxDMA.h **** * Parameters:
 800:Generated_Source\PSoC4/SPI_TxDMA.h **** *  descriptor: Descriptor (0 or 1) modified by this function.
 801:Generated_Source\PSoC4/SPI_TxDMA.h **** *                   
 802:Generated_Source\PSoC4/SPI_TxDMA.h **** * Return:
 803:Generated_Source\PSoC4/SPI_TxDMA.h **** *  Post descriptor actions. Refer to the API bit field definitions in CyDMA_P4.h
 804:Generated_Source\PSoC4/SPI_TxDMA.h **** *  or the API description in the DMA channel datasheet for more information.
 805:Generated_Source\PSoC4/SPI_TxDMA.h **** *
 806:Generated_Source\PSoC4/SPI_TxDMA.h **** *******************************************************************************/
 807:Generated_Source\PSoC4/SPI_TxDMA.h **** static CY_INLINE uint32 SPI_TxDMA_GetPostCompletionAction(int32 descriptor)
 808:Generated_Source\PSoC4/SPI_TxDMA.h **** {
 809:Generated_Source\PSoC4/SPI_TxDMA.h ****     return (CyDmaGetPostCompletionActions(SPI_TxDMA_CHANNEL, descriptor));
 810:Generated_Source\PSoC4/SPI_TxDMA.h **** }
 811:Generated_Source\PSoC4/SPI_TxDMA.h **** 
 812:Generated_Source\PSoC4/SPI_TxDMA.h **** 
 813:Generated_Source\PSoC4/SPI_TxDMA.h **** /*******************************************************************************
 814:Generated_Source\PSoC4/SPI_TxDMA.h **** * Function Name: SPI_TxDMA_SetInterruptCallback
 815:Generated_Source\PSoC4/SPI_TxDMA.h **** ********************************************************************************
 816:Generated_Source\PSoC4/SPI_TxDMA.h **** *
 817:Generated_Source\PSoC4/SPI_TxDMA.h **** * Summary:
 818:Generated_Source\PSoC4/SPI_TxDMA.h **** *  Sets a user defined callback function to be called by the DMA interrupt. The
 819:Generated_Source\PSoC4/SPI_TxDMA.h **** *  function should contain code to process the interrupt request for the 
 820:Generated_Source\PSoC4/SPI_TxDMA.h **** *  associated DMA channel.
 821:Generated_Source\PSoC4/SPI_TxDMA.h **** *
 822:Generated_Source\PSoC4/SPI_TxDMA.h **** * Parameters:
 823:Generated_Source\PSoC4/SPI_TxDMA.h **** *  callback: Pointer to the user defined callback function.
 824:Generated_Source\PSoC4/SPI_TxDMA.h **** *
 825:Generated_Source\PSoC4/SPI_TxDMA.h **** * Return:
 826:Generated_Source\PSoC4/SPI_TxDMA.h **** *  Pointer to the function previously set for the specified channel. 
 827:Generated_Source\PSoC4/SPI_TxDMA.h **** *
 828:Generated_Source\PSoC4/SPI_TxDMA.h **** *******************************************************************************/
 829:Generated_Source\PSoC4/SPI_TxDMA.h **** static CY_INLINE cydma_callback_t SPI_TxDMA_SetInterruptCallback(cydma_callback_t callback)
 830:Generated_Source\PSoC4/SPI_TxDMA.h **** {
 831:Generated_Source\PSoC4/SPI_TxDMA.h ****     return (CyDmaSetInterruptCallback(SPI_TxDMA_CHANNEL, callback));
  62              		.loc 3 831 0
  63 001c 3049     		ldr	r1, .L2+20
  64 001e 0220     		movs	r0, #2
  65 0020 FFF7FEFF 		bl	CyDmaSetInterruptCallback
  66              	.LVL3:
  67              	.LBE27:
  68              	.LBE26:
  89:AudioOut.c    ****     SPI_RxDMA_SetInterruptCallback(SPI_RxDMA_Done_Interrupt);
  90:AudioOut.c    ****     SPI_TxDMA_SetInterruptCallback(SPI_TxDMA_Done_Interrupt);
  91:AudioOut.c    ****     isr_SPIDone_StartEx(SPIDone);
  69              		.loc 1 91 0
  70 0024 2F48     		ldr	r0, .L2+24
  71 0026 FFF7FEFF 		bl	isr_SPIDone_StartEx
ARM GAS  C:\Users\psmus\AppData\Local\Temp\cc7FfqyC.s 			page 33


  72              	.LVL4:
  92:AudioOut.c    ****     isr_SPIDone_Enable();
  73              		.loc 1 92 0
  74 002a FFF7FEFF 		bl	isr_SPIDone_Enable
  75              	.LVL5:
  93:AudioOut.c    ****     //I2STxDMA_Start(output_buffer, (void *)I2S_TX_FIFO_0_PTR);
  94:AudioOut.c    ****     
  95:AudioOut.c    ****     
  96:AudioOut.c    ****     I2STxDMA_Init();
  76              		.loc 1 96 0
  77 002e FFF7FEFF 		bl	I2STxDMA_Init
  78              	.LVL6:
  79              	.LBB28:
  80              	.LBB29:
  81              		.file 4 "Generated_Source\\PSoC4/I2STxDMA.h"
   1:Generated_Source\PSoC4/I2STxDMA.h **** /*******************************************************************************
   2:Generated_Source\PSoC4/I2STxDMA.h **** * File Name: I2STxDMA.h
   3:Generated_Source\PSoC4/I2STxDMA.h **** * Version 1.0
   4:Generated_Source\PSoC4/I2STxDMA.h **** *
   5:Generated_Source\PSoC4/I2STxDMA.h **** * Description:
   6:Generated_Source\PSoC4/I2STxDMA.h **** *  This file provides DMA channel defines and API function definitions.
   7:Generated_Source\PSoC4/I2STxDMA.h **** *
   8:Generated_Source\PSoC4/I2STxDMA.h **** ********************************************************************************
   9:Generated_Source\PSoC4/I2STxDMA.h **** * Copyright 2015, Cypress Semiconductor Corporation. All rights reserved.
  10:Generated_Source\PSoC4/I2STxDMA.h **** * You may use this file only in accordance with the license, terms, conditions,
  11:Generated_Source\PSoC4/I2STxDMA.h **** * disclaimers, and limitations in the end user license agreement accompanying
  12:Generated_Source\PSoC4/I2STxDMA.h **** * the software package with which this file was provided.
  13:Generated_Source\PSoC4/I2STxDMA.h **** *******************************************************************************/
  14:Generated_Source\PSoC4/I2STxDMA.h **** 
  15:Generated_Source\PSoC4/I2STxDMA.h **** #ifndef CY_DMA_CHANNEL_I2STxDMA_H
  16:Generated_Source\PSoC4/I2STxDMA.h **** #define CY_DMA_CHANNEL_I2STxDMA_H
  17:Generated_Source\PSoC4/I2STxDMA.h **** 
  18:Generated_Source\PSoC4/I2STxDMA.h **** #include "CyDMA.h"
  19:Generated_Source\PSoC4/I2STxDMA.h **** 
  20:Generated_Source\PSoC4/I2STxDMA.h ****     
  21:Generated_Source\PSoC4/I2STxDMA.h **** /***************************************
  22:Generated_Source\PSoC4/I2STxDMA.h **** *   Conditional Compilation Parameters
  23:Generated_Source\PSoC4/I2STxDMA.h **** ***************************************/
  24:Generated_Source\PSoC4/I2STxDMA.h **** 
  25:Generated_Source\PSoC4/I2STxDMA.h **** #define I2STxDMA_CHANNEL           (I2STxDMA__CHANNEL_NUMBER)
  26:Generated_Source\PSoC4/I2STxDMA.h **** #define I2STxDMA_CHANNEL_MASK      ((uint32)(1UL << I2STxDMA_CHANNEL))
  27:Generated_Source\PSoC4/I2STxDMA.h **** 
  28:Generated_Source\PSoC4/I2STxDMA.h **** 
  29:Generated_Source\PSoC4/I2STxDMA.h **** /***************************************
  30:Generated_Source\PSoC4/I2STxDMA.h **** *        Function Prototypes
  31:Generated_Source\PSoC4/I2STxDMA.h **** ***************************************/
  32:Generated_Source\PSoC4/I2STxDMA.h **** 
  33:Generated_Source\PSoC4/I2STxDMA.h **** /* Functions specific to this DMA channel */
  34:Generated_Source\PSoC4/I2STxDMA.h **** void I2STxDMA_Init(void);
  35:Generated_Source\PSoC4/I2STxDMA.h **** void I2STxDMA_Start(void * srcAddress, void * dstAddress);
  36:Generated_Source\PSoC4/I2STxDMA.h **** 
  37:Generated_Source\PSoC4/I2STxDMA.h **** /* Inline functions that call global API functions */
  38:Generated_Source\PSoC4/I2STxDMA.h **** static void   I2STxDMA_ChEnable(void);
  39:Generated_Source\PSoC4/I2STxDMA.h **** static void   I2STxDMA_ChDisable(void);
  40:Generated_Source\PSoC4/I2STxDMA.h **** static void   I2STxDMA_Trigger(void);
  41:Generated_Source\PSoC4/I2STxDMA.h **** static void   I2STxDMA_SetPriority(int32 priority);
  42:Generated_Source\PSoC4/I2STxDMA.h **** static int32  I2STxDMA_GetPriority(void);
ARM GAS  C:\Users\psmus\AppData\Local\Temp\cc7FfqyC.s 			page 34


  43:Generated_Source\PSoC4/I2STxDMA.h **** static void   I2STxDMA_SetNextDescriptor(int32 descriptor);
  44:Generated_Source\PSoC4/I2STxDMA.h **** static int32  I2STxDMA_GetNextDescriptor(void);
  45:Generated_Source\PSoC4/I2STxDMA.h **** static void   I2STxDMA_SetConfiguration(int32 descriptor, const cydma_init_struct * config);
  46:Generated_Source\PSoC4/I2STxDMA.h **** static void   I2STxDMA_ValidateDescriptor(int32 descriptor);
  47:Generated_Source\PSoC4/I2STxDMA.h **** static uint32 I2STxDMA_GetDescriptorStatus(int32 descriptor);
  48:Generated_Source\PSoC4/I2STxDMA.h **** static void   I2STxDMA_SetSrcAddress(int32 descriptor, void * srcAddress);
  49:Generated_Source\PSoC4/I2STxDMA.h **** static void * I2STxDMA_GetSrcAddress(int32 descriptor);
  50:Generated_Source\PSoC4/I2STxDMA.h **** static void   I2STxDMA_SetDstAddress(int32 descriptor, void * dstAddress);
  51:Generated_Source\PSoC4/I2STxDMA.h **** static void * I2STxDMA_GetDstAddress(int32 descriptor);
  52:Generated_Source\PSoC4/I2STxDMA.h **** static void   I2STxDMA_SetDataElementSize(int32 descriptor, uint32 dataElementSize);
  53:Generated_Source\PSoC4/I2STxDMA.h **** static uint32 I2STxDMA_GetDataElementSize(int32 descriptor);
  54:Generated_Source\PSoC4/I2STxDMA.h **** static void   I2STxDMA_SetNumDataElements(int32 descriptor, int32 numDataElements);
  55:Generated_Source\PSoC4/I2STxDMA.h **** static int32  I2STxDMA_GetNumDataElements(int32 descriptor);
  56:Generated_Source\PSoC4/I2STxDMA.h **** static void   I2STxDMA_SetSrcDstTransferWidth(int32 descriptor, uint32 transferWidth);
  57:Generated_Source\PSoC4/I2STxDMA.h **** static uint32 I2STxDMA_GetSrcDstTransferWidth(int32 descriptor);
  58:Generated_Source\PSoC4/I2STxDMA.h **** static void   I2STxDMA_SetAddressIncrement(int32 descriptor, uint32 addressIncrement);
  59:Generated_Source\PSoC4/I2STxDMA.h **** static uint32 I2STxDMA_GetAddressIncrement(int32 descriptor);
  60:Generated_Source\PSoC4/I2STxDMA.h **** static void   I2STxDMA_SetTriggerType(int32 descriptor, uint32 triggerType);
  61:Generated_Source\PSoC4/I2STxDMA.h **** static uint32 I2STxDMA_GetTriggerType(int32 descriptor);
  62:Generated_Source\PSoC4/I2STxDMA.h **** static void   I2STxDMA_SetTransferMode(int32 descriptor, uint32 transferMode);
  63:Generated_Source\PSoC4/I2STxDMA.h **** static uint32 I2STxDMA_GetTransferMode(int32 descriptor);
  64:Generated_Source\PSoC4/I2STxDMA.h **** static void   I2STxDMA_SetPreemptable(int32 descriptor, uint32 preemptable);
  65:Generated_Source\PSoC4/I2STxDMA.h **** static uint32 I2STxDMA_GetPreemptable(int32 descriptor);
  66:Generated_Source\PSoC4/I2STxDMA.h **** static void   I2STxDMA_SetPostCompletionActions(int32 descriptor, uint32 actions);
  67:Generated_Source\PSoC4/I2STxDMA.h **** static uint32 I2STxDMA_GetPostCompletionAction(int32 descriptor);
  68:Generated_Source\PSoC4/I2STxDMA.h **** static cydma_callback_t I2STxDMA_SetInterruptCallback(cydma_callback_t callback);
  69:Generated_Source\PSoC4/I2STxDMA.h **** static cydma_callback_t I2STxDMA_GetInterruptCallback(void);
  70:Generated_Source\PSoC4/I2STxDMA.h **** 
  71:Generated_Source\PSoC4/I2STxDMA.h **** 
  72:Generated_Source\PSoC4/I2STxDMA.h **** /*******************************************************************************
  73:Generated_Source\PSoC4/I2STxDMA.h **** * Function Name: I2STxDMA_ChEnable
  74:Generated_Source\PSoC4/I2STxDMA.h **** ********************************************************************************
  75:Generated_Source\PSoC4/I2STxDMA.h **** *
  76:Generated_Source\PSoC4/I2STxDMA.h **** * Summary:
  77:Generated_Source\PSoC4/I2STxDMA.h **** *  Enables the DMA channel. It is not necessary to call I2STxDMA_ChEnable()
  78:Generated_Source\PSoC4/I2STxDMA.h **** *  because the I2STxDMA_Start() API calls this function, which is the
  79:Generated_Source\PSoC4/I2STxDMA.h **** *  preferred method to begin the component operation.
  80:Generated_Source\PSoC4/I2STxDMA.h **** *
  81:Generated_Source\PSoC4/I2STxDMA.h **** * Parameters:
  82:Generated_Source\PSoC4/I2STxDMA.h **** *  None.
  83:Generated_Source\PSoC4/I2STxDMA.h **** *                   
  84:Generated_Source\PSoC4/I2STxDMA.h **** * Return:
  85:Generated_Source\PSoC4/I2STxDMA.h **** *  None.
  86:Generated_Source\PSoC4/I2STxDMA.h **** *
  87:Generated_Source\PSoC4/I2STxDMA.h **** * Side effect:
  88:Generated_Source\PSoC4/I2STxDMA.h **** *  If this function is called before I2STxDMA_Start(), or I2STxDMA_Init()
  89:Generated_Source\PSoC4/I2STxDMA.h **** *  or I2STxDMA_SetConfiguration(), and I2STxDMA_SetSrcAddress()
  90:Generated_Source\PSoC4/I2STxDMA.h **** *  and I2STxDMA_SetDstAddress the operation of the DMA is 
  91:Generated_Source\PSoC4/I2STxDMA.h **** *  undefined and could result in system data corruption. 
  92:Generated_Source\PSoC4/I2STxDMA.h **** *
  93:Generated_Source\PSoC4/I2STxDMA.h **** *******************************************************************************/
  94:Generated_Source\PSoC4/I2STxDMA.h **** static CY_INLINE void I2STxDMA_ChEnable(void)
  95:Generated_Source\PSoC4/I2STxDMA.h **** {
  96:Generated_Source\PSoC4/I2STxDMA.h ****     CyDmaChEnable(I2STxDMA_CHANNEL);
  97:Generated_Source\PSoC4/I2STxDMA.h **** }
  98:Generated_Source\PSoC4/I2STxDMA.h **** 
  99:Generated_Source\PSoC4/I2STxDMA.h **** 
ARM GAS  C:\Users\psmus\AppData\Local\Temp\cc7FfqyC.s 			page 35


 100:Generated_Source\PSoC4/I2STxDMA.h **** /*******************************************************************************
 101:Generated_Source\PSoC4/I2STxDMA.h **** * Function Name: I2STxDMA_ChDisable
 102:Generated_Source\PSoC4/I2STxDMA.h **** ********************************************************************************
 103:Generated_Source\PSoC4/I2STxDMA.h **** *
 104:Generated_Source\PSoC4/I2STxDMA.h **** * Summary:
 105:Generated_Source\PSoC4/I2STxDMA.h **** *  Disables the DMA channel.
 106:Generated_Source\PSoC4/I2STxDMA.h **** *
 107:Generated_Source\PSoC4/I2STxDMA.h **** * Parameters:
 108:Generated_Source\PSoC4/I2STxDMA.h **** *  None.
 109:Generated_Source\PSoC4/I2STxDMA.h **** *                   
 110:Generated_Source\PSoC4/I2STxDMA.h **** * Return:
 111:Generated_Source\PSoC4/I2STxDMA.h **** *  None.
 112:Generated_Source\PSoC4/I2STxDMA.h **** *
 113:Generated_Source\PSoC4/I2STxDMA.h **** * Side effect:
 114:Generated_Source\PSoC4/I2STxDMA.h **** *  If this function is called during a DMA transfer the transfer is aborted. 
 115:Generated_Source\PSoC4/I2STxDMA.h **** *
 116:Generated_Source\PSoC4/I2STxDMA.h **** *******************************************************************************/
 117:Generated_Source\PSoC4/I2STxDMA.h **** static CY_INLINE void I2STxDMA_ChDisable(void)
 118:Generated_Source\PSoC4/I2STxDMA.h **** {
 119:Generated_Source\PSoC4/I2STxDMA.h ****     CyDmaChDisable(I2STxDMA_CHANNEL);
 120:Generated_Source\PSoC4/I2STxDMA.h **** }
 121:Generated_Source\PSoC4/I2STxDMA.h **** 
 122:Generated_Source\PSoC4/I2STxDMA.h **** 
 123:Generated_Source\PSoC4/I2STxDMA.h **** /*******************************************************************************
 124:Generated_Source\PSoC4/I2STxDMA.h **** * Function Name: I2STxDMA_Trigger
 125:Generated_Source\PSoC4/I2STxDMA.h **** ********************************************************************************
 126:Generated_Source\PSoC4/I2STxDMA.h **** *
 127:Generated_Source\PSoC4/I2STxDMA.h **** * Summary:
 128:Generated_Source\PSoC4/I2STxDMA.h **** *  Triggers the DMA channel, this is useful only for software triggers. This is
 129:Generated_Source\PSoC4/I2STxDMA.h **** *  not needed when hardware triggers are used.
 130:Generated_Source\PSoC4/I2STxDMA.h **** *
 131:Generated_Source\PSoC4/I2STxDMA.h **** * Parameters:
 132:Generated_Source\PSoC4/I2STxDMA.h **** *  None.
 133:Generated_Source\PSoC4/I2STxDMA.h **** *                   
 134:Generated_Source\PSoC4/I2STxDMA.h **** * Return:
 135:Generated_Source\PSoC4/I2STxDMA.h **** *  None. 
 136:Generated_Source\PSoC4/I2STxDMA.h **** *
 137:Generated_Source\PSoC4/I2STxDMA.h **** *******************************************************************************/
 138:Generated_Source\PSoC4/I2STxDMA.h **** static CY_INLINE void I2STxDMA_Trigger(void)
 139:Generated_Source\PSoC4/I2STxDMA.h **** {
 140:Generated_Source\PSoC4/I2STxDMA.h ****     CyDmaTrigger(I2STxDMA_CHANNEL);
 141:Generated_Source\PSoC4/I2STxDMA.h **** }
 142:Generated_Source\PSoC4/I2STxDMA.h **** 
 143:Generated_Source\PSoC4/I2STxDMA.h **** 
 144:Generated_Source\PSoC4/I2STxDMA.h **** /*******************************************************************************
 145:Generated_Source\PSoC4/I2STxDMA.h **** * Function Name: I2STxDMA_SetPriority
 146:Generated_Source\PSoC4/I2STxDMA.h **** ********************************************************************************
 147:Generated_Source\PSoC4/I2STxDMA.h **** *
 148:Generated_Source\PSoC4/I2STxDMA.h **** * Summary:
 149:Generated_Source\PSoC4/I2STxDMA.h **** *  Sets the priority for the channel.
 150:Generated_Source\PSoC4/I2STxDMA.h **** *
 151:Generated_Source\PSoC4/I2STxDMA.h **** * Parameters:
 152:Generated_Source\PSoC4/I2STxDMA.h **** *  priority: Priority for channel. Priority can be 0,1,2, or 3.
 153:Generated_Source\PSoC4/I2STxDMA.h **** *            0 is the highest priority.
 154:Generated_Source\PSoC4/I2STxDMA.h **** *                   
 155:Generated_Source\PSoC4/I2STxDMA.h **** * Return:
 156:Generated_Source\PSoC4/I2STxDMA.h **** *  None.
ARM GAS  C:\Users\psmus\AppData\Local\Temp\cc7FfqyC.s 			page 36


 157:Generated_Source\PSoC4/I2STxDMA.h **** *
 158:Generated_Source\PSoC4/I2STxDMA.h **** * Side effect:
 159:Generated_Source\PSoC4/I2STxDMA.h **** *  This function should not be called while the channel is enabled.
 160:Generated_Source\PSoC4/I2STxDMA.h **** *
 161:Generated_Source\PSoC4/I2STxDMA.h **** *******************************************************************************/
 162:Generated_Source\PSoC4/I2STxDMA.h **** static CY_INLINE void I2STxDMA_SetPriority(int32 priority)
 163:Generated_Source\PSoC4/I2STxDMA.h **** {
 164:Generated_Source\PSoC4/I2STxDMA.h ****     CyDmaSetPriority(I2STxDMA_CHANNEL, priority);
 165:Generated_Source\PSoC4/I2STxDMA.h **** }
 166:Generated_Source\PSoC4/I2STxDMA.h **** 
 167:Generated_Source\PSoC4/I2STxDMA.h **** 
 168:Generated_Source\PSoC4/I2STxDMA.h **** /*******************************************************************************
 169:Generated_Source\PSoC4/I2STxDMA.h **** * Function Name: I2STxDMA_GetPriority
 170:Generated_Source\PSoC4/I2STxDMA.h **** ********************************************************************************
 171:Generated_Source\PSoC4/I2STxDMA.h **** *
 172:Generated_Source\PSoC4/I2STxDMA.h **** * Summary:
 173:Generated_Source\PSoC4/I2STxDMA.h **** *  Gets the priority for the channel.
 174:Generated_Source\PSoC4/I2STxDMA.h **** *
 175:Generated_Source\PSoC4/I2STxDMA.h **** * Parameters:
 176:Generated_Source\PSoC4/I2STxDMA.h **** *  None.
 177:Generated_Source\PSoC4/I2STxDMA.h **** *                   
 178:Generated_Source\PSoC4/I2STxDMA.h **** * Return:
 179:Generated_Source\PSoC4/I2STxDMA.h **** *  Priority for channel. Priority can be 0,1,2, or 3. 0 is the highest priority.
 180:Generated_Source\PSoC4/I2STxDMA.h **** *
 181:Generated_Source\PSoC4/I2STxDMA.h **** *******************************************************************************/
 182:Generated_Source\PSoC4/I2STxDMA.h **** static CY_INLINE int32 I2STxDMA_GetPriority(void)
 183:Generated_Source\PSoC4/I2STxDMA.h **** {
 184:Generated_Source\PSoC4/I2STxDMA.h ****     return (CyDmaGetPriority(I2STxDMA_CHANNEL));
 185:Generated_Source\PSoC4/I2STxDMA.h **** }
 186:Generated_Source\PSoC4/I2STxDMA.h **** 
 187:Generated_Source\PSoC4/I2STxDMA.h **** 
 188:Generated_Source\PSoC4/I2STxDMA.h **** /*******************************************************************************
 189:Generated_Source\PSoC4/I2STxDMA.h **** * Function Name: I2STxDMA_SetNextDescriptor
 190:Generated_Source\PSoC4/I2STxDMA.h **** ********************************************************************************
 191:Generated_Source\PSoC4/I2STxDMA.h **** *
 192:Generated_Source\PSoC4/I2STxDMA.h **** * Summary:
 193:Generated_Source\PSoC4/I2STxDMA.h **** *  Sets the descriptor that should be run the next time the channel is
 194:Generated_Source\PSoC4/I2STxDMA.h **** *  triggered.
 195:Generated_Source\PSoC4/I2STxDMA.h **** *
 196:Generated_Source\PSoC4/I2STxDMA.h **** * Parameters:
 197:Generated_Source\PSoC4/I2STxDMA.h **** *  descriptor: Next Descriptor to run (0 or 1).
 198:Generated_Source\PSoC4/I2STxDMA.h **** *                   
 199:Generated_Source\PSoC4/I2STxDMA.h **** * Side effect:
 200:Generated_Source\PSoC4/I2STxDMA.h **** *  This function should not be called while the channel is enabled.
 201:Generated_Source\PSoC4/I2STxDMA.h **** *
 202:Generated_Source\PSoC4/I2STxDMA.h **** *******************************************************************************/
 203:Generated_Source\PSoC4/I2STxDMA.h **** static CY_INLINE void I2STxDMA_SetNextDescriptor(int32 descriptor)
 204:Generated_Source\PSoC4/I2STxDMA.h **** {
 205:Generated_Source\PSoC4/I2STxDMA.h ****     CyDmaSetNextDescriptor(I2STxDMA_CHANNEL, descriptor);
 206:Generated_Source\PSoC4/I2STxDMA.h **** }
 207:Generated_Source\PSoC4/I2STxDMA.h **** 
 208:Generated_Source\PSoC4/I2STxDMA.h **** 
 209:Generated_Source\PSoC4/I2STxDMA.h **** /*******************************************************************************
 210:Generated_Source\PSoC4/I2STxDMA.h **** * Function Name: I2STxDMA_GetNextDescriptor
 211:Generated_Source\PSoC4/I2STxDMA.h **** ********************************************************************************
 212:Generated_Source\PSoC4/I2STxDMA.h **** *
 213:Generated_Source\PSoC4/I2STxDMA.h **** * Summary:
ARM GAS  C:\Users\psmus\AppData\Local\Temp\cc7FfqyC.s 			page 37


 214:Generated_Source\PSoC4/I2STxDMA.h **** *  Returns the next descriptor that should be run, as set by 
 215:Generated_Source\PSoC4/I2STxDMA.h **** *  I2STxDMA_SetNextDescriptor().
 216:Generated_Source\PSoC4/I2STxDMA.h **** *
 217:Generated_Source\PSoC4/I2STxDMA.h **** * Parameters:
 218:Generated_Source\PSoC4/I2STxDMA.h **** *  None.
 219:Generated_Source\PSoC4/I2STxDMA.h **** *                   
 220:Generated_Source\PSoC4/I2STxDMA.h **** * Return:
 221:Generated_Source\PSoC4/I2STxDMA.h **** *  Next Descriptor to run (0 or 1).
 222:Generated_Source\PSoC4/I2STxDMA.h **** *
 223:Generated_Source\PSoC4/I2STxDMA.h **** *******************************************************************************/
 224:Generated_Source\PSoC4/I2STxDMA.h **** static CY_INLINE int32 I2STxDMA_GetNextDescriptor(void)
 225:Generated_Source\PSoC4/I2STxDMA.h **** {
 226:Generated_Source\PSoC4/I2STxDMA.h ****     return (CyDmaGetNextDescriptor(I2STxDMA_CHANNEL));
 227:Generated_Source\PSoC4/I2STxDMA.h **** }
 228:Generated_Source\PSoC4/I2STxDMA.h **** 
 229:Generated_Source\PSoC4/I2STxDMA.h **** 
 230:Generated_Source\PSoC4/I2STxDMA.h **** /*******************************************************************************
 231:Generated_Source\PSoC4/I2STxDMA.h **** * Function Name: I2STxDMA_SetConfiguration
 232:Generated_Source\PSoC4/I2STxDMA.h **** ********************************************************************************
 233:Generated_Source\PSoC4/I2STxDMA.h **** *
 234:Generated_Source\PSoC4/I2STxDMA.h **** * Summary:
 235:Generated_Source\PSoC4/I2STxDMA.h **** *  Sets configuration information for the specified descriptor.
 236:Generated_Source\PSoC4/I2STxDMA.h **** *
 237:Generated_Source\PSoC4/I2STxDMA.h **** * Parameters:
 238:Generated_Source\PSoC4/I2STxDMA.h **** *  descriptor: Descriptor (0 or 1) modified by this function.
 239:Generated_Source\PSoC4/I2STxDMA.h **** *  config: Pointer to a configuration structure. Refer to cydma_init_struct
 240:Generated_Source\PSoC4/I2STxDMA.h **** *          structure definition in CyDMA_P4.h or the component datasheet.
 241:Generated_Source\PSoC4/I2STxDMA.h **** *                   
 242:Generated_Source\PSoC4/I2STxDMA.h **** * Return:
 243:Generated_Source\PSoC4/I2STxDMA.h **** *  None.
 244:Generated_Source\PSoC4/I2STxDMA.h **** *
 245:Generated_Source\PSoC4/I2STxDMA.h **** * Side effect:
 246:Generated_Source\PSoC4/I2STxDMA.h **** *  The status register associated with the specified descriptor is reset to
 247:Generated_Source\PSoC4/I2STxDMA.h **** *  zero after this function call. This function also validates the descriptor.
 248:Generated_Source\PSoC4/I2STxDMA.h **** *  This function should not be called while the descriptor is active.
 249:Generated_Source\PSoC4/I2STxDMA.h **** *  This can be checked by calling CyDmaGetStatus().
 250:Generated_Source\PSoC4/I2STxDMA.h **** *
 251:Generated_Source\PSoC4/I2STxDMA.h **** *******************************************************************************/
 252:Generated_Source\PSoC4/I2STxDMA.h **** static CY_INLINE void I2STxDMA_SetConfiguration(int32 descriptor, const cydma_init_struct * config)
 253:Generated_Source\PSoC4/I2STxDMA.h **** {
 254:Generated_Source\PSoC4/I2STxDMA.h ****     CyDmaSetConfiguration(I2STxDMA_CHANNEL, descriptor, config);
 255:Generated_Source\PSoC4/I2STxDMA.h **** }
 256:Generated_Source\PSoC4/I2STxDMA.h **** 
 257:Generated_Source\PSoC4/I2STxDMA.h **** 
 258:Generated_Source\PSoC4/I2STxDMA.h **** /*******************************************************************************
 259:Generated_Source\PSoC4/I2STxDMA.h **** * Function Name: I2STxDMA_ValidateDescriptor
 260:Generated_Source\PSoC4/I2STxDMA.h **** ********************************************************************************
 261:Generated_Source\PSoC4/I2STxDMA.h **** *
 262:Generated_Source\PSoC4/I2STxDMA.h **** * Summary:
 263:Generated_Source\PSoC4/I2STxDMA.h **** *  Validates the specified descriptor after it has been invalidated.
 264:Generated_Source\PSoC4/I2STxDMA.h **** *
 265:Generated_Source\PSoC4/I2STxDMA.h **** * Parameters:
 266:Generated_Source\PSoC4/I2STxDMA.h **** *  descriptor: Descriptor (0 or 1) modified by this function.
 267:Generated_Source\PSoC4/I2STxDMA.h **** *                   
 268:Generated_Source\PSoC4/I2STxDMA.h **** * Return:
 269:Generated_Source\PSoC4/I2STxDMA.h **** *  None. 
 270:Generated_Source\PSoC4/I2STxDMA.h **** *
ARM GAS  C:\Users\psmus\AppData\Local\Temp\cc7FfqyC.s 			page 38


 271:Generated_Source\PSoC4/I2STxDMA.h **** * Side effect:
 272:Generated_Source\PSoC4/I2STxDMA.h **** *  The status register associated with the specified descriptor is reset to
 273:Generated_Source\PSoC4/I2STxDMA.h **** *  zero after this function call. This function should not be called while the
 274:Generated_Source\PSoC4/I2STxDMA.h **** *  descriptor is active. This can be checked by calling CyDmaGetStatus().
 275:Generated_Source\PSoC4/I2STxDMA.h **** *
 276:Generated_Source\PSoC4/I2STxDMA.h **** *******************************************************************************/
 277:Generated_Source\PSoC4/I2STxDMA.h **** static CY_INLINE void I2STxDMA_ValidateDescriptor(int32 descriptor)
 278:Generated_Source\PSoC4/I2STxDMA.h **** {
 279:Generated_Source\PSoC4/I2STxDMA.h ****     CyDmaValidateDescriptor(I2STxDMA_CHANNEL, descriptor);
 280:Generated_Source\PSoC4/I2STxDMA.h **** }
 281:Generated_Source\PSoC4/I2STxDMA.h **** 
 282:Generated_Source\PSoC4/I2STxDMA.h **** 
 283:Generated_Source\PSoC4/I2STxDMA.h **** /*******************************************************************************
 284:Generated_Source\PSoC4/I2STxDMA.h **** * Function Name: I2STxDMA_GetDescriptorStatus
 285:Generated_Source\PSoC4/I2STxDMA.h **** ********************************************************************************
 286:Generated_Source\PSoC4/I2STxDMA.h **** *
 287:Generated_Source\PSoC4/I2STxDMA.h **** * Summary:
 288:Generated_Source\PSoC4/I2STxDMA.h **** *  Returns the status of the specified descriptor.
 289:Generated_Source\PSoC4/I2STxDMA.h **** *
 290:Generated_Source\PSoC4/I2STxDMA.h **** * Parameters:
 291:Generated_Source\PSoC4/I2STxDMA.h **** *  descriptor: Descriptor (0 or 1) modified by this function.
 292:Generated_Source\PSoC4/I2STxDMA.h **** *                   
 293:Generated_Source\PSoC4/I2STxDMA.h **** * Return:
 294:Generated_Source\PSoC4/I2STxDMA.h **** *  Returns the contents of the specified descriptors status register. Refer to 
 295:Generated_Source\PSoC4/I2STxDMA.h **** *  descriptor status register bit definitions in CyDMA_P4.h or the API
 296:Generated_Source\PSoC4/I2STxDMA.h **** *  description in the DMA channel datasheet for more information.
 297:Generated_Source\PSoC4/I2STxDMA.h **** *
 298:Generated_Source\PSoC4/I2STxDMA.h **** *******************************************************************************/
 299:Generated_Source\PSoC4/I2STxDMA.h **** static CY_INLINE uint32 I2STxDMA_GetDescriptorStatus(int32 descriptor)
 300:Generated_Source\PSoC4/I2STxDMA.h **** {
 301:Generated_Source\PSoC4/I2STxDMA.h ****     return (CyDmaGetDescriptorStatus(I2STxDMA_CHANNEL, descriptor));
 302:Generated_Source\PSoC4/I2STxDMA.h **** }
 303:Generated_Source\PSoC4/I2STxDMA.h **** 
 304:Generated_Source\PSoC4/I2STxDMA.h **** 
 305:Generated_Source\PSoC4/I2STxDMA.h **** /*******************************************************************************
 306:Generated_Source\PSoC4/I2STxDMA.h **** * Function Name: I2STxDMA_SetSrcAddress
 307:Generated_Source\PSoC4/I2STxDMA.h **** ********************************************************************************
 308:Generated_Source\PSoC4/I2STxDMA.h **** *
 309:Generated_Source\PSoC4/I2STxDMA.h **** * Summary:
 310:Generated_Source\PSoC4/I2STxDMA.h **** *  Configures the source address for the specified descriptor.
 311:Generated_Source\PSoC4/I2STxDMA.h **** *
 312:Generated_Source\PSoC4/I2STxDMA.h **** * Parameters:
 313:Generated_Source\PSoC4/I2STxDMA.h **** *  descriptor: Descriptor (0 or 1) modified by this function.
 314:Generated_Source\PSoC4/I2STxDMA.h **** *  srcAddress: Address of DMA transfer source.
 315:Generated_Source\PSoC4/I2STxDMA.h **** *                   
 316:Generated_Source\PSoC4/I2STxDMA.h **** * Return:
 317:Generated_Source\PSoC4/I2STxDMA.h **** *  None.
 318:Generated_Source\PSoC4/I2STxDMA.h **** *
 319:Generated_Source\PSoC4/I2STxDMA.h **** * Side effect:
 320:Generated_Source\PSoC4/I2STxDMA.h **** *  This function should not be called when the specified descriptor is active
 321:Generated_Source\PSoC4/I2STxDMA.h **** *  in the DMA transfer engine. This can be checked by calling CyDmaGetStatus(). 
 322:Generated_Source\PSoC4/I2STxDMA.h **** *
 323:Generated_Source\PSoC4/I2STxDMA.h **** *******************************************************************************/
 324:Generated_Source\PSoC4/I2STxDMA.h **** static CY_INLINE void I2STxDMA_SetSrcAddress(int32 descriptor, void * srcAddress)
 325:Generated_Source\PSoC4/I2STxDMA.h **** {
 326:Generated_Source\PSoC4/I2STxDMA.h ****     CyDmaSetSrcAddress(I2STxDMA_CHANNEL, descriptor, srcAddress);
 327:Generated_Source\PSoC4/I2STxDMA.h **** }
ARM GAS  C:\Users\psmus\AppData\Local\Temp\cc7FfqyC.s 			page 39


 328:Generated_Source\PSoC4/I2STxDMA.h **** 
 329:Generated_Source\PSoC4/I2STxDMA.h **** 
 330:Generated_Source\PSoC4/I2STxDMA.h **** /*******************************************************************************
 331:Generated_Source\PSoC4/I2STxDMA.h **** * Function Name: I2STxDMA_GetSrcAddress
 332:Generated_Source\PSoC4/I2STxDMA.h **** ********************************************************************************
 333:Generated_Source\PSoC4/I2STxDMA.h **** *
 334:Generated_Source\PSoC4/I2STxDMA.h **** * Summary:
 335:Generated_Source\PSoC4/I2STxDMA.h **** *  Returns the source address for the specified descriptor, set by either 
 336:Generated_Source\PSoC4/I2STxDMA.h **** *  I2STxDMA_Start() or I2STxDMA_SetSrcAddress().
 337:Generated_Source\PSoC4/I2STxDMA.h **** *
 338:Generated_Source\PSoC4/I2STxDMA.h **** * Parameters:
 339:Generated_Source\PSoC4/I2STxDMA.h **** *  descriptor: Specifies descriptor (0 or 1) used by this function.
 340:Generated_Source\PSoC4/I2STxDMA.h **** *                   
 341:Generated_Source\PSoC4/I2STxDMA.h **** * Return:
 342:Generated_Source\PSoC4/I2STxDMA.h **** *  Source address written to specified descriptor.
 343:Generated_Source\PSoC4/I2STxDMA.h **** *
 344:Generated_Source\PSoC4/I2STxDMA.h **** *******************************************************************************/
 345:Generated_Source\PSoC4/I2STxDMA.h **** static CY_INLINE void * I2STxDMA_GetSrcAddress(int32 descriptor)
 346:Generated_Source\PSoC4/I2STxDMA.h **** {
 347:Generated_Source\PSoC4/I2STxDMA.h ****     return (CyDmaGetSrcAddress(I2STxDMA_CHANNEL, descriptor));
 348:Generated_Source\PSoC4/I2STxDMA.h **** }
 349:Generated_Source\PSoC4/I2STxDMA.h **** 
 350:Generated_Source\PSoC4/I2STxDMA.h **** 
 351:Generated_Source\PSoC4/I2STxDMA.h **** /*******************************************************************************
 352:Generated_Source\PSoC4/I2STxDMA.h **** * Function Name: I2STxDMA_SetDstAddress
 353:Generated_Source\PSoC4/I2STxDMA.h **** ********************************************************************************
 354:Generated_Source\PSoC4/I2STxDMA.h **** *
 355:Generated_Source\PSoC4/I2STxDMA.h **** * Summary:
 356:Generated_Source\PSoC4/I2STxDMA.h **** *  Configures the destination address for the specified descriptor.
 357:Generated_Source\PSoC4/I2STxDMA.h **** *
 358:Generated_Source\PSoC4/I2STxDMA.h **** * Parameters:
 359:Generated_Source\PSoC4/I2STxDMA.h **** *  descriptor: Descriptor (0 or 1) modified by this function.
 360:Generated_Source\PSoC4/I2STxDMA.h **** *  dstAddress: Address of DMA transfer destination.
 361:Generated_Source\PSoC4/I2STxDMA.h **** *                   
 362:Generated_Source\PSoC4/I2STxDMA.h **** * Return:
 363:Generated_Source\PSoC4/I2STxDMA.h **** *  None.
 364:Generated_Source\PSoC4/I2STxDMA.h **** *
 365:Generated_Source\PSoC4/I2STxDMA.h **** * Side effect:
 366:Generated_Source\PSoC4/I2STxDMA.h **** *  This function should not be called when the specified descriptor is active
 367:Generated_Source\PSoC4/I2STxDMA.h **** *  in the DMA transfer engine. This can be checked by calling CyDmaGetStatus(). 
 368:Generated_Source\PSoC4/I2STxDMA.h **** *
 369:Generated_Source\PSoC4/I2STxDMA.h **** *******************************************************************************/
 370:Generated_Source\PSoC4/I2STxDMA.h **** static CY_INLINE void I2STxDMA_SetDstAddress(int32 descriptor, void * dstAddress)
 371:Generated_Source\PSoC4/I2STxDMA.h **** {
 372:Generated_Source\PSoC4/I2STxDMA.h ****     CyDmaSetDstAddress(I2STxDMA_CHANNEL, descriptor, dstAddress);
 373:Generated_Source\PSoC4/I2STxDMA.h **** }
 374:Generated_Source\PSoC4/I2STxDMA.h **** 
 375:Generated_Source\PSoC4/I2STxDMA.h **** 
 376:Generated_Source\PSoC4/I2STxDMA.h **** /*******************************************************************************
 377:Generated_Source\PSoC4/I2STxDMA.h **** * Function Name: I2STxDMA_GetDstAddress
 378:Generated_Source\PSoC4/I2STxDMA.h **** ********************************************************************************
 379:Generated_Source\PSoC4/I2STxDMA.h **** *
 380:Generated_Source\PSoC4/I2STxDMA.h **** * Summary:
 381:Generated_Source\PSoC4/I2STxDMA.h **** *  Returns the destination address for the specified descriptor, set by either 
 382:Generated_Source\PSoC4/I2STxDMA.h **** *  I2STxDMA_Start() or I2STxDMA_SetDstAddress().
 383:Generated_Source\PSoC4/I2STxDMA.h **** *
 384:Generated_Source\PSoC4/I2STxDMA.h **** * Parameters:
ARM GAS  C:\Users\psmus\AppData\Local\Temp\cc7FfqyC.s 			page 40


 385:Generated_Source\PSoC4/I2STxDMA.h **** *  descriptor: Specifies descriptor (0 or 1) used by this function.
 386:Generated_Source\PSoC4/I2STxDMA.h **** *                   
 387:Generated_Source\PSoC4/I2STxDMA.h **** * Return:
 388:Generated_Source\PSoC4/I2STxDMA.h **** *  Destination address written to specified descriptor.
 389:Generated_Source\PSoC4/I2STxDMA.h **** *
 390:Generated_Source\PSoC4/I2STxDMA.h **** *******************************************************************************/
 391:Generated_Source\PSoC4/I2STxDMA.h **** static CY_INLINE void * I2STxDMA_GetDstAddress(int32 descriptor)
 392:Generated_Source\PSoC4/I2STxDMA.h **** {
 393:Generated_Source\PSoC4/I2STxDMA.h ****     return (CyDmaGetDstAddress(I2STxDMA_CHANNEL, descriptor));
 394:Generated_Source\PSoC4/I2STxDMA.h **** }
 395:Generated_Source\PSoC4/I2STxDMA.h **** 
 396:Generated_Source\PSoC4/I2STxDMA.h **** 
 397:Generated_Source\PSoC4/I2STxDMA.h **** /*******************************************************************************
 398:Generated_Source\PSoC4/I2STxDMA.h **** * Function Name: I2STxDMA_SetDataElementSize
 399:Generated_Source\PSoC4/I2STxDMA.h **** ********************************************************************************
 400:Generated_Source\PSoC4/I2STxDMA.h **** *
 401:Generated_Source\PSoC4/I2STxDMA.h **** * Summary:
 402:Generated_Source\PSoC4/I2STxDMA.h **** *  Sets the data element size for the specified descriptor.
 403:Generated_Source\PSoC4/I2STxDMA.h **** *
 404:Generated_Source\PSoC4/I2STxDMA.h **** * Parameters:
 405:Generated_Source\PSoC4/I2STxDMA.h **** *  descriptor:      Descriptor (0 or 1) modified by this function.
 406:Generated_Source\PSoC4/I2STxDMA.h **** *  dataElementSize: Specifies the size of the data element. The DMA transfer
 407:Generated_Source\PSoC4/I2STxDMA.h **** *                   engine transfers one data element at a time. How these
 408:Generated_Source\PSoC4/I2STxDMA.h **** *                   transfers occur is controlled by the transfer mode.
 409:Generated_Source\PSoC4/I2STxDMA.h **** *                   Refer to the API bit field definitions in CyDMA_P4.h or API
 410:Generated_Source\PSoC4/I2STxDMA.h **** *                   description in the DMA channel datasheet for the parameter
 411:Generated_Source\PSoC4/I2STxDMA.h **** *                   options.
 412:Generated_Source\PSoC4/I2STxDMA.h **** *
 413:Generated_Source\PSoC4/I2STxDMA.h **** * Return:
 414:Generated_Source\PSoC4/I2STxDMA.h **** *  None.
 415:Generated_Source\PSoC4/I2STxDMA.h **** *
 416:Generated_Source\PSoC4/I2STxDMA.h **** * Side effect:
 417:Generated_Source\PSoC4/I2STxDMA.h **** *  This function should not be called when the specified descriptor is active
 418:Generated_Source\PSoC4/I2STxDMA.h **** *  in the DMA transfer engine. This can be checked by calling CyDmaGetStatus(). 
 419:Generated_Source\PSoC4/I2STxDMA.h **** *
 420:Generated_Source\PSoC4/I2STxDMA.h **** *******************************************************************************/
 421:Generated_Source\PSoC4/I2STxDMA.h **** static CY_INLINE void I2STxDMA_SetDataElementSize(int32 descriptor, uint32 dataElementSize)
 422:Generated_Source\PSoC4/I2STxDMA.h **** {
 423:Generated_Source\PSoC4/I2STxDMA.h ****     CyDmaSetDataElementSize(I2STxDMA_CHANNEL, descriptor, dataElementSize);
 424:Generated_Source\PSoC4/I2STxDMA.h **** }
 425:Generated_Source\PSoC4/I2STxDMA.h **** 
 426:Generated_Source\PSoC4/I2STxDMA.h **** 
 427:Generated_Source\PSoC4/I2STxDMA.h **** /*******************************************************************************
 428:Generated_Source\PSoC4/I2STxDMA.h **** * Function Name: I2STxDMA_GetDataElementSize
 429:Generated_Source\PSoC4/I2STxDMA.h **** ********************************************************************************
 430:Generated_Source\PSoC4/I2STxDMA.h **** *
 431:Generated_Source\PSoC4/I2STxDMA.h **** * Summary:
 432:Generated_Source\PSoC4/I2STxDMA.h **** *  Returns the data element size configured for the specified descriptor, set by
 433:Generated_Source\PSoC4/I2STxDMA.h **** *  I2STxDMA_SetDataElementSize() or I2STxDMA_SetConfiguration().
 434:Generated_Source\PSoC4/I2STxDMA.h **** *
 435:Generated_Source\PSoC4/I2STxDMA.h **** * Parameters:
 436:Generated_Source\PSoC4/I2STxDMA.h **** *  descriptor: Descriptor (0 or 1) modified by this function.
 437:Generated_Source\PSoC4/I2STxDMA.h **** *                   
 438:Generated_Source\PSoC4/I2STxDMA.h **** * Return:
 439:Generated_Source\PSoC4/I2STxDMA.h **** *  The size of the data element. The DMA transfer engine transfers one data
 440:Generated_Source\PSoC4/I2STxDMA.h **** *  element at a time. How these transfers occur is controlled by the transfer
 441:Generated_Source\PSoC4/I2STxDMA.h **** *  mode. Refer to the API bit field definitions in CyDMA_P4.h or the API 
ARM GAS  C:\Users\psmus\AppData\Local\Temp\cc7FfqyC.s 			page 41


 442:Generated_Source\PSoC4/I2STxDMA.h **** *  description in the DMA channel datasheet for more information.
 443:Generated_Source\PSoC4/I2STxDMA.h **** *
 444:Generated_Source\PSoC4/I2STxDMA.h **** * Note:
 445:Generated_Source\PSoC4/I2STxDMA.h **** *  The size of the source and destination can be configured to use the
 446:Generated_Source\PSoC4/I2STxDMA.h **** *  data element size, or a Word, this is set in I2STxDMA_SetSrcDstTransferWidth().
 447:Generated_Source\PSoC4/I2STxDMA.h **** *
 448:Generated_Source\PSoC4/I2STxDMA.h **** *******************************************************************************/
 449:Generated_Source\PSoC4/I2STxDMA.h **** static CY_INLINE uint32 I2STxDMA_GetDataElementSize(int32 descriptor)
 450:Generated_Source\PSoC4/I2STxDMA.h **** {
 451:Generated_Source\PSoC4/I2STxDMA.h ****     return (CyDmaGetDataElementSize(I2STxDMA_CHANNEL, descriptor));
 452:Generated_Source\PSoC4/I2STxDMA.h **** }
 453:Generated_Source\PSoC4/I2STxDMA.h **** 
 454:Generated_Source\PSoC4/I2STxDMA.h **** 
 455:Generated_Source\PSoC4/I2STxDMA.h **** /*******************************************************************************
 456:Generated_Source\PSoC4/I2STxDMA.h **** * Function Name: I2STxDMA_SetNumDataElements
 457:Generated_Source\PSoC4/I2STxDMA.h **** ********************************************************************************
 458:Generated_Source\PSoC4/I2STxDMA.h **** *
 459:Generated_Source\PSoC4/I2STxDMA.h **** * Summary:
 460:Generated_Source\PSoC4/I2STxDMA.h **** *  Sets the number of data elements to transfer for specified descriptor.
 461:Generated_Source\PSoC4/I2STxDMA.h **** *
 462:Generated_Source\PSoC4/I2STxDMA.h **** * Parameters:
 463:Generated_Source\PSoC4/I2STxDMA.h **** *  descriptor:      Descriptor (0 or 1) modified by this function.
 464:Generated_Source\PSoC4/I2STxDMA.h **** *  numDataElements: Total number of data elements this descriptor transfers.
 465:Generated_Source\PSoC4/I2STxDMA.h **** *                   Valid ranges are 1 to 65536.
 466:Generated_Source\PSoC4/I2STxDMA.h **** *                   
 467:Generated_Source\PSoC4/I2STxDMA.h **** * Return:
 468:Generated_Source\PSoC4/I2STxDMA.h **** *  None.
 469:Generated_Source\PSoC4/I2STxDMA.h **** *
 470:Generated_Source\PSoC4/I2STxDMA.h **** * Side effect:
 471:Generated_Source\PSoC4/I2STxDMA.h **** *  This function should not be called when the specified descriptor is active
 472:Generated_Source\PSoC4/I2STxDMA.h **** *  in the DMA transfer engine. This can be checked by calling CyDmaGetStatus(). 
 473:Generated_Source\PSoC4/I2STxDMA.h **** *
 474:Generated_Source\PSoC4/I2STxDMA.h **** *******************************************************************************/
 475:Generated_Source\PSoC4/I2STxDMA.h **** static CY_INLINE void I2STxDMA_SetNumDataElements(int32 descriptor, int32 numDataElements)
 476:Generated_Source\PSoC4/I2STxDMA.h **** {
 477:Generated_Source\PSoC4/I2STxDMA.h ****     CyDmaSetNumDataElements(I2STxDMA_CHANNEL, descriptor, numDataElements);
  82              		.loc 4 477 0
  83 0032 8025     		movs	r5, #128
  84 0034 6D01     		lsls	r5, r5, #5
  85 0036 2A00     		movs	r2, r5
  86 0038 0021     		movs	r1, #0
  87 003a 0120     		movs	r0, #1
  88 003c FFF7FEFF 		bl	CyDmaSetNumDataElements
  89              	.LVL7:
  90              	.LBE29:
  91              	.LBE28:
  92              	.LBB30:
  93              	.LBB31:
  94 0040 2A00     		movs	r2, r5
  95 0042 0121     		movs	r1, #1
  96 0044 0120     		movs	r0, #1
  97 0046 FFF7FEFF 		bl	CyDmaSetNumDataElements
  98              	.LVL8:
  99              	.LBE31:
 100              	.LBE30:
 101              	.LBB32:
 102              	.LBB33:
ARM GAS  C:\Users\psmus\AppData\Local\Temp\cc7FfqyC.s 			page 42


 326:Generated_Source\PSoC4/I2STxDMA.h **** }
 103              		.loc 4 326 0
 104 004a 2200     		movs	r2, r4
 105 004c 0021     		movs	r1, #0
 106 004e 0120     		movs	r0, #1
 107 0050 FFF7FEFF 		bl	CyDmaSetSrcAddress
 108              	.LVL9:
 109              	.LBE33:
 110              	.LBE32:
 111              	.LBB34:
 112              	.LBB35:
 113 0054 244A     		ldr	r2, .L2+28
 114 0056 0021     		movs	r1, #0
 115 0058 0120     		movs	r0, #1
 116 005a FFF7FEFF 		bl	CyDmaSetSrcAddress
 117              	.LVL10:
 118              	.LBE35:
 119              	.LBE34:
 120              	.LBB36:
 121              	.LBB37:
 372:Generated_Source\PSoC4/I2STxDMA.h **** }
 122              		.loc 4 372 0
 123 005e 234A     		ldr	r2, .L2+32
 124 0060 0021     		movs	r1, #0
 125 0062 0120     		movs	r0, #1
 126 0064 FFF7FEFF 		bl	CyDmaSetDstAddress
 127              	.LVL11:
 128              	.LBE37:
 129              	.LBE36:
 130              	.LBB38:
 131              	.LBB39:
 478:Generated_Source\PSoC4/I2STxDMA.h **** }
 479:Generated_Source\PSoC4/I2STxDMA.h **** 
 480:Generated_Source\PSoC4/I2STxDMA.h **** 
 481:Generated_Source\PSoC4/I2STxDMA.h **** /*******************************************************************************
 482:Generated_Source\PSoC4/I2STxDMA.h **** * Function Name: I2STxDMA_GetNumDataElements
 483:Generated_Source\PSoC4/I2STxDMA.h **** ********************************************************************************
 484:Generated_Source\PSoC4/I2STxDMA.h **** *
 485:Generated_Source\PSoC4/I2STxDMA.h **** * Summary:
 486:Generated_Source\PSoC4/I2STxDMA.h **** *  Returns the number of data elements to be transferred. Only reflects the
 487:Generated_Source\PSoC4/I2STxDMA.h **** *  value written by I2STxDMA_SetNumDataElements() or I2STxDMA_SetConfiguration().
 488:Generated_Source\PSoC4/I2STxDMA.h **** *  This does not reflect how many elements have been transferred. For that
 489:Generated_Source\PSoC4/I2STxDMA.h **** *  information use the I2STxDMA_GetDescriptorStatus() function.
 490:Generated_Source\PSoC4/I2STxDMA.h **** *
 491:Generated_Source\PSoC4/I2STxDMA.h **** * Parameters:
 492:Generated_Source\PSoC4/I2STxDMA.h **** *  descriptor: Descriptor (0 or 1) modified by this function.
 493:Generated_Source\PSoC4/I2STxDMA.h **** *                   
 494:Generated_Source\PSoC4/I2STxDMA.h **** * Return:
 495:Generated_Source\PSoC4/I2STxDMA.h **** *  Number of data elements to transfer.
 496:Generated_Source\PSoC4/I2STxDMA.h **** *
 497:Generated_Source\PSoC4/I2STxDMA.h **** *******************************************************************************/
 498:Generated_Source\PSoC4/I2STxDMA.h **** static CY_INLINE int32 I2STxDMA_GetNumDataElements(int32 descriptor)
 499:Generated_Source\PSoC4/I2STxDMA.h **** {
 500:Generated_Source\PSoC4/I2STxDMA.h ****     return (CyDmaGetNumDataElements(I2STxDMA_CHANNEL, descriptor));
 501:Generated_Source\PSoC4/I2STxDMA.h **** }
 502:Generated_Source\PSoC4/I2STxDMA.h **** 
 503:Generated_Source\PSoC4/I2STxDMA.h **** 
ARM GAS  C:\Users\psmus\AppData\Local\Temp\cc7FfqyC.s 			page 43


 504:Generated_Source\PSoC4/I2STxDMA.h **** /*******************************************************************************
 505:Generated_Source\PSoC4/I2STxDMA.h **** * Function Name: I2STxDMA_SetSrcDstTransferWidth
 506:Generated_Source\PSoC4/I2STxDMA.h **** ********************************************************************************
 507:Generated_Source\PSoC4/I2STxDMA.h **** *
 508:Generated_Source\PSoC4/I2STxDMA.h **** * Summary:
 509:Generated_Source\PSoC4/I2STxDMA.h **** *  Sets the width of the source and destination. The DMA can either read and
 510:Generated_Source\PSoC4/I2STxDMA.h **** *  write data from the source and destination at the size specified by
 511:Generated_Source\PSoC4/I2STxDMA.h **** *  I2STxDMA_SetDataElementSize() or by a word (4bytes). This also determines how
 512:Generated_Source\PSoC4/I2STxDMA.h **** *  many bytes the addresses are incremented if increment source and destination
 513:Generated_Source\PSoC4/I2STxDMA.h **** *  address are turned on.
 514:Generated_Source\PSoC4/I2STxDMA.h **** *
 515:Generated_Source\PSoC4/I2STxDMA.h **** * Parameters:
 516:Generated_Source\PSoC4/I2STxDMA.h **** *  descriptor:    Descriptor (0 or 1) modified by this function.
 517:Generated_Source\PSoC4/I2STxDMA.h **** *  transferWidth: Specifies the source and destination widths. Refer to the API
 518:Generated_Source\PSoC4/I2STxDMA.h **** *                 bit field definitions in CyDMA_P4.h or the API description in
 519:Generated_Source\PSoC4/I2STxDMA.h **** *                 the DMA channel datasheet for the parameter options.
 520:Generated_Source\PSoC4/I2STxDMA.h **** *                   
 521:Generated_Source\PSoC4/I2STxDMA.h **** * Return:
 522:Generated_Source\PSoC4/I2STxDMA.h **** *  None.
 523:Generated_Source\PSoC4/I2STxDMA.h **** *
 524:Generated_Source\PSoC4/I2STxDMA.h **** * Side effect:
 525:Generated_Source\PSoC4/I2STxDMA.h **** *  This function should not be called when the specified descriptor is active
 526:Generated_Source\PSoC4/I2STxDMA.h **** *  in the DMA transfer engine. This can be checked by calling CyDmaGetStatus(). 
 527:Generated_Source\PSoC4/I2STxDMA.h **** *
 528:Generated_Source\PSoC4/I2STxDMA.h **** *******************************************************************************/
 529:Generated_Source\PSoC4/I2STxDMA.h **** static CY_INLINE void I2STxDMA_SetSrcDstTransferWidth(int32 descriptor, uint32 transferWidth)
 530:Generated_Source\PSoC4/I2STxDMA.h **** {
 531:Generated_Source\PSoC4/I2STxDMA.h ****     CyDmaSetSrcDstTransferWidth(I2STxDMA_CHANNEL, descriptor, transferWidth);
 532:Generated_Source\PSoC4/I2STxDMA.h **** }
 533:Generated_Source\PSoC4/I2STxDMA.h **** 
 534:Generated_Source\PSoC4/I2STxDMA.h **** 
 535:Generated_Source\PSoC4/I2STxDMA.h **** /*******************************************************************************
 536:Generated_Source\PSoC4/I2STxDMA.h **** * Function Name: I2STxDMA_GetSrcDstTransferWidth
 537:Generated_Source\PSoC4/I2STxDMA.h **** ********************************************************************************
 538:Generated_Source\PSoC4/I2STxDMA.h **** *
 539:Generated_Source\PSoC4/I2STxDMA.h **** * Summary:
 540:Generated_Source\PSoC4/I2STxDMA.h **** *  Returns the width of the source and destination, as set by 
 541:Generated_Source\PSoC4/I2STxDMA.h **** *  I2STxDMA_SetSrcDstTransferWidth() or I2STxDMA_SetConfiguration().
 542:Generated_Source\PSoC4/I2STxDMA.h **** *
 543:Generated_Source\PSoC4/I2STxDMA.h **** * Parameters:
 544:Generated_Source\PSoC4/I2STxDMA.h **** *  descriptor: Descriptor (0 or 1) modified by this function.
 545:Generated_Source\PSoC4/I2STxDMA.h **** *                   
 546:Generated_Source\PSoC4/I2STxDMA.h **** * Return:
 547:Generated_Source\PSoC4/I2STxDMA.h **** *  Width of source and destination. Refer to the API bit field definitions in
 548:Generated_Source\PSoC4/I2STxDMA.h **** *  CyDMA_P4.h or the API description in the DMA channel datasheet for more
 549:Generated_Source\PSoC4/I2STxDMA.h **** *  information.
 550:Generated_Source\PSoC4/I2STxDMA.h **** *
 551:Generated_Source\PSoC4/I2STxDMA.h **** *******************************************************************************/
 552:Generated_Source\PSoC4/I2STxDMA.h **** static CY_INLINE uint32 I2STxDMA_GetSrcDstTransferWidth(int32 descriptor)
 553:Generated_Source\PSoC4/I2STxDMA.h **** {
 554:Generated_Source\PSoC4/I2STxDMA.h ****     return (CyDmaGetSrcDstTransferWidth(I2STxDMA_CHANNEL, descriptor));
 555:Generated_Source\PSoC4/I2STxDMA.h **** }
 556:Generated_Source\PSoC4/I2STxDMA.h **** 
 557:Generated_Source\PSoC4/I2STxDMA.h **** 
 558:Generated_Source\PSoC4/I2STxDMA.h **** /*******************************************************************************
 559:Generated_Source\PSoC4/I2STxDMA.h **** * Function Name: I2STxDMA_SetAddressIncrement
 560:Generated_Source\PSoC4/I2STxDMA.h **** ********************************************************************************
ARM GAS  C:\Users\psmus\AppData\Local\Temp\cc7FfqyC.s 			page 44


 561:Generated_Source\PSoC4/I2STxDMA.h **** *
 562:Generated_Source\PSoC4/I2STxDMA.h **** * Summary:
 563:Generated_Source\PSoC4/I2STxDMA.h **** *  Sets whether the source or destination addresses are incremented after the
 564:Generated_Source\PSoC4/I2STxDMA.h **** *  transfer of each data element. The amount that the source and destination
 565:Generated_Source\PSoC4/I2STxDMA.h **** *  address are incremented is determined by the I2STxDMA_SetSrcDstTransferWidth()
 566:Generated_Source\PSoC4/I2STxDMA.h **** *  function. The addresses will either be incremented by the data element size
 567:Generated_Source\PSoC4/I2STxDMA.h **** *  or by a word (4 bytes).
 568:Generated_Source\PSoC4/I2STxDMA.h **** *
 569:Generated_Source\PSoC4/I2STxDMA.h **** * Parameters:
 570:Generated_Source\PSoC4/I2STxDMA.h **** *  descriptor:       Descriptor (0 or 1) modified by this function.
 571:Generated_Source\PSoC4/I2STxDMA.h **** *  addressIncrement: Address increment settings. Refer to the API bit field
 572:Generated_Source\PSoC4/I2STxDMA.h **** *                    definitions in CyDMA_P4.h or the API description in the DMA
 573:Generated_Source\PSoC4/I2STxDMA.h **** *                    channel datasheet for the parameter options.
 574:Generated_Source\PSoC4/I2STxDMA.h **** *    
 575:Generated_Source\PSoC4/I2STxDMA.h **** * Return:
 576:Generated_Source\PSoC4/I2STxDMA.h **** *  None.
 577:Generated_Source\PSoC4/I2STxDMA.h **** *
 578:Generated_Source\PSoC4/I2STxDMA.h **** * Side effect:
 579:Generated_Source\PSoC4/I2STxDMA.h **** *  This function should not be called when the specified descriptor is active
 580:Generated_Source\PSoC4/I2STxDMA.h **** *  in the DMA transfer engine. This can be checked by calling CyDmaGetStatus(). 
 581:Generated_Source\PSoC4/I2STxDMA.h **** *
 582:Generated_Source\PSoC4/I2STxDMA.h **** *******************************************************************************/
 583:Generated_Source\PSoC4/I2STxDMA.h **** static CY_INLINE void I2STxDMA_SetAddressIncrement(int32 descriptor, uint32 addressIncrement)
 584:Generated_Source\PSoC4/I2STxDMA.h **** {
 585:Generated_Source\PSoC4/I2STxDMA.h ****     CyDmaSetAddressIncrement(I2STxDMA_CHANNEL, descriptor, addressIncrement);
 586:Generated_Source\PSoC4/I2STxDMA.h **** }
 587:Generated_Source\PSoC4/I2STxDMA.h **** 
 588:Generated_Source\PSoC4/I2STxDMA.h **** 
 589:Generated_Source\PSoC4/I2STxDMA.h **** /*******************************************************************************
 590:Generated_Source\PSoC4/I2STxDMA.h **** * Function Name: I2STxDMA_GetAddressIncrement
 591:Generated_Source\PSoC4/I2STxDMA.h **** ********************************************************************************
 592:Generated_Source\PSoC4/I2STxDMA.h **** *
 593:Generated_Source\PSoC4/I2STxDMA.h **** * Summary:
 594:Generated_Source\PSoC4/I2STxDMA.h **** *  Returns address increment settings as set by I2STxDMA_SetAddressIncrement()
 595:Generated_Source\PSoC4/I2STxDMA.h **** *  or I2STxDMA_SetConfiguration().
 596:Generated_Source\PSoC4/I2STxDMA.h **** *
 597:Generated_Source\PSoC4/I2STxDMA.h **** * Parameters:
 598:Generated_Source\PSoC4/I2STxDMA.h **** *  descriptor: Descriptor (0 or 1) modified by this function.
 599:Generated_Source\PSoC4/I2STxDMA.h **** *                   
 600:Generated_Source\PSoC4/I2STxDMA.h **** * Return:
 601:Generated_Source\PSoC4/I2STxDMA.h **** *  Address increment settings. Refer to the API bit field definitions in
 602:Generated_Source\PSoC4/I2STxDMA.h **** *  CyDMA_P4.h or the API description in the DMA channel datasheet for more
 603:Generated_Source\PSoC4/I2STxDMA.h **** *  information.
 604:Generated_Source\PSoC4/I2STxDMA.h **** *
 605:Generated_Source\PSoC4/I2STxDMA.h **** *******************************************************************************/
 606:Generated_Source\PSoC4/I2STxDMA.h **** static CY_INLINE uint32 I2STxDMA_GetAddressIncrement(int32 descriptor)
 607:Generated_Source\PSoC4/I2STxDMA.h **** {
 608:Generated_Source\PSoC4/I2STxDMA.h ****     return (CyDmaGetAddressIncrement(I2STxDMA_CHANNEL, descriptor));
 609:Generated_Source\PSoC4/I2STxDMA.h **** }
 610:Generated_Source\PSoC4/I2STxDMA.h **** 
 611:Generated_Source\PSoC4/I2STxDMA.h **** 
 612:Generated_Source\PSoC4/I2STxDMA.h **** /*******************************************************************************
 613:Generated_Source\PSoC4/I2STxDMA.h **** * Function Name: I2STxDMA_SetTriggerType
 614:Generated_Source\PSoC4/I2STxDMA.h **** ********************************************************************************
 615:Generated_Source\PSoC4/I2STxDMA.h **** *
 616:Generated_Source\PSoC4/I2STxDMA.h **** * Summary:
 617:Generated_Source\PSoC4/I2STxDMA.h **** *  Sets the type of input trigger for the DMA For level sensitive triggers sets
ARM GAS  C:\Users\psmus\AppData\Local\Temp\cc7FfqyC.s 			page 45


 618:Generated_Source\PSoC4/I2STxDMA.h **** *  how long the DMA waits for the trigger to go low (deactivate) before
 619:Generated_Source\PSoC4/I2STxDMA.h **** *  triggering the channel again.
 620:Generated_Source\PSoC4/I2STxDMA.h **** *
 621:Generated_Source\PSoC4/I2STxDMA.h **** * Parameters:
 622:Generated_Source\PSoC4/I2STxDMA.h **** *  descriptor:  Descriptor (0 or 1) modified by this function.
 623:Generated_Source\PSoC4/I2STxDMA.h **** *  triggerType: Type of DMA trigger. Refer to the API bit field definitions in
 624:Generated_Source\PSoC4/I2STxDMA.h **** *               CyDMA_P4.h or the API description in the DMA channel datasheet
 625:Generated_Source\PSoC4/I2STxDMA.h **** *               for the parameter options.
 626:Generated_Source\PSoC4/I2STxDMA.h **** *                   
 627:Generated_Source\PSoC4/I2STxDMA.h **** * Return:
 628:Generated_Source\PSoC4/I2STxDMA.h **** *  None.
 629:Generated_Source\PSoC4/I2STxDMA.h **** *
 630:Generated_Source\PSoC4/I2STxDMA.h **** * Side effect:
 631:Generated_Source\PSoC4/I2STxDMA.h **** *  This function should not be called when the specified descriptor is active
 632:Generated_Source\PSoC4/I2STxDMA.h **** *  in the DMA transfer engine. This can be checked by calling CyDmaGetStatus(). 
 633:Generated_Source\PSoC4/I2STxDMA.h **** *
 634:Generated_Source\PSoC4/I2STxDMA.h **** *******************************************************************************/
 635:Generated_Source\PSoC4/I2STxDMA.h **** static CY_INLINE void I2STxDMA_SetTriggerType(int32 descriptor, uint32 triggerType)
 636:Generated_Source\PSoC4/I2STxDMA.h **** {
 637:Generated_Source\PSoC4/I2STxDMA.h ****     CyDmaSetTriggerType(I2STxDMA_CHANNEL, descriptor, triggerType);
 638:Generated_Source\PSoC4/I2STxDMA.h **** }
 639:Generated_Source\PSoC4/I2STxDMA.h **** 
 640:Generated_Source\PSoC4/I2STxDMA.h **** 
 641:Generated_Source\PSoC4/I2STxDMA.h **** /*******************************************************************************
 642:Generated_Source\PSoC4/I2STxDMA.h **** * Function Name: I2STxDMA_GetTriggerType
 643:Generated_Source\PSoC4/I2STxDMA.h **** ********************************************************************************
 644:Generated_Source\PSoC4/I2STxDMA.h **** *
 645:Generated_Source\PSoC4/I2STxDMA.h **** * Summary:
 646:Generated_Source\PSoC4/I2STxDMA.h **** *  Returns the trigger deactivation settings as set by I2STxDMA_SetTriggerType()
 647:Generated_Source\PSoC4/I2STxDMA.h **** *  or I2STxDMA_SetConfiguration().
 648:Generated_Source\PSoC4/I2STxDMA.h **** *
 649:Generated_Source\PSoC4/I2STxDMA.h **** * Parameters:
 650:Generated_Source\PSoC4/I2STxDMA.h **** *  descriptor: Descriptor (0 or 1) modified by this function.
 651:Generated_Source\PSoC4/I2STxDMA.h **** *                   
 652:Generated_Source\PSoC4/I2STxDMA.h **** * Return:
 653:Generated_Source\PSoC4/I2STxDMA.h **** *  Trigger deactivation settings. Refer to the API bit field definitions in
 654:Generated_Source\PSoC4/I2STxDMA.h **** *  CyDMA_P4.h or the API description in the DMA channel datasheet for more
 655:Generated_Source\PSoC4/I2STxDMA.h **** *  information.
 656:Generated_Source\PSoC4/I2STxDMA.h **** *
 657:Generated_Source\PSoC4/I2STxDMA.h **** *******************************************************************************/
 658:Generated_Source\PSoC4/I2STxDMA.h **** static CY_INLINE uint32 I2STxDMA_GetTriggerType(int32 descriptor)
 659:Generated_Source\PSoC4/I2STxDMA.h **** {
 660:Generated_Source\PSoC4/I2STxDMA.h ****     return (CyDmaGetTriggerType(I2STxDMA_CHANNEL, descriptor));
 661:Generated_Source\PSoC4/I2STxDMA.h **** }
 662:Generated_Source\PSoC4/I2STxDMA.h **** 
 663:Generated_Source\PSoC4/I2STxDMA.h **** 
 664:Generated_Source\PSoC4/I2STxDMA.h **** /*******************************************************************************
 665:Generated_Source\PSoC4/I2STxDMA.h **** * Function Name: I2STxDMA_SetTransferMode
 666:Generated_Source\PSoC4/I2STxDMA.h **** ********************************************************************************
 667:Generated_Source\PSoC4/I2STxDMA.h **** *
 668:Generated_Source\PSoC4/I2STxDMA.h **** * Summary:
 669:Generated_Source\PSoC4/I2STxDMA.h **** *  Sets the DMA transfer mode. This determines how the DMA reacts to each trigger
 670:Generated_Source\PSoC4/I2STxDMA.h **** *  event.
 671:Generated_Source\PSoC4/I2STxDMA.h **** *
 672:Generated_Source\PSoC4/I2STxDMA.h **** * Parameters:
 673:Generated_Source\PSoC4/I2STxDMA.h **** *  descriptor:   Descriptor (0 or 1) modified by this function.
 674:Generated_Source\PSoC4/I2STxDMA.h **** *  transferMode: Specifies the DMA transfer mode settings. Refer to the API bit
ARM GAS  C:\Users\psmus\AppData\Local\Temp\cc7FfqyC.s 			page 46


 675:Generated_Source\PSoC4/I2STxDMA.h **** *                field definitions in CyDMA_P4.h or the API description in the
 676:Generated_Source\PSoC4/I2STxDMA.h **** *                DMA channel datasheet for the parameter options.
 677:Generated_Source\PSoC4/I2STxDMA.h **** *                   
 678:Generated_Source\PSoC4/I2STxDMA.h **** * Return:
 679:Generated_Source\PSoC4/I2STxDMA.h **** *  None.
 680:Generated_Source\PSoC4/I2STxDMA.h **** *
 681:Generated_Source\PSoC4/I2STxDMA.h **** * Side effect:
 682:Generated_Source\PSoC4/I2STxDMA.h **** *  This function should not be called when the specified descriptor is active
 683:Generated_Source\PSoC4/I2STxDMA.h **** *  in the DMA transfer engine. This can be checked by calling CyDmaGetStatus(). 
 684:Generated_Source\PSoC4/I2STxDMA.h **** *
 685:Generated_Source\PSoC4/I2STxDMA.h **** *******************************************************************************/
 686:Generated_Source\PSoC4/I2STxDMA.h **** static CY_INLINE void I2STxDMA_SetTransferMode(int32 descriptor, uint32 transferMode)
 687:Generated_Source\PSoC4/I2STxDMA.h **** {
 688:Generated_Source\PSoC4/I2STxDMA.h ****     CyDmaSetTransferMode(I2STxDMA_CHANNEL, descriptor, transferMode);
 689:Generated_Source\PSoC4/I2STxDMA.h **** }
 690:Generated_Source\PSoC4/I2STxDMA.h **** 
 691:Generated_Source\PSoC4/I2STxDMA.h **** 
 692:Generated_Source\PSoC4/I2STxDMA.h **** /*******************************************************************************
 693:Generated_Source\PSoC4/I2STxDMA.h **** * Function Name: I2STxDMA_GetTransferMode
 694:Generated_Source\PSoC4/I2STxDMA.h **** ********************************************************************************
 695:Generated_Source\PSoC4/I2STxDMA.h **** *
 696:Generated_Source\PSoC4/I2STxDMA.h **** * Summary:
 697:Generated_Source\PSoC4/I2STxDMA.h **** *  Returns the transfer mode for the specified descriptor as set by 
 698:Generated_Source\PSoC4/I2STxDMA.h **** *  I2STxDMA_SetTransferMode() or I2STxDMA_SetConfiguration().
 699:Generated_Source\PSoC4/I2STxDMA.h **** *
 700:Generated_Source\PSoC4/I2STxDMA.h **** * Parameters:
 701:Generated_Source\PSoC4/I2STxDMA.h **** *  descriptor: Descriptor (0 or 1) modified by this function.
 702:Generated_Source\PSoC4/I2STxDMA.h **** *                   
 703:Generated_Source\PSoC4/I2STxDMA.h **** * Return:
 704:Generated_Source\PSoC4/I2STxDMA.h **** *  DMA transfer mode settings. Refer to the API bit field definitions in
 705:Generated_Source\PSoC4/I2STxDMA.h **** *  CyDMA_P4.h or the API description in the DMA channel datasheet for more
 706:Generated_Source\PSoC4/I2STxDMA.h **** *  information.
 707:Generated_Source\PSoC4/I2STxDMA.h **** *
 708:Generated_Source\PSoC4/I2STxDMA.h **** *******************************************************************************/
 709:Generated_Source\PSoC4/I2STxDMA.h **** static CY_INLINE uint32 I2STxDMA_GetTransferMode(int32 descriptor)
 710:Generated_Source\PSoC4/I2STxDMA.h **** {
 711:Generated_Source\PSoC4/I2STxDMA.h ****     return (CyDmaGetTransferMode(I2STxDMA_CHANNEL, descriptor));
 712:Generated_Source\PSoC4/I2STxDMA.h **** }
 713:Generated_Source\PSoC4/I2STxDMA.h **** 
 714:Generated_Source\PSoC4/I2STxDMA.h **** 
 715:Generated_Source\PSoC4/I2STxDMA.h **** /*******************************************************************************
 716:Generated_Source\PSoC4/I2STxDMA.h **** * Function Name: I2STxDMA_SetPreemptable
 717:Generated_Source\PSoC4/I2STxDMA.h **** ********************************************************************************
 718:Generated_Source\PSoC4/I2STxDMA.h **** *
 719:Generated_Source\PSoC4/I2STxDMA.h **** * Summary:
 720:Generated_Source\PSoC4/I2STxDMA.h **** *  Determines if the descriptor is preemptable.
 721:Generated_Source\PSoC4/I2STxDMA.h **** *
 722:Generated_Source\PSoC4/I2STxDMA.h **** * Parameters:
 723:Generated_Source\PSoC4/I2STxDMA.h **** *  descriptor:  Descriptor (0 or 1) modified by this function.
 724:Generated_Source\PSoC4/I2STxDMA.h **** *  preemptable: Descriptor preemption settings. Refer to the API bit field
 725:Generated_Source\PSoC4/I2STxDMA.h **** *               definitions in CyDMA_P4.h or the API description in the DMA 
 726:Generated_Source\PSoC4/I2STxDMA.h **** *               channel datasheet for the parameter options.
 727:Generated_Source\PSoC4/I2STxDMA.h **** *                   
 728:Generated_Source\PSoC4/I2STxDMA.h **** * Return:
 729:Generated_Source\PSoC4/I2STxDMA.h **** *  None.
 730:Generated_Source\PSoC4/I2STxDMA.h **** *
 731:Generated_Source\PSoC4/I2STxDMA.h **** * Side effect:
ARM GAS  C:\Users\psmus\AppData\Local\Temp\cc7FfqyC.s 			page 47


 732:Generated_Source\PSoC4/I2STxDMA.h **** *  This function should not be called when the specified descriptor is active
 733:Generated_Source\PSoC4/I2STxDMA.h **** *  in the DMA transfer engine. This can be checked by calling CyDmaGetStatus(). 
 734:Generated_Source\PSoC4/I2STxDMA.h **** *
 735:Generated_Source\PSoC4/I2STxDMA.h **** *******************************************************************************/
 736:Generated_Source\PSoC4/I2STxDMA.h **** static CY_INLINE void I2STxDMA_SetPreemptable(int32 descriptor, uint32 preemptable)
 737:Generated_Source\PSoC4/I2STxDMA.h **** {
 738:Generated_Source\PSoC4/I2STxDMA.h ****     CyDmaSetPreemptable(I2STxDMA_CHANNEL, descriptor, preemptable);
 739:Generated_Source\PSoC4/I2STxDMA.h **** }
 740:Generated_Source\PSoC4/I2STxDMA.h **** 
 741:Generated_Source\PSoC4/I2STxDMA.h **** 
 742:Generated_Source\PSoC4/I2STxDMA.h **** /*******************************************************************************
 743:Generated_Source\PSoC4/I2STxDMA.h **** * Function Name: I2STxDMA_GetPreemptable
 744:Generated_Source\PSoC4/I2STxDMA.h **** ********************************************************************************
 745:Generated_Source\PSoC4/I2STxDMA.h **** *
 746:Generated_Source\PSoC4/I2STxDMA.h **** * Summary:
 747:Generated_Source\PSoC4/I2STxDMA.h **** *  Returns whether or not the descriptor is preemptable.
 748:Generated_Source\PSoC4/I2STxDMA.h **** *
 749:Generated_Source\PSoC4/I2STxDMA.h **** * Parameters:
 750:Generated_Source\PSoC4/I2STxDMA.h **** *  descriptor: Descriptor (0 or 1) modified by this function.
 751:Generated_Source\PSoC4/I2STxDMA.h **** *                   
 752:Generated_Source\PSoC4/I2STxDMA.h **** * Return:
 753:Generated_Source\PSoC4/I2STxDMA.h **** *  Descriptor preemption setting. Refer to the API bit field definitions in
 754:Generated_Source\PSoC4/I2STxDMA.h **** *  CyDMA_P4.h or the API description in the DMA channel datasheet for more
 755:Generated_Source\PSoC4/I2STxDMA.h **** *  information.
 756:Generated_Source\PSoC4/I2STxDMA.h **** *
 757:Generated_Source\PSoC4/I2STxDMA.h **** *******************************************************************************/
 758:Generated_Source\PSoC4/I2STxDMA.h **** static CY_INLINE uint32 I2STxDMA_GetPreemptable(int32 descriptor)
 759:Generated_Source\PSoC4/I2STxDMA.h **** {
 760:Generated_Source\PSoC4/I2STxDMA.h ****     return (CyDmaGetPreemptable(I2STxDMA_CHANNEL, descriptor));
 761:Generated_Source\PSoC4/I2STxDMA.h **** }
 762:Generated_Source\PSoC4/I2STxDMA.h **** 
 763:Generated_Source\PSoC4/I2STxDMA.h **** 
 764:Generated_Source\PSoC4/I2STxDMA.h **** /*******************************************************************************
 765:Generated_Source\PSoC4/I2STxDMA.h **** * Function Name: I2STxDMA_SetPostCompletionActions
 766:Generated_Source\PSoC4/I2STxDMA.h **** ********************************************************************************
 767:Generated_Source\PSoC4/I2STxDMA.h **** *
 768:Generated_Source\PSoC4/I2STxDMA.h **** * Summary:
 769:Generated_Source\PSoC4/I2STxDMA.h **** *  Determines what occurs after a descriptor completes.
 770:Generated_Source\PSoC4/I2STxDMA.h **** *
 771:Generated_Source\PSoC4/I2STxDMA.h **** * Parameters:
 772:Generated_Source\PSoC4/I2STxDMA.h **** *  descriptor: Descriptor (0 or 1) modified by this function.
 773:Generated_Source\PSoC4/I2STxDMA.h **** *  actions:    Specifies descriptor post completion actions. Refer to the API
 774:Generated_Source\PSoC4/I2STxDMA.h **** *              bit field definitions in CyDMA_P4.h or the API description in the
 775:Generated_Source\PSoC4/I2STxDMA.h **** *              DMA channel datasheet for the parameter options.
 776:Generated_Source\PSoC4/I2STxDMA.h **** *                   
 777:Generated_Source\PSoC4/I2STxDMA.h **** * Return:
 778:Generated_Source\PSoC4/I2STxDMA.h **** *  None.  
 779:Generated_Source\PSoC4/I2STxDMA.h **** *
 780:Generated_Source\PSoC4/I2STxDMA.h **** * Side effect:
 781:Generated_Source\PSoC4/I2STxDMA.h **** *  This function should not be called when the specified descriptor is active
 782:Generated_Source\PSoC4/I2STxDMA.h **** *  in the DMA transfer engine. This can be checked by calling CyDmaGetStatus(). 
 783:Generated_Source\PSoC4/I2STxDMA.h **** *
 784:Generated_Source\PSoC4/I2STxDMA.h **** *******************************************************************************/
 785:Generated_Source\PSoC4/I2STxDMA.h **** static CY_INLINE void I2STxDMA_SetPostCompletionActions(int32 descriptor, uint32 actions)
 786:Generated_Source\PSoC4/I2STxDMA.h **** {
 787:Generated_Source\PSoC4/I2STxDMA.h ****     CyDmaSetPostCompletionActions(I2STxDMA_CHANNEL, descriptor, actions);
 788:Generated_Source\PSoC4/I2STxDMA.h **** }
ARM GAS  C:\Users\psmus\AppData\Local\Temp\cc7FfqyC.s 			page 48


 789:Generated_Source\PSoC4/I2STxDMA.h **** 
 790:Generated_Source\PSoC4/I2STxDMA.h **** 
 791:Generated_Source\PSoC4/I2STxDMA.h **** /*******************************************************************************
 792:Generated_Source\PSoC4/I2STxDMA.h **** * Function Name: I2STxDMA_GetPostCompletionAction
 793:Generated_Source\PSoC4/I2STxDMA.h **** ********************************************************************************
 794:Generated_Source\PSoC4/I2STxDMA.h **** *
 795:Generated_Source\PSoC4/I2STxDMA.h **** * Summary:
 796:Generated_Source\PSoC4/I2STxDMA.h **** *  Returns the post descriptor action settings as set by 
 797:Generated_Source\PSoC4/I2STxDMA.h **** *  I2STxDMA_SetPostCompletionActions() or I2STxDMA_SetConfiguration().
 798:Generated_Source\PSoC4/I2STxDMA.h **** *
 799:Generated_Source\PSoC4/I2STxDMA.h **** * Parameters:
 800:Generated_Source\PSoC4/I2STxDMA.h **** *  descriptor: Descriptor (0 or 1) modified by this function.
 801:Generated_Source\PSoC4/I2STxDMA.h **** *                   
 802:Generated_Source\PSoC4/I2STxDMA.h **** * Return:
 803:Generated_Source\PSoC4/I2STxDMA.h **** *  Post descriptor actions. Refer to the API bit field definitions in CyDMA_P4.h
 804:Generated_Source\PSoC4/I2STxDMA.h **** *  or the API description in the DMA channel datasheet for more information.
 805:Generated_Source\PSoC4/I2STxDMA.h **** *
 806:Generated_Source\PSoC4/I2STxDMA.h **** *******************************************************************************/
 807:Generated_Source\PSoC4/I2STxDMA.h **** static CY_INLINE uint32 I2STxDMA_GetPostCompletionAction(int32 descriptor)
 808:Generated_Source\PSoC4/I2STxDMA.h **** {
 809:Generated_Source\PSoC4/I2STxDMA.h ****     return (CyDmaGetPostCompletionActions(I2STxDMA_CHANNEL, descriptor));
 810:Generated_Source\PSoC4/I2STxDMA.h **** }
 811:Generated_Source\PSoC4/I2STxDMA.h **** 
 812:Generated_Source\PSoC4/I2STxDMA.h **** 
 813:Generated_Source\PSoC4/I2STxDMA.h **** /*******************************************************************************
 814:Generated_Source\PSoC4/I2STxDMA.h **** * Function Name: I2STxDMA_SetInterruptCallback
 815:Generated_Source\PSoC4/I2STxDMA.h **** ********************************************************************************
 816:Generated_Source\PSoC4/I2STxDMA.h **** *
 817:Generated_Source\PSoC4/I2STxDMA.h **** * Summary:
 818:Generated_Source\PSoC4/I2STxDMA.h **** *  Sets a user defined callback function to be called by the DMA interrupt. The
 819:Generated_Source\PSoC4/I2STxDMA.h **** *  function should contain code to process the interrupt request for the 
 820:Generated_Source\PSoC4/I2STxDMA.h **** *  associated DMA channel.
 821:Generated_Source\PSoC4/I2STxDMA.h **** *
 822:Generated_Source\PSoC4/I2STxDMA.h **** * Parameters:
 823:Generated_Source\PSoC4/I2STxDMA.h **** *  callback: Pointer to the user defined callback function.
 824:Generated_Source\PSoC4/I2STxDMA.h **** *
 825:Generated_Source\PSoC4/I2STxDMA.h **** * Return:
 826:Generated_Source\PSoC4/I2STxDMA.h **** *  Pointer to the function previously set for the specified channel. 
 827:Generated_Source\PSoC4/I2STxDMA.h **** *
 828:Generated_Source\PSoC4/I2STxDMA.h **** *******************************************************************************/
 829:Generated_Source\PSoC4/I2STxDMA.h **** static CY_INLINE cydma_callback_t I2STxDMA_SetInterruptCallback(cydma_callback_t callback)
 830:Generated_Source\PSoC4/I2STxDMA.h **** {
 831:Generated_Source\PSoC4/I2STxDMA.h ****     return (CyDmaSetInterruptCallback(I2STxDMA_CHANNEL, callback));
 132              		.loc 4 831 0
 133 0068 214C     		ldr	r4, .L2+36
 134 006a 2100     		movs	r1, r4
 135 006c 0120     		movs	r0, #1
 136 006e FFF7FEFF 		bl	CyDmaSetInterruptCallback
 137              	.LVL12:
 138              	.LBE39:
 139              	.LBE38:
 140              	.LBB40:
 141              	.LBB41:
  96:Generated_Source\PSoC4/I2STxDMA.h **** }
 142              		.loc 4 96 0
 143 0072 0120     		movs	r0, #1
 144 0074 FFF7FEFF 		bl	CyDmaChEnable
ARM GAS  C:\Users\psmus\AppData\Local\Temp\cc7FfqyC.s 			page 49


 145              	.LVL13:
 146              	.LBE41:
 147              	.LBE40:
 148              	.LBB42:
 149              	.LBB43:
 279:Generated_Source\PSoC4/I2STxDMA.h **** }
 150              		.loc 4 279 0
 151 0078 0021     		movs	r1, #0
 152 007a 0120     		movs	r0, #1
 153 007c FFF7FEFF 		bl	CyDmaValidateDescriptor
 154              	.LVL14:
 155              	.LBE43:
 156              	.LBE42:
 157              	.LBB44:
 158              	.LBB45:
 159 0080 0121     		movs	r1, #1
 160 0082 0120     		movs	r0, #1
 161 0084 FFF7FEFF 		bl	CyDmaValidateDescriptor
 162              	.LVL15:
 163              	.LBE45:
 164              	.LBE44:
  97:AudioOut.c    **** 	I2STxDMA_SetNumDataElements(0, OUT_BUFSIZE);
  98:AudioOut.c    ****     I2STxDMA_SetNumDataElements(1, OUT_BUFSIZE);
  99:AudioOut.c    ****     I2STxDMA_SetSrcAddress(0, (void *) SPI_RX_FIFO_RD_PTR);
 100:AudioOut.c    ****     I2STxDMA_SetSrcAddress(0, (void *) output_buffer);
 101:AudioOut.c    **** 	I2STxDMA_SetDstAddress(0, (void *) I2S_TX_FIFO_0_PTR);
 102:AudioOut.c    ****     //I2STxDMA_SetSrcAddress(1, (void *) output_buffer2);
 103:AudioOut.c    **** 	//I2STxDMA_SetDstAddress(1, (void *) I2S_TX_FIFO_0_PTR);
 104:AudioOut.c    ****     I2STxDMA_SetInterruptCallback(I2STxDone);
 105:AudioOut.c    ****     I2STxDMA_ChEnable();
 106:AudioOut.c    ****     
 107:AudioOut.c    ****     
 108:AudioOut.c    ****     /* Start other DMA channels to begin data transfer. */
 109:AudioOut.c    ****     
 110:AudioOut.c    ****     
 111:AudioOut.c    **** 	/* Validate descriptor */
 112:AudioOut.c    ****     I2STxDMA_ValidateDescriptor(0);
 113:AudioOut.c    ****     I2STxDMA_ValidateDescriptor(1);
 114:AudioOut.c    ****     //SPI_RxDMA_ValidateDescriptor(0);
 115:AudioOut.c    ****     
 116:AudioOut.c    ****     /* Start interrupts */
 117:AudioOut.c    ****     isr_I2STxDone_StartEx(I2STxDone);
 165              		.loc 1 117 0
 166 0088 2000     		movs	r0, r4
 167 008a FFF7FEFF 		bl	isr_I2STxDone_StartEx
 168              	.LVL16:
 118:AudioOut.c    ****     isr_I2STxDone_Enable();
 169              		.loc 1 118 0
 170 008e FFF7FEFF 		bl	isr_I2STxDone_Enable
 171              	.LVL17:
 119:AudioOut.c    ****     CyIntEnable(CYDMA_INTR_NUMBER);
 172              		.loc 1 119 0
 173 0092 0E20     		movs	r0, #14
 174 0094 FFF7FEFF 		bl	CyIntEnable
 175              	.LVL18:
 120:AudioOut.c    ****     
 121:AudioOut.c    ****     freq = 1000;
ARM GAS  C:\Users\psmus\AppData\Local\Temp\cc7FfqyC.s 			page 50


 176              		.loc 1 121 0
 177 0098 FA22     		movs	r2, #250
 178 009a 9200     		lsls	r2, r2, #2
 179 009c 154B     		ldr	r3, .L2+40
 180 009e 1A80     		strh	r2, [r3]
 122:AudioOut.c    ****     freq2 = 200;
 181              		.loc 1 122 0
 182 00a0 C822     		movs	r2, #200
 183 00a2 154B     		ldr	r3, .L2+44
 184 00a4 1A80     		strh	r2, [r3]
 123:AudioOut.c    ****     freq3 = 300;
 185              		.loc 1 123 0
 186 00a6 6432     		adds	r2, r2, #100
 187 00a8 144B     		ldr	r3, .L2+48
 188 00aa 1A80     		strh	r2, [r3]
 124:AudioOut.c    ****     freq4 = 400;
 189              		.loc 1 124 0
 190 00ac 6432     		adds	r2, r2, #100
 191 00ae 144B     		ldr	r3, .L2+52
 192 00b0 1A80     		strh	r2, [r3]
 125:AudioOut.c    ****     freq5 = 500;
 193              		.loc 1 125 0
 194 00b2 6432     		adds	r2, r2, #100
 195 00b4 134B     		ldr	r3, .L2+56
 196 00b6 1A80     		strh	r2, [r3]
 126:AudioOut.c    ****     freq6 = 600;
 197              		.loc 1 126 0
 198 00b8 6432     		adds	r2, r2, #100
 199 00ba 134B     		ldr	r3, .L2+60
 200 00bc 1A80     		strh	r2, [r3]
 127:AudioOut.c    ****     freq7 = 700;
 201              		.loc 1 127 0
 202 00be 6432     		adds	r2, r2, #100
 203 00c0 124B     		ldr	r3, .L2+64
 204 00c2 1A80     		strh	r2, [r3]
 128:AudioOut.c    ****     freq8 = 800;
 205              		.loc 1 128 0
 206 00c4 6432     		adds	r2, r2, #100
 207 00c6 124B     		ldr	r3, .L2+68
 208 00c8 1A80     		strh	r2, [r3]
 129:AudioOut.c    **** }
 209              		.loc 1 129 0
 210              		@ sp needed
 211 00ca 70BD     		pop	{r4, r5, r6, pc}
 212              	.L3:
 213              		.align	2
 214              	.L2:
 215 00cc 40032540 		.word	1076167488
 216 00d0 00000000 		.word	masterRxBuffer
 217 00d4 40022540 		.word	1076167232
 218 00d8 00000000 		.word	masterTxBuffer
 219 00dc 00000000 		.word	SPI_RxDMA_Done_Interrupt
 220 00e0 00000000 		.word	SPI_TxDMA_Done_Interrupt
 221 00e4 00000000 		.word	SPIDone
 222 00e8 00000000 		.word	output_buffer
 223 00ec 45000F40 		.word	1074724933
 224 00f0 00000000 		.word	I2STxDone
ARM GAS  C:\Users\psmus\AppData\Local\Temp\cc7FfqyC.s 			page 51


 225 00f4 00000000 		.word	freq
 226 00f8 00000000 		.word	freq2
 227 00fc 00000000 		.word	freq3
 228 0100 00000000 		.word	freq4
 229 0104 00000000 		.word	freq5
 230 0108 00000000 		.word	freq6
 231 010c 00000000 		.word	freq7
 232 0110 00000000 		.word	freq8
 233              		.cfi_endproc
 234              	.LFE130:
 235              		.size	InitializeAudioOutPath, .-InitializeAudioOutPath
 236              		.section	.text.ProcessAudioOut,"ax",%progbits
 237              		.align	2
 238              		.global	ProcessAudioOut
 239              		.code	16
 240              		.thumb_func
 241              		.type	ProcessAudioOut, %function
 242              	ProcessAudioOut:
 243              	.LFB131:
 130:AudioOut.c    **** 
 131:AudioOut.c    **** /*******************************************************************************
 132:AudioOut.c    **** * Function Name: ProcessAudioOut
 133:AudioOut.c    **** ********************************************************************************
 134:AudioOut.c    **** * Summary:
 135:AudioOut.c    **** *        Handle audio out data, setup USB DMA and trigger the DMA to transfer 
 136:AudioOut.c    **** *        audio samples from SRAM USB endpoint memory to SRAM audio circular 
 137:AudioOut.c    **** *        buffer. The API also starts the I2S transmit when USB audio out streaming 
 138:AudioOut.c    **** *        is active
 139:AudioOut.c    **** *
 140:AudioOut.c    **** * Parameters:
 141:AudioOut.c    **** *  void
 142:AudioOut.c    **** *
 143:AudioOut.c    **** * Return:
 144:AudioOut.c    **** *  void
 145:AudioOut.c    **** *
 146:AudioOut.c    **** *******************************************************************************/
 147:AudioOut.c    **** 
 148:AudioOut.c    **** void ProcessAudioOut(int8_t* buffer) 
 149:AudioOut.c    **** {
 244              		.loc 1 149 0
 245              		.cfi_startproc
 246              		@ args = 0, pretend = 0, frame = 56
 247              		@ frame_needed = 0, uses_anonymous_args = 0
 248              	.LVL19:
 249 0000 F0B5     		push	{r4, r5, r6, r7, lr}
 250              		.cfi_def_cfa_offset 20
 251              		.cfi_offset 4, -20
 252              		.cfi_offset 5, -16
 253              		.cfi_offset 6, -12
 254              		.cfi_offset 7, -8
 255              		.cfi_offset 14, -4
 256 0002 5F46     		mov	r7, fp
 257 0004 5646     		mov	r6, r10
 258 0006 4D46     		mov	r5, r9
 259 0008 4446     		mov	r4, r8
 260 000a F0B4     		push	{r4, r5, r6, r7}
 261              		.cfi_def_cfa_offset 36
ARM GAS  C:\Users\psmus\AppData\Local\Temp\cc7FfqyC.s 			page 52


 262              		.cfi_offset 8, -36
 263              		.cfi_offset 9, -32
 264              		.cfi_offset 10, -28
 265              		.cfi_offset 11, -24
 266 000c 8FB0     		sub	sp, sp, #60
 267              		.cfi_def_cfa_offset 96
 268 000e 0D90     		str	r0, [sp, #52]
 150:AudioOut.c    ****     static uint32_t index;
 151:AudioOut.c    ****     static uint32_t index2;
 152:AudioOut.c    ****     static uint32_t index3;
 153:AudioOut.c    ****     static uint32_t index4;
 154:AudioOut.c    ****     static uint32_t index5;
 155:AudioOut.c    ****     static uint32_t index6;
 156:AudioOut.c    ****     static uint32_t index7;
 157:AudioOut.c    ****     static uint32_t index8;
 158:AudioOut.c    ****     
 159:AudioOut.c    ****     static uint32_t lfo_index;
 160:AudioOut.c    ****     lfo_index += lfo_freq;
 269              		.loc 1 160 0
 270 0010 844A     		ldr	r2, .L7
 271 0012 854B     		ldr	r3, .L7+4
 272 0014 1B68     		ldr	r3, [r3]
 273 0016 1168     		ldr	r1, [r2]
 274 0018 8C46     		mov	ip, r1
 275 001a 6344     		add	r3, r3, ip
 276 001c 1360     		str	r3, [r2]
 161:AudioOut.c    ****     lfo_multiplier = lfo_sine[(lfo_index>>8) % 256];
 277              		.loc 1 161 0
 278 001e 1B0A     		lsrs	r3, r3, #8
 279 0020 FF22     		movs	r2, #255
 280 0022 1340     		ands	r3, r2
 281 0024 814A     		ldr	r2, .L7+8
 282 0026 D25C     		ldrb	r2, [r2, r3]
 283 0028 814B     		ldr	r3, .L7+12
 284 002a 1A80     		strh	r2, [r3]
 285              	.LVL20:
 286              	.LBB46:
 162:AudioOut.c    ****     
 163:AudioOut.c    ****     //*index = *index + freq;
 164:AudioOut.c    ****     //buffer[0] = base_sine[((*index)>>10)%N];
 165:AudioOut.c    ****     for(int i = 0; i < OUT_BUFSIZE; i++){
 287              		.loc 1 165 0
 288 002c 0023     		movs	r3, #0
 289 002e 0193     		str	r3, [sp, #4]
 290 0030 EBE0     		b	.L5
 291              	.LVL21:
 292              	.L6:
 293              	.LBB47:
 166:AudioOut.c    ****         index += v1.freq; //* lfo_multiplier)>>8;
 294              		.loc 1 166 0 discriminator 3
 295 0032 804B     		ldr	r3, .L7+16
 296 0034 9A46     		mov	r10, r3
 297 0036 7B4B     		ldr	r3, .L7
 298 0038 5246     		mov	r2, r10
 299              	.LVL22:
 300 003a 9268     		ldr	r2, [r2, #8]
 301 003c 5968     		ldr	r1, [r3, #4]
ARM GAS  C:\Users\psmus\AppData\Local\Temp\cc7FfqyC.s 			page 53


 302 003e 8C46     		mov	ip, r1
 303 0040 6244     		add	r2, r2, ip
 304 0042 9346     		mov	fp, r2
 305 0044 5A60     		str	r2, [r3, #4]
 167:AudioOut.c    ****         index2 += v2.freq;
 306              		.loc 1 167 0 discriminator 3
 307 0046 7C4A     		ldr	r2, .L7+20
 308 0048 9146     		mov	r9, r2
 309 004a 9268     		ldr	r2, [r2, #8]
 310 004c 9968     		ldr	r1, [r3, #8]
 311 004e 8C46     		mov	ip, r1
 312 0050 6244     		add	r2, r2, ip
 313 0052 1000     		movs	r0, r2
 314 0054 9A60     		str	r2, [r3, #8]
 168:AudioOut.c    ****         index3 += v3.freq;
 315              		.loc 1 168 0 discriminator 3
 316 0056 794A     		ldr	r2, .L7+24
 317 0058 9046     		mov	r8, r2
 318 005a 9268     		ldr	r2, [r2, #8]
 319 005c DC68     		ldr	r4, [r3, #12]
 320 005e A446     		mov	ip, r4
 321 0060 6244     		add	r2, r2, ip
 322 0062 1100     		movs	r1, r2
 323 0064 DA60     		str	r2, [r3, #12]
 169:AudioOut.c    ****         index4 += v4.freq;
 324              		.loc 1 169 0 discriminator 3
 325 0066 764A     		ldr	r2, .L7+28
 326 0068 0C92     		str	r2, [sp, #48]
 327 006a 9268     		ldr	r2, [r2, #8]
 328 006c 1C69     		ldr	r4, [r3, #16]
 329 006e A446     		mov	ip, r4
 330 0070 6244     		add	r2, r2, ip
 331 0072 1A61     		str	r2, [r3, #16]
 170:AudioOut.c    ****         index5 += v5.freq;
 332              		.loc 1 170 0 discriminator 3
 333 0074 734C     		ldr	r4, .L7+32
 334 0076 A468     		ldr	r4, [r4, #8]
 335 0078 5D69     		ldr	r5, [r3, #20]
 336 007a AC46     		mov	ip, r5
 337 007c 6444     		add	r4, r4, ip
 338 007e 0294     		str	r4, [sp, #8]
 339 0080 5C61     		str	r4, [r3, #20]
 171:AudioOut.c    ****         index6 += v6.freq;
 340              		.loc 1 171 0 discriminator 3
 341 0082 714E     		ldr	r6, .L7+36
 342 0084 B568     		ldr	r5, [r6, #8]
 343 0086 2F00     		movs	r7, r5
 344 0088 9D69     		ldr	r5, [r3, #24]
 345 008a AC46     		mov	ip, r5
 346 008c 6744     		add	r7, r7, ip
 347 008e 0397     		str	r7, [sp, #12]
 348 0090 9F61     		str	r7, [r3, #24]
 172:AudioOut.c    ****         index7 += v7.freq;
 349              		.loc 1 172 0 discriminator 3
 350 0092 6E4D     		ldr	r5, .L7+40
 351 0094 AC68     		ldr	r4, [r5, #8]
 352 0096 2700     		movs	r7, r4
ARM GAS  C:\Users\psmus\AppData\Local\Temp\cc7FfqyC.s 			page 54


 353 0098 DC69     		ldr	r4, [r3, #28]
 354 009a A446     		mov	ip, r4
 355 009c 6744     		add	r7, r7, ip
 356 009e 0497     		str	r7, [sp, #16]
 357 00a0 DF61     		str	r7, [r3, #28]
 173:AudioOut.c    ****         index8 += v8.freq;
 358              		.loc 1 173 0 discriminator 3
 359 00a2 6B4C     		ldr	r4, .L7+44
 360 00a4 A468     		ldr	r4, [r4, #8]
 361 00a6 2700     		movs	r7, r4
 362 00a8 1C6A     		ldr	r4, [r3, #32]
 363 00aa A446     		mov	ip, r4
 364 00ac 6744     		add	r7, r7, ip
 365 00ae 0597     		str	r7, [sp, #20]
 366 00b0 1F62     		str	r7, [r3, #32]
 174:AudioOut.c    ****         
 175:AudioOut.c    ****         /*int32_t value = base_sq[((index)>>8) & 0xFFF];
 176:AudioOut.c    ****         + ((base_sine[(index2>>8) & 0xFFF]))
 177:AudioOut.c    ****         + (base_sine[(index3>>8) & 0xFFF])
 178:AudioOut.c    ****         + (base_sine[(index4>>8) & 0xFFF])
 179:AudioOut.c    ****         + (base_sine[(index5>>8) & 0xFFF])
 180:AudioOut.c    ****         + (base_sine[(index6>>8) & 0xFFF])
 181:AudioOut.c    ****         + (base_sine[(index7>>8) & 0xFFF])
 182:AudioOut.c    ****         + (base_sine[(index8>>8) & 0xFFF])
 183:AudioOut.c    ****         */
 184:AudioOut.c    ****         
 185:AudioOut.c    ****         uint32_t sq_portion = ((base_sq[(index>>8) & 0xFFF] * v1.env_multiplier)>>8) * ((65535-wave
 367              		.loc 1 185 0 discriminator 3
 368 00b2 5B46     		mov	r3, fp
 369 00b4 1B0A     		lsrs	r3, r3, #8
 370 00b6 1B05     		lsls	r3, r3, #20
 371 00b8 1B0D     		lsrs	r3, r3, #20
 372 00ba 1C00     		movs	r4, r3
 373 00bc 654B     		ldr	r3, .L7+48
 374 00be 0694     		str	r4, [sp, #24]
 375 00c0 1C57     		ldrsb	r4, [r3, r4]
 376 00c2 A346     		mov	fp, r4
 377 00c4 5446     		mov	r4, r10
 378 00c6 A488     		ldrh	r4, [r4, #4]
 379 00c8 A246     		mov	r10, r4
 380 00ca 5C46     		mov	r4, fp
 381 00cc 5746     		mov	r7, r10
 382 00ce 7C43     		muls	r4, r7
 383 00d0 2712     		asrs	r7, r4, #8
 384 00d2 BB46     		mov	fp, r7
 186:AudioOut.c    ****         + ((base_sq[(index2>>8) & 0xFFF] * v2.env_multiplier)>>8) * ((65535-waveshape)>>8)
 385              		.loc 1 186 0 discriminator 3
 386 00d4 000A     		lsrs	r0, r0, #8
 387 00d6 0005     		lsls	r0, r0, #20
 388 00d8 000D     		lsrs	r0, r0, #20
 389 00da 0790     		str	r0, [sp, #28]
 390 00dc 1856     		ldrsb	r0, [r3, r0]
 391 00de 4F46     		mov	r7, r9
 392 00e0 BC88     		ldrh	r4, [r7, #4]
 393 00e2 0894     		str	r4, [sp, #32]
 394 00e4 6043     		muls	r0, r4
 395 00e6 0012     		asrs	r0, r0, #8
ARM GAS  C:\Users\psmus\AppData\Local\Temp\cc7FfqyC.s 			page 55


 396 00e8 5844     		add	r0, r0, fp
 187:AudioOut.c    ****         + ((base_sq[(index3>>8) & 0xFFF] * v3.env_multiplier)>>8) * ((65535-waveshape)>>8)
 397              		.loc 1 187 0 discriminator 3
 398 00ea 090A     		lsrs	r1, r1, #8
 399 00ec 0905     		lsls	r1, r1, #20
 400 00ee 090D     		lsrs	r1, r1, #20
 401 00f0 0991     		str	r1, [sp, #36]
 402 00f2 5956     		ldrsb	r1, [r3, r1]
 403 00f4 4746     		mov	r7, r8
 404 00f6 BC88     		ldrh	r4, [r7, #4]
 405 00f8 0A94     		str	r4, [sp, #40]
 406 00fa 6143     		muls	r1, r4
 407 00fc 0912     		asrs	r1, r1, #8
 408 00fe 4018     		adds	r0, r0, r1
 188:AudioOut.c    ****         + ((base_sq[(index4>>8) & 0xFFF] * v4.env_multiplier)>>8) * ((65535-waveshape)>>8)
 409              		.loc 1 188 0 discriminator 3
 410 0100 120A     		lsrs	r2, r2, #8
 411 0102 1205     		lsls	r2, r2, #20
 412 0104 120D     		lsrs	r2, r2, #20
 413 0106 0B92     		str	r2, [sp, #44]
 414 0108 9956     		ldrsb	r1, [r3, r2]
 415 010a 0C9F     		ldr	r7, [sp, #48]
 416 010c BA88     		ldrh	r2, [r7, #4]
 417 010e 0C92     		str	r2, [sp, #48]
 418 0110 5143     		muls	r1, r2
 419 0112 0912     		asrs	r1, r1, #8
 420 0114 4018     		adds	r0, r0, r1
 189:AudioOut.c    ****         + ((base_sq[(index5>>8) & 0xFFF] * v5.env_multiplier)>>8) * ((65535-waveshape)>>8)
 421              		.loc 1 189 0 discriminator 3
 422 0116 0299     		ldr	r1, [sp, #8]
 423 0118 0A0A     		lsrs	r2, r1, #8
 424 011a 1205     		lsls	r2, r2, #20
 425 011c 120D     		lsrs	r2, r2, #20
 426 011e 9F56     		ldrsb	r7, [r3, r2]
 427 0120 4849     		ldr	r1, .L7+32
 428 0122 8988     		ldrh	r1, [r1, #4]
 429 0124 4F43     		muls	r7, r1
 430 0126 3F12     		asrs	r7, r7, #8
 431 0128 8446     		mov	ip, r0
 432 012a BC44     		add	ip, ip, r7
 190:AudioOut.c    ****         + ((base_sq[(index6>>8) & 0xFFF] * v6.env_multiplier)>>8) * ((65535-waveshape)>>8)
 433              		.loc 1 190 0 discriminator 3
 434 012c 0398     		ldr	r0, [sp, #12]
 435 012e 070A     		lsrs	r7, r0, #8
 436 0130 3F05     		lsls	r7, r7, #20
 437 0132 3F0D     		lsrs	r7, r7, #20
 438 0134 D857     		ldrsb	r0, [r3, r7]
 439 0136 8046     		mov	r8, r0
 440 0138 B088     		ldrh	r0, [r6, #4]
 441 013a 4646     		mov	r6, r8
 442 013c 4643     		muls	r6, r0
 443 013e 3612     		asrs	r6, r6, #8
 444 0140 B346     		mov	fp, r6
 445 0142 E344     		add	fp, fp, ip
 191:AudioOut.c    ****         + ((base_sq[(index7>>8) & 0xFFF] * v7.env_multiplier)>>8) * ((65535-waveshape)>>8)
 446              		.loc 1 191 0 discriminator 3
 447 0144 049E     		ldr	r6, [sp, #16]
ARM GAS  C:\Users\psmus\AppData\Local\Temp\cc7FfqyC.s 			page 56


 448 0146 360A     		lsrs	r6, r6, #8
 449 0148 3605     		lsls	r6, r6, #20
 450 014a 360D     		lsrs	r6, r6, #20
 451 014c 9C57     		ldrsb	r4, [r3, r6]
 452 014e AD88     		ldrh	r5, [r5, #4]
 453 0150 AC46     		mov	ip, r5
 454 0152 2500     		movs	r5, r4
 455 0154 6446     		mov	r4, ip
 456 0156 6543     		muls	r5, r4
 457 0158 2D12     		asrs	r5, r5, #8
 458 015a A846     		mov	r8, r5
 459 015c D844     		add	r8, r8, fp
 192:AudioOut.c    ****         + ((base_sq[(index8>>8) & 0xFFF] * v8.env_multiplier)>>8) * ((65535-waveshape)>>8);
 460              		.loc 1 192 0 discriminator 3
 461 015e 059D     		ldr	r5, [sp, #20]
 462 0160 2D0A     		lsrs	r5, r5, #8
 463 0162 2D05     		lsls	r5, r5, #20
 464 0164 2C0D     		lsrs	r4, r5, #20
 465 0166 0294     		str	r4, [sp, #8]
 466 0168 1C57     		ldrsb	r4, [r3, r4]
 467 016a 394B     		ldr	r3, .L7+44
 468 016c 9B88     		ldrh	r3, [r3, #4]
 469 016e 0393     		str	r3, [sp, #12]
 470 0170 5C43     		muls	r4, r3
 471 0172 2412     		asrs	r4, r4, #8
 185:AudioOut.c    ****         + ((base_sq[(index2>>8) & 0xFFF] * v2.env_multiplier)>>8) * ((65535-waveshape)>>8)
 472              		.loc 1 185 0 discriminator 3
 473 0174 384B     		ldr	r3, .L7+52
 474 0176 1B88     		ldrh	r3, [r3]
 475 0178 9B46     		mov	fp, r3
 476 017a 384B     		ldr	r3, .L7+56
 477 017c 5D46     		mov	r5, fp
 478 017e 5B1B     		subs	r3, r3, r5
 479 0180 1D12     		asrs	r5, r3, #8
 480              		.loc 1 192 0 discriminator 3
 481 0182 4444     		add	r4, r4, r8
 482 0184 2B00     		movs	r3, r5
 483 0186 6343     		muls	r3, r4
 484 0188 9846     		mov	r8, r3
 485              	.LVL23:
 193:AudioOut.c    ****         
 194:AudioOut.c    ****         uint32_t sine_portion = ((base_sine[(index>>8) & 0xFFF] * v1.env_multiplier)>>8) * (wavesha
 486              		.loc 1 194 0 discriminator 3
 487 018a 354C     		ldr	r4, .L7+60
 488 018c 069B     		ldr	r3, [sp, #24]
 489              	.LVL24:
 490 018e 5D00     		lsls	r5, r3, #1
 491 0190 2D5F     		ldrsh	r5, [r5, r4]
 492 0192 5346     		mov	r3, r10
 493 0194 6B43     		muls	r3, r5
 494 0196 1D12     		asrs	r5, r3, #8
 495 0198 AA46     		mov	r10, r5
 195:AudioOut.c    ****         + ((base_sine[(index2>>8) & 0xFFF] * v2.env_multiplier)>>8) * (waveshape>>8)
 496              		.loc 1 195 0 discriminator 3
 497 019a 079B     		ldr	r3, [sp, #28]
 498 019c 5D00     		lsls	r5, r3, #1
 499 019e 2D5F     		ldrsh	r5, [r5, r4]
ARM GAS  C:\Users\psmus\AppData\Local\Temp\cc7FfqyC.s 			page 57


 500 01a0 089B     		ldr	r3, [sp, #32]
 501 01a2 6B43     		muls	r3, r5
 502 01a4 1D12     		asrs	r5, r3, #8
 503 01a6 A946     		mov	r9, r5
 504 01a8 CA44     		add	r10, r10, r9
 196:AudioOut.c    ****         + ((base_sine[(index3>>8) & 0xFFF] * v3.env_multiplier)>>8) * (waveshape>>8)
 505              		.loc 1 196 0 discriminator 3
 506 01aa 099B     		ldr	r3, [sp, #36]
 507 01ac 5D00     		lsls	r5, r3, #1
 508 01ae 2D5F     		ldrsh	r5, [r5, r4]
 509 01b0 0A9B     		ldr	r3, [sp, #40]
 510 01b2 6B43     		muls	r3, r5
 511 01b4 1D12     		asrs	r5, r3, #8
 512 01b6 A946     		mov	r9, r5
 513 01b8 D144     		add	r9, r9, r10
 197:AudioOut.c    ****         + ((base_sine[(index4>>8) & 0xFFF] * v4.env_multiplier)>>8) * (waveshape>>8)
 514              		.loc 1 197 0 discriminator 3
 515 01ba 0B9B     		ldr	r3, [sp, #44]
 516 01bc 5D00     		lsls	r5, r3, #1
 517 01be 2D5F     		ldrsh	r5, [r5, r4]
 518 01c0 0C9B     		ldr	r3, [sp, #48]
 519 01c2 6B43     		muls	r3, r5
 520 01c4 1B12     		asrs	r3, r3, #8
 521 01c6 9A46     		mov	r10, r3
 522 01c8 D144     		add	r9, r9, r10
 198:AudioOut.c    ****         + ((base_sine[(index5>>8) & 0xFFF] * v5.env_multiplier)>>8) * (waveshape>>8)
 523              		.loc 1 198 0 discriminator 3
 524 01ca 5200     		lsls	r2, r2, #1
 525 01cc 125F     		ldrsh	r2, [r2, r4]
 526 01ce 5143     		muls	r1, r2
 527 01d0 0912     		asrs	r1, r1, #8
 528 01d2 4944     		add	r1, r1, r9
 199:AudioOut.c    ****         + ((base_sine[(index6>>8) & 0xFFF] * v6.env_multiplier)>>8) * (waveshape>>8)
 529              		.loc 1 199 0 discriminator 3
 530 01d4 7F00     		lsls	r7, r7, #1
 531 01d6 3A5F     		ldrsh	r2, [r7, r4]
 532 01d8 5043     		muls	r0, r2
 533 01da 0012     		asrs	r0, r0, #8
 534 01dc 0818     		adds	r0, r1, r0
 200:AudioOut.c    ****         + ((base_sine[(index7>>8) & 0xFFF] * v7.env_multiplier)>>8) * (waveshape>>8)
 535              		.loc 1 200 0 discriminator 3
 536 01de 7600     		lsls	r6, r6, #1
 537 01e0 365F     		ldrsh	r6, [r6, r4]
 538 01e2 6346     		mov	r3, ip
 539 01e4 5E43     		muls	r6, r3
 540 01e6 3612     		asrs	r6, r6, #8
 541 01e8 8019     		adds	r0, r0, r6
 201:AudioOut.c    ****         + ((base_sine[(index8>>8) & 0xFFF] * v8.env_multiplier)>>8) * (waveshape>>8);
 542              		.loc 1 201 0 discriminator 3
 543 01ea 029A     		ldr	r2, [sp, #8]
 544 01ec 5500     		lsls	r5, r2, #1
 545 01ee 2D5F     		ldrsh	r5, [r5, r4]
 546 01f0 039B     		ldr	r3, [sp, #12]
 547 01f2 6B43     		muls	r3, r5
 548 01f4 1D12     		asrs	r5, r3, #8
 194:AudioOut.c    ****         + ((base_sine[(index2>>8) & 0xFFF] * v2.env_multiplier)>>8) * (waveshape>>8)
 549              		.loc 1 194 0 discriminator 3
ARM GAS  C:\Users\psmus\AppData\Local\Temp\cc7FfqyC.s 			page 58


 550 01f6 5B46     		mov	r3, fp
 551 01f8 1A0A     		lsrs	r2, r3, #8
 552              		.loc 1 201 0 discriminator 3
 553 01fa 4319     		adds	r3, r0, r5
 554 01fc 5343     		muls	r3, r2
 555              	.LVL25:
 202:AudioOut.c    ****         //buffer[i] = value;
 203:AudioOut.c    ****         
 204:AudioOut.c    ****         //int8_t sine_portion = (base_sine[(index>>8) & 0xFFF] * waveshape>>6)>>8;
 205:AudioOut.c    ****         //uint8_t sq_portion = (base_sq[((index)>>8) & 0xFFF] * (65535-waveshape)>>6)>>8;
 206:AudioOut.c    ****         buffer[i] = sine_portion + sq_portion;//((value + 8*AMPLITUDE) * 2*AMPLITUDE) / (32*AMPLITU
 556              		.loc 1 206 0 discriminator 3
 557 01fe 4344     		add	r3, r3, r8
 558              	.LVL26:
 559 0200 0D99     		ldr	r1, [sp, #52]
 560 0202 019A     		ldr	r2, [sp, #4]
 561              	.LVL27:
 562 0204 8B54     		strb	r3, [r1, r2]
 563              	.LBE47:
 165:AudioOut.c    ****         index += v1.freq; //* lfo_multiplier)>>8;
 564              		.loc 1 165 0 discriminator 3
 565 0206 531C     		adds	r3, r2, #1
 566 0208 0193     		str	r3, [sp, #4]
 567              	.LVL28:
 568              	.L5:
 165:AudioOut.c    ****         index += v1.freq; //* lfo_multiplier)>>8;
 569              		.loc 1 165 0 is_stmt 0 discriminator 1
 570 020a 164B     		ldr	r3, .L7+64
 571 020c 019A     		ldr	r2, [sp, #4]
 572 020e 9A42     		cmp	r2, r3
 573 0210 00DC     		bgt	.LCB564
 574 0212 0EE7     		b	.L6	@long jump
 575              	.LCB564:
 576              	.LBE46:
 207:AudioOut.c    ****         
 208:AudioOut.c    ****         ///2 + buffer[i-1]/2;// + buffer[i-2]/3;
 209:AudioOut.c    ****     }
 210:AudioOut.c    **** }
 577              		.loc 1 210 0 is_stmt 1
 578 0214 0FB0     		add	sp, sp, #60
 579              		@ sp needed
 580 0216 3CBC     		pop	{r2, r3, r4, r5}
 581 0218 9046     		mov	r8, r2
 582 021a 9946     		mov	r9, r3
 583 021c A246     		mov	r10, r4
 584 021e AB46     		mov	fp, r5
 585 0220 F0BD     		pop	{r4, r5, r6, r7, pc}
 586              	.L8:
 587 0222 C046     		.align	2
 588              	.L7:
 589 0224 00000000 		.word	.LANCHOR0
 590 0228 00000000 		.word	lfo_freq
 591 022c 00000000 		.word	lfo_sine
 592 0230 00000000 		.word	.LANCHOR1
 593 0234 00000000 		.word	v1
 594 0238 00000000 		.word	v2
 595 023c 00000000 		.word	v3
ARM GAS  C:\Users\psmus\AppData\Local\Temp\cc7FfqyC.s 			page 59


 596 0240 00000000 		.word	v4
 597 0244 00000000 		.word	v5
 598 0248 00000000 		.word	v6
 599 024c 00000000 		.word	v7
 600 0250 00000000 		.word	v8
 601 0254 00000000 		.word	base_sq
 602 0258 00000000 		.word	waveshape
 603 025c FFFF0000 		.word	65535
 604 0260 00000000 		.word	base_sine
 605 0264 FF0F0000 		.word	4095
 606              		.cfi_endproc
 607              	.LFE131:
 608              		.size	ProcessAudioOut, .-ProcessAudioOut
 609              		.section	.text.Stop_I2S_Tx,"ax",%progbits
 610              		.align	2
 611              		.global	Stop_I2S_Tx
 612              		.code	16
 613              		.thumb_func
 614              		.type	Stop_I2S_Tx, %function
 615              	Stop_I2S_Tx:
 616              	.LFB132:
 211:AudioOut.c    **** 
 212:AudioOut.c    **** /*******************************************************************************
 213:AudioOut.c    **** * Function Name: Stop_I2S_Tx
 214:AudioOut.c    **** ********************************************************************************
 215:AudioOut.c    **** * Summary:
 216:AudioOut.c    **** *        This function stops the I2S data transmission by disabling the I2S and 
 217:AudioOut.c    **** *        transmit DMA.
 218:AudioOut.c    **** *
 219:AudioOut.c    **** * Parameters:
 220:AudioOut.c    **** *  void
 221:AudioOut.c    **** *
 222:AudioOut.c    **** * Return:
 223:AudioOut.c    **** *  void
 224:AudioOut.c    **** *
 225:AudioOut.c    **** *******************************************************************************/
 226:AudioOut.c    **** void Stop_I2S_Tx(void) CYREENTRANT
 227:AudioOut.c    **** {
 617              		.loc 1 227 0
 618              		.cfi_startproc
 619              		@ args = 0, pretend = 0, frame = 0
 620              		@ frame_needed = 0, uses_anonymous_args = 0
 621              		@ link register save eliminated.
 228:AudioOut.c    ****     //
 229:AudioOut.c    ****     //if(outPlaying)
 230:AudioOut.c    ****     //{       
 231:AudioOut.c    ****         //UART_UartPutString("Stopping I2S\r\n");
 232:AudioOut.c    ****         //I2S_DisableTx();     /* Stop I2S Transmit (Mute), I2S output clocks still active */
 233:AudioOut.c    ****         
 234:AudioOut.c    ****         //CyDelayUs(20); /* Provide enough time for DMA to transfer the last audio samples complete
 235:AudioOut.c    ****    
 236:AudioOut.c    ****         /* Stop / Disable DMA - Needed to reset to start of chain */
 237:AudioOut.c    ****         //I2STxDMA_ChDisable();
 238:AudioOut.c    **** 		
 239:AudioOut.c    **** 		/* Make DMA transaction count zero */ 
 240:AudioOut.c    ****         //CYDMA_DESCR_BASE.descriptor[I2STxDMA_CHANNEL][0].status &= 0xFFFF0000;
 241:AudioOut.c    **** 		
ARM GAS  C:\Users\psmus\AppData\Local\Temp\cc7FfqyC.s 			page 60


 242:AudioOut.c    ****         /* Disable power to speaker output */
 243:AudioOut.c    ****         //Codec_PowerOffControl(CODEC_POWER_CTRL_OUTPD);
 244:AudioOut.c    ****     //}    
 245:AudioOut.c    **** }
 622              		.loc 1 245 0
 623              		@ sp needed
 624 0000 7047     		bx	lr
 625              		.cfi_endproc
 626              	.LFE132:
 627              		.size	Stop_I2S_Tx, .-Stop_I2S_Tx
 628              		.comm	buffer_index2,4,4
 629              		.comm	buffer_index,4,4
 630              		.comm	output_buffer2,4096,4
 631              		.comm	output_buffer,4096,4
 632              		.global	outPlaying
 633              		.global	envelope_multiplier
 634              		.global	lfo_multiplier
 635              		.comm	lfo_freq,4,4
 636              		.comm	freq8,2,2
 637              		.comm	freq7,2,2
 638              		.comm	freq6,2,2
 639              		.comm	freq5,2,2
 640              		.comm	freq4,2,2
 641              		.comm	freq3,2,2
 642              		.comm	freq2,2,2
 643              		.comm	freq,2,2
 644              		.comm	v8,16,4
 645              		.comm	v7,16,4
 646              		.comm	v6,16,4
 647              		.comm	v5,16,4
 648              		.comm	v4,16,4
 649              		.comm	v3,16,4
 650              		.comm	v2,16,4
 651              		.comm	v1,16,4
 652              		.comm	lfo_sine,256,4
 653              		.comm	base_sq,4096,4
 654              		.comm	base_pos_saw,4096,4
 655              		.comm	base_sine,8192,4
 656 0002 C046     		.data
 657              		.align	1
 658              		.set	.LANCHOR1,. + 0
 659              		.type	lfo_multiplier, %object
 660              		.size	lfo_multiplier, 2
 661              	lfo_multiplier:
 662 0000 0100     		.short	1
 663              		.bss
 664              		.align	2
 665              		.set	.LANCHOR0,. + 0
 666              		.type	lfo_index.8138, %object
 667              		.size	lfo_index.8138, 4
 668              	lfo_index.8138:
 669 0000 00000000 		.space	4
 670              		.type	index.8130, %object
 671              		.size	index.8130, 4
 672              	index.8130:
 673 0004 00000000 		.space	4
 674              		.type	index2.8131, %object
ARM GAS  C:\Users\psmus\AppData\Local\Temp\cc7FfqyC.s 			page 61


 675              		.size	index2.8131, 4
 676              	index2.8131:
 677 0008 00000000 		.space	4
 678              		.type	index3.8132, %object
 679              		.size	index3.8132, 4
 680              	index3.8132:
 681 000c 00000000 		.space	4
 682              		.type	index4.8133, %object
 683              		.size	index4.8133, 4
 684              	index4.8133:
 685 0010 00000000 		.space	4
 686              		.type	index5.8134, %object
 687              		.size	index5.8134, 4
 688              	index5.8134:
 689 0014 00000000 		.space	4
 690              		.type	index6.8135, %object
 691              		.size	index6.8135, 4
 692              	index6.8135:
 693 0018 00000000 		.space	4
