ARM GAS  C:\Users\psmus\AppData\Local\Temp\ccJcfx5O.s 			page 1


   1              		.syntax unified
   2              		.cpu cortex-m0
   3              		.fpu softvfp
   4              		.eabi_attribute 20, 1
   5              		.eabi_attribute 21, 1
   6              		.eabi_attribute 23, 3
   7              		.eabi_attribute 24, 1
   8              		.eabi_attribute 25, 1
   9              		.eabi_attribute 26, 1
  10              		.eabi_attribute 30, 1
  11              		.eabi_attribute 34, 0
  12              		.eabi_attribute 18, 4
  13              		.thumb
  14              		.syntax unified
  15              		.file	"Codec.c"
  16              		.text
  17              	.Ltext0:
  18              		.cfi_sections	.debug_frame
  19              		.section	.text.Codec_SendData,"ax",%progbits
  20              		.align	2
  21              		.global	Codec_SendData
  22              		.code	16
  23              		.thumb_func
  24              		.type	Codec_SendData, %function
  25              	Codec_SendData:
  26              	.LFB2:
  27              		.file 1 "Codec.c"
   1:Codec.c       **** /*******************************************************************************
   2:Codec.c       **** * File Name: Codec.c
   3:Codec.c       **** *
   4:Codec.c       **** * Version 1.0
   5:Codec.c       **** *
   6:Codec.c       **** *  Description: This file contains the codec control APIs
   7:Codec.c       **** *
   8:Codec.c       **** *******************************************************************************
   9:Codec.c       **** * Copyright (2018), Cypress Semiconductor Corporation. All rights reserved.
  10:Codec.c       **** *******************************************************************************
  11:Codec.c       **** * This software, including source code, documentation and related materials
  12:Codec.c       **** * (“Software”), is owned by Cypress Semiconductor Corporation or one of its
  13:Codec.c       **** * subsidiaries (“Cypress”) and is protected by and subject to worldwide patent
  14:Codec.c       **** * protection (United States and foreign), United States copyright laws and
  15:Codec.c       **** * international treaty provisions. Therefore, you may use this Software only
  16:Codec.c       **** * as provided in the license agreement accompanying the software package from
  17:Codec.c       **** * which you obtained this Software (“EULA”).
  18:Codec.c       **** *
  19:Codec.c       **** * If no EULA applies, Cypress hereby grants you a personal, nonexclusive,
  20:Codec.c       **** * non-transferable license to copy, modify, and compile the Software source
  21:Codec.c       **** * code solely for use in connection with Cypress’s integrated circuit products.
  22:Codec.c       **** * Any reproduction, modification, translation, compilation, or representation
  23:Codec.c       **** * of this Software except as specified above is prohibited without the express
  24:Codec.c       **** * written permission of Cypress.
  25:Codec.c       **** *
  26:Codec.c       **** * Disclaimer: THIS SOFTWARE IS PROVIDED AS-IS, WITH NO WARRANTY OF ANY KIND, 
  27:Codec.c       **** * EXPRESS OR IMPLIED, INCLUDING, BUT NOT LIMITED TO, NONINFRINGEMENT, IMPLIED 
  28:Codec.c       **** * WARRANTIES OF MERCHANTABILITY AND FITNESS FOR A PARTICULAR PURPOSE. Cypress 
  29:Codec.c       **** * reserves the right to make changes to the Software without notice. Cypress 
  30:Codec.c       **** * does not assume any liability arising out of the application or use of the 
ARM GAS  C:\Users\psmus\AppData\Local\Temp\ccJcfx5O.s 			page 2


  31:Codec.c       **** * Software or any product or circuit described in the Software. Cypress does 
  32:Codec.c       **** * not authorize its products for use in any products where a malfunction or 
  33:Codec.c       **** * failure of the Cypress product may reasonably be expected to result in 
  34:Codec.c       **** * significant property damage, injury or death (“High Risk Product”). By 
  35:Codec.c       **** * including Cypress’s product in a High Risk Product, the manufacturer of such 
  36:Codec.c       **** * system or application assumes all risk of such use and in doing so agrees to 
  37:Codec.c       **** * indemnify Cypress against all liability.
  38:Codec.c       **** *******************************************************************************/
  39:Codec.c       **** 
  40:Codec.c       **** #include "Codec.h"
  41:Codec.c       **** #include "cytypes.h"
  42:Codec.c       **** #include "CodecI2CM_I2C.h"
  43:Codec.c       **** #include "stdbool.h"
  44:Codec.c       **** 
  45:Codec.c       **** #define I2C_WRITE_OPERATION		(0x00)
  46:Codec.c       **** #define I2C_TIMEOUT_MS          (0x64)
  47:Codec.c       **** 
  48:Codec.c       **** static uint16 Codec_analogPathSetting = CODEC_DEF_ANALOG_CTRL;
  49:Codec.c       **** uint32 Codec_powerControlSetting = CODEC_DEF_POWER_CTRL;
  50:Codec.c       **** 
  51:Codec.c       **** /*******************************************************************************
  52:Codec.c       **** * Function Name: Codec_Init
  53:Codec.c       **** ********************************************************************************
  54:Codec.c       **** * Summary:
  55:Codec.c       **** *   Initializes the codec with default settings.
  56:Codec.c       **** *
  57:Codec.c       **** *
  58:Codec.c       **** * Parameters:  
  59:Codec.c       **** *	None
  60:Codec.c       **** *
  61:Codec.c       **** * Return:
  62:Codec.c       **** *   uint8 - I2C master transaction error status
  63:Codec.c       **** *				CodecI2CM_I2C_MSTR_NO_ERROR - Function complete without error                       
  64:Codec.c       **** *				CodecI2CM_I2C_MSTR_ERR_ARB_LOST - Master lost arbitration: INTR_MASTER_I2C_ARB_LOST    
  65:Codec.c       **** *				CodecI2CM_I2C_MSTR_ERR_LB_NAK - Last Byte NACKed: INTR_MASTER_I2C_NACK               
  66:Codec.c       **** *				CodecI2CM_I2C_MSTR_NOT_READY - Master on the bus or Slave operation is in progress  
  67:Codec.c       **** *				CodecI2CM_I2C_MSTR_BUS_BUSY - Bus is busy, process not started
  68:Codec.c       **** *				CodecI2CM_I2C_MSTR_ERR_ABORT_START - Slave was addressed before master begin Start
  69:Codec.c       **** *				CodecI2CM_I2C_MSTR_ERR_BUS_ERR - Bus error has: INTR_MASTER_I2C_BUS_ERROR 
  70:Codec.c       **** *
  71:Codec.c       **** *******************************************************************************/
  72:Codec.c       **** uint8 Codec_Init(void)
  73:Codec.c       **** {
  74:Codec.c       **** 	uint8 ret;
  75:Codec.c       **** 	
  76:Codec.c       **** 	ret = Codec_ResetOverI2C();
  77:Codec.c       **** 	CyDelay(CODEC_RESET_WAIT_DELAY);
  78:Codec.c       **** 	
  79:Codec.c       **** 	ret = Codec_AdjustBothHeadphoneVolume(CODEC_HP_VOLUME_MAX);
  80:Codec.c       **** 	ret = Codec_SendData(CODEC_REG_ANALOG_CTRL, CODEC_DEF_ANALOG_CTRL);
  81:Codec.c       **** 	ret = Codec_SendData(CODEC_REG_DIGITAL_CTRL, CODEC_DEF_DIGITAL_CTRL);
  82:Codec.c       **** 	ret = Codec_SendData(CODEC_REG_POWER_CTRL, CODEC_DEF_POWER_CTRL);
  83:Codec.c       **** 	ret = Codec_SetSamplingRate(CODEC_DEF_SAMPLING_RATE);
  84:Codec.c       **** 	
  85:Codec.c       **** 	return ret;  
  86:Codec.c       **** }
  87:Codec.c       **** 
ARM GAS  C:\Users\psmus\AppData\Local\Temp\ccJcfx5O.s 			page 3


  88:Codec.c       **** /*******************************************************************************
  89:Codec.c       **** * Function Name: Codec_SendData
  90:Codec.c       **** ********************************************************************************
  91:Codec.c       **** * Summary:
  92:Codec.c       **** *   Low level API to send data to codec over I2C.
  93:Codec.c       **** *
  94:Codec.c       **** *
  95:Codec.c       **** * Parameters:  
  96:Codec.c       **** *	regAddr - Address of the codec register to be updated
  97:Codec.c       **** *	data - 16-bit data to be updated in the register
  98:Codec.c       **** *
  99:Codec.c       **** * Return:
 100:Codec.c       **** *   uint8 - I2C master transaction error status
 101:Codec.c       **** *				CodecI2CM_I2C_MSTR_NO_ERROR - Function complete without error                       
 102:Codec.c       **** *				CodecI2CM_I2C_MSTR_ERR_ARB_LOST - Master lost arbitration: INTR_MASTER_I2C_ARB_LOST    
 103:Codec.c       **** *				CodecI2CM_I2C_MSTR_ERR_LB_NAK - Last Byte NACKed: INTR_MASTER_I2C_NACK               
 104:Codec.c       **** *				CodecI2CM_I2C_MSTR_NOT_READY - Master on the bus or Slave operation is in progress  
 105:Codec.c       **** *				CodecI2CM_I2C_MSTR_BUS_BUSY - Bus is busy, process not started
 106:Codec.c       **** *				CodecI2CM_I2C_MSTR_ERR_ABORT_START - Slave was addressed before master begin Start
 107:Codec.c       **** *				CodecI2CM_I2C_MSTR_ERR_BUS_ERR - Bus error has: INTR_MASTER_I2C_BUS_ERROR 
 108:Codec.c       **** *
 109:Codec.c       **** *******************************************************************************/
 110:Codec.c       **** uint8 Codec_SendData(uint8 regAddr, uint16 data)
 111:Codec.c       **** {
  28              		.loc 1 111 0
  29              		.cfi_startproc
  30              		@ args = 0, pretend = 0, frame = 0
  31              		@ frame_needed = 0, uses_anonymous_args = 0
  32              	.LVL0:
  33 0000 70B5     		push	{r4, r5, r6, lr}
  34              		.cfi_def_cfa_offset 16
  35              		.cfi_offset 4, -16
  36              		.cfi_offset 5, -12
  37              		.cfi_offset 6, -8
  38              		.cfi_offset 14, -4
  39 0002 0500     		movs	r5, r0
  40 0004 0C00     		movs	r4, r1
 112:Codec.c       **** 	uint8 temp;
 113:Codec.c       **** 	
 114:Codec.c       **** 	temp = CodecI2CM_I2CMasterSendStart(CODEC_I2C_ADDR, I2C_WRITE_OPERATION, I2C_TIMEOUT_MS); 
  41              		.loc 1 114 0
  42 0006 6422     		movs	r2, #100
  43 0008 0021     		movs	r1, #0
  44              	.LVL1:
  45 000a 1A20     		movs	r0, #26
  46              	.LVL2:
  47 000c FFF7FEFF 		bl	CodecI2CM_I2CMasterSendStart
  48              	.LVL3:
  49 0010 C0B2     		uxtb	r0, r0
  50              	.LVL4:
 115:Codec.c       **** 	if(temp == CodecI2CM_I2C_MSTR_NO_ERROR)
  51              		.loc 1 115 0
  52 0012 0028     		cmp	r0, #0
  53 0014 16D1     		bne	.L2
 116:Codec.c       **** 	{
 117:Codec.c       **** 		temp = CodecI2CM_I2CMasterWriteByte(((regAddr << 0x01) | (HI8(data) & 0x01)), I2C_TIMEOUT_MS);
  54              		.loc 1 117 0
ARM GAS  C:\Users\psmus\AppData\Local\Temp\ccJcfx5O.s 			page 4


  55 0016 6D00     		lsls	r5, r5, #1
  56 0018 230A     		lsrs	r3, r4, #8
  57 001a 0130     		adds	r0, r0, #1
  58              	.LVL5:
  59 001c 0340     		ands	r3, r0
  60 001e 2800     		movs	r0, r5
  61              	.LVL6:
  62 0020 1843     		orrs	r0, r3
  63 0022 6421     		movs	r1, #100
  64 0024 FFF7FEFF 		bl	CodecI2CM_I2CMasterWriteByte
  65              	.LVL7:
  66 0028 C0B2     		uxtb	r0, r0
  67              	.LVL8:
 118:Codec.c       **** 		
 119:Codec.c       **** 		if(temp == CodecI2CM_I2C_MSTR_NO_ERROR)
  68              		.loc 1 119 0
  69 002a 0028     		cmp	r0, #0
  70 002c 0AD1     		bne	.L2
 120:Codec.c       **** 		{
 121:Codec.c       **** 			temp = CodecI2CM_I2CMasterWriteByte(LO8(data), I2C_TIMEOUT_MS);
  71              		.loc 1 121 0
  72 002e E0B2     		uxtb	r0, r4
  73              	.LVL9:
  74 0030 6421     		movs	r1, #100
  75 0032 FFF7FEFF 		bl	CodecI2CM_I2CMasterWriteByte
  76              	.LVL10:
  77 0036 C0B2     		uxtb	r0, r0
  78              	.LVL11:
 122:Codec.c       **** 			
 123:Codec.c       **** 			if(temp == CodecI2CM_I2C_MSTR_NO_ERROR)
  79              		.loc 1 123 0
  80 0038 0028     		cmp	r0, #0
  81 003a 03D1     		bne	.L2
 124:Codec.c       **** 			{
 125:Codec.c       **** 				temp = CodecI2CM_I2CMasterSendStop(I2C_TIMEOUT_MS);
  82              		.loc 1 125 0
  83 003c 6430     		adds	r0, r0, #100
  84              	.LVL12:
  85 003e FFF7FEFF 		bl	CodecI2CM_I2CMasterSendStop
  86              	.LVL13:
  87 0042 C0B2     		uxtb	r0, r0
  88              	.LVL14:
  89              	.L2:
 126:Codec.c       **** 			}
 127:Codec.c       **** 		}
 128:Codec.c       **** 	}
 129:Codec.c       **** 
 130:Codec.c       **** 	return temp;
 131:Codec.c       **** }
  90              		.loc 1 131 0
  91              		@ sp needed
  92 0044 70BD     		pop	{r4, r5, r6, pc}
  93              		.cfi_endproc
  94              	.LFE2:
  95              		.size	Codec_SendData, .-Codec_SendData
  96 0046 C046     		.section	.text.Codec_SetSamplingRate,"ax",%progbits
  97              		.align	2
ARM GAS  C:\Users\psmus\AppData\Local\Temp\ccJcfx5O.s 			page 5


  98              		.global	Codec_SetSamplingRate
  99              		.code	16
 100              		.thumb_func
 101              		.type	Codec_SetSamplingRate, %function
 102              	Codec_SetSamplingRate:
 103              	.LFB3:
 132:Codec.c       **** 
 133:Codec.c       **** /*******************************************************************************
 134:Codec.c       **** * Function Name: Codec_SetSamplingRate
 135:Codec.c       **** ********************************************************************************
 136:Codec.c       **** * Summary:
 137:Codec.c       **** *   This function sets the sampling rate of the codec. Note that the codec must be deactivated 
 138:Codec.c       **** *	before configuring the sample rate.
 139:Codec.c       **** *
 140:Codec.c       **** *
 141:Codec.c       **** * Parameters:  
 142:Codec.c       **** *	srCtrlField - Sampling control register settings 
 143:Codec.c       **** *					
 144:Codec.c       **** *
 145:Codec.c       **** * Return:
 146:Codec.c       **** *   uint8 - I2C master transaction error status
 147:Codec.c       **** *				CodecI2CM_I2C_MSTR_NO_ERROR - Function complete without error                       
 148:Codec.c       **** *				CodecI2CM_I2C_MSTR_ERR_ARB_LOST - Master lost arbitration: INTR_MASTER_I2C_ARB_LOST    
 149:Codec.c       **** *				CodecI2CM_I2C_MSTR_ERR_LB_NAK - Last Byte NACKed: INTR_MASTER_I2C_NACK               
 150:Codec.c       **** *				CodecI2CM_I2C_MSTR_NOT_READY - Master on the bus or Slave operation is in progress  
 151:Codec.c       **** *				CodecI2CM_I2C_MSTR_BUS_BUSY - Bus is busy, process not started
 152:Codec.c       **** *				CodecI2CM_I2C_MSTR_ERR_ABORT_START - Slave was addressed before master begin Start
 153:Codec.c       **** *				CodecI2CM_I2C_MSTR_ERR_BUS_ERR - Bus error has: INTR_MASTER_I2C_BUS_ERROR 
 154:Codec.c       **** *
 155:Codec.c       **** *******************************************************************************/
 156:Codec.c       **** uint8 Codec_SetSamplingRate(uint8 srCtrlField)
 157:Codec.c       **** {		
 104              		.loc 1 157 0
 105              		.cfi_startproc
 106              		@ args = 0, pretend = 0, frame = 0
 107              		@ frame_needed = 0, uses_anonymous_args = 0
 108              	.LVL15:
 109 0000 10B5     		push	{r4, lr}
 110              		.cfi_def_cfa_offset 8
 111              		.cfi_offset 4, -8
 112              		.cfi_offset 14, -4
 158:Codec.c       **** 	/* This function modifies the BOSR & SR bits of sampling rate control register.
 159:Codec.c       ****      * srCtrlField : bit[0] - BOSR, bit[1:4] - SR.
 160:Codec.c       ****      */
 161:Codec.c       ****     return Codec_SendData(CODEC_REG_SAMPLING_CTRL, srCtrlField);;
 113              		.loc 1 161 0
 114 0002 81B2     		uxth	r1, r0
 115 0004 0820     		movs	r0, #8
 116              	.LVL16:
 117 0006 FFF7FEFF 		bl	Codec_SendData
 118              	.LVL17:
 162:Codec.c       **** }
 119              		.loc 1 162 0
 120              		@ sp needed
 121 000a 10BD     		pop	{r4, pc}
 122              		.cfi_endproc
 123              	.LFE3:
ARM GAS  C:\Users\psmus\AppData\Local\Temp\ccJcfx5O.s 			page 6


 124              		.size	Codec_SetSamplingRate, .-Codec_SetSamplingRate
 125              		.section	.text.Codec_AdjustBothHeadphoneVolume,"ax",%progbits
 126              		.align	2
 127              		.global	Codec_AdjustBothHeadphoneVolume
 128              		.code	16
 129              		.thumb_func
 130              		.type	Codec_AdjustBothHeadphoneVolume, %function
 131              	Codec_AdjustBothHeadphoneVolume:
 132              	.LFB4:
 163:Codec.c       **** 
 164:Codec.c       **** /*******************************************************************************
 165:Codec.c       **** * Function Name: Codec_AdjustBothHeadphoneVolume
 166:Codec.c       **** ********************************************************************************
 167:Codec.c       **** * Summary:
 168:Codec.c       **** *   This function updates the volume of both the left and right channels of the
 169:Codec.c       **** * 	headphone output.
 170:Codec.c       **** *
 171:Codec.c       **** *
 172:Codec.c       **** * Parameters:  
 173:Codec.c       **** *	volume - 0 - Mute
 174:Codec.c       **** *			 1 to CODEC_HP_VOLUME_MAX levels
 175:Codec.c       **** *
 176:Codec.c       **** * Return:
 177:Codec.c       **** *   uint8 - I2C master transaction error status
 178:Codec.c       **** *				CodecI2CM_I2C_MSTR_NO_ERROR - Function complete without error                       
 179:Codec.c       **** *				CodecI2CM_I2C_MSTR_ERR_ARB_LOST - Master lost arbitration: INTR_MASTER_I2C_ARB_LOST    
 180:Codec.c       **** *				CodecI2CM_I2C_MSTR_ERR_LB_NAK - Last Byte NACKed: INTR_MASTER_I2C_NACK               
 181:Codec.c       **** *				CodecI2CM_I2C_MSTR_NOT_READY - Master on the bus or Slave operation is in progress  
 182:Codec.c       **** *				CodecI2CM_I2C_MSTR_BUS_BUSY - Bus is busy, process not started
 183:Codec.c       **** *				CodecI2CM_I2C_MSTR_ERR_ABORT_START - Slave was addressed before master begin Start
 184:Codec.c       **** *				CodecI2CM_I2C_MSTR_ERR_BUS_ERR - Bus error has: INTR_MASTER_I2C_BUS_ERROR 
 185:Codec.c       **** *
 186:Codec.c       **** *******************************************************************************/
 187:Codec.c       **** 
 188:Codec.c       **** uint8 Codec_AdjustBothHeadphoneVolume(uint8 volume)
 189:Codec.c       **** {
 133              		.loc 1 189 0
 134              		.cfi_startproc
 135              		@ args = 0, pretend = 0, frame = 0
 136              		@ frame_needed = 0, uses_anonymous_args = 0
 137              	.LVL18:
 138 0000 10B5     		push	{r4, lr}
 139              		.cfi_def_cfa_offset 8
 140              		.cfi_offset 4, -8
 141              		.cfi_offset 14, -4
 190:Codec.c       **** 	if(volume > CODEC_HP_VOLUME_MAX)
 142              		.loc 1 190 0
 143 0002 5028     		cmp	r0, #80
 144 0004 00D9     		bls	.L5
 191:Codec.c       **** 	{
 192:Codec.c       **** 		volume = CODEC_HP_VOLUME_MAX;
 145              		.loc 1 192 0
 146 0006 5020     		movs	r0, #80
 147              	.LVL19:
 148              	.L5:
 193:Codec.c       **** 	}
 194:Codec.c       **** 	
ARM GAS  C:\Users\psmus\AppData\Local\Temp\ccJcfx5O.s 			page 7


 195:Codec.c       **** 	return Codec_SendData(CODEC_REG_LHPOUT, (volume + (CODEC_LHPOUT_BOTH + CODEC_LHPOUT_LZCEN)));
 149              		.loc 1 195 0
 150 0008 0100     		movs	r1, r0
 151 000a 8131     		adds	r1, r1, #129
 152 000c FF31     		adds	r1, r1, #255
 153 000e 0220     		movs	r0, #2
 154              	.LVL20:
 155 0010 FFF7FEFF 		bl	Codec_SendData
 156              	.LVL21:
 196:Codec.c       **** }
 157              		.loc 1 196 0
 158              		@ sp needed
 159 0014 10BD     		pop	{r4, pc}
 160              		.cfi_endproc
 161              	.LFE4:
 162              		.size	Codec_AdjustBothHeadphoneVolume, .-Codec_AdjustBothHeadphoneVolume
 163 0016 C046     		.section	.text.Codec_MuteMic,"ax",%progbits
 164              		.align	2
 165              		.global	Codec_MuteMic
 166              		.code	16
 167              		.thumb_func
 168              		.type	Codec_MuteMic, %function
 169              	Codec_MuteMic:
 170              	.LFB5:
 197:Codec.c       **** 
 198:Codec.c       **** /*******************************************************************************
 199:Codec.c       **** * Function Name: Codec_MuteMic
 200:Codec.c       **** ********************************************************************************
 201:Codec.c       **** * Summary:
 202:Codec.c       **** *   Mutes/unmutes the microphone input
 203:Codec.c       **** *
 204:Codec.c       **** *
 205:Codec.c       **** * Parameters:  
 206:Codec.c       **** *	isMuteOrUnmute - 0 - Unmute
 207:Codec.c       **** *					 1 - Mute
 208:Codec.c       **** *
 209:Codec.c       **** * Return:
 210:Codec.c       **** *   uint8 - I2C master transaction error status
 211:Codec.c       **** *				CodecI2CM_I2C_MSTR_NO_ERROR - Function complete without error                       
 212:Codec.c       **** *				CodecI2CM_I2C_MSTR_ERR_ARB_LOST - Master lost arbitration: INTR_MASTER_I2C_ARB_LOST    
 213:Codec.c       **** *				CodecI2CM_I2C_MSTR_ERR_LB_NAK - Last Byte NACKed: INTR_MASTER_I2C_NACK               
 214:Codec.c       **** *				CodecI2CM_I2C_MSTR_NOT_READY - Master on the bus or Slave operation is in progress  
 215:Codec.c       **** *				CodecI2CM_I2C_MSTR_BUS_BUSY - Bus is busy, process not started
 216:Codec.c       **** *				CodecI2CM_I2C_MSTR_ERR_ABORT_START - Slave was addressed before master begin Start
 217:Codec.c       **** *				CodecI2CM_I2C_MSTR_ERR_BUS_ERR - Bus error has: INTR_MASTER_I2C_BUS_ERROR 
 218:Codec.c       **** *
 219:Codec.c       **** *******************************************************************************/
 220:Codec.c       **** uint8 Codec_MuteMic(bool isMuteOrUnmute)
 221:Codec.c       **** {
 171              		.loc 1 221 0
 172              		.cfi_startproc
 173              		@ args = 0, pretend = 0, frame = 0
 174              		@ frame_needed = 0, uses_anonymous_args = 0
 175              	.LVL22:
 176 0000 10B5     		push	{r4, lr}
 177              		.cfi_def_cfa_offset 8
 178              		.cfi_offset 4, -8
ARM GAS  C:\Users\psmus\AppData\Local\Temp\ccJcfx5O.s 			page 8


 179              		.cfi_offset 14, -4
 222:Codec.c       **** 	Codec_analogPathSetting &= ~(CODEC_ANALOG_CTRL_MUTEMIC);
 180              		.loc 1 222 0
 181 0002 084A     		ldr	r2, .L9
 182 0004 1388     		ldrh	r3, [r2]
 183 0006 0221     		movs	r1, #2
 184 0008 8B43     		bics	r3, r1
 185 000a 1380     		strh	r3, [r2]
 223:Codec.c       **** 	
 224:Codec.c       **** 	if(isMuteOrUnmute)
 186              		.loc 1 224 0
 187 000c 0028     		cmp	r0, #0
 188 000e 03D0     		beq	.L8
 225:Codec.c       **** 	{
 226:Codec.c       **** 		Codec_analogPathSetting |= CODEC_ANALOG_CTRL_MUTEMIC;		
 189              		.loc 1 226 0
 190 0010 0222     		movs	r2, #2
 191 0012 1343     		orrs	r3, r2
 192 0014 034A     		ldr	r2, .L9
 193 0016 1380     		strh	r3, [r2]
 194              	.L8:
 227:Codec.c       **** 	}
 228:Codec.c       **** 	
 229:Codec.c       **** 	return Codec_SendData(CODEC_REG_ANALOG_CTRL, Codec_analogPathSetting);
 195              		.loc 1 229 0
 196 0018 024B     		ldr	r3, .L9
 197 001a 1988     		ldrh	r1, [r3]
 198 001c 0420     		movs	r0, #4
 199              	.LVL23:
 200 001e FFF7FEFF 		bl	Codec_SendData
 201              	.LVL24:
 230:Codec.c       **** }
 202              		.loc 1 230 0
 203              		@ sp needed
 204 0022 10BD     		pop	{r4, pc}
 205              	.L10:
 206              		.align	2
 207              	.L9:
 208 0024 00000000 		.word	.LANCHOR0
 209              		.cfi_endproc
 210              	.LFE5:
 211              		.size	Codec_MuteMic, .-Codec_MuteMic
 212              		.section	.text.Codec_SetMicBoost,"ax",%progbits
 213              		.align	2
 214              		.global	Codec_SetMicBoost
 215              		.code	16
 216              		.thumb_func
 217              		.type	Codec_SetMicBoost, %function
 218              	Codec_SetMicBoost:
 219              	.LFB6:
 231:Codec.c       **** 
 232:Codec.c       **** /*******************************************************************************
 233:Codec.c       **** * Function Name: Codec_SetMicBoost
 234:Codec.c       **** ********************************************************************************
 235:Codec.c       **** * Summary:
 236:Codec.c       **** *   Enables/Disables microphone boost (amplification)
 237:Codec.c       **** *
ARM GAS  C:\Users\psmus\AppData\Local\Temp\ccJcfx5O.s 			page 9


 238:Codec.c       **** *
 239:Codec.c       **** * Parameters:  
 240:Codec.c       **** *	micBoost -       0 - Disable
 241:Codec.c       **** *					 1 - Enable
 242:Codec.c       **** *
 243:Codec.c       **** * Return:
 244:Codec.c       **** *   uint8 - I2C master transaction error status
 245:Codec.c       **** *				CodecI2CM_I2C_MSTR_NO_ERROR - Function complete without error                       
 246:Codec.c       **** *				CodecI2CM_I2C_MSTR_ERR_ARB_LOST - Master lost arbitration: INTR_MASTER_I2C_ARB_LOST    
 247:Codec.c       **** *				CodecI2CM_I2C_MSTR_ERR_LB_NAK - Last Byte NACKed: INTR_MASTER_I2C_NACK               
 248:Codec.c       **** *				CodecI2CM_I2C_MSTR_NOT_READY - Master on the bus or Slave operation is in progress  
 249:Codec.c       **** *				CodecI2CM_I2C_MSTR_BUS_BUSY - Bus is busy, process not started
 250:Codec.c       **** *				CodecI2CM_I2C_MSTR_ERR_ABORT_START - Slave was addressed before master begin Start
 251:Codec.c       **** *				CodecI2CM_I2C_MSTR_ERR_BUS_ERR - Bus error has: INTR_MASTER_I2C_BUS_ERROR 
 252:Codec.c       **** *
 253:Codec.c       **** *******************************************************************************/
 254:Codec.c       **** uint8 Codec_SetMicBoost(bool micBoost)
 255:Codec.c       **** {
 220              		.loc 1 255 0
 221              		.cfi_startproc
 222              		@ args = 0, pretend = 0, frame = 0
 223              		@ frame_needed = 0, uses_anonymous_args = 0
 224              	.LVL25:
 225 0000 10B5     		push	{r4, lr}
 226              		.cfi_def_cfa_offset 8
 227              		.cfi_offset 4, -8
 228              		.cfi_offset 14, -4
 256:Codec.c       **** 	Codec_analogPathSetting &= ~(CODEC_ANALOG_CTRL_MICBOOST);
 229              		.loc 1 256 0
 230 0002 084A     		ldr	r2, .L13
 231 0004 1388     		ldrh	r3, [r2]
 232 0006 0121     		movs	r1, #1
 233 0008 8B43     		bics	r3, r1
 234 000a 1380     		strh	r3, [r2]
 257:Codec.c       **** 	
 258:Codec.c       **** 	if(micBoost)
 235              		.loc 1 258 0
 236 000c 0028     		cmp	r0, #0
 237 000e 03D0     		beq	.L12
 259:Codec.c       **** 	{
 260:Codec.c       **** 		Codec_analogPathSetting |= CODEC_ANALOG_CTRL_MICBOOST;		
 238              		.loc 1 260 0
 239 0010 0122     		movs	r2, #1
 240 0012 1343     		orrs	r3, r2
 241 0014 034A     		ldr	r2, .L13
 242 0016 1380     		strh	r3, [r2]
 243              	.L12:
 261:Codec.c       **** 	}
 262:Codec.c       **** 	
 263:Codec.c       **** 	return Codec_SendData(CODEC_REG_ANALOG_CTRL, Codec_analogPathSetting);
 244              		.loc 1 263 0
 245 0018 024B     		ldr	r3, .L13
 246 001a 1988     		ldrh	r1, [r3]
 247 001c 0420     		movs	r0, #4
 248              	.LVL26:
 249 001e FFF7FEFF 		bl	Codec_SendData
 250              	.LVL27:
ARM GAS  C:\Users\psmus\AppData\Local\Temp\ccJcfx5O.s 			page 10


 264:Codec.c       **** }
 251              		.loc 1 264 0
 252              		@ sp needed
 253 0022 10BD     		pop	{r4, pc}
 254              	.L14:
 255              		.align	2
 256              	.L13:
 257 0024 00000000 		.word	.LANCHOR0
 258              		.cfi_endproc
 259              	.LFE6:
 260              		.size	Codec_SetMicBoost, .-Codec_SetMicBoost
 261              		.section	.text.Codec_Activate,"ax",%progbits
 262              		.align	2
 263              		.global	Codec_Activate
 264              		.code	16
 265              		.thumb_func
 266              		.type	Codec_Activate, %function
 267              	Codec_Activate:
 268              	.LFB7:
 265:Codec.c       **** 
 266:Codec.c       **** /*******************************************************************************
 267:Codec.c       **** * Function Name: Codec_Activate
 268:Codec.c       **** ********************************************************************************
 269:Codec.c       **** * Summary:
 270:Codec.c       **** *   Activates the codec - This function is called in conjunction with Codec_Deactivate API
 271:Codec.c       **** *	after successful configuration update of the codec.
 272:Codec.c       **** *
 273:Codec.c       **** *
 274:Codec.c       **** * Parameters:  
 275:Codec.c       **** *	None
 276:Codec.c       **** *
 277:Codec.c       **** * Return:
 278:Codec.c       **** *   uint8 - I2C master transaction error status
 279:Codec.c       **** *				CodecI2CM_I2C_MSTR_NO_ERROR - Function complete without error                       
 280:Codec.c       **** *				CodecI2CM_I2C_MSTR_ERR_ARB_LOST - Master lost arbitration: INTR_MASTER_I2C_ARB_LOST    
 281:Codec.c       **** *				CodecI2CM_I2C_MSTR_ERR_LB_NAK - Last Byte NACKed: INTR_MASTER_I2C_NACK               
 282:Codec.c       **** *				CodecI2CM_I2C_MSTR_NOT_READY - Master on the bus or Slave operation is in progress  
 283:Codec.c       **** *				CodecI2CM_I2C_MSTR_BUS_BUSY - Bus is busy, process not started
 284:Codec.c       **** *				CodecI2CM_I2C_MSTR_ERR_ABORT_START - Slave was addressed before master begin Start
 285:Codec.c       **** *				CodecI2CM_I2C_MSTR_ERR_BUS_ERR - Bus error has: INTR_MASTER_I2C_BUS_ERROR 
 286:Codec.c       **** *
 287:Codec.c       **** *******************************************************************************/
 288:Codec.c       **** uint8 Codec_Activate(void)
 289:Codec.c       **** {
 269              		.loc 1 289 0
 270              		.cfi_startproc
 271              		@ args = 0, pretend = 0, frame = 0
 272              		@ frame_needed = 0, uses_anonymous_args = 0
 273 0000 10B5     		push	{r4, lr}
 274              		.cfi_def_cfa_offset 8
 275              		.cfi_offset 4, -8
 276              		.cfi_offset 14, -4
 290:Codec.c       **** 	return Codec_SendData(CODEC_REG_ACTIVATE, CODEC_CTRL_ACTIVATE); 
 277              		.loc 1 290 0
 278 0002 0121     		movs	r1, #1
 279 0004 0920     		movs	r0, #9
 280 0006 FFF7FEFF 		bl	Codec_SendData
ARM GAS  C:\Users\psmus\AppData\Local\Temp\ccJcfx5O.s 			page 11


 281              	.LVL28:
 291:Codec.c       **** }
 282              		.loc 1 291 0
 283              		@ sp needed
 284 000a 10BD     		pop	{r4, pc}
 285              		.cfi_endproc
 286              	.LFE7:
 287              		.size	Codec_Activate, .-Codec_Activate
 288              		.section	.text.Codec_Deactivate,"ax",%progbits
 289              		.align	2
 290              		.global	Codec_Deactivate
 291              		.code	16
 292              		.thumb_func
 293              		.type	Codec_Deactivate, %function
 294              	Codec_Deactivate:
 295              	.LFB8:
 292:Codec.c       **** 
 293:Codec.c       **** /*******************************************************************************
 294:Codec.c       **** * Function Name: Codec_Deactivate
 295:Codec.c       **** ********************************************************************************
 296:Codec.c       **** * Summary:
 297:Codec.c       **** *   Deactivates the CODEC - the configuration is retained, just the CODEC input/outputs are
 298:Codec.c       **** *	disabled. The function should be called before changing any setting in the codec over I2C
 299:Codec.c       **** *
 300:Codec.c       **** *
 301:Codec.c       **** * Parameters:  
 302:Codec.c       **** *	None
 303:Codec.c       **** *
 304:Codec.c       **** * Return:
 305:Codec.c       **** *   uint8 - I2C master transaction error status
 306:Codec.c       **** *				CodecI2CM_I2C_MSTR_NO_ERROR - Function complete without error                       
 307:Codec.c       **** *				CodecI2CM_I2C_MSTR_ERR_ARB_LOST - Master lost arbitration: INTR_MASTER_I2C_ARB_LOST    
 308:Codec.c       **** *				CodecI2CM_I2C_MSTR_ERR_LB_NAK - Last Byte NACKed: INTR_MASTER_I2C_NACK               
 309:Codec.c       **** *				CodecI2CM_I2C_MSTR_NOT_READY - Master on the bus or Slave operation is in progress  
 310:Codec.c       **** *				CodecI2CM_I2C_MSTR_BUS_BUSY - Bus is busy, process not started
 311:Codec.c       **** *				CodecI2CM_I2C_MSTR_ERR_ABORT_START - Slave was addressed before master begin Start
 312:Codec.c       **** *				CodecI2CM_I2C_MSTR_ERR_BUS_ERR - Bus error has: INTR_MASTER_I2C_BUS_ERROR 
 313:Codec.c       **** *
 314:Codec.c       **** *******************************************************************************/
 315:Codec.c       **** uint8 Codec_Deactivate(void)
 316:Codec.c       **** {
 296              		.loc 1 316 0
 297              		.cfi_startproc
 298              		@ args = 0, pretend = 0, frame = 0
 299              		@ frame_needed = 0, uses_anonymous_args = 0
 300 0000 10B5     		push	{r4, lr}
 301              		.cfi_def_cfa_offset 8
 302              		.cfi_offset 4, -8
 303              		.cfi_offset 14, -4
 317:Codec.c       **** 	return Codec_SendData(CODEC_REG_ACTIVATE, CODEC_CTRL_DEACTIVATE); 
 304              		.loc 1 317 0
 305 0002 0021     		movs	r1, #0
 306 0004 0920     		movs	r0, #9
 307 0006 FFF7FEFF 		bl	Codec_SendData
 308              	.LVL29:
 318:Codec.c       **** }
 309              		.loc 1 318 0
ARM GAS  C:\Users\psmus\AppData\Local\Temp\ccJcfx5O.s 			page 12


 310              		@ sp needed
 311 000a 10BD     		pop	{r4, pc}
 312              		.cfi_endproc
 313              	.LFE8:
 314              		.size	Codec_Deactivate, .-Codec_Deactivate
 315              		.section	.text.Codec_ResetOverI2C,"ax",%progbits
 316              		.align	2
 317              		.global	Codec_ResetOverI2C
 318              		.code	16
 319              		.thumb_func
 320              		.type	Codec_ResetOverI2C, %function
 321              	Codec_ResetOverI2C:
 322              	.LFB9:
 319:Codec.c       **** 
 320:Codec.c       **** /*******************************************************************************
 321:Codec.c       **** * Function Name: Codec_ResetOverI2C
 322:Codec.c       **** ********************************************************************************
 323:Codec.c       **** * Summary:
 324:Codec.c       **** *   Resets the codec by sending an I2C command
 325:Codec.c       **** *
 326:Codec.c       **** * Parameters:  
 327:Codec.c       **** *	None
 328:Codec.c       **** *
 329:Codec.c       **** * Return:
 330:Codec.c       **** *   uint8 - I2C master transaction error status
 331:Codec.c       **** *				CodecI2CM_I2C_MSTR_NO_ERROR - Function complete without error                       
 332:Codec.c       **** *				CodecI2CM_I2C_MSTR_ERR_ARB_LOST - Master lost arbitration: INTR_MASTER_I2C_ARB_LOST    
 333:Codec.c       **** *				CodecI2CM_I2C_MSTR_ERR_LB_NAK - Last Byte NACKed: INTR_MASTER_I2C_NACK               
 334:Codec.c       **** *				CodecI2CM_I2C_MSTR_NOT_READY - Master on the bus or Slave operation is in progress  
 335:Codec.c       **** *				CodecI2CM_I2C_MSTR_BUS_BUSY - Bus is busy, process not started
 336:Codec.c       **** *				CodecI2CM_I2C_MSTR_ERR_ABORT_START - Slave was addressed before master begin Start
 337:Codec.c       **** *				CodecI2CM_I2C_MSTR_ERR_BUS_ERR - Bus error has: INTR_MASTER_I2C_BUS_ERROR 
 338:Codec.c       **** *
 339:Codec.c       **** *******************************************************************************/
 340:Codec.c       **** uint8 Codec_ResetOverI2C(void)
 341:Codec.c       **** {
 323              		.loc 1 341 0
 324              		.cfi_startproc
 325              		@ args = 0, pretend = 0, frame = 0
 326              		@ frame_needed = 0, uses_anonymous_args = 0
 327 0000 10B5     		push	{r4, lr}
 328              		.cfi_def_cfa_offset 8
 329              		.cfi_offset 4, -8
 330              		.cfi_offset 14, -4
 342:Codec.c       **** 	return Codec_SendData(CODEC_REG_RESET, CODEC_CTRL_RESET);
 331              		.loc 1 342 0
 332 0002 0021     		movs	r1, #0
 333 0004 0F20     		movs	r0, #15
 334 0006 FFF7FEFF 		bl	Codec_SendData
 335              	.LVL30:
 343:Codec.c       **** }
 336              		.loc 1 343 0
 337              		@ sp needed
 338 000a 10BD     		pop	{r4, pc}
 339              		.cfi_endproc
 340              	.LFE9:
 341              		.size	Codec_ResetOverI2C, .-Codec_ResetOverI2C
ARM GAS  C:\Users\psmus\AppData\Local\Temp\ccJcfx5O.s 			page 13


 342              		.section	.text.Codec_Init,"ax",%progbits
 343              		.align	2
 344              		.global	Codec_Init
 345              		.code	16
 346              		.thumb_func
 347              		.type	Codec_Init, %function
 348              	Codec_Init:
 349              	.LFB1:
  73:Codec.c       **** 	uint8 ret;
 350              		.loc 1 73 0
 351              		.cfi_startproc
 352              		@ args = 0, pretend = 0, frame = 0
 353              		@ frame_needed = 0, uses_anonymous_args = 0
 354 0000 10B5     		push	{r4, lr}
 355              		.cfi_def_cfa_offset 8
 356              		.cfi_offset 4, -8
 357              		.cfi_offset 14, -4
  76:Codec.c       **** 	CyDelay(CODEC_RESET_WAIT_DELAY);
 358              		.loc 1 76 0
 359 0002 FFF7FEFF 		bl	Codec_ResetOverI2C
 360              	.LVL31:
  77:Codec.c       **** 	
 361              		.loc 1 77 0
 362 0006 0A20     		movs	r0, #10
 363 0008 FFF7FEFF 		bl	CyDelay
 364              	.LVL32:
  79:Codec.c       **** 	ret = Codec_SendData(CODEC_REG_ANALOG_CTRL, CODEC_DEF_ANALOG_CTRL);
 365              		.loc 1 79 0
 366 000c 5020     		movs	r0, #80
 367 000e FFF7FEFF 		bl	Codec_AdjustBothHeadphoneVolume
 368              	.LVL33:
  80:Codec.c       **** 	ret = Codec_SendData(CODEC_REG_DIGITAL_CTRL, CODEC_DEF_DIGITAL_CTRL);
 369              		.loc 1 80 0
 370 0012 3421     		movs	r1, #52
 371 0014 0420     		movs	r0, #4
 372 0016 FFF7FEFF 		bl	Codec_SendData
 373              	.LVL34:
  81:Codec.c       **** 	ret = Codec_SendData(CODEC_REG_POWER_CTRL, CODEC_DEF_POWER_CTRL);
 374              		.loc 1 81 0
 375 001a 1021     		movs	r1, #16
 376 001c 0520     		movs	r0, #5
 377 001e FFF7FEFF 		bl	Codec_SendData
 378              	.LVL35:
  82:Codec.c       **** 	ret = Codec_SetSamplingRate(CODEC_DEF_SAMPLING_RATE);
 379              		.loc 1 82 0
 380 0022 6121     		movs	r1, #97
 381 0024 0620     		movs	r0, #6
 382 0026 FFF7FEFF 		bl	Codec_SendData
 383              	.LVL36:
  83:Codec.c       **** 	
 384              		.loc 1 83 0
 385 002a 2020     		movs	r0, #32
 386 002c FFF7FEFF 		bl	Codec_SetSamplingRate
 387              	.LVL37:
  86:Codec.c       **** 
 388              		.loc 1 86 0
 389              		@ sp needed
ARM GAS  C:\Users\psmus\AppData\Local\Temp\ccJcfx5O.s 			page 14


 390 0030 10BD     		pop	{r4, pc}
 391              		.cfi_endproc
 392              	.LFE1:
 393              		.size	Codec_Init, .-Codec_Init
 394 0032 C046     		.section	.text.Codec_PowerOffControl,"ax",%progbits
 395              		.align	2
 396              		.global	Codec_PowerOffControl
 397              		.code	16
 398              		.thumb_func
 399              		.type	Codec_PowerOffControl, %function
 400              	Codec_PowerOffControl:
 401              	.LFB10:
 344:Codec.c       **** 	
 345:Codec.c       **** /*******************************************************************************
 346:Codec.c       **** * Function Name: Codec_PowerOffControl
 347:Codec.c       **** ********************************************************************************
 348:Codec.c       **** * Summary:
 349:Codec.c       **** *   Disables power for various blocks in the codec
 350:Codec.c       **** *
 351:Codec.c       **** *
 352:Codec.c       **** * Parameters:  
 353:Codec.c       **** *	powerOffMask - Bit(s) mask for the power off control 
 354:Codec.c       **** *                   Refer to bit settings available for CODEC_REG_POWER_CTRL in 
 355:Codec.c       **** *                   Codec.h
 356:Codec.c       **** *
 357:Codec.c       **** * Return:
 358:Codec.c       **** *   uint8 - I2C master transaction error status
 359:Codec.c       **** *				CodecI2CM_I2C_MSTR_NO_ERROR - Function complete without error                       
 360:Codec.c       **** *				CodecI2CM_I2C_MSTR_ERR_ARB_LOST - Master lost arbitration: INTR_MASTER_I2C_ARB_LOST    
 361:Codec.c       **** *				CodecI2CM_I2C_MSTR_ERR_LB_NAK - Last Byte NACKed: INTR_MASTER_I2C_NACK               
 362:Codec.c       **** *				CodecI2CM_I2C_MSTR_NOT_READY - Master on the bus or Slave operation is in progress  
 363:Codec.c       **** *				CodecI2CM_I2C_MSTR_BUS_BUSY - Bus is busy, process not started
 364:Codec.c       **** *				CodecI2CM_I2C_MSTR_ERR_ABORT_START - Slave was addressed before master begin Start
 365:Codec.c       **** *				CodecI2CM_I2C_MSTR_ERR_BUS_ERR - Bus error has: INTR_MASTER_I2C_BUS_ERROR 
 366:Codec.c       **** *
 367:Codec.c       **** *******************************************************************************/
 368:Codec.c       **** uint8 Codec_PowerOffControl(uint32 powerOffMask)
 369:Codec.c       **** {
 402              		.loc 1 369 0
 403              		.cfi_startproc
 404              		@ args = 0, pretend = 0, frame = 0
 405              		@ frame_needed = 0, uses_anonymous_args = 0
 406              	.LVL38:
 407 0000 10B5     		push	{r4, lr}
 408              		.cfi_def_cfa_offset 8
 409              		.cfi_offset 4, -8
 410              		.cfi_offset 14, -4
 370:Codec.c       **** 	Codec_powerControlSetting |= powerOffMask;
 411              		.loc 1 370 0
 412 0002 044B     		ldr	r3, .L20
 413 0004 5A68     		ldr	r2, [r3, #4]
 414 0006 1043     		orrs	r0, r2
 415              	.LVL39:
 416 0008 5860     		str	r0, [r3, #4]
 371:Codec.c       ****     return Codec_SendData(CODEC_REG_POWER_CTRL, Codec_powerControlSetting);
 417              		.loc 1 371 0
 418 000a 81B2     		uxth	r1, r0
ARM GAS  C:\Users\psmus\AppData\Local\Temp\ccJcfx5O.s 			page 15


 419 000c 0620     		movs	r0, #6
 420 000e FFF7FEFF 		bl	Codec_SendData
 421              	.LVL40:
 372:Codec.c       **** }
 422              		.loc 1 372 0
 423              		@ sp needed
 424 0012 10BD     		pop	{r4, pc}
 425              	.L21:
 426              		.align	2
 427              	.L20:
 428 0014 00000000 		.word	.LANCHOR0
 429              		.cfi_endproc
 430              	.LFE10:
 431              		.size	Codec_PowerOffControl, .-Codec_PowerOffControl
 432              		.section	.text.Codec_PowerOnControl,"ax",%progbits
 433              		.align	2
 434              		.global	Codec_PowerOnControl
 435              		.code	16
 436              		.thumb_func
 437              		.type	Codec_PowerOnControl, %function
 438              	Codec_PowerOnControl:
 439              	.LFB11:
 373:Codec.c       **** 
 374:Codec.c       **** /*******************************************************************************
 375:Codec.c       **** * Function Name: Codec_PowerOnControl
 376:Codec.c       **** ********************************************************************************
 377:Codec.c       **** * Summary:
 378:Codec.c       **** *   Enables power for various blocks in the codec
 379:Codec.c       **** *
 380:Codec.c       **** *
 381:Codec.c       **** * Parameters:  
 382:Codec.c       **** *	powerOffMask - Bit(s) mask for the power on control 
 383:Codec.c       **** *                   Refer to bit settings available for CODEC_REG_POWER_CTRL in 
 384:Codec.c       **** *                   Codec.h
 385:Codec.c       **** *
 386:Codec.c       **** * Return:
 387:Codec.c       **** *   uint8 - I2C master transaction error status
 388:Codec.c       **** *				CodecI2CM_I2C_MSTR_NO_ERROR - Function complete without error                       
 389:Codec.c       **** *				CodecI2CM_I2C_MSTR_ERR_ARB_LOST - Master lost arbitration: INTR_MASTER_I2C_ARB_LOST    
 390:Codec.c       **** *				CodecI2CM_I2C_MSTR_ERR_LB_NAK - Last Byte NACKed: INTR_MASTER_I2C_NACK               
 391:Codec.c       **** *				CodecI2CM_I2C_MSTR_NOT_READY - Master on the bus or Slave operation is in progress  
 392:Codec.c       **** *				CodecI2CM_I2C_MSTR_BUS_BUSY - Bus is busy, process not started
 393:Codec.c       **** *				CodecI2CM_I2C_MSTR_ERR_ABORT_START - Slave was addressed before master begin Start
 394:Codec.c       **** *				CodecI2CM_I2C_MSTR_ERR_BUS_ERR - Bus error has: INTR_MASTER_I2C_BUS_ERROR 
 395:Codec.c       **** *
 396:Codec.c       **** *******************************************************************************/
 397:Codec.c       **** uint8 Codec_PowerOnControl(uint32 powerOnMask)
 398:Codec.c       **** {
 440              		.loc 1 398 0
 441              		.cfi_startproc
 442              		@ args = 0, pretend = 0, frame = 0
 443              		@ frame_needed = 0, uses_anonymous_args = 0
 444              	.LVL41:
 445 0000 10B5     		push	{r4, lr}
 446              		.cfi_def_cfa_offset 8
 447              		.cfi_offset 4, -8
 448              		.cfi_offset 14, -4
ARM GAS  C:\Users\psmus\AppData\Local\Temp\ccJcfx5O.s 			page 16


 399:Codec.c       **** 	Codec_powerControlSetting &= ~powerOnMask;
 449              		.loc 1 399 0
 450 0002 044B     		ldr	r3, .L23
 451 0004 5968     		ldr	r1, [r3, #4]
 452 0006 8143     		bics	r1, r0
 453 0008 5960     		str	r1, [r3, #4]
 400:Codec.c       ****     return Codec_SendData(CODEC_REG_POWER_CTRL, Codec_powerControlSetting);
 454              		.loc 1 400 0
 455 000a 89B2     		uxth	r1, r1
 456 000c 0620     		movs	r0, #6
 457              	.LVL42:
 458 000e FFF7FEFF 		bl	Codec_SendData
 459              	.LVL43:
 401:Codec.c       **** }
 460              		.loc 1 401 0
 461              		@ sp needed
 462 0012 10BD     		pop	{r4, pc}
 463              	.L24:
 464              		.align	2
 465              	.L23:
 466 0014 00000000 		.word	.LANCHOR0
 467              		.cfi_endproc
 468              	.LFE11:
 469              		.size	Codec_PowerOnControl, .-Codec_PowerOnControl
 470              		.global	Codec_powerControlSetting
 471              		.data
 472              		.align	2
 473              		.set	.LANCHOR0,. + 0
 474              		.type	Codec_analogPathSetting, %object
 475              		.size	Codec_analogPathSetting, 2
 476              	Codec_analogPathSetting:
 477 0000 3400     		.short	52
 478 0002 0000     		.space	2
 479              		.type	Codec_powerControlSetting, %object
 480              		.size	Codec_powerControlSetting, 4
 481              	Codec_powerControlSetting:
 482 0004 61000000 		.word	97
 483              		.text
 484              	.Letext0:
 485              		.file 2 "Generated_Source\\PSoC4/cytypes.h"
 486              		.file 3 "Generated_Source\\PSoC4/CodecI2CM_I2C.h"
 487              		.file 4 "Generated_Source\\PSoC4/CyLib.h"