ARM GAS  C:\Users\psmus\AppData\Local\Temp\ccHyxx8W.s 			page 1


   1              		.syntax unified
   2              		.cpu cortex-m0
   3              		.fpu softvfp
   4              		.eabi_attribute 20, 1
   5              		.eabi_attribute 21, 1
   6              		.eabi_attribute 23, 3
   7              		.eabi_attribute 24, 1
   8              		.eabi_attribute 25, 1
   9              		.eabi_attribute 26, 1
  10              		.eabi_attribute 30, 1
  11              		.eabi_attribute 34, 0
  12              		.eabi_attribute 18, 4
  13              		.thumb
  14              		.syntax unified
  15              		.file	"cyfitter_cfg.c"
  16              		.text
  17              	.Ltext0:
  18              		.cfi_sections	.debug_frame
  19              		.section	.text.cfg_write_bytes32,"ax",%progbits
  20              		.align	2
  21              		.code	16
  22              		.thumb_func
  23              		.type	cfg_write_bytes32, %function
  24              	cfg_write_bytes32:
  25              	.LFB4:
  26              		.file 1 "Generated_Source\\PSoC4\\cyfitter_cfg.c"
   1:Generated_Source\PSoC4/cyfitter_cfg.c **** 
   2:Generated_Source\PSoC4/cyfitter_cfg.c **** /*******************************************************************************
   3:Generated_Source\PSoC4/cyfitter_cfg.c **** * File Name: cyfitter_cfg.c
   4:Generated_Source\PSoC4/cyfitter_cfg.c **** * 
   5:Generated_Source\PSoC4/cyfitter_cfg.c **** * PSoC Creator  4.2
   6:Generated_Source\PSoC4/cyfitter_cfg.c **** *
   7:Generated_Source\PSoC4/cyfitter_cfg.c **** * Description:
   8:Generated_Source\PSoC4/cyfitter_cfg.c **** * This file contains device initialization code.
   9:Generated_Source\PSoC4/cyfitter_cfg.c **** * Except for the user defined sections in CyClockStartupError(), this file should not be modified.
  10:Generated_Source\PSoC4/cyfitter_cfg.c **** * This file is automatically generated by PSoC Creator.
  11:Generated_Source\PSoC4/cyfitter_cfg.c **** *
  12:Generated_Source\PSoC4/cyfitter_cfg.c **** ********************************************************************************
  13:Generated_Source\PSoC4/cyfitter_cfg.c **** * Copyright (c) 2007-2018 Cypress Semiconductor.  All rights reserved.
  14:Generated_Source\PSoC4/cyfitter_cfg.c **** * You may use this file only in accordance with the license, terms, conditions, 
  15:Generated_Source\PSoC4/cyfitter_cfg.c **** * disclaimers, and limitations in the end user license agreement accompanying 
  16:Generated_Source\PSoC4/cyfitter_cfg.c **** * the software package with which this file was provided.
  17:Generated_Source\PSoC4/cyfitter_cfg.c **** ********************************************************************************/
  18:Generated_Source\PSoC4/cyfitter_cfg.c **** 
  19:Generated_Source\PSoC4/cyfitter_cfg.c **** #include <string.h>
  20:Generated_Source\PSoC4/cyfitter_cfg.c **** #include "cytypes.h"
  21:Generated_Source\PSoC4/cyfitter_cfg.c **** #include "cydevice_trm.h"
  22:Generated_Source\PSoC4/cyfitter_cfg.c **** #include "cyfitter.h"
  23:Generated_Source\PSoC4/cyfitter_cfg.c **** #include "CyLib.h"
  24:Generated_Source\PSoC4/cyfitter_cfg.c **** #include "CyLFClk.h"
  25:Generated_Source\PSoC4/cyfitter_cfg.c **** #include "cyfitter_cfg.h"
  26:Generated_Source\PSoC4/cyfitter_cfg.c **** #include "cyapicallbacks.h"
  27:Generated_Source\PSoC4/cyfitter_cfg.c **** 
  28:Generated_Source\PSoC4/cyfitter_cfg.c **** 
  29:Generated_Source\PSoC4/cyfitter_cfg.c **** #if defined(__GNUC__) || defined(__ARMCC_VERSION)
  30:Generated_Source\PSoC4/cyfitter_cfg.c ****     #define CYPACKED 
  31:Generated_Source\PSoC4/cyfitter_cfg.c ****     #define CYPACKED_ATTR __attribute__ ((packed))
ARM GAS  C:\Users\psmus\AppData\Local\Temp\ccHyxx8W.s 			page 2


  32:Generated_Source\PSoC4/cyfitter_cfg.c ****     #define CYALIGNED __attribute__ ((aligned))
  33:Generated_Source\PSoC4/cyfitter_cfg.c ****     #define CY_CFG_UNUSED __attribute__ ((unused))
  34:Generated_Source\PSoC4/cyfitter_cfg.c ****     #ifndef CY_CFG_SECTION
  35:Generated_Source\PSoC4/cyfitter_cfg.c ****         #define CY_CFG_SECTION __attribute__ ((section(".psocinit")))
  36:Generated_Source\PSoC4/cyfitter_cfg.c ****     #endif
  37:Generated_Source\PSoC4/cyfitter_cfg.c ****     
  38:Generated_Source\PSoC4/cyfitter_cfg.c ****     #if defined(__ARMCC_VERSION)
  39:Generated_Source\PSoC4/cyfitter_cfg.c ****         #define CY_CFG_MEMORY_BARRIER() __memory_changed()
  40:Generated_Source\PSoC4/cyfitter_cfg.c ****     #else
  41:Generated_Source\PSoC4/cyfitter_cfg.c ****         #define CY_CFG_MEMORY_BARRIER() __sync_synchronize()
  42:Generated_Source\PSoC4/cyfitter_cfg.c ****     #endif
  43:Generated_Source\PSoC4/cyfitter_cfg.c ****     
  44:Generated_Source\PSoC4/cyfitter_cfg.c **** #elif defined(__ICCARM__)
  45:Generated_Source\PSoC4/cyfitter_cfg.c ****     #include <intrinsics.h>
  46:Generated_Source\PSoC4/cyfitter_cfg.c **** 
  47:Generated_Source\PSoC4/cyfitter_cfg.c ****     #define CYPACKED __packed
  48:Generated_Source\PSoC4/cyfitter_cfg.c ****     #define CYPACKED_ATTR 
  49:Generated_Source\PSoC4/cyfitter_cfg.c ****     #define CYALIGNED _Pragma("data_alignment=4")
  50:Generated_Source\PSoC4/cyfitter_cfg.c ****     #define CY_CFG_UNUSED _Pragma("diag_suppress=Pe177")
  51:Generated_Source\PSoC4/cyfitter_cfg.c ****     #define CY_CFG_SECTION _Pragma("location=\".psocinit\"")
  52:Generated_Source\PSoC4/cyfitter_cfg.c ****     
  53:Generated_Source\PSoC4/cyfitter_cfg.c ****     #define CY_CFG_MEMORY_BARRIER() __DMB()
  54:Generated_Source\PSoC4/cyfitter_cfg.c ****     
  55:Generated_Source\PSoC4/cyfitter_cfg.c **** #else
  56:Generated_Source\PSoC4/cyfitter_cfg.c ****     #error Unsupported toolchain
  57:Generated_Source\PSoC4/cyfitter_cfg.c **** #endif
  58:Generated_Source\PSoC4/cyfitter_cfg.c **** 
  59:Generated_Source\PSoC4/cyfitter_cfg.c **** #ifndef CYCODE
  60:Generated_Source\PSoC4/cyfitter_cfg.c ****     #define CYCODE
  61:Generated_Source\PSoC4/cyfitter_cfg.c **** #endif
  62:Generated_Source\PSoC4/cyfitter_cfg.c **** #ifndef CYDATA
  63:Generated_Source\PSoC4/cyfitter_cfg.c ****     #define CYDATA
  64:Generated_Source\PSoC4/cyfitter_cfg.c **** #endif
  65:Generated_Source\PSoC4/cyfitter_cfg.c **** #ifndef CYFAR
  66:Generated_Source\PSoC4/cyfitter_cfg.c ****     #define CYFAR
  67:Generated_Source\PSoC4/cyfitter_cfg.c **** #endif
  68:Generated_Source\PSoC4/cyfitter_cfg.c **** #ifndef CYXDATA
  69:Generated_Source\PSoC4/cyfitter_cfg.c ****     #define CYXDATA
  70:Generated_Source\PSoC4/cyfitter_cfg.c **** #endif
  71:Generated_Source\PSoC4/cyfitter_cfg.c **** 
  72:Generated_Source\PSoC4/cyfitter_cfg.c **** 
  73:Generated_Source\PSoC4/cyfitter_cfg.c **** CY_CFG_UNUSED
  74:Generated_Source\PSoC4/cyfitter_cfg.c **** static void CYMEMZERO(void *s, size_t n);
  75:Generated_Source\PSoC4/cyfitter_cfg.c **** CY_CFG_UNUSED
  76:Generated_Source\PSoC4/cyfitter_cfg.c **** static void CYMEMZERO(void *s, size_t n)
  77:Generated_Source\PSoC4/cyfitter_cfg.c **** {
  78:Generated_Source\PSoC4/cyfitter_cfg.c **** 	(void)memset(s, 0, n);
  79:Generated_Source\PSoC4/cyfitter_cfg.c **** }
  80:Generated_Source\PSoC4/cyfitter_cfg.c **** CY_CFG_UNUSED
  81:Generated_Source\PSoC4/cyfitter_cfg.c **** static void CYCONFIGCPY(void *dest, const void *src, size_t n);
  82:Generated_Source\PSoC4/cyfitter_cfg.c **** CY_CFG_UNUSED
  83:Generated_Source\PSoC4/cyfitter_cfg.c **** static void CYCONFIGCPY(void *dest, const void *src, size_t n)
  84:Generated_Source\PSoC4/cyfitter_cfg.c **** {
  85:Generated_Source\PSoC4/cyfitter_cfg.c **** 	(void)memcpy(dest, src, n);
  86:Generated_Source\PSoC4/cyfitter_cfg.c **** }
  87:Generated_Source\PSoC4/cyfitter_cfg.c **** CY_CFG_UNUSED
  88:Generated_Source\PSoC4/cyfitter_cfg.c **** static void CYCONFIGCPYCODE(void *dest, const void *src, size_t n);
ARM GAS  C:\Users\psmus\AppData\Local\Temp\ccHyxx8W.s 			page 3


  89:Generated_Source\PSoC4/cyfitter_cfg.c **** CY_CFG_UNUSED
  90:Generated_Source\PSoC4/cyfitter_cfg.c **** static void CYCONFIGCPYCODE(void *dest, const void *src, size_t n)
  91:Generated_Source\PSoC4/cyfitter_cfg.c **** {
  92:Generated_Source\PSoC4/cyfitter_cfg.c **** 	(void)memcpy(dest, src, n);
  93:Generated_Source\PSoC4/cyfitter_cfg.c **** }
  94:Generated_Source\PSoC4/cyfitter_cfg.c **** 
  95:Generated_Source\PSoC4/cyfitter_cfg.c **** 
  96:Generated_Source\PSoC4/cyfitter_cfg.c **** 
  97:Generated_Source\PSoC4/cyfitter_cfg.c **** 
  98:Generated_Source\PSoC4/cyfitter_cfg.c **** /* Clock startup error codes                                                   */
  99:Generated_Source\PSoC4/cyfitter_cfg.c **** #define CYCLOCKSTART_NO_ERROR    0u
 100:Generated_Source\PSoC4/cyfitter_cfg.c **** #define CYCLOCKSTART_XTAL_ERROR  1u
 101:Generated_Source\PSoC4/cyfitter_cfg.c **** #define CYCLOCKSTART_32KHZ_ERROR 2u
 102:Generated_Source\PSoC4/cyfitter_cfg.c **** #define CYCLOCKSTART_PLL_ERROR   3u
 103:Generated_Source\PSoC4/cyfitter_cfg.c **** #define CYCLOCKSTART_FLL_ERROR   4u
 104:Generated_Source\PSoC4/cyfitter_cfg.c **** #define CYCLOCKSTART_WCO_ERROR   5u
 105:Generated_Source\PSoC4/cyfitter_cfg.c **** 
 106:Generated_Source\PSoC4/cyfitter_cfg.c **** 
 107:Generated_Source\PSoC4/cyfitter_cfg.c **** #ifdef CY_NEED_CYCLOCKSTARTUPERROR
 108:Generated_Source\PSoC4/cyfitter_cfg.c **** /*******************************************************************************
 109:Generated_Source\PSoC4/cyfitter_cfg.c **** * Function Name: CyClockStartupError
 110:Generated_Source\PSoC4/cyfitter_cfg.c **** ********************************************************************************
 111:Generated_Source\PSoC4/cyfitter_cfg.c **** * Summary:
 112:Generated_Source\PSoC4/cyfitter_cfg.c **** *  If an error is encountered during clock configuration (crystal startup error,
 113:Generated_Source\PSoC4/cyfitter_cfg.c **** *  PLL lock error, etc.), the system will end up here.  Unless reimplemented by
 114:Generated_Source\PSoC4/cyfitter_cfg.c **** *  the customer, this function will stop in an infinite loop.
 115:Generated_Source\PSoC4/cyfitter_cfg.c **** *
 116:Generated_Source\PSoC4/cyfitter_cfg.c **** * Parameters:
 117:Generated_Source\PSoC4/cyfitter_cfg.c **** *   void
 118:Generated_Source\PSoC4/cyfitter_cfg.c **** *
 119:Generated_Source\PSoC4/cyfitter_cfg.c **** * Return:
 120:Generated_Source\PSoC4/cyfitter_cfg.c **** *   void
 121:Generated_Source\PSoC4/cyfitter_cfg.c **** *
 122:Generated_Source\PSoC4/cyfitter_cfg.c **** *******************************************************************************/
 123:Generated_Source\PSoC4/cyfitter_cfg.c **** CY_CFG_UNUSED
 124:Generated_Source\PSoC4/cyfitter_cfg.c **** static void CyClockStartupError(uint8 errorCode);
 125:Generated_Source\PSoC4/cyfitter_cfg.c **** CY_CFG_UNUSED
 126:Generated_Source\PSoC4/cyfitter_cfg.c **** static void CyClockStartupError(uint8 errorCode)
 127:Generated_Source\PSoC4/cyfitter_cfg.c **** {
 128:Generated_Source\PSoC4/cyfitter_cfg.c ****     /* To remove the compiler warning if errorCode not used.                */
 129:Generated_Source\PSoC4/cyfitter_cfg.c ****     errorCode = errorCode;
 130:Generated_Source\PSoC4/cyfitter_cfg.c **** 
 131:Generated_Source\PSoC4/cyfitter_cfg.c ****     /* If we have a clock startup error (bad MHz crystal, PLL lock, etc.),  */
 132:Generated_Source\PSoC4/cyfitter_cfg.c ****     /* we will end up here to allow the customer to implement something to  */
 133:Generated_Source\PSoC4/cyfitter_cfg.c ****     /* deal with the clock condition.                                       */
 134:Generated_Source\PSoC4/cyfitter_cfg.c **** 
 135:Generated_Source\PSoC4/cyfitter_cfg.c **** #ifdef CY_CFG_CLOCK_STARTUP_ERROR_CALLBACK
 136:Generated_Source\PSoC4/cyfitter_cfg.c ****     CY_CFG_Clock_Startup_ErrorCallback();
 137:Generated_Source\PSoC4/cyfitter_cfg.c **** #else
 138:Generated_Source\PSoC4/cyfitter_cfg.c ****     /*  If not using CY_CFG_CLOCK_STARTUP_ERROR_CALLBACK, place your clock startup code here. */
 139:Generated_Source\PSoC4/cyfitter_cfg.c ****     /* `#START CyClockStartupError` */
 140:Generated_Source\PSoC4/cyfitter_cfg.c **** 
 141:Generated_Source\PSoC4/cyfitter_cfg.c **** 
 142:Generated_Source\PSoC4/cyfitter_cfg.c **** 
 143:Generated_Source\PSoC4/cyfitter_cfg.c ****     /* `#END` */
 144:Generated_Source\PSoC4/cyfitter_cfg.c **** 
 145:Generated_Source\PSoC4/cyfitter_cfg.c ****     while(1) {}
ARM GAS  C:\Users\psmus\AppData\Local\Temp\ccHyxx8W.s 			page 4


 146:Generated_Source\PSoC4/cyfitter_cfg.c **** #endif /* CY_CFG_CLOCK_STARTUP_ERROR_CALLBACK */
 147:Generated_Source\PSoC4/cyfitter_cfg.c **** }
 148:Generated_Source\PSoC4/cyfitter_cfg.c **** #endif
 149:Generated_Source\PSoC4/cyfitter_cfg.c **** 
 150:Generated_Source\PSoC4/cyfitter_cfg.c **** #define CY_CFG_BASE_ADDR_COUNT 17u
 151:Generated_Source\PSoC4/cyfitter_cfg.c **** CYPACKED typedef struct
 152:Generated_Source\PSoC4/cyfitter_cfg.c **** {
 153:Generated_Source\PSoC4/cyfitter_cfg.c **** 	uint8 offset;
 154:Generated_Source\PSoC4/cyfitter_cfg.c **** 	uint8 value;
 155:Generated_Source\PSoC4/cyfitter_cfg.c **** } CYPACKED_ATTR cy_cfg_addrvalue_t;
 156:Generated_Source\PSoC4/cyfitter_cfg.c **** 
 157:Generated_Source\PSoC4/cyfitter_cfg.c **** 
 158:Generated_Source\PSoC4/cyfitter_cfg.c **** 
 159:Generated_Source\PSoC4/cyfitter_cfg.c **** /*******************************************************************************
 160:Generated_Source\PSoC4/cyfitter_cfg.c **** * Function Name: cfg_write_bytes32
 161:Generated_Source\PSoC4/cyfitter_cfg.c **** ********************************************************************************
 162:Generated_Source\PSoC4/cyfitter_cfg.c **** * Summary:
 163:Generated_Source\PSoC4/cyfitter_cfg.c **** *  This function is used for setting up the chip configuration areas that
 164:Generated_Source\PSoC4/cyfitter_cfg.c **** *  contain relatively sparse data.
 165:Generated_Source\PSoC4/cyfitter_cfg.c **** *
 166:Generated_Source\PSoC4/cyfitter_cfg.c **** * Parameters:
 167:Generated_Source\PSoC4/cyfitter_cfg.c **** *   void
 168:Generated_Source\PSoC4/cyfitter_cfg.c **** *
 169:Generated_Source\PSoC4/cyfitter_cfg.c **** * Return:
 170:Generated_Source\PSoC4/cyfitter_cfg.c **** *   void
 171:Generated_Source\PSoC4/cyfitter_cfg.c **** *
 172:Generated_Source\PSoC4/cyfitter_cfg.c **** *******************************************************************************/
 173:Generated_Source\PSoC4/cyfitter_cfg.c **** static void cfg_write_bytes32(const uint32 addr_table[], const cy_cfg_addrvalue_t data_table[]);
 174:Generated_Source\PSoC4/cyfitter_cfg.c **** static void cfg_write_bytes32(const uint32 addr_table[], const cy_cfg_addrvalue_t data_table[])
 175:Generated_Source\PSoC4/cyfitter_cfg.c **** {
  27              		.loc 1 175 0
  28              		.cfi_startproc
  29              		@ args = 0, pretend = 0, frame = 0
  30              		@ frame_needed = 0, uses_anonymous_args = 0
  31              	.LVL0:
  32 0000 F0B5     		push	{r4, r5, r6, r7, lr}
  33              		.cfi_def_cfa_offset 20
  34              		.cfi_offset 4, -20
  35              		.cfi_offset 5, -16
  36              		.cfi_offset 6, -12
  37              		.cfi_offset 7, -8
  38              		.cfi_offset 14, -4
  39              	.LVL1:
 176:Generated_Source\PSoC4/cyfitter_cfg.c **** 	/* For 32-bit little-endian architectures */
 177:Generated_Source\PSoC4/cyfitter_cfg.c **** 	uint32 i, j = 0u;
  40              		.loc 1 177 0
  41 0002 0025     		movs	r5, #0
 178:Generated_Source\PSoC4/cyfitter_cfg.c **** 	for (i = 0u; i < CY_CFG_BASE_ADDR_COUNT; i++)
  42              		.loc 1 178 0
  43 0004 0027     		movs	r7, #0
  44 0006 11E0     		b	.L2
  45              	.LVL2:
  46              	.L5:
  47              	.LBB2:
 179:Generated_Source\PSoC4/cyfitter_cfg.c **** 	{
 180:Generated_Source\PSoC4/cyfitter_cfg.c **** 		uint32 baseAddr = addr_table[i];
  48              		.loc 1 180 0
ARM GAS  C:\Users\psmus\AppData\Local\Temp\ccHyxx8W.s 			page 5


  49 0008 BB00     		lsls	r3, r7, #2
  50 000a C658     		ldr	r6, [r0, r3]
  51              	.LVL3:
 181:Generated_Source\PSoC4/cyfitter_cfg.c **** 		uint8 count = (uint8)baseAddr;
  52              		.loc 1 181 0
  53 000c F3B2     		uxtb	r3, r6
  54              	.LVL4:
 182:Generated_Source\PSoC4/cyfitter_cfg.c **** 		baseAddr &= 0xFFFFFF00u;
  55              		.loc 1 182 0
  56 000e FF22     		movs	r2, #255
  57 0010 9643     		bics	r6, r2
  58              	.LVL5:
 183:Generated_Source\PSoC4/cyfitter_cfg.c **** 		while (count != 0u)
  59              		.loc 1 183 0
  60 0012 08E0     		b	.L3
  61              	.L4:
 184:Generated_Source\PSoC4/cyfitter_cfg.c **** 		{
 185:Generated_Source\PSoC4/cyfitter_cfg.c **** 			CY_SET_REG8((void *)(baseAddr + data_table[j].offset), data_table[j].value);
  62              		.loc 1 185 0
  63 0014 6A00     		lsls	r2, r5, #1
  64 0016 8A18     		adds	r2, r1, r2
  65 0018 1478     		ldrb	r4, [r2]
  66 001a A419     		adds	r4, r4, r6
  67 001c 5278     		ldrb	r2, [r2, #1]
  68 001e 2270     		strb	r2, [r4]
 186:Generated_Source\PSoC4/cyfitter_cfg.c **** 			j++;
  69              		.loc 1 186 0
  70 0020 0135     		adds	r5, r5, #1
  71              	.LVL6:
 187:Generated_Source\PSoC4/cyfitter_cfg.c **** 			count--;
  72              		.loc 1 187 0
  73 0022 013B     		subs	r3, r3, #1
  74              	.LVL7:
  75 0024 DBB2     		uxtb	r3, r3
  76              	.LVL8:
  77              	.L3:
 183:Generated_Source\PSoC4/cyfitter_cfg.c **** 		{
  78              		.loc 1 183 0
  79 0026 002B     		cmp	r3, #0
  80 0028 F4D1     		bne	.L4
  81              	.LBE2:
 178:Generated_Source\PSoC4/cyfitter_cfg.c **** 	{
  82              		.loc 1 178 0 discriminator 2
  83 002a 0137     		adds	r7, r7, #1
  84              	.LVL9:
  85              	.L2:
 178:Generated_Source\PSoC4/cyfitter_cfg.c **** 	{
  86              		.loc 1 178 0 is_stmt 0 discriminator 1
  87 002c 102F     		cmp	r7, #16
  88 002e EBD9     		bls	.L5
 188:Generated_Source\PSoC4/cyfitter_cfg.c **** 		}
 189:Generated_Source\PSoC4/cyfitter_cfg.c **** 	}
 190:Generated_Source\PSoC4/cyfitter_cfg.c **** }
  89              		.loc 1 190 0 is_stmt 1
  90              		@ sp needed
  91              	.LVL10:
  92              	.LVL11:
ARM GAS  C:\Users\psmus\AppData\Local\Temp\ccHyxx8W.s 			page 6


  93 0030 F0BD     		pop	{r4, r5, r6, r7, pc}
  94              		.cfi_endproc
  95              	.LFE4:
  96              		.size	cfg_write_bytes32, .-cfg_write_bytes32
  97 0032 C046     		.section	.text.CYMEMZERO,"ax",%progbits
  98              		.align	2
  99              		.code	16
 100              		.thumb_func
 101              		.type	CYMEMZERO, %function
 102              	CYMEMZERO:
 103              	.LFB1:
  77:Generated_Source\PSoC4/cyfitter_cfg.c **** 	(void)memset(s, 0, n);
 104              		.loc 1 77 0
 105              		.cfi_startproc
 106              		@ args = 0, pretend = 0, frame = 0
 107              		@ frame_needed = 0, uses_anonymous_args = 0
 108              	.LVL12:
 109 0000 10B5     		push	{r4, lr}
 110              		.cfi_def_cfa_offset 8
 111              		.cfi_offset 4, -8
 112              		.cfi_offset 14, -4
 113 0002 0A00     		movs	r2, r1
  78:Generated_Source\PSoC4/cyfitter_cfg.c **** }
 114              		.loc 1 78 0
 115 0004 0021     		movs	r1, #0
 116              	.LVL13:
 117 0006 FFF7FEFF 		bl	memset
 118              	.LVL14:
  79:Generated_Source\PSoC4/cyfitter_cfg.c **** CY_CFG_UNUSED
 119              		.loc 1 79 0
 120              		@ sp needed
 121 000a 10BD     		pop	{r4, pc}
 122              		.cfi_endproc
 123              	.LFE1:
 124              		.size	CYMEMZERO, .-CYMEMZERO
 125              		.section	.psocinit,"ax",%progbits
 126              		.align	2
 127              		.code	16
 128              		.thumb_func
 129              		.type	ClockSetup, %function
 130              	ClockSetup:
 131              	.LFB5:
 191:Generated_Source\PSoC4/cyfitter_cfg.c **** 
 192:Generated_Source\PSoC4/cyfitter_cfg.c **** 
 193:Generated_Source\PSoC4/cyfitter_cfg.c **** /*******************************************************************************
 194:Generated_Source\PSoC4/cyfitter_cfg.c **** * Function Name: ClockSetup
 195:Generated_Source\PSoC4/cyfitter_cfg.c **** ********************************************************************************
 196:Generated_Source\PSoC4/cyfitter_cfg.c **** *
 197:Generated_Source\PSoC4/cyfitter_cfg.c **** * Summary:
 198:Generated_Source\PSoC4/cyfitter_cfg.c **** *   Performs the initialization of all of the clocks in the device based on the
 199:Generated_Source\PSoC4/cyfitter_cfg.c **** *   settings in the Clock tab of the DWR.  This includes enabling the requested
 200:Generated_Source\PSoC4/cyfitter_cfg.c **** *   clocks and setting the necessary dividers to produce the desired frequency. 
 201:Generated_Source\PSoC4/cyfitter_cfg.c **** *
 202:Generated_Source\PSoC4/cyfitter_cfg.c **** * Parameters:
 203:Generated_Source\PSoC4/cyfitter_cfg.c **** *   void
 204:Generated_Source\PSoC4/cyfitter_cfg.c **** *
 205:Generated_Source\PSoC4/cyfitter_cfg.c **** * Return:
ARM GAS  C:\Users\psmus\AppData\Local\Temp\ccHyxx8W.s 			page 7


 206:Generated_Source\PSoC4/cyfitter_cfg.c **** *   void
 207:Generated_Source\PSoC4/cyfitter_cfg.c **** *
 208:Generated_Source\PSoC4/cyfitter_cfg.c **** *******************************************************************************/
 209:Generated_Source\PSoC4/cyfitter_cfg.c **** static void ClockSetup(void);
 210:Generated_Source\PSoC4/cyfitter_cfg.c **** CY_CFG_SECTION
 211:Generated_Source\PSoC4/cyfitter_cfg.c **** static void ClockSetup(void)
 212:Generated_Source\PSoC4/cyfitter_cfg.c **** {
 132              		.loc 1 212 0
 133              		.cfi_startproc
 134              		@ args = 0, pretend = 0, frame = 0
 135              		@ frame_needed = 0, uses_anonymous_args = 0
 136 0000 70B5     		push	{r4, r5, r6, lr}
 137              		.cfi_def_cfa_offset 16
 138              		.cfi_offset 4, -16
 139              		.cfi_offset 5, -12
 140              		.cfi_offset 6, -8
 141              		.cfi_offset 14, -4
 213:Generated_Source\PSoC4/cyfitter_cfg.c **** 	uint8 pllTimeout;
 214:Generated_Source\PSoC4/cyfitter_cfg.c **** 
 215:Generated_Source\PSoC4/cyfitter_cfg.c **** 	/* Set Flash Cycles based on max possible frequency in case a glitch occurs during ClockSetup(). *
 216:Generated_Source\PSoC4/cyfitter_cfg.c **** 	CY_SET_REG32((void CYXDATA *)(CYREG_CPUSS_FLASH_CTL), (0x0012u));
 142              		.loc 1 216 0
 143 0002 1222     		movs	r2, #18
 144 0004 4E4B     		ldr	r3, .L12
 145 0006 1A60     		str	r2, [r3]
 217:Generated_Source\PSoC4/cyfitter_cfg.c **** 
 218:Generated_Source\PSoC4/cyfitter_cfg.c **** 	/* Start the WCO */
 219:Generated_Source\PSoC4/cyfitter_cfg.c **** 	CySysClkWcoStart();
 146              		.loc 1 219 0
 147 0008 FFF7FEFF 		bl	CySysClkWcoStart
 148              	.LVL15:
 220:Generated_Source\PSoC4/cyfitter_cfg.c **** 	CyDelayCycles(12000000u); /* WCO may take up to 500ms to start */
 149              		.loc 1 220 0
 150 000c 4D48     		ldr	r0, .L12+4
 151 000e FFF7FEFF 		bl	CyDelayCycles
 152              	.LVL16:
 221:Generated_Source\PSoC4/cyfitter_cfg.c **** 
 222:Generated_Source\PSoC4/cyfitter_cfg.c **** 	/* Setup and trim IMO based on desired frequency. */
 223:Generated_Source\PSoC4/cyfitter_cfg.c **** 	CySysClkWriteImoFreq(48u);
 153              		.loc 1 223 0
 154 0012 3020     		movs	r0, #48
 155 0014 FFF7FEFF 		bl	CySysClkWriteImoFreq
 156              	.LVL17:
 224:Generated_Source\PSoC4/cyfitter_cfg.c **** 	CySysClkImoEnableWcoLock();
 157              		.loc 1 224 0
 158 0018 FFF7FEFF 		bl	CySysClkImoEnableWcoLock
 159              	.LVL18:
 225:Generated_Source\PSoC4/cyfitter_cfg.c **** 	/* CYDEV_CLK_ILO_CONFIG Starting address: CYDEV_CLK_ILO_CONFIG */
 226:Generated_Source\PSoC4/cyfitter_cfg.c **** 	CY_SET_REG32((void *)(CYREG_CLK_ILO_CONFIG), 0x80000006u);
 160              		.loc 1 226 0
 161 001c 4A4A     		ldr	r2, .L12+8
 162 001e 4B4B     		ldr	r3, .L12+12
 163 0020 1A60     		str	r2, [r3]
 227:Generated_Source\PSoC4/cyfitter_cfg.c **** 
 228:Generated_Source\PSoC4/cyfitter_cfg.c **** 	/* CYDEV_WDT_CONFIG Starting address: CYDEV_WDT_CONFIG */
 229:Generated_Source\PSoC4/cyfitter_cfg.c **** 	CY_SET_REG32((void *)(CYREG_WDT_CONFIG), 0x40000000u);
 164              		.loc 1 229 0
ARM GAS  C:\Users\psmus\AppData\Local\Temp\ccHyxx8W.s 			page 8


 165 0022 8022     		movs	r2, #128
 166 0024 D205     		lsls	r2, r2, #23
 167 0026 4A4B     		ldr	r3, .L12+16
 168 0028 1A60     		str	r2, [r3]
 230:Generated_Source\PSoC4/cyfitter_cfg.c **** 
 231:Generated_Source\PSoC4/cyfitter_cfg.c **** 
 232:Generated_Source\PSoC4/cyfitter_cfg.c **** 	/* Configure ECO trim */
 233:Generated_Source\PSoC4/cyfitter_cfg.c **** 	CY_SET_REG32((void CYXDATA *)(CYREG_CLK_ECO_CONFIG), (0x00000000u));
 169              		.loc 1 233 0
 170 002a 0022     		movs	r2, #0
 171 002c 494B     		ldr	r3, .L12+20
 172 002e 1A60     		str	r2, [r3]
 234:Generated_Source\PSoC4/cyfitter_cfg.c **** 	CY_SET_REG32((void CYXDATA *)(CYREG_CLK_ECO_TRIM0), (0x0000001Fu));
 173              		.loc 1 234 0
 174 0030 1F32     		adds	r2, r2, #31
 175 0032 494B     		ldr	r3, .L12+24
 176 0034 1A60     		str	r2, [r3]
 235:Generated_Source\PSoC4/cyfitter_cfg.c **** 	CY_SET_REG32((void CYXDATA *)(CYREG_CLK_ECO_TRIM1), (0x0000001Au));
 177              		.loc 1 235 0
 178 0036 053A     		subs	r2, r2, #5
 179 0038 484B     		ldr	r3, .L12+28
 180 003a 1A60     		str	r2, [r3]
 236:Generated_Source\PSoC4/cyfitter_cfg.c **** 	/* Start the ECO and do not check status since it is not needed for HFCLK */
 237:Generated_Source\PSoC4/cyfitter_cfg.c **** 	(void)CySysClkEcoStart(2000u);
 181              		.loc 1 237 0
 182 003c FA20     		movs	r0, #250
 183 003e C000     		lsls	r0, r0, #3
 184 0040 FFF7FEFF 		bl	CySysClkEcoStart
 185              	.LVL19:
 238:Generated_Source\PSoC4/cyfitter_cfg.c **** 	CyDelayUs(1500u); /* Wait to stabilize */
 186              		.loc 1 238 0
 187 0044 4648     		ldr	r0, .L12+32
 188 0046 FFF7FEFF 		bl	CyDelayUs
 189              	.LVL20:
 239:Generated_Source\PSoC4/cyfitter_cfg.c **** 	CY_SET_REG32(CYREG_CLK_SELECT, ((CY_GET_REG32(CYREG_CLK_SELECT) & 0xFFFFFE07u) | 0x00000090u));
 190              		.loc 1 239 0
 191 004a 4649     		ldr	r1, .L12+36
 192 004c 0A68     		ldr	r2, [r1]
 193 004e 464B     		ldr	r3, .L12+40
 194 0050 1340     		ands	r3, r2
 195 0052 9022     		movs	r2, #144
 196 0054 1343     		orrs	r3, r2
 197 0056 0B60     		str	r3, [r1]
 240:Generated_Source\PSoC4/cyfitter_cfg.c **** 	CY_SET_REG32(CYREG_CLK_PLL0_CONFIG, 0x80020F15u);
 198              		.loc 1 240 0
 199 0058 444D     		ldr	r5, .L12+44
 200 005a 454B     		ldr	r3, .L12+48
 201 005c 2B60     		str	r3, [r5]
 241:Generated_Source\PSoC4/cyfitter_cfg.c **** 	CY_SET_REG32(CYREG_CLK_PLL1_CONFIG, 0x80020F15u);
 202              		.loc 1 241 0
 203 005e 454C     		ldr	r4, .L12+52
 204 0060 2360     		str	r3, [r4]
 242:Generated_Source\PSoC4/cyfitter_cfg.c **** 	CyDelayCycles(240u);
 205              		.loc 1 242 0
 206 0062 F020     		movs	r0, #240
 207 0064 FFF7FEFF 		bl	CyDelayCycles
 208              	.LVL21:
ARM GAS  C:\Users\psmus\AppData\Local\Temp\ccHyxx8W.s 			page 9


 243:Generated_Source\PSoC4/cyfitter_cfg.c **** 	CY_SET_REG32(CYREG_CLK_PLL0_CONFIG, 0xC0020F15u);
 209              		.loc 1 243 0
 210 0068 434B     		ldr	r3, .L12+56
 211 006a 2B60     		str	r3, [r5]
 244:Generated_Source\PSoC4/cyfitter_cfg.c **** 	CY_SET_REG32(CYREG_CLK_PLL1_CONFIG, 0xC0020F15u);
 212              		.loc 1 244 0
 213 006c 2360     		str	r3, [r4]
 214              	.LVL22:
 245:Generated_Source\PSoC4/cyfitter_cfg.c **** 	for (pllTimeout = 0u; (pllTimeout < 25u) && ((CY_GET_REG32(CYREG_CLK_PLL0_STATUS) == 0u) || (CY_GE
 215              		.loc 1 245 0
 216 006e 0024     		movs	r4, #0
 217 0070 05E0     		b	.L8
 218              	.LVL23:
 219              	.L10:
 246:Generated_Source\PSoC4/cyfitter_cfg.c **** 	{
 247:Generated_Source\PSoC4/cyfitter_cfg.c **** 		CyDelayCycles(480u);
 220              		.loc 1 247 0 discriminator 6
 221 0072 F020     		movs	r0, #240
 222 0074 4000     		lsls	r0, r0, #1
 223 0076 FFF7FEFF 		bl	CyDelayCycles
 224              	.LVL24:
 245:Generated_Source\PSoC4/cyfitter_cfg.c **** 	for (pllTimeout = 0u; (pllTimeout < 25u) && ((CY_GET_REG32(CYREG_CLK_PLL0_STATUS) == 0u) || (CY_GE
 225              		.loc 1 245 0 discriminator 6
 226 007a 0134     		adds	r4, r4, #1
 227              	.LVL25:
 228 007c E4B2     		uxtb	r4, r4
 229              	.LVL26:
 230              	.L8:
 245:Generated_Source\PSoC4/cyfitter_cfg.c **** 	for (pllTimeout = 0u; (pllTimeout < 25u) && ((CY_GET_REG32(CYREG_CLK_PLL0_STATUS) == 0u) || (CY_GE
 231              		.loc 1 245 0 is_stmt 0 discriminator 1
 232 007e 182C     		cmp	r4, #24
 233 0080 07D8     		bhi	.L9
 245:Generated_Source\PSoC4/cyfitter_cfg.c **** 	for (pllTimeout = 0u; (pllTimeout < 25u) && ((CY_GET_REG32(CYREG_CLK_PLL0_STATUS) == 0u) || (CY_GE
 234              		.loc 1 245 0 discriminator 3
 235 0082 3E4B     		ldr	r3, .L12+60
 236 0084 1B68     		ldr	r3, [r3]
 237 0086 002B     		cmp	r3, #0
 238 0088 F3D0     		beq	.L10
 245:Generated_Source\PSoC4/cyfitter_cfg.c **** 	for (pllTimeout = 0u; (pllTimeout < 25u) && ((CY_GET_REG32(CYREG_CLK_PLL0_STATUS) == 0u) || (CY_GE
 239              		.loc 1 245 0 discriminator 5
 240 008a 3D4B     		ldr	r3, .L12+64
 241 008c 1B68     		ldr	r3, [r3]
 242 008e 002B     		cmp	r3, #0
 243 0090 EFD0     		beq	.L10
 244              	.L9:
 248:Generated_Source\PSoC4/cyfitter_cfg.c **** 	}
 249:Generated_Source\PSoC4/cyfitter_cfg.c **** 
 250:Generated_Source\PSoC4/cyfitter_cfg.c **** 	/* Setup phase aligned clocks */
 251:Generated_Source\PSoC4/cyfitter_cfg.c **** 	CY_SET_REG32((void *)CYREG_PERI_DIV_24_5_CTL, 0x0176FF00u);
 245              		.loc 1 251 0 is_stmt 1
 246 0092 3C4A     		ldr	r2, .L12+68
 247 0094 3C4B     		ldr	r3, .L12+72
 248 0096 1A60     		str	r2, [r3]
 252:Generated_Source\PSoC4/cyfitter_cfg.c **** 	CY_SET_REG32((void *)CYREG_PERI_DIV_CMD, 0x8000FFC0u);
 249              		.loc 1 252 0
 250 0098 3C4B     		ldr	r3, .L12+76
 251 009a 3D4A     		ldr	r2, .L12+80
ARM GAS  C:\Users\psmus\AppData\Local\Temp\ccHyxx8W.s 			page 10


 252 009c 1A60     		str	r2, [r3]
 253:Generated_Source\PSoC4/cyfitter_cfg.c **** 	CY_SET_REG32((void *)CYREG_PERI_DIV_16_CTL1, 0x00000300u);
 253              		.loc 1 253 0
 254 009e C022     		movs	r2, #192
 255 00a0 9200     		lsls	r2, r2, #2
 256 00a2 3C49     		ldr	r1, .L12+84
 257 00a4 0A60     		str	r2, [r1]
 254:Generated_Source\PSoC4/cyfitter_cfg.c **** 	CY_SET_REG32((void *)CYREG_PERI_DIV_CMD, 0x8000FF41u);
 258              		.loc 1 254 0
 259 00a6 3C49     		ldr	r1, .L12+88
 260 00a8 1960     		str	r1, [r3]
 255:Generated_Source\PSoC4/cyfitter_cfg.c **** 	CY_SET_REG32((void *)CYREG_PERI_DIV_16_CTL2, 0x00000300u);
 261              		.loc 1 255 0
 262 00aa 3C49     		ldr	r1, .L12+92
 263 00ac 0A60     		str	r2, [r1]
 256:Generated_Source\PSoC4/cyfitter_cfg.c **** 	CY_SET_REG32((void *)CYREG_PERI_DIV_CMD, 0x8000FF42u);
 264              		.loc 1 256 0
 265 00ae 3C4A     		ldr	r2, .L12+96
 266 00b0 1A60     		str	r2, [r3]
 257:Generated_Source\PSoC4/cyfitter_cfg.c **** 	CY_SET_REG32((void *)CYREG_PERI_DIV_16_CTL3, 0x00000500u);
 267              		.loc 1 257 0
 268 00b2 A022     		movs	r2, #160
 269 00b4 D200     		lsls	r2, r2, #3
 270 00b6 3B49     		ldr	r1, .L12+100
 271 00b8 0A60     		str	r2, [r1]
 258:Generated_Source\PSoC4/cyfitter_cfg.c **** 	CY_SET_REG32((void *)CYREG_PERI_DIV_CMD, 0x8000FF43u);
 272              		.loc 1 258 0
 273 00ba 3B49     		ldr	r1, .L12+104
 274 00bc 1960     		str	r1, [r3]
 259:Generated_Source\PSoC4/cyfitter_cfg.c **** 	CY_SET_REG32((void *)CYREG_PERI_DIV_16_CTL0, 0x00000200u);
 275              		.loc 1 259 0
 276 00be 8020     		movs	r0, #128
 277 00c0 8000     		lsls	r0, r0, #2
 278 00c2 3A49     		ldr	r1, .L12+108
 279 00c4 0860     		str	r0, [r1]
 260:Generated_Source\PSoC4/cyfitter_cfg.c **** 	CY_SET_REG32((void *)CYREG_PERI_DIV_CMD, 0x8000FF40u);
 280              		.loc 1 260 0
 281 00c6 3A49     		ldr	r1, .L12+112
 282 00c8 1960     		str	r1, [r3]
 261:Generated_Source\PSoC4/cyfitter_cfg.c **** 	CY_SET_REG32((void *)CYREG_PERI_DIV_16_CTL4, 0x00000500u);
 283              		.loc 1 261 0
 284 00ca 3A49     		ldr	r1, .L12+116
 285 00cc 0A60     		str	r2, [r1]
 262:Generated_Source\PSoC4/cyfitter_cfg.c **** 	CY_SET_REG32((void *)CYREG_PERI_DIV_CMD, 0x8000FF44u);
 286              		.loc 1 262 0
 287 00ce 3A4A     		ldr	r2, .L12+120
 288 00d0 1A60     		str	r2, [r3]
 263:Generated_Source\PSoC4/cyfitter_cfg.c **** 
 264:Generated_Source\PSoC4/cyfitter_cfg.c **** 	/* CYDEV_CLK_IMO_CONFIG Starting address: CYDEV_CLK_IMO_CONFIG */
 265:Generated_Source\PSoC4/cyfitter_cfg.c **** 	CY_SET_REG32((void *)(CYREG_CLK_IMO_CONFIG), 0x82000000u);
 289              		.loc 1 265 0
 290 00d2 8222     		movs	r2, #130
 291 00d4 1206     		lsls	r2, r2, #24
 292 00d6 394B     		ldr	r3, .L12+124
 293 00d8 1A60     		str	r2, [r3]
 266:Generated_Source\PSoC4/cyfitter_cfg.c **** 
 267:Generated_Source\PSoC4/cyfitter_cfg.c **** 	/* CYDEV_CLK_SELECT Starting address: CYDEV_CLK_SELECT */
ARM GAS  C:\Users\psmus\AppData\Local\Temp\ccHyxx8W.s 			page 11


 268:Generated_Source\PSoC4/cyfitter_cfg.c **** 	CY_SET_REG32((void *)(CYREG_CLK_SELECT), 0x00040090u);
 294              		.loc 1 268 0
 295 00da 394A     		ldr	r2, .L12+128
 296 00dc 214B     		ldr	r3, .L12+36
 297 00de 1A60     		str	r2, [r3]
 269:Generated_Source\PSoC4/cyfitter_cfg.c **** 
 270:Generated_Source\PSoC4/cyfitter_cfg.c **** 	/* CYDEV_PERI_PCLK_CTL19 Starting address: CYDEV_PERI_PCLK_CTL19 */
 271:Generated_Source\PSoC4/cyfitter_cfg.c **** 	CY_SET_REG32((void *)(CYREG_PERI_PCLK_CTL19), 0x000000C0u);
 298              		.loc 1 271 0
 299 00e0 C022     		movs	r2, #192
 300 00e2 384B     		ldr	r3, .L12+132
 301 00e4 1A60     		str	r2, [r3]
 272:Generated_Source\PSoC4/cyfitter_cfg.c **** 
 273:Generated_Source\PSoC4/cyfitter_cfg.c **** 	/* CYDEV_PERI_PCLK_CTL12 Starting address: CYDEV_PERI_PCLK_CTL12 */
 274:Generated_Source\PSoC4/cyfitter_cfg.c **** 	CY_SET_REG32((void *)(CYREG_PERI_PCLK_CTL12), 0x00000041u);
 302              		.loc 1 274 0
 303 00e6 7F3A     		subs	r2, r2, #127
 304 00e8 374B     		ldr	r3, .L12+136
 305 00ea 1A60     		str	r2, [r3]
 275:Generated_Source\PSoC4/cyfitter_cfg.c **** 
 276:Generated_Source\PSoC4/cyfitter_cfg.c **** 	/* CYDEV_PERI_PCLK_CTL11 Starting address: CYDEV_PERI_PCLK_CTL11 */
 277:Generated_Source\PSoC4/cyfitter_cfg.c **** 	CY_SET_REG32((void *)(CYREG_PERI_PCLK_CTL11), 0x00000042u);
 306              		.loc 1 277 0
 307 00ec 0132     		adds	r2, r2, #1
 308 00ee 374B     		ldr	r3, .L12+140
 309 00f0 1A60     		str	r2, [r3]
 278:Generated_Source\PSoC4/cyfitter_cfg.c **** 
 279:Generated_Source\PSoC4/cyfitter_cfg.c **** 	/* CYDEV_PERI_PCLK_CTL10 Starting address: CYDEV_PERI_PCLK_CTL10 */
 280:Generated_Source\PSoC4/cyfitter_cfg.c **** 	CY_SET_REG32((void *)(CYREG_PERI_PCLK_CTL10), 0x00000043u);
 310              		.loc 1 280 0
 311 00f2 0132     		adds	r2, r2, #1
 312 00f4 364B     		ldr	r3, .L12+144
 313 00f6 1A60     		str	r2, [r3]
 281:Generated_Source\PSoC4/cyfitter_cfg.c **** 
 282:Generated_Source\PSoC4/cyfitter_cfg.c **** 	/* CYDEV_PERI_PCLK_CTL3 Starting address: CYDEV_PERI_PCLK_CTL3 */
 283:Generated_Source\PSoC4/cyfitter_cfg.c **** 	CY_SET_REG32((void *)(CYREG_PERI_PCLK_CTL3), 0x00000040u);
 314              		.loc 1 283 0
 315 00f8 033A     		subs	r2, r2, #3
 316 00fa 364B     		ldr	r3, .L12+148
 317 00fc 1A60     		str	r2, [r3]
 284:Generated_Source\PSoC4/cyfitter_cfg.c **** 
 285:Generated_Source\PSoC4/cyfitter_cfg.c **** 	/* CYDEV_PERI_PCLK_CTL2 Starting address: CYDEV_PERI_PCLK_CTL2 */
 286:Generated_Source\PSoC4/cyfitter_cfg.c **** 	CY_SET_REG32((void *)(CYREG_PERI_PCLK_CTL2), 0x00000044u);
 318              		.loc 1 286 0
 319 00fe 0432     		adds	r2, r2, #4
 320 0100 354B     		ldr	r3, .L12+152
 321 0102 1A60     		str	r2, [r3]
 287:Generated_Source\PSoC4/cyfitter_cfg.c **** 
 288:Generated_Source\PSoC4/cyfitter_cfg.c **** 	(void)CyIntSetVector(8u, &CySysWdtIsr);
 322              		.loc 1 288 0
 323 0104 3549     		ldr	r1, .L12+156
 324 0106 F938     		subs	r0, r0, #249
 325 0108 FF38     		subs	r0, r0, #255
 326 010a FFF7FEFF 		bl	CyIntSetVector
 327              	.LVL27:
 289:Generated_Source\PSoC4/cyfitter_cfg.c **** 	CyIntEnable(8u);
 328              		.loc 1 289 0
ARM GAS  C:\Users\psmus\AppData\Local\Temp\ccHyxx8W.s 			page 12


 329 010e 0820     		movs	r0, #8
 330 0110 FFF7FEFF 		bl	CyIntEnable
 331              	.LVL28:
 290:Generated_Source\PSoC4/cyfitter_cfg.c **** 	CY_SET_REG32((void *)(CYREG_WDT_MATCH), 0x001F0000u);
 332              		.loc 1 290 0
 333 0114 F822     		movs	r2, #248
 334 0116 5203     		lsls	r2, r2, #13
 335 0118 314B     		ldr	r3, .L12+160
 336 011a 1A60     		str	r2, [r3]
 291:Generated_Source\PSoC4/cyfitter_cfg.c **** 	CY_SET_REG32((void *)(CYREG_WDT_CONFIG), 0x40000000u);
 337              		.loc 1 291 0
 338 011c 8022     		movs	r2, #128
 339 011e D205     		lsls	r2, r2, #23
 340 0120 0B4B     		ldr	r3, .L12+16
 341 0122 1A60     		str	r2, [r3]
 292:Generated_Source\PSoC4/cyfitter_cfg.c **** 	CY_SET_REG32((void *)(CYREG_WDT_CONTROL), 0x00000800u);
 342              		.loc 1 292 0
 343 0124 8022     		movs	r2, #128
 344 0126 1201     		lsls	r2, r2, #4
 345 0128 2E4B     		ldr	r3, .L12+164
 346 012a 1A60     		str	r2, [r3]
 347              	.L11:
 293:Generated_Source\PSoC4/cyfitter_cfg.c **** 	while ((CY_GET_XTND_REG32((void CYFAR *)(CYREG_WDT_CONTROL)) & 0x00000800u) != 0u) { }
 348              		.loc 1 293 0 discriminator 1
 349 012c 2D4B     		ldr	r3, .L12+164
 350 012e 1B68     		ldr	r3, [r3]
 351 0130 1B05     		lsls	r3, r3, #20
 352 0132 FBD4     		bmi	.L11
 294:Generated_Source\PSoC4/cyfitter_cfg.c **** 	CY_SET_REG32((void *)(CYREG_WDT_CONTROL), 0x00000100u);
 353              		.loc 1 294 0
 354 0134 8022     		movs	r2, #128
 355 0136 5200     		lsls	r2, r2, #1
 356 0138 2A4B     		ldr	r3, .L12+164
 357 013a 1A60     		str	r2, [r3]
 295:Generated_Source\PSoC4/cyfitter_cfg.c **** }
 358              		.loc 1 295 0
 359              		@ sp needed
 360              	.LVL29:
 361 013c 70BD     		pop	{r4, r5, r6, pc}
 362              	.L13:
 363 013e C046     		.align	2
 364              	.L12:
 365 0140 30001040 		.word	1074790448
 366 0144 001BB700 		.word	12000000
 367 0148 06000080 		.word	-2147483642
 368 014c 04010B40 		.word	1074462980
 369 0150 0C020B40 		.word	1074463244
 370 0154 08000C40 		.word	1074528264
 371 0158 0CFF0C40 		.word	1074593548
 372 015c 10FF0C40 		.word	1074593552
 373 0160 DC050000 		.word	1500
 374 0164 00010B40 		.word	1074462976
 375 0168 07FEFFFF 		.word	-505
 376 016c 14000C40 		.word	1074528276
 377 0170 150F0280 		.word	-2147348715
 378 0174 20000C40 		.word	1074528288
 379 0178 150F02C0 		.word	-1073606891
ARM GAS  C:\Users\psmus\AppData\Local\Temp\ccHyxx8W.s 			page 13


 380 017c 18000C40 		.word	1074528280
 381 0180 24000C40 		.word	1074528292
 382 0184 00FF7601 		.word	24575744
 383 0188 00050140 		.word	1073808640
 384 018c 00000140 		.word	1073807360
 385 0190 C0FF0080 		.word	-2147418176
 386 0194 04030140 		.word	1073808132
 387 0198 41FF0080 		.word	-2147418303
 388 019c 08030140 		.word	1073808136
 389 01a0 42FF0080 		.word	-2147418302
 390 01a4 0C030140 		.word	1073808140
 391 01a8 43FF0080 		.word	-2147418301
 392 01ac 00030140 		.word	1073808128
 393 01b0 40FF0080 		.word	-2147418304
 394 01b4 10030140 		.word	1073808144
 395 01b8 44FF0080 		.word	-2147418300
 396 01bc 08010B40 		.word	1074462984
 397 01c0 90000400 		.word	262288
 398 01c4 4C010140 		.word	1073807692
 399 01c8 30010140 		.word	1073807664
 400 01cc 2C010140 		.word	1073807660
 401 01d0 28010140 		.word	1073807656
 402 01d4 0C010140 		.word	1073807628
 403 01d8 08010140 		.word	1073807624
 404 01dc 00000000 		.word	CySysWdtIsr
 405 01e0 08020B40 		.word	1074463240
 406 01e4 10020B40 		.word	1074463248
 407              		.cfi_endproc
 408              	.LFE5:
 409              		.size	ClockSetup, .-ClockSetup
 410              		.section	.text.SetAnalogRoutingPumps,"ax",%progbits
 411              		.align	2
 412              		.global	SetAnalogRoutingPumps
 413              		.code	16
 414              		.thumb_func
 415              		.type	SetAnalogRoutingPumps, %function
 416              	SetAnalogRoutingPumps:
 417              	.LFB7:
 296:Generated_Source\PSoC4/cyfitter_cfg.c **** 
 297:Generated_Source\PSoC4/cyfitter_cfg.c **** 
 298:Generated_Source\PSoC4/cyfitter_cfg.c **** /* Analog API Functions */
 299:Generated_Source\PSoC4/cyfitter_cfg.c **** 
 300:Generated_Source\PSoC4/cyfitter_cfg.c **** 
 301:Generated_Source\PSoC4/cyfitter_cfg.c **** /*******************************************************************************
 302:Generated_Source\PSoC4/cyfitter_cfg.c **** * Function Name: AnalogSetDefault
 303:Generated_Source\PSoC4/cyfitter_cfg.c **** ********************************************************************************
 304:Generated_Source\PSoC4/cyfitter_cfg.c **** *
 305:Generated_Source\PSoC4/cyfitter_cfg.c **** * Summary:
 306:Generated_Source\PSoC4/cyfitter_cfg.c **** *  Sets up the analog portions of the chip to default values based on chip
 307:Generated_Source\PSoC4/cyfitter_cfg.c **** *  configuration options from the project.
 308:Generated_Source\PSoC4/cyfitter_cfg.c **** *
 309:Generated_Source\PSoC4/cyfitter_cfg.c **** * Parameters:
 310:Generated_Source\PSoC4/cyfitter_cfg.c **** *  void
 311:Generated_Source\PSoC4/cyfitter_cfg.c **** *
 312:Generated_Source\PSoC4/cyfitter_cfg.c **** * Return:
 313:Generated_Source\PSoC4/cyfitter_cfg.c **** *  void
 314:Generated_Source\PSoC4/cyfitter_cfg.c **** *
ARM GAS  C:\Users\psmus\AppData\Local\Temp\ccHyxx8W.s 			page 14


 315:Generated_Source\PSoC4/cyfitter_cfg.c **** *******************************************************************************/
 316:Generated_Source\PSoC4/cyfitter_cfg.c **** static void AnalogSetDefault(void);
 317:Generated_Source\PSoC4/cyfitter_cfg.c **** static void AnalogSetDefault(void)
 318:Generated_Source\PSoC4/cyfitter_cfg.c **** {
 319:Generated_Source\PSoC4/cyfitter_cfg.c **** 	CY_SET_XTND_REG32((void CYFAR *)CYREG_CTBM0_DFT_CTRL, 0x00000003u);
 320:Generated_Source\PSoC4/cyfitter_cfg.c **** 	CY_SET_XTND_REG32((void CYFAR *)CYREG_CTBM1_DFT_CTRL, 0x00000003u);
 321:Generated_Source\PSoC4/cyfitter_cfg.c **** 	CY_SET_XTND_REG32((void CYFAR *)CYREG_SAR_CTRL, 0x80000000u);
 322:Generated_Source\PSoC4/cyfitter_cfg.c **** 	CY_SET_XTND_REG32((void CYFAR *)CYREG_SAR_MUX_SWITCH0, 0x000400E0u);
 323:Generated_Source\PSoC4/cyfitter_cfg.c **** 	CY_SET_XTND_REG32((void CYFAR *)CYREG_SAR_MUX_SWITCH_HW_CTRL, 0x000400E0u);
 324:Generated_Source\PSoC4/cyfitter_cfg.c **** 	CY_SET_XTND_REG32((void CYFAR *)CYREG_PASS_DSAB_DSAB_CTRL, 0x00000000u);
 325:Generated_Source\PSoC4/cyfitter_cfg.c **** 	SetAnalogRoutingPumps(1);
 326:Generated_Source\PSoC4/cyfitter_cfg.c **** }
 327:Generated_Source\PSoC4/cyfitter_cfg.c **** 
 328:Generated_Source\PSoC4/cyfitter_cfg.c **** 
 329:Generated_Source\PSoC4/cyfitter_cfg.c **** /*******************************************************************************
 330:Generated_Source\PSoC4/cyfitter_cfg.c **** * Function Name: SetAnalogRoutingPumps
 331:Generated_Source\PSoC4/cyfitter_cfg.c **** ********************************************************************************
 332:Generated_Source\PSoC4/cyfitter_cfg.c **** *
 333:Generated_Source\PSoC4/cyfitter_cfg.c **** * Summary:
 334:Generated_Source\PSoC4/cyfitter_cfg.c **** * Enables or disables the analog pumps feeding analog routing switches.
 335:Generated_Source\PSoC4/cyfitter_cfg.c **** * Intended to be called at startup, based on the Vdda system configuration;
 336:Generated_Source\PSoC4/cyfitter_cfg.c **** * may be called during operation when the user informs us that the Vdda voltage crossed the pump th
 337:Generated_Source\PSoC4/cyfitter_cfg.c **** *
 338:Generated_Source\PSoC4/cyfitter_cfg.c **** * Parameters:
 339:Generated_Source\PSoC4/cyfitter_cfg.c **** *  enabled - 1 to enable the pumps, 0 to disable the pumps
 340:Generated_Source\PSoC4/cyfitter_cfg.c **** *
 341:Generated_Source\PSoC4/cyfitter_cfg.c **** * Return:
 342:Generated_Source\PSoC4/cyfitter_cfg.c **** *  void
 343:Generated_Source\PSoC4/cyfitter_cfg.c **** *
 344:Generated_Source\PSoC4/cyfitter_cfg.c **** *******************************************************************************/
 345:Generated_Source\PSoC4/cyfitter_cfg.c **** void SetAnalogRoutingPumps(uint8 enabled)
 346:Generated_Source\PSoC4/cyfitter_cfg.c **** {
 418              		.loc 1 346 0
 419              		.cfi_startproc
 420              		@ args = 0, pretend = 0, frame = 0
 421              		@ frame_needed = 0, uses_anonymous_args = 0
 422              		@ link register save eliminated.
 423              	.LVL30:
 347:Generated_Source\PSoC4/cyfitter_cfg.c **** 	uint32 regValue = CY_GET_XTND_REG32((void *)(CYREG_SAR_PUMP_CTRL));
 424              		.loc 1 347 0
 425 0000 064B     		ldr	r3, .L17
 426 0002 1B68     		ldr	r3, [r3]
 427              	.LVL31:
 348:Generated_Source\PSoC4/cyfitter_cfg.c **** 	if (enabled != 0u)
 428              		.loc 1 348 0
 429 0004 0028     		cmp	r0, #0
 430 0006 03D0     		beq	.L15
 349:Generated_Source\PSoC4/cyfitter_cfg.c **** 	{
 350:Generated_Source\PSoC4/cyfitter_cfg.c **** 		regValue |= 0x80000000u;
 431              		.loc 1 350 0
 432 0008 8022     		movs	r2, #128
 433 000a 1206     		lsls	r2, r2, #24
 434 000c 1343     		orrs	r3, r2
 435              	.LVL32:
 436 000e 01E0     		b	.L16
 437              	.L15:
 351:Generated_Source\PSoC4/cyfitter_cfg.c **** 	}
ARM GAS  C:\Users\psmus\AppData\Local\Temp\ccHyxx8W.s 			page 15


 352:Generated_Source\PSoC4/cyfitter_cfg.c **** 	else
 353:Generated_Source\PSoC4/cyfitter_cfg.c **** 	{
 354:Generated_Source\PSoC4/cyfitter_cfg.c **** 		regValue &= ~0x80000000u;
 438              		.loc 1 354 0
 439 0010 5B00     		lsls	r3, r3, #1
 440              	.LVL33:
 441 0012 5B08     		lsrs	r3, r3, #1
 442              	.LVL34:
 443              	.L16:
 355:Generated_Source\PSoC4/cyfitter_cfg.c **** 	}
 356:Generated_Source\PSoC4/cyfitter_cfg.c **** 	CY_SET_XTND_REG32((void *)(CYREG_SAR_PUMP_CTRL), regValue);
 444              		.loc 1 356 0
 445 0014 014A     		ldr	r2, .L17
 446 0016 1360     		str	r3, [r2]
 357:Generated_Source\PSoC4/cyfitter_cfg.c **** }
 447              		.loc 1 357 0
 448              		@ sp needed
 449 0018 7047     		bx	lr
 450              	.L18:
 451 001a C046     		.align	2
 452              	.L17:
 453 001c 80033A40 		.word	1077543808
 454              		.cfi_endproc
 455              	.LFE7:
 456              		.size	SetAnalogRoutingPumps, .-SetAnalogRoutingPumps
 457              		.section	.text.AnalogSetDefault,"ax",%progbits
 458              		.align	2
 459              		.code	16
 460              		.thumb_func
 461              		.type	AnalogSetDefault, %function
 462              	AnalogSetDefault:
 463              	.LFB6:
 318:Generated_Source\PSoC4/cyfitter_cfg.c **** 	CY_SET_XTND_REG32((void CYFAR *)CYREG_CTBM0_DFT_CTRL, 0x00000003u);
 464              		.loc 1 318 0
 465              		.cfi_startproc
 466              		@ args = 0, pretend = 0, frame = 0
 467              		@ frame_needed = 0, uses_anonymous_args = 0
 468 0000 10B5     		push	{r4, lr}
 469              		.cfi_def_cfa_offset 8
 470              		.cfi_offset 4, -8
 471              		.cfi_offset 14, -4
 319:Generated_Source\PSoC4/cyfitter_cfg.c **** 	CY_SET_XTND_REG32((void CYFAR *)CYREG_CTBM1_DFT_CTRL, 0x00000003u);
 472              		.loc 1 319 0
 473 0002 0323     		movs	r3, #3
 474 0004 094A     		ldr	r2, .L20
 475 0006 1360     		str	r3, [r2]
 320:Generated_Source\PSoC4/cyfitter_cfg.c **** 	CY_SET_XTND_REG32((void CYFAR *)CYREG_SAR_CTRL, 0x80000000u);
 476              		.loc 1 320 0
 477 0008 094A     		ldr	r2, .L20+4
 478 000a 1360     		str	r3, [r2]
 321:Generated_Source\PSoC4/cyfitter_cfg.c **** 	CY_SET_XTND_REG32((void CYFAR *)CYREG_SAR_MUX_SWITCH0, 0x000400E0u);
 479              		.loc 1 321 0
 480 000c 8022     		movs	r2, #128
 481 000e 1206     		lsls	r2, r2, #24
 482 0010 084B     		ldr	r3, .L20+8
 483 0012 1A60     		str	r2, [r3]
 322:Generated_Source\PSoC4/cyfitter_cfg.c **** 	CY_SET_XTND_REG32((void CYFAR *)CYREG_SAR_MUX_SWITCH_HW_CTRL, 0x000400E0u);
ARM GAS  C:\Users\psmus\AppData\Local\Temp\ccHyxx8W.s 			page 16


 484              		.loc 1 322 0
 485 0014 084B     		ldr	r3, .L20+12
 486 0016 094A     		ldr	r2, .L20+16
 487 0018 1360     		str	r3, [r2]
 323:Generated_Source\PSoC4/cyfitter_cfg.c **** 	CY_SET_XTND_REG32((void CYFAR *)CYREG_PASS_DSAB_DSAB_CTRL, 0x00000000u);
 488              		.loc 1 323 0
 489 001a 094A     		ldr	r2, .L20+20
 490 001c 1360     		str	r3, [r2]
 324:Generated_Source\PSoC4/cyfitter_cfg.c **** 	SetAnalogRoutingPumps(1);
 491              		.loc 1 324 0
 492 001e 0022     		movs	r2, #0
 493 0020 084B     		ldr	r3, .L20+24
 494 0022 1A60     		str	r2, [r3]
 325:Generated_Source\PSoC4/cyfitter_cfg.c **** }
 495              		.loc 1 325 0
 496 0024 0120     		movs	r0, #1
 497 0026 FFF7FEFF 		bl	SetAnalogRoutingPumps
 498              	.LVL35:
 326:Generated_Source\PSoC4/cyfitter_cfg.c **** 
 499              		.loc 1 326 0
 500              		@ sp needed
 501 002a 10BD     		pop	{r4, pc}
 502              	.L21:
 503              		.align	2
 504              	.L20:
 505 002c 30003040 		.word	1076887600
 506 0030 30003140 		.word	1076953136
 507 0034 00003A40 		.word	1077542912
 508 0038 E0000400 		.word	262368
 509 003c 00033A40 		.word	1077543680
 510 0040 40033A40 		.word	1077543744
 511 0044 000E3F40 		.word	1077874176
 512              		.cfi_endproc
 513              	.LFE6:
 514              		.size	AnalogSetDefault, .-AnalogSetDefault
 515              		.section	.psocinit
 516              		.align	2
 517              		.global	cyfitter_cfg
 518              		.code	16
 519              		.thumb_func
 520              		.type	cyfitter_cfg, %function
 521              	cyfitter_cfg:
 522              	.LFB8:
 358:Generated_Source\PSoC4/cyfitter_cfg.c **** 
 359:Generated_Source\PSoC4/cyfitter_cfg.c **** 
 360:Generated_Source\PSoC4/cyfitter_cfg.c **** 
 361:Generated_Source\PSoC4/cyfitter_cfg.c **** 
 362:Generated_Source\PSoC4/cyfitter_cfg.c **** /*******************************************************************************
 363:Generated_Source\PSoC4/cyfitter_cfg.c **** * Function Name: cyfitter_cfg
 364:Generated_Source\PSoC4/cyfitter_cfg.c **** ********************************************************************************
 365:Generated_Source\PSoC4/cyfitter_cfg.c **** * Summary:
 366:Generated_Source\PSoC4/cyfitter_cfg.c **** *  This function is called by the start-up code for the selected device. It
 367:Generated_Source\PSoC4/cyfitter_cfg.c **** *  performs all of the necessary device configuration based on the design
 368:Generated_Source\PSoC4/cyfitter_cfg.c **** *  settings.  This includes settings from the Design Wide Resources (DWR) such
 369:Generated_Source\PSoC4/cyfitter_cfg.c **** *  as Clocks and Pins as well as any component configuration that is necessary.
 370:Generated_Source\PSoC4/cyfitter_cfg.c **** *
 371:Generated_Source\PSoC4/cyfitter_cfg.c **** * Parameters:
ARM GAS  C:\Users\psmus\AppData\Local\Temp\ccHyxx8W.s 			page 17


 372:Generated_Source\PSoC4/cyfitter_cfg.c **** *   void
 373:Generated_Source\PSoC4/cyfitter_cfg.c **** *
 374:Generated_Source\PSoC4/cyfitter_cfg.c **** * Return:
 375:Generated_Source\PSoC4/cyfitter_cfg.c **** *   void
 376:Generated_Source\PSoC4/cyfitter_cfg.c **** *
 377:Generated_Source\PSoC4/cyfitter_cfg.c **** *******************************************************************************/
 378:Generated_Source\PSoC4/cyfitter_cfg.c **** CY_CFG_SECTION
 379:Generated_Source\PSoC4/cyfitter_cfg.c **** void cyfitter_cfg(void)
 380:Generated_Source\PSoC4/cyfitter_cfg.c **** {
 523              		.loc 1 380 0
 524              		.cfi_startproc
 525              		@ args = 0, pretend = 0, frame = 0
 526              		@ frame_needed = 0, uses_anonymous_args = 0
 527 01e8 10B5     		push	{r4, lr}
 528              		.cfi_def_cfa_offset 8
 529              		.cfi_offset 4, -8
 530              		.cfi_offset 14, -4
 381:Generated_Source\PSoC4/cyfitter_cfg.c **** 	/* Disable interrupts by default. Let user enable if/when they want. */
 382:Generated_Source\PSoC4/cyfitter_cfg.c **** 	CyGlobalIntDisable;
 531              		.loc 1 382 0
 532              		.syntax divided
 533              	@ 382 "Generated_Source\PSoC4\cyfitter_cfg.c" 1
 534 01ea 72B6     		CPSID   i
 535              	@ 0 "" 2
 383:Generated_Source\PSoC4/cyfitter_cfg.c **** 
 384:Generated_Source\PSoC4/cyfitter_cfg.c **** 	/* Enable the clock in the interrupt controller for the routed interrupts */
 385:Generated_Source\PSoC4/cyfitter_cfg.c **** 	CY_SET_REG8((void *)CYREG_UDB_UDB_INT_CLK_CTL, 0x01u);
 536              		.loc 1 385 0
 537              		.thumb
 538              		.syntax unified
 539 01ec 0122     		movs	r2, #1
 540 01ee 4B4B     		ldr	r3, .L25
 541 01f0 1A70     		strb	r2, [r3]
 542              	.LVL36:
 543              	.LBB3:
 386:Generated_Source\PSoC4/cyfitter_cfg.c **** 	{
 387:Generated_Source\PSoC4/cyfitter_cfg.c **** 		static const uint32 CYCODE cy_cfg_addr_table[] = {
 388:Generated_Source\PSoC4/cyfitter_cfg.c **** 			0x400F0001u, /* Base address: 0x400F0000 Count: 1 */
 389:Generated_Source\PSoC4/cyfitter_cfg.c **** 			0x400F3010u, /* Base address: 0x400F3000 Count: 16 */
 390:Generated_Source\PSoC4/cyfitter_cfg.c **** 			0x400F3110u, /* Base address: 0x400F3100 Count: 16 */
 391:Generated_Source\PSoC4/cyfitter_cfg.c **** 			0x400F3204u, /* Base address: 0x400F3200 Count: 4 */
 392:Generated_Source\PSoC4/cyfitter_cfg.c **** 			0x400F3308u, /* Base address: 0x400F3300 Count: 8 */
 393:Generated_Source\PSoC4/cyfitter_cfg.c **** 			0x400F3442u, /* Base address: 0x400F3400 Count: 66 */
 394:Generated_Source\PSoC4/cyfitter_cfg.c **** 			0x400F352Bu, /* Base address: 0x400F3500 Count: 43 */
 395:Generated_Source\PSoC4/cyfitter_cfg.c **** 			0x400F362Cu, /* Base address: 0x400F3600 Count: 44 */
 396:Generated_Source\PSoC4/cyfitter_cfg.c **** 			0x400F373Cu, /* Base address: 0x400F3700 Count: 60 */
 397:Generated_Source\PSoC4/cyfitter_cfg.c **** 			0x400F400Bu, /* Base address: 0x400F4000 Count: 11 */
 398:Generated_Source\PSoC4/cyfitter_cfg.c **** 			0x400F410Au, /* Base address: 0x400F4100 Count: 10 */
 399:Generated_Source\PSoC4/cyfitter_cfg.c **** 			0x400F4206u, /* Base address: 0x400F4200 Count: 6 */
 400:Generated_Source\PSoC4/cyfitter_cfg.c **** 			0x400F4305u, /* Base address: 0x400F4300 Count: 5 */
 401:Generated_Source\PSoC4/cyfitter_cfg.c **** 			0x400F440Au, /* Base address: 0x400F4400 Count: 10 */
 402:Generated_Source\PSoC4/cyfitter_cfg.c **** 			0x400F450Au, /* Base address: 0x400F4500 Count: 10 */
 403:Generated_Source\PSoC4/cyfitter_cfg.c **** 			0x400F470Cu, /* Base address: 0x400F4700 Count: 12 */
 404:Generated_Source\PSoC4/cyfitter_cfg.c **** 			0x400F6002u, /* Base address: 0x400F6000 Count: 2 */
 405:Generated_Source\PSoC4/cyfitter_cfg.c **** 		};
 406:Generated_Source\PSoC4/cyfitter_cfg.c **** 
 407:Generated_Source\PSoC4/cyfitter_cfg.c **** 		static const cy_cfg_addrvalue_t CYCODE cy_cfg_data_table[] = {
ARM GAS  C:\Users\psmus\AppData\Local\Temp\ccHyxx8W.s 			page 18


 408:Generated_Source\PSoC4/cyfitter_cfg.c **** 			{0x85u, 0x7Fu},
 409:Generated_Source\PSoC4/cyfitter_cfg.c **** 			{0x2Fu, 0x01u},
 410:Generated_Source\PSoC4/cyfitter_cfg.c **** 			{0x33u, 0x01u},
 411:Generated_Source\PSoC4/cyfitter_cfg.c **** 			{0x59u, 0x04u},
 412:Generated_Source\PSoC4/cyfitter_cfg.c **** 			{0x5Fu, 0x01u},
 413:Generated_Source\PSoC4/cyfitter_cfg.c **** 			{0x86u, 0x02u},
 414:Generated_Source\PSoC4/cyfitter_cfg.c **** 			{0x8Eu, 0x01u},
 415:Generated_Source\PSoC4/cyfitter_cfg.c **** 			{0xACu, 0x01u},
 416:Generated_Source\PSoC4/cyfitter_cfg.c **** 			{0xAEu, 0x02u},
 417:Generated_Source\PSoC4/cyfitter_cfg.c **** 			{0xB6u, 0x03u},
 418:Generated_Source\PSoC4/cyfitter_cfg.c **** 			{0xBBu, 0x03u},
 419:Generated_Source\PSoC4/cyfitter_cfg.c **** 			{0xBEu, 0x40u},
 420:Generated_Source\PSoC4/cyfitter_cfg.c **** 			{0xD8u, 0x04u},
 421:Generated_Source\PSoC4/cyfitter_cfg.c **** 			{0xD9u, 0x04u},
 422:Generated_Source\PSoC4/cyfitter_cfg.c **** 			{0xDBu, 0x04u},
 423:Generated_Source\PSoC4/cyfitter_cfg.c **** 			{0xDCu, 0x80u},
 424:Generated_Source\PSoC4/cyfitter_cfg.c **** 			{0xDFu, 0x31u},
 425:Generated_Source\PSoC4/cyfitter_cfg.c **** 			{0x06u, 0x12u},
 426:Generated_Source\PSoC4/cyfitter_cfg.c **** 			{0x15u, 0x40u},
 427:Generated_Source\PSoC4/cyfitter_cfg.c **** 			{0x1Fu, 0x80u},
 428:Generated_Source\PSoC4/cyfitter_cfg.c **** 			{0x21u, 0x08u},
 429:Generated_Source\PSoC4/cyfitter_cfg.c **** 			{0x26u, 0x02u},
 430:Generated_Source\PSoC4/cyfitter_cfg.c **** 			{0x27u, 0x80u},
 431:Generated_Source\PSoC4/cyfitter_cfg.c **** 			{0x28u, 0x02u},
 432:Generated_Source\PSoC4/cyfitter_cfg.c **** 			{0x6Du, 0x40u},
 433:Generated_Source\PSoC4/cyfitter_cfg.c **** 			{0x7Fu, 0x80u},
 434:Generated_Source\PSoC4/cyfitter_cfg.c **** 			{0x81u, 0x08u},
 435:Generated_Source\PSoC4/cyfitter_cfg.c **** 			{0x86u, 0x10u},
 436:Generated_Source\PSoC4/cyfitter_cfg.c **** 			{0xC0u, 0xA0u},
 437:Generated_Source\PSoC4/cyfitter_cfg.c **** 			{0xC4u, 0x80u},
 438:Generated_Source\PSoC4/cyfitter_cfg.c **** 			{0xCAu, 0x08u},
 439:Generated_Source\PSoC4/cyfitter_cfg.c **** 			{0xDEu, 0x80u},
 440:Generated_Source\PSoC4/cyfitter_cfg.c **** 			{0xE2u, 0x0Au},
 441:Generated_Source\PSoC4/cyfitter_cfg.c **** 			{0xB6u, 0x01u},
 442:Generated_Source\PSoC4/cyfitter_cfg.c **** 			{0xBEu, 0x40u},
 443:Generated_Source\PSoC4/cyfitter_cfg.c **** 			{0xD8u, 0x04u},
 444:Generated_Source\PSoC4/cyfitter_cfg.c **** 			{0xDFu, 0x01u},
 445:Generated_Source\PSoC4/cyfitter_cfg.c **** 			{0x1Au, 0x02u},
 446:Generated_Source\PSoC4/cyfitter_cfg.c **** 			{0xA2u, 0x02u},
 447:Generated_Source\PSoC4/cyfitter_cfg.c **** 			{0xAEu, 0x02u},
 448:Generated_Source\PSoC4/cyfitter_cfg.c **** 			{0xB0u, 0x02u},
 449:Generated_Source\PSoC4/cyfitter_cfg.c **** 			{0xB3u, 0x80u},
 450:Generated_Source\PSoC4/cyfitter_cfg.c **** 			{0xE0u, 0x80u},
 451:Generated_Source\PSoC4/cyfitter_cfg.c **** 			{0xE4u, 0x40u},
 452:Generated_Source\PSoC4/cyfitter_cfg.c **** 			{0xEEu, 0x28u},
 453:Generated_Source\PSoC4/cyfitter_cfg.c **** 			{0x3Au, 0x30u},
 454:Generated_Source\PSoC4/cyfitter_cfg.c **** 			{0x58u, 0x04u},
 455:Generated_Source\PSoC4/cyfitter_cfg.c **** 			{0x5Cu, 0x08u},
 456:Generated_Source\PSoC4/cyfitter_cfg.c **** 			{0x5Fu, 0x01u},
 457:Generated_Source\PSoC4/cyfitter_cfg.c **** 			{0x80u, 0x10u},
 458:Generated_Source\PSoC4/cyfitter_cfg.c **** 			{0x83u, 0x02u},
 459:Generated_Source\PSoC4/cyfitter_cfg.c **** 			{0x84u, 0x04u},
 460:Generated_Source\PSoC4/cyfitter_cfg.c **** 			{0x87u, 0x01u},
 461:Generated_Source\PSoC4/cyfitter_cfg.c **** 			{0x8Au, 0x20u},
 462:Generated_Source\PSoC4/cyfitter_cfg.c **** 			{0x8Bu, 0x03u},
 463:Generated_Source\PSoC4/cyfitter_cfg.c **** 			{0x8Cu, 0x0Fu},
 464:Generated_Source\PSoC4/cyfitter_cfg.c **** 			{0x8Fu, 0x50u},
ARM GAS  C:\Users\psmus\AppData\Local\Temp\ccHyxx8W.s 			page 19


 465:Generated_Source\PSoC4/cyfitter_cfg.c **** 			{0x90u, 0x0Fu},
 466:Generated_Source\PSoC4/cyfitter_cfg.c **** 			{0x93u, 0x03u},
 467:Generated_Source\PSoC4/cyfitter_cfg.c **** 			{0x94u, 0x08u},
 468:Generated_Source\PSoC4/cyfitter_cfg.c **** 			{0x97u, 0x20u},
 469:Generated_Source\PSoC4/cyfitter_cfg.c **** 			{0x98u, 0x0Fu},
 470:Generated_Source\PSoC4/cyfitter_cfg.c **** 			{0x9Bu, 0x03u},
 471:Generated_Source\PSoC4/cyfitter_cfg.c **** 			{0x9Cu, 0x02u},
 472:Generated_Source\PSoC4/cyfitter_cfg.c **** 			{0x9Du, 0x03u},
 473:Generated_Source\PSoC4/cyfitter_cfg.c **** 			{0x9Fu, 0x58u},
 474:Generated_Source\PSoC4/cyfitter_cfg.c **** 			{0xA1u, 0x53u},
 475:Generated_Source\PSoC4/cyfitter_cfg.c **** 			{0xA3u, 0x08u},
 476:Generated_Source\PSoC4/cyfitter_cfg.c **** 			{0xA5u, 0x53u},
 477:Generated_Source\PSoC4/cyfitter_cfg.c **** 			{0xA7u, 0x08u},
 478:Generated_Source\PSoC4/cyfitter_cfg.c **** 			{0xA8u, 0x01u},
 479:Generated_Source\PSoC4/cyfitter_cfg.c **** 			{0xABu, 0x60u},
 480:Generated_Source\PSoC4/cyfitter_cfg.c **** 			{0xACu, 0x01u},
 481:Generated_Source\PSoC4/cyfitter_cfg.c **** 			{0xADu, 0x04u},
 482:Generated_Source\PSoC4/cyfitter_cfg.c **** 			{0xB0u, 0x20u},
 483:Generated_Source\PSoC4/cyfitter_cfg.c **** 			{0xB1u, 0x10u},
 484:Generated_Source\PSoC4/cyfitter_cfg.c **** 			{0xB3u, 0x04u},
 485:Generated_Source\PSoC4/cyfitter_cfg.c **** 			{0xB4u, 0x1Fu},
 486:Generated_Source\PSoC4/cyfitter_cfg.c **** 			{0xB5u, 0x60u},
 487:Generated_Source\PSoC4/cyfitter_cfg.c **** 			{0xB7u, 0x0Fu},
 488:Generated_Source\PSoC4/cyfitter_cfg.c **** 			{0xBFu, 0x01u},
 489:Generated_Source\PSoC4/cyfitter_cfg.c **** 			{0xC0u, 0x24u},
 490:Generated_Source\PSoC4/cyfitter_cfg.c **** 			{0xC1u, 0x03u},
 491:Generated_Source\PSoC4/cyfitter_cfg.c **** 			{0xC5u, 0x0Eu},
 492:Generated_Source\PSoC4/cyfitter_cfg.c **** 			{0xC6u, 0x0Cu},
 493:Generated_Source\PSoC4/cyfitter_cfg.c **** 			{0xC7u, 0x0Bu},
 494:Generated_Source\PSoC4/cyfitter_cfg.c **** 			{0xC8u, 0x15u},
 495:Generated_Source\PSoC4/cyfitter_cfg.c **** 			{0xC9u, 0xFFu},
 496:Generated_Source\PSoC4/cyfitter_cfg.c **** 			{0xCAu, 0xFFu},
 497:Generated_Source\PSoC4/cyfitter_cfg.c **** 			{0xCBu, 0xFFu},
 498:Generated_Source\PSoC4/cyfitter_cfg.c **** 			{0xD0u, 0x04u},
 499:Generated_Source\PSoC4/cyfitter_cfg.c **** 			{0xD1u, 0x10u},
 500:Generated_Source\PSoC4/cyfitter_cfg.c **** 			{0xD6u, 0x02u},
 501:Generated_Source\PSoC4/cyfitter_cfg.c **** 			{0xD7u, 0x20u},
 502:Generated_Source\PSoC4/cyfitter_cfg.c **** 			{0xD8u, 0x04u},
 503:Generated_Source\PSoC4/cyfitter_cfg.c **** 			{0xD9u, 0x04u},
 504:Generated_Source\PSoC4/cyfitter_cfg.c **** 			{0xDAu, 0x04u},
 505:Generated_Source\PSoC4/cyfitter_cfg.c **** 			{0xDBu, 0x04u},
 506:Generated_Source\PSoC4/cyfitter_cfg.c **** 			{0xDCu, 0x88u},
 507:Generated_Source\PSoC4/cyfitter_cfg.c **** 			{0xDDu, 0x88u},
 508:Generated_Source\PSoC4/cyfitter_cfg.c **** 			{0xDFu, 0x11u},
 509:Generated_Source\PSoC4/cyfitter_cfg.c **** 			{0xE2u, 0xC0u},
 510:Generated_Source\PSoC4/cyfitter_cfg.c **** 			{0xE4u, 0x40u},
 511:Generated_Source\PSoC4/cyfitter_cfg.c **** 			{0xE5u, 0x01u},
 512:Generated_Source\PSoC4/cyfitter_cfg.c **** 			{0xE6u, 0x80u},
 513:Generated_Source\PSoC4/cyfitter_cfg.c **** 			{0xE8u, 0x30u},
 514:Generated_Source\PSoC4/cyfitter_cfg.c **** 			{0xEAu, 0x40u},
 515:Generated_Source\PSoC4/cyfitter_cfg.c **** 			{0xEBu, 0x10u},
 516:Generated_Source\PSoC4/cyfitter_cfg.c **** 			{0xECu, 0x10u},
 517:Generated_Source\PSoC4/cyfitter_cfg.c **** 			{0xEEu, 0x40u},
 518:Generated_Source\PSoC4/cyfitter_cfg.c **** 			{0xEFu, 0xA8u},
 519:Generated_Source\PSoC4/cyfitter_cfg.c **** 			{0x04u, 0x20u},
 520:Generated_Source\PSoC4/cyfitter_cfg.c **** 			{0x05u, 0x01u},
 521:Generated_Source\PSoC4/cyfitter_cfg.c **** 			{0x07u, 0x12u},
ARM GAS  C:\Users\psmus\AppData\Local\Temp\ccHyxx8W.s 			page 20


 522:Generated_Source\PSoC4/cyfitter_cfg.c **** 			{0x0Du, 0x20u},
 523:Generated_Source\PSoC4/cyfitter_cfg.c **** 			{0x0Eu, 0x62u},
 524:Generated_Source\PSoC4/cyfitter_cfg.c **** 			{0x16u, 0x0Au},
 525:Generated_Source\PSoC4/cyfitter_cfg.c **** 			{0x1Au, 0x08u},
 526:Generated_Source\PSoC4/cyfitter_cfg.c **** 			{0x1Cu, 0x40u},
 527:Generated_Source\PSoC4/cyfitter_cfg.c **** 			{0x1Du, 0x20u},
 528:Generated_Source\PSoC4/cyfitter_cfg.c **** 			{0x1Fu, 0x20u},
 529:Generated_Source\PSoC4/cyfitter_cfg.c **** 			{0x25u, 0x08u},
 530:Generated_Source\PSoC4/cyfitter_cfg.c **** 			{0x26u, 0x88u},
 531:Generated_Source\PSoC4/cyfitter_cfg.c **** 			{0x27u, 0x46u},
 532:Generated_Source\PSoC4/cyfitter_cfg.c **** 			{0x2Cu, 0x80u},
 533:Generated_Source\PSoC4/cyfitter_cfg.c **** 			{0x2Fu, 0x26u},
 534:Generated_Source\PSoC4/cyfitter_cfg.c **** 			{0x36u, 0x81u},
 535:Generated_Source\PSoC4/cyfitter_cfg.c **** 			{0x37u, 0x14u},
 536:Generated_Source\PSoC4/cyfitter_cfg.c **** 			{0x3Eu, 0x1Au},
 537:Generated_Source\PSoC4/cyfitter_cfg.c **** 			{0x3Fu, 0x80u},
 538:Generated_Source\PSoC4/cyfitter_cfg.c **** 			{0x45u, 0x28u},
 539:Generated_Source\PSoC4/cyfitter_cfg.c **** 			{0x47u, 0x02u},
 540:Generated_Source\PSoC4/cyfitter_cfg.c **** 			{0x4Fu, 0x04u},
 541:Generated_Source\PSoC4/cyfitter_cfg.c **** 			{0x57u, 0x44u},
 542:Generated_Source\PSoC4/cyfitter_cfg.c **** 			{0x67u, 0x02u},
 543:Generated_Source\PSoC4/cyfitter_cfg.c **** 			{0x6Cu, 0x01u},
 544:Generated_Source\PSoC4/cyfitter_cfg.c **** 			{0x6Du, 0x81u},
 545:Generated_Source\PSoC4/cyfitter_cfg.c **** 			{0x6Eu, 0x3Au},
 546:Generated_Source\PSoC4/cyfitter_cfg.c **** 			{0x6Fu, 0x10u},
 547:Generated_Source\PSoC4/cyfitter_cfg.c **** 			{0x76u, 0x2Au},
 548:Generated_Source\PSoC4/cyfitter_cfg.c **** 			{0x7Au, 0x02u},
 549:Generated_Source\PSoC4/cyfitter_cfg.c **** 			{0x7Eu, 0x04u},
 550:Generated_Source\PSoC4/cyfitter_cfg.c **** 			{0x87u, 0x40u},
 551:Generated_Source\PSoC4/cyfitter_cfg.c **** 			{0xA2u, 0x02u},
 552:Generated_Source\PSoC4/cyfitter_cfg.c **** 			{0xAEu, 0x01u},
 553:Generated_Source\PSoC4/cyfitter_cfg.c **** 			{0xC0u, 0xF0u},
 554:Generated_Source\PSoC4/cyfitter_cfg.c **** 			{0xC2u, 0xF0u},
 555:Generated_Source\PSoC4/cyfitter_cfg.c **** 			{0xC4u, 0xC0u},
 556:Generated_Source\PSoC4/cyfitter_cfg.c **** 			{0xCAu, 0xF0u},
 557:Generated_Source\PSoC4/cyfitter_cfg.c **** 			{0xCCu, 0xF0u},
 558:Generated_Source\PSoC4/cyfitter_cfg.c **** 			{0xCEu, 0xF0u},
 559:Generated_Source\PSoC4/cyfitter_cfg.c **** 			{0xD0u, 0xE0u},
 560:Generated_Source\PSoC4/cyfitter_cfg.c **** 			{0xD8u, 0x10u},
 561:Generated_Source\PSoC4/cyfitter_cfg.c **** 			{0xDEu, 0x28u},
 562:Generated_Source\PSoC4/cyfitter_cfg.c **** 			{0x00u, 0x01u},
 563:Generated_Source\PSoC4/cyfitter_cfg.c **** 			{0x01u, 0x10u},
 564:Generated_Source\PSoC4/cyfitter_cfg.c **** 			{0x02u, 0x02u},
 565:Generated_Source\PSoC4/cyfitter_cfg.c **** 			{0x06u, 0x01u},
 566:Generated_Source\PSoC4/cyfitter_cfg.c **** 			{0x07u, 0x04u},
 567:Generated_Source\PSoC4/cyfitter_cfg.c **** 			{0x08u, 0xFFu},
 568:Generated_Source\PSoC4/cyfitter_cfg.c **** 			{0x09u, 0x01u},
 569:Generated_Source\PSoC4/cyfitter_cfg.c **** 			{0x0Cu, 0x01u},
 570:Generated_Source\PSoC4/cyfitter_cfg.c **** 			{0x0Du, 0x02u},
 571:Generated_Source\PSoC4/cyfitter_cfg.c **** 			{0x0Eu, 0x10u},
 572:Generated_Source\PSoC4/cyfitter_cfg.c **** 			{0x0Fu, 0x04u},
 573:Generated_Source\PSoC4/cyfitter_cfg.c **** 			{0x12u, 0xFEu},
 574:Generated_Source\PSoC4/cyfitter_cfg.c **** 			{0x13u, 0x02u},
 575:Generated_Source\PSoC4/cyfitter_cfg.c **** 			{0x14u, 0x01u},
 576:Generated_Source\PSoC4/cyfitter_cfg.c **** 			{0x16u, 0x80u},
 577:Generated_Source\PSoC4/cyfitter_cfg.c **** 			{0x18u, 0x01u},
 578:Generated_Source\PSoC4/cyfitter_cfg.c **** 			{0x1Au, 0x40u},
ARM GAS  C:\Users\psmus\AppData\Local\Temp\ccHyxx8W.s 			page 21


 579:Generated_Source\PSoC4/cyfitter_cfg.c **** 			{0x1Du, 0x01u},
 580:Generated_Source\PSoC4/cyfitter_cfg.c **** 			{0x1Eu, 0xFEu},
 581:Generated_Source\PSoC4/cyfitter_cfg.c **** 			{0x20u, 0x01u},
 582:Generated_Source\PSoC4/cyfitter_cfg.c **** 			{0x22u, 0x20u},
 583:Generated_Source\PSoC4/cyfitter_cfg.c **** 			{0x24u, 0x01u},
 584:Generated_Source\PSoC4/cyfitter_cfg.c **** 			{0x26u, 0x04u},
 585:Generated_Source\PSoC4/cyfitter_cfg.c **** 			{0x28u, 0x01u},
 586:Generated_Source\PSoC4/cyfitter_cfg.c **** 			{0x2Au, 0x08u},
 587:Generated_Source\PSoC4/cyfitter_cfg.c **** 			{0x2Fu, 0x08u},
 588:Generated_Source\PSoC4/cyfitter_cfg.c **** 			{0x30u, 0xFFu},
 589:Generated_Source\PSoC4/cyfitter_cfg.c **** 			{0x31u, 0x10u},
 590:Generated_Source\PSoC4/cyfitter_cfg.c **** 			{0x33u, 0x08u},
 591:Generated_Source\PSoC4/cyfitter_cfg.c **** 			{0x35u, 0x01u},
 592:Generated_Source\PSoC4/cyfitter_cfg.c **** 			{0x37u, 0x06u},
 593:Generated_Source\PSoC4/cyfitter_cfg.c **** 			{0x52u, 0x05u},
 594:Generated_Source\PSoC4/cyfitter_cfg.c **** 			{0x56u, 0x08u},
 595:Generated_Source\PSoC4/cyfitter_cfg.c **** 			{0x58u, 0x04u},
 596:Generated_Source\PSoC4/cyfitter_cfg.c **** 			{0x59u, 0x04u},
 597:Generated_Source\PSoC4/cyfitter_cfg.c **** 			{0x5Bu, 0x04u},
 598:Generated_Source\PSoC4/cyfitter_cfg.c **** 			{0x5Cu, 0x88u},
 599:Generated_Source\PSoC4/cyfitter_cfg.c **** 			{0x5Du, 0x80u},
 600:Generated_Source\PSoC4/cyfitter_cfg.c **** 			{0x5Fu, 0x11u},
 601:Generated_Source\PSoC4/cyfitter_cfg.c **** 			{0xD4u, 0x01u},
 602:Generated_Source\PSoC4/cyfitter_cfg.c **** 			{0xD6u, 0x04u},
 603:Generated_Source\PSoC4/cyfitter_cfg.c **** 			{0xDBu, 0x04u},
 604:Generated_Source\PSoC4/cyfitter_cfg.c **** 			{0xDDu, 0x80u},
 605:Generated_Source\PSoC4/cyfitter_cfg.c **** 			{0xDFu, 0x11u},
 606:Generated_Source\PSoC4/cyfitter_cfg.c **** 			{0x04u, 0x02u},
 607:Generated_Source\PSoC4/cyfitter_cfg.c **** 			{0x06u, 0x12u},
 608:Generated_Source\PSoC4/cyfitter_cfg.c **** 			{0x07u, 0x04u},
 609:Generated_Source\PSoC4/cyfitter_cfg.c **** 			{0x08u, 0x10u},
 610:Generated_Source\PSoC4/cyfitter_cfg.c **** 			{0x0Bu, 0x04u},
 611:Generated_Source\PSoC4/cyfitter_cfg.c **** 			{0x0Eu, 0x68u},
 612:Generated_Source\PSoC4/cyfitter_cfg.c **** 			{0x0Fu, 0x01u},
 613:Generated_Source\PSoC4/cyfitter_cfg.c **** 			{0x15u, 0x01u},
 614:Generated_Source\PSoC4/cyfitter_cfg.c **** 			{0x16u, 0x28u},
 615:Generated_Source\PSoC4/cyfitter_cfg.c **** 			{0x1Du, 0x01u},
 616:Generated_Source\PSoC4/cyfitter_cfg.c **** 			{0x1Eu, 0x40u},
 617:Generated_Source\PSoC4/cyfitter_cfg.c **** 			{0x1Fu, 0x02u},
 618:Generated_Source\PSoC4/cyfitter_cfg.c **** 			{0x27u, 0xAAu},
 619:Generated_Source\PSoC4/cyfitter_cfg.c **** 			{0x2Du, 0x40u},
 620:Generated_Source\PSoC4/cyfitter_cfg.c **** 			{0x37u, 0x82u},
 621:Generated_Source\PSoC4/cyfitter_cfg.c **** 			{0x3Du, 0x80u},
 622:Generated_Source\PSoC4/cyfitter_cfg.c **** 			{0x3Eu, 0x20u},
 623:Generated_Source\PSoC4/cyfitter_cfg.c **** 			{0x3Fu, 0x09u},
 624:Generated_Source\PSoC4/cyfitter_cfg.c **** 			{0x58u, 0x10u},
 625:Generated_Source\PSoC4/cyfitter_cfg.c **** 			{0x5Bu, 0x40u},
 626:Generated_Source\PSoC4/cyfitter_cfg.c **** 			{0x5Cu, 0x40u},
 627:Generated_Source\PSoC4/cyfitter_cfg.c **** 			{0x5Fu, 0x20u},
 628:Generated_Source\PSoC4/cyfitter_cfg.c **** 			{0x63u, 0x40u},
 629:Generated_Source\PSoC4/cyfitter_cfg.c **** 			{0x66u, 0x10u},
 630:Generated_Source\PSoC4/cyfitter_cfg.c **** 			{0x67u, 0x0Bu},
 631:Generated_Source\PSoC4/cyfitter_cfg.c **** 			{0x6Cu, 0x10u},
 632:Generated_Source\PSoC4/cyfitter_cfg.c **** 			{0x6Du, 0x40u},
 633:Generated_Source\PSoC4/cyfitter_cfg.c **** 			{0x7Bu, 0x08u},
 634:Generated_Source\PSoC4/cyfitter_cfg.c **** 			{0x7Eu, 0x04u},
 635:Generated_Source\PSoC4/cyfitter_cfg.c **** 			{0x7Fu, 0x08u},
ARM GAS  C:\Users\psmus\AppData\Local\Temp\ccHyxx8W.s 			page 22


 636:Generated_Source\PSoC4/cyfitter_cfg.c **** 			{0x80u, 0x01u},
 637:Generated_Source\PSoC4/cyfitter_cfg.c **** 			{0x83u, 0x08u},
 638:Generated_Source\PSoC4/cyfitter_cfg.c **** 			{0x87u, 0x02u},
 639:Generated_Source\PSoC4/cyfitter_cfg.c **** 			{0x8Bu, 0x04u},
 640:Generated_Source\PSoC4/cyfitter_cfg.c **** 			{0x90u, 0x42u},
 641:Generated_Source\PSoC4/cyfitter_cfg.c **** 			{0x91u, 0x01u},
 642:Generated_Source\PSoC4/cyfitter_cfg.c **** 			{0x92u, 0x08u},
 643:Generated_Source\PSoC4/cyfitter_cfg.c **** 			{0x93u, 0x04u},
 644:Generated_Source\PSoC4/cyfitter_cfg.c **** 			{0x94u, 0x20u},
 645:Generated_Source\PSoC4/cyfitter_cfg.c **** 			{0x97u, 0x4Au},
 646:Generated_Source\PSoC4/cyfitter_cfg.c **** 			{0x9Au, 0x2Au},
 647:Generated_Source\PSoC4/cyfitter_cfg.c **** 			{0x9Bu, 0x44u},
 648:Generated_Source\PSoC4/cyfitter_cfg.c **** 			{0x9Du, 0x01u},
 649:Generated_Source\PSoC4/cyfitter_cfg.c **** 			{0xA1u, 0x40u},
 650:Generated_Source\PSoC4/cyfitter_cfg.c **** 			{0xA2u, 0x14u},
 651:Generated_Source\PSoC4/cyfitter_cfg.c **** 			{0xA3u, 0x04u},
 652:Generated_Source\PSoC4/cyfitter_cfg.c **** 			{0xA7u, 0x02u},
 653:Generated_Source\PSoC4/cyfitter_cfg.c **** 			{0xB4u, 0x80u},
 654:Generated_Source\PSoC4/cyfitter_cfg.c **** 			{0xB6u, 0x48u},
 655:Generated_Source\PSoC4/cyfitter_cfg.c **** 			{0xC0u, 0xF0u},
 656:Generated_Source\PSoC4/cyfitter_cfg.c **** 			{0xC2u, 0xF0u},
 657:Generated_Source\PSoC4/cyfitter_cfg.c **** 			{0xC4u, 0x70u},
 658:Generated_Source\PSoC4/cyfitter_cfg.c **** 			{0xCAu, 0x10u},
 659:Generated_Source\PSoC4/cyfitter_cfg.c **** 			{0xCCu, 0x90u},
 660:Generated_Source\PSoC4/cyfitter_cfg.c **** 			{0xCEu, 0xF0u},
 661:Generated_Source\PSoC4/cyfitter_cfg.c **** 			{0xD6u, 0x3Cu},
 662:Generated_Source\PSoC4/cyfitter_cfg.c **** 			{0xD8u, 0x31u},
 663:Generated_Source\PSoC4/cyfitter_cfg.c **** 			{0xDEu, 0x24u},
 664:Generated_Source\PSoC4/cyfitter_cfg.c **** 			{0xE0u, 0x04u},
 665:Generated_Source\PSoC4/cyfitter_cfg.c **** 			{0xE4u, 0x06u},
 666:Generated_Source\PSoC4/cyfitter_cfg.c **** 			{0x61u, 0x02u},
 667:Generated_Source\PSoC4/cyfitter_cfg.c **** 			{0x68u, 0x10u},
 668:Generated_Source\PSoC4/cyfitter_cfg.c **** 			{0x6Du, 0x08u},
 669:Generated_Source\PSoC4/cyfitter_cfg.c **** 			{0x73u, 0x22u},
 670:Generated_Source\PSoC4/cyfitter_cfg.c **** 			{0x77u, 0x01u},
 671:Generated_Source\PSoC4/cyfitter_cfg.c **** 			{0x83u, 0x20u},
 672:Generated_Source\PSoC4/cyfitter_cfg.c **** 			{0x84u, 0x10u},
 673:Generated_Source\PSoC4/cyfitter_cfg.c **** 			{0xD8u, 0x40u},
 674:Generated_Source\PSoC4/cyfitter_cfg.c **** 			{0xDAu, 0xC0u},
 675:Generated_Source\PSoC4/cyfitter_cfg.c **** 			{0xDCu, 0xE0u},
 676:Generated_Source\PSoC4/cyfitter_cfg.c **** 			{0xE2u, 0x90u},
 677:Generated_Source\PSoC4/cyfitter_cfg.c **** 			{0x2Bu, 0x40u},
 678:Generated_Source\PSoC4/cyfitter_cfg.c **** 			{0x2Du, 0x08u},
 679:Generated_Source\PSoC4/cyfitter_cfg.c **** 			{0x53u, 0x10u},
 680:Generated_Source\PSoC4/cyfitter_cfg.c **** 			{0x89u, 0x08u},
 681:Generated_Source\PSoC4/cyfitter_cfg.c **** 			{0x8Fu, 0x40u},
 682:Generated_Source\PSoC4/cyfitter_cfg.c **** 			{0x9Fu, 0x03u},
 683:Generated_Source\PSoC4/cyfitter_cfg.c **** 			{0xA5u, 0x04u},
 684:Generated_Source\PSoC4/cyfitter_cfg.c **** 			{0xB1u, 0x02u},
 685:Generated_Source\PSoC4/cyfitter_cfg.c **** 			{0xCAu, 0xC0u},
 686:Generated_Source\PSoC4/cyfitter_cfg.c **** 			{0xD4u, 0x20u},
 687:Generated_Source\PSoC4/cyfitter_cfg.c **** 			{0x87u, 0x02u},
 688:Generated_Source\PSoC4/cyfitter_cfg.c **** 			{0x9Fu, 0x03u},
 689:Generated_Source\PSoC4/cyfitter_cfg.c **** 			{0xA5u, 0x04u},
 690:Generated_Source\PSoC4/cyfitter_cfg.c **** 			{0xAFu, 0x10u},
 691:Generated_Source\PSoC4/cyfitter_cfg.c **** 			{0xE6u, 0x40u},
 692:Generated_Source\PSoC4/cyfitter_cfg.c **** 			{0xEEu, 0x40u},
ARM GAS  C:\Users\psmus\AppData\Local\Temp\ccHyxx8W.s 			page 23


 693:Generated_Source\PSoC4/cyfitter_cfg.c **** 			{0x11u, 0x08u},
 694:Generated_Source\PSoC4/cyfitter_cfg.c **** 			{0x17u, 0x01u},
 695:Generated_Source\PSoC4/cyfitter_cfg.c **** 			{0x9Fu, 0x01u},
 696:Generated_Source\PSoC4/cyfitter_cfg.c **** 			{0xA5u, 0x04u},
 697:Generated_Source\PSoC4/cyfitter_cfg.c **** 			{0xC4u, 0x30u},
 698:Generated_Source\PSoC4/cyfitter_cfg.c **** 			{0x00u, 0x08u},
 699:Generated_Source\PSoC4/cyfitter_cfg.c **** 			{0x1Eu, 0x01u},
 700:Generated_Source\PSoC4/cyfitter_cfg.c **** 			{0x25u, 0x02u},
 701:Generated_Source\PSoC4/cyfitter_cfg.c **** 			{0x28u, 0x08u},
 702:Generated_Source\PSoC4/cyfitter_cfg.c **** 			{0x85u, 0x02u},
 703:Generated_Source\PSoC4/cyfitter_cfg.c **** 			{0x86u, 0x01u},
 704:Generated_Source\PSoC4/cyfitter_cfg.c **** 			{0xC0u, 0x08u},
 705:Generated_Source\PSoC4/cyfitter_cfg.c **** 			{0xC6u, 0x01u},
 706:Generated_Source\PSoC4/cyfitter_cfg.c **** 			{0xC8u, 0x01u},
 707:Generated_Source\PSoC4/cyfitter_cfg.c **** 			{0xCAu, 0x08u},
 708:Generated_Source\PSoC4/cyfitter_cfg.c **** 			{0x4Bu, 0x08u},
 709:Generated_Source\PSoC4/cyfitter_cfg.c **** 			{0x4Fu, 0x80u},
 710:Generated_Source\PSoC4/cyfitter_cfg.c **** 			{0x8Bu, 0x04u},
 711:Generated_Source\PSoC4/cyfitter_cfg.c **** 			{0x8Fu, 0x40u},
 712:Generated_Source\PSoC4/cyfitter_cfg.c **** 			{0xACu, 0x08u},
 713:Generated_Source\PSoC4/cyfitter_cfg.c **** 			{0xB0u, 0x04u},
 714:Generated_Source\PSoC4/cyfitter_cfg.c **** 			{0xD2u, 0x06u},
 715:Generated_Source\PSoC4/cyfitter_cfg.c **** 			{0xE0u, 0x01u},
 716:Generated_Source\PSoC4/cyfitter_cfg.c **** 			{0xE4u, 0x02u},
 717:Generated_Source\PSoC4/cyfitter_cfg.c **** 			{0xEAu, 0x04u},
 718:Generated_Source\PSoC4/cyfitter_cfg.c **** 			{0x3Eu, 0x04u},
 719:Generated_Source\PSoC4/cyfitter_cfg.c **** 			{0x59u, 0x01u},
 720:Generated_Source\PSoC4/cyfitter_cfg.c **** 			{0x5Cu, 0x08u},
 721:Generated_Source\PSoC4/cyfitter_cfg.c **** 			{0x64u, 0x10u},
 722:Generated_Source\PSoC4/cyfitter_cfg.c **** 			{0x80u, 0x08u},
 723:Generated_Source\PSoC4/cyfitter_cfg.c **** 			{0x81u, 0x01u},
 724:Generated_Source\PSoC4/cyfitter_cfg.c **** 			{0x84u, 0x10u},
 725:Generated_Source\PSoC4/cyfitter_cfg.c **** 			{0x8Au, 0x04u},
 726:Generated_Source\PSoC4/cyfitter_cfg.c **** 			{0xCEu, 0x01u},
 727:Generated_Source\PSoC4/cyfitter_cfg.c **** 			{0xD6u, 0x03u},
 728:Generated_Source\PSoC4/cyfitter_cfg.c **** 			{0xD8u, 0x01u},
 729:Generated_Source\PSoC4/cyfitter_cfg.c **** 			{0xE4u, 0x04u},
 730:Generated_Source\PSoC4/cyfitter_cfg.c **** 			{0x01u, 0x01u},
 731:Generated_Source\PSoC4/cyfitter_cfg.c **** 			{0x10u, 0x01u},
 732:Generated_Source\PSoC4/cyfitter_cfg.c **** 		};
 733:Generated_Source\PSoC4/cyfitter_cfg.c **** 
 734:Generated_Source\PSoC4/cyfitter_cfg.c **** 
 735:Generated_Source\PSoC4/cyfitter_cfg.c **** 
 736:Generated_Source\PSoC4/cyfitter_cfg.c **** 		CYPACKED typedef struct {
 737:Generated_Source\PSoC4/cyfitter_cfg.c **** 			void CYFAR *address;
 738:Generated_Source\PSoC4/cyfitter_cfg.c **** 			uint16 size;
 739:Generated_Source\PSoC4/cyfitter_cfg.c **** 		} CYPACKED_ATTR cfg_memset_t;
 740:Generated_Source\PSoC4/cyfitter_cfg.c **** 
 741:Generated_Source\PSoC4/cyfitter_cfg.c **** 		static const cfg_memset_t CYCODE cfg_memset_list[] = {
 742:Generated_Source\PSoC4/cyfitter_cfg.c **** 			/* address, size */
 743:Generated_Source\PSoC4/cyfitter_cfg.c **** 			{(void CYFAR *)(CYDEV_UDB_P0_U0_BASE), 2048u},
 744:Generated_Source\PSoC4/cyfitter_cfg.c **** 			{(void CYFAR *)(CYDEV_UDB_DSI0_BASE), 2048u},
 745:Generated_Source\PSoC4/cyfitter_cfg.c **** 		};
 746:Generated_Source\PSoC4/cyfitter_cfg.c **** 
 747:Generated_Source\PSoC4/cyfitter_cfg.c **** 		uint8 CYDATA i;
 748:Generated_Source\PSoC4/cyfitter_cfg.c **** 
 749:Generated_Source\PSoC4/cyfitter_cfg.c **** 		/* Zero out critical memory blocks before beginning configuration */
ARM GAS  C:\Users\psmus\AppData\Local\Temp\ccHyxx8W.s 			page 24


 750:Generated_Source\PSoC4/cyfitter_cfg.c **** 		for (i = 0u; i < (sizeof(cfg_memset_list)/sizeof(cfg_memset_list[0])); i++)
 544              		.loc 1 750 0
 545 01f2 0024     		movs	r4, #0
 546 01f4 0FE0     		b	.L23
 547              	.LVL37:
 548              	.L24:
 549              	.LBB4:
 751:Generated_Source\PSoC4/cyfitter_cfg.c **** 		{
 752:Generated_Source\PSoC4/cyfitter_cfg.c **** 			const cfg_memset_t CYCODE * CYDATA ms = &cfg_memset_list[i];
 753:Generated_Source\PSoC4/cyfitter_cfg.c **** 			CYMEMZERO(ms->address, (size_t)(uint32)(ms->size));
 550              		.loc 1 753 0 discriminator 3
 551 01f6 4A48     		ldr	r0, .L25+4
 552 01f8 6200     		lsls	r2, r4, #1
 553 01fa 1319     		adds	r3, r2, r4
 554 01fc 5900     		lsls	r1, r3, #1
 555 01fe 0B00     		movs	r3, r1
 556 0200 4118     		adds	r1, r0, r1
 557 0202 8988     		ldrh	r1, [r1, #4]
 558 0204 1A5A     		ldrh	r2, [r3, r0]
 559 0206 C318     		adds	r3, r0, r3
 560 0208 5888     		ldrh	r0, [r3, #2]
 561 020a 0004     		lsls	r0, r0, #16
 562 020c 1043     		orrs	r0, r2
 563 020e FFF7FEFF 		bl	CYMEMZERO
 564              	.LVL38:
 565              	.LBE4:
 750:Generated_Source\PSoC4/cyfitter_cfg.c **** 		{
 566              		.loc 1 750 0 discriminator 3
 567 0212 0134     		adds	r4, r4, #1
 568              	.LVL39:
 569 0214 E4B2     		uxtb	r4, r4
 570              	.LVL40:
 571              	.L23:
 750:Generated_Source\PSoC4/cyfitter_cfg.c **** 		{
 572              		.loc 1 750 0 is_stmt 0 discriminator 1
 573 0216 012C     		cmp	r4, #1
 574 0218 EDD9     		bls	.L24
 754:Generated_Source\PSoC4/cyfitter_cfg.c **** 		}
 755:Generated_Source\PSoC4/cyfitter_cfg.c **** 
 756:Generated_Source\PSoC4/cyfitter_cfg.c **** 		cfg_write_bytes32(cy_cfg_addr_table, cy_cfg_data_table);
 575              		.loc 1 756 0 is_stmt 1
 576 021a 4149     		ldr	r1, .L25+4
 577 021c 0C31     		adds	r1, r1, #12
 578 021e 4148     		ldr	r0, .L25+8
 579 0220 1430     		adds	r0, r0, #20
 580 0222 FFF7FEFF 		bl	cfg_write_bytes32
 581              	.LVL41:
 757:Generated_Source\PSoC4/cyfitter_cfg.c **** 
 758:Generated_Source\PSoC4/cyfitter_cfg.c **** 		/* Perform normal device configuration. Order is not critical for these items. */
 759:Generated_Source\PSoC4/cyfitter_cfg.c **** 		CY_SET_REG8((void *)(CYREG_UDB_UDB_TR_CLK_CTL), 0x01u);
 582              		.loc 1 759 0
 583 0226 0121     		movs	r1, #1
 584 0228 3F4B     		ldr	r3, .L25+12
 585 022a 1970     		strb	r1, [r3]
 760:Generated_Source\PSoC4/cyfitter_cfg.c **** 
 761:Generated_Source\PSoC4/cyfitter_cfg.c **** 		/* HSIOM Starting address: CYDEV_HSIOM_BASE */
 762:Generated_Source\PSoC4/cyfitter_cfg.c **** 		CY_SET_REG32((void *)(CYREG_HSIOM_PORT_SEL1), 0x00000600u);
ARM GAS  C:\Users\psmus\AppData\Local\Temp\ccHyxx8W.s 			page 25


 586              		.loc 1 762 0
 587 022c C022     		movs	r2, #192
 588 022e D200     		lsls	r2, r2, #3
 589 0230 3E4B     		ldr	r3, .L25+16
 590 0232 1A60     		str	r2, [r3]
 763:Generated_Source\PSoC4/cyfitter_cfg.c **** 		CY_SET_REG32((void *)(CYREG_HSIOM_PORT_SEL2), 0x0000FFFFu);
 591              		.loc 1 763 0
 592 0234 3E4A     		ldr	r2, .L25+20
 593 0236 3F4B     		ldr	r3, .L25+24
 594 0238 1A60     		str	r2, [r3]
 764:Generated_Source\PSoC4/cyfitter_cfg.c **** 		CY_SET_REG32((void *)(CYREG_HSIOM_PORT_SEL3), 0x0333EE00u);
 595              		.loc 1 764 0
 596 023a 3F4A     		ldr	r2, .L25+28
 597 023c 3F4B     		ldr	r3, .L25+32
 598 023e 1A60     		str	r2, [r3]
 765:Generated_Source\PSoC4/cyfitter_cfg.c **** 		CY_SET_REG32((void *)(CYREG_HSIOM_PORT_SEL4), 0x000000EEu);
 599              		.loc 1 765 0
 600 0240 EE22     		movs	r2, #238
 601 0242 3F4B     		ldr	r3, .L25+36
 602 0244 1A60     		str	r2, [r3]
 766:Generated_Source\PSoC4/cyfitter_cfg.c **** 		CY_SET_REG32((void *)(CYREG_HSIOM_PORT_SEL5), 0x30000000u);
 603              		.loc 1 766 0
 604 0246 C022     		movs	r2, #192
 605 0248 9205     		lsls	r2, r2, #22
 606 024a 3E4B     		ldr	r3, .L25+40
 607 024c 1A60     		str	r2, [r3]
 767:Generated_Source\PSoC4/cyfitter_cfg.c **** 
 768:Generated_Source\PSoC4/cyfitter_cfg.c **** 		/* UDB_PA_0 Starting address: CYDEV_UDB_PA0_BASE */
 769:Generated_Source\PSoC4/cyfitter_cfg.c **** 		CY_SET_REG32((void *)(CYDEV_UDB_PA0_BASE), 0x00990000u);
 608              		.loc 1 769 0
 609 024e 9923     		movs	r3, #153
 610 0250 1B04     		lsls	r3, r3, #16
 611 0252 3D4A     		ldr	r2, .L25+44
 612 0254 1360     		str	r3, [r2]
 770:Generated_Source\PSoC4/cyfitter_cfg.c **** 		CY_SET_REG32((void *)(CYREG_UDB_PA0_CFG8), 0x80000000u);
 613              		.loc 1 770 0
 614 0256 8020     		movs	r0, #128
 615 0258 0006     		lsls	r0, r0, #24
 616 025a 3C4A     		ldr	r2, .L25+48
 617 025c 1060     		str	r0, [r2]
 771:Generated_Source\PSoC4/cyfitter_cfg.c **** 
 772:Generated_Source\PSoC4/cyfitter_cfg.c **** 		/* UDB_PA_1 Starting address: CYDEV_UDB_PA1_BASE */
 773:Generated_Source\PSoC4/cyfitter_cfg.c **** 		CY_SET_REG32((void *)(CYDEV_UDB_PA1_BASE), 0x00990000u);
 618              		.loc 1 773 0
 619 025e 3C4A     		ldr	r2, .L25+52
 620 0260 1360     		str	r3, [r2]
 774:Generated_Source\PSoC4/cyfitter_cfg.c **** 		CY_SET_REG32((void *)(CYREG_UDB_PA1_CFG8), 0x00450000u);
 621              		.loc 1 774 0
 622 0262 8A20     		movs	r0, #138
 623 0264 C003     		lsls	r0, r0, #15
 624 0266 3B4A     		ldr	r2, .L25+56
 625 0268 1060     		str	r0, [r2]
 775:Generated_Source\PSoC4/cyfitter_cfg.c **** 
 776:Generated_Source\PSoC4/cyfitter_cfg.c **** 		/* UDB_PA_2 Starting address: CYDEV_UDB_PA2_BASE */
 777:Generated_Source\PSoC4/cyfitter_cfg.c **** 		CY_SET_REG32((void *)(CYDEV_UDB_PA2_BASE), 0x00990000u);
 626              		.loc 1 777 0
 627 026a 3B4A     		ldr	r2, .L25+60
ARM GAS  C:\Users\psmus\AppData\Local\Temp\ccHyxx8W.s 			page 26


 628 026c 1360     		str	r3, [r2]
 778:Generated_Source\PSoC4/cyfitter_cfg.c **** 
 779:Generated_Source\PSoC4/cyfitter_cfg.c **** 		/* UDB_PA_4 Starting address: CYDEV_UDB_PA4_BASE */
 780:Generated_Source\PSoC4/cyfitter_cfg.c **** 		CY_SET_REG32((void *)(CYDEV_UDB_PA4_BASE), 0x00990000u);
 629              		.loc 1 780 0
 630 026e 3B4A     		ldr	r2, .L25+64
 631 0270 1360     		str	r3, [r2]
 781:Generated_Source\PSoC4/cyfitter_cfg.c **** 
 782:Generated_Source\PSoC4/cyfitter_cfg.c **** 		/* UDB_PA_5 Starting address: CYDEV_UDB_PA5_BASE */
 783:Generated_Source\PSoC4/cyfitter_cfg.c **** 		CY_SET_REG32((void *)(CYDEV_UDB_PA5_BASE), 0x00990000u);
 632              		.loc 1 783 0
 633 0272 3B4A     		ldr	r2, .L25+68
 634 0274 1360     		str	r3, [r2]
 784:Generated_Source\PSoC4/cyfitter_cfg.c **** 
 785:Generated_Source\PSoC4/cyfitter_cfg.c **** 		/* UDB_PA_7 Starting address: CYDEV_UDB_PA7_BASE */
 786:Generated_Source\PSoC4/cyfitter_cfg.c **** 		CY_SET_REG32((void *)(CYDEV_UDB_PA7_BASE), 0x00990000u);
 635              		.loc 1 786 0
 636 0276 3B4A     		ldr	r2, .L25+72
 637 0278 1360     		str	r3, [r2]
 787:Generated_Source\PSoC4/cyfitter_cfg.c **** 		CY_SET_REG32((void *)(CYREG_UDB_PA7_CFG8), 0xB1000000u);
 638              		.loc 1 787 0
 639 027a B122     		movs	r2, #177
 640 027c 1206     		lsls	r2, r2, #24
 641 027e 3A4B     		ldr	r3, .L25+76
 642 0280 1A60     		str	r2, [r3]
 788:Generated_Source\PSoC4/cyfitter_cfg.c **** 
 789:Generated_Source\PSoC4/cyfitter_cfg.c **** 		/* TCPWM_CNT0 Starting address: CYDEV_TCPWM_CNT0_TR_CTRL0 */
 790:Generated_Source\PSoC4/cyfitter_cfg.c **** 		CY_SET_REG32((void *)(CYREG_TCPWM_CNT0_TR_CTRL0), 0x000000F0u);
 643              		.loc 1 790 0
 644 0282 F022     		movs	r2, #240
 645 0284 394B     		ldr	r3, .L25+80
 646 0286 1A60     		str	r2, [r3]
 791:Generated_Source\PSoC4/cyfitter_cfg.c **** 
 792:Generated_Source\PSoC4/cyfitter_cfg.c **** 		/* TCPWM_CNT1 Starting address: CYDEV_TCPWM_CNT1_TR_CTRL0 */
 793:Generated_Source\PSoC4/cyfitter_cfg.c **** 		CY_SET_REG32((void *)(CYREG_TCPWM_CNT1_TR_CTRL0), 0x000000E0u);
 647              		.loc 1 793 0
 648 0288 103A     		subs	r2, r2, #16
 649 028a 394B     		ldr	r3, .L25+84
 650 028c 1A60     		str	r2, [r3]
 794:Generated_Source\PSoC4/cyfitter_cfg.c **** 
 795:Generated_Source\PSoC4/cyfitter_cfg.c **** 		/* INT_SELECT Starting address: CYDEV_CPUSS_INT_SEL */
 796:Generated_Source\PSoC4/cyfitter_cfg.c **** 		CY_SET_REG32((void *)(CYREG_CPUSS_INT_SEL), 0x0000001Fu);
 651              		.loc 1 796 0
 652 028e C13A     		subs	r2, r2, #193
 653 0290 384B     		ldr	r3, .L25+88
 654 0292 1A60     		str	r2, [r3]
 797:Generated_Source\PSoC4/cyfitter_cfg.c **** 
 798:Generated_Source\PSoC4/cyfitter_cfg.c **** 		/* TR_GROUP0 Starting address: CYDEV_PERI_TR_GROUP0_TR_OUT_CTL0 */
 799:Generated_Source\PSoC4/cyfitter_cfg.c **** 		CY_SET_REG32((void *)(CYREG_PERI_TR_GROUP0_TR_OUT_CTL0), 0x0000001Du);
 655              		.loc 1 799 0
 656 0294 023A     		subs	r2, r2, #2
 657 0296 384B     		ldr	r3, .L25+92
 658 0298 1A60     		str	r2, [r3]
 800:Generated_Source\PSoC4/cyfitter_cfg.c **** 		CY_SET_REG32((void *)(CYREG_PERI_TR_GROUP0_TR_OUT_CTL1), 0x0000002Fu);
 659              		.loc 1 800 0
 660 029a 1232     		adds	r2, r2, #18
 661 029c 374B     		ldr	r3, .L25+96
ARM GAS  C:\Users\psmus\AppData\Local\Temp\ccHyxx8W.s 			page 27


 662 029e 1A60     		str	r2, [r3]
 801:Generated_Source\PSoC4/cyfitter_cfg.c **** 		CY_SET_REG32((void *)(CYREG_PERI_TR_GROUP0_TR_OUT_CTL2), 0x0000001Cu);
 663              		.loc 1 801 0
 664 02a0 133A     		subs	r2, r2, #19
 665 02a2 374B     		ldr	r3, .L25+100
 666 02a4 1A60     		str	r2, [r3]
 802:Generated_Source\PSoC4/cyfitter_cfg.c **** 
 803:Generated_Source\PSoC4/cyfitter_cfg.c **** 		/* INT_CONFIG Starting address: CYDEV_UDB_INT_CFG */
 804:Generated_Source\PSoC4/cyfitter_cfg.c **** 		CY_SET_REG32((void *)(CYREG_UDB_INT_CFG), 0x0000001Eu);
 667              		.loc 1 804 0
 668 02a6 0232     		adds	r2, r2, #2
 669 02a8 364B     		ldr	r3, .L25+104
 670 02aa 1A60     		str	r2, [r3]
 805:Generated_Source\PSoC4/cyfitter_cfg.c **** 
 806:Generated_Source\PSoC4/cyfitter_cfg.c **** 		/* Enable UDB array and digital routing */
 807:Generated_Source\PSoC4/cyfitter_cfg.c **** 		CY_SET_XTND_REG8((void *)CYREG_UDB_UDB_WAIT_CFG, (uint8)((CY_GET_XTND_REG8((void *)CYREG_UDB_UDB_
 671              		.loc 1 807 0
 672 02ac 3648     		ldr	r0, .L25+108
 673 02ae 0378     		ldrb	r3, [r0]
 674 02b0 1E32     		adds	r2, r2, #30
 675 02b2 9343     		bics	r3, r2
 676 02b4 1422     		movs	r2, #20
 677 02b6 1343     		orrs	r3, r2
 678 02b8 DBB2     		uxtb	r3, r3
 679 02ba 0370     		strb	r3, [r0]
 808:Generated_Source\PSoC4/cyfitter_cfg.c **** 		CY_SET_XTND_REG8((void *)CYREG_UDB_UDB_BANK_CTL, (uint8)(CY_GET_XTND_REG8((void *)CYREG_UDB_UDB_B
 680              		.loc 1 808 0
 681 02bc 334A     		ldr	r2, .L25+112
 682 02be 1078     		ldrb	r0, [r2]
 683 02c0 1623     		movs	r3, #22
 684 02c2 0343     		orrs	r3, r0
 685 02c4 DBB2     		uxtb	r3, r3
 686 02c6 1370     		strb	r3, [r2]
 687              	.LBE3:
 809:Generated_Source\PSoC4/cyfitter_cfg.c **** 	}
 810:Generated_Source\PSoC4/cyfitter_cfg.c **** 
 811:Generated_Source\PSoC4/cyfitter_cfg.c **** 	/* Perform second pass device configuration. These items must be configured in specific order afte
 812:Generated_Source\PSoC4/cyfitter_cfg.c **** 	/* IOPINS0_0 Starting address: CYDEV_GPIO_PRT0_BASE */
 813:Generated_Source\PSoC4/cyfitter_cfg.c **** 	CY_SET_REG32((void *)(CYDEV_GPIO_PRT0_BASE), 0x00000001u);
 688              		.loc 1 813 0
 689 02c8 314B     		ldr	r3, .L25+116
 690 02ca 1960     		str	r1, [r3]
 814:Generated_Source\PSoC4/cyfitter_cfg.c **** 	CY_SET_REG32((void *)(CYREG_GPIO_PRT0_PC), 0x00000002u);
 691              		.loc 1 814 0
 692 02cc 0222     		movs	r2, #2
 693 02ce 314B     		ldr	r3, .L25+120
 694 02d0 1A60     		str	r2, [r3]
 815:Generated_Source\PSoC4/cyfitter_cfg.c **** 
 816:Generated_Source\PSoC4/cyfitter_cfg.c **** 	/* IOPINS0_1 Starting address: CYDEV_GPIO_PRT1_BASE */
 817:Generated_Source\PSoC4/cyfitter_cfg.c **** 	CY_SET_REG32((void *)(CYDEV_GPIO_PRT1_BASE), 0x00000004u);
 695              		.loc 1 817 0
 696 02d2 0423     		movs	r3, #4
 697 02d4 304A     		ldr	r2, .L25+124
 698 02d6 1360     		str	r3, [r2]
 818:Generated_Source\PSoC4/cyfitter_cfg.c **** 	CY_SET_REG32((void *)(CYREG_GPIO_PRT1_PC2), 0x00000004u);
 699              		.loc 1 818 0
 700 02d8 304A     		ldr	r2, .L25+128
ARM GAS  C:\Users\psmus\AppData\Local\Temp\ccHyxx8W.s 			page 28


 701 02da 1360     		str	r3, [r2]
 819:Generated_Source\PSoC4/cyfitter_cfg.c **** 
 820:Generated_Source\PSoC4/cyfitter_cfg.c **** 	/* IOPINS0_2 Starting address: CYDEV_GPIO_PRT2_BASE */
 821:Generated_Source\PSoC4/cyfitter_cfg.c **** 	CY_SET_REG32((void *)(CYDEV_GPIO_PRT2_BASE), 0x000000EDu);
 702              		.loc 1 821 0
 703 02dc E933     		adds	r3, r3, #233
 704 02de 304A     		ldr	r2, .L25+132
 705 02e0 1360     		str	r3, [r2]
 822:Generated_Source\PSoC4/cyfitter_cfg.c **** 	CY_SET_REG32((void *)(CYREG_GPIO_PRT2_PC), 0x00006D8Eu);
 706              		.loc 1 822 0
 707 02e2 3049     		ldr	r1, .L25+136
 708 02e4 304A     		ldr	r2, .L25+140
 709 02e6 1160     		str	r1, [r2]
 823:Generated_Source\PSoC4/cyfitter_cfg.c **** 	CY_SET_REG32((void *)(CYREG_GPIO_PRT2_PC2), 0x000000EDu);
 710              		.loc 1 823 0
 711 02e8 304A     		ldr	r2, .L25+144
 712 02ea 1360     		str	r3, [r2]
 824:Generated_Source\PSoC4/cyfitter_cfg.c **** 
 825:Generated_Source\PSoC4/cyfitter_cfg.c **** 	/* IOPINS0_3 Starting address: CYDEV_GPIO_PRT3_BASE */
 826:Generated_Source\PSoC4/cyfitter_cfg.c **** 	CY_SET_REG32((void *)(CYDEV_GPIO_PRT3_BASE), 0x00000070u);
 713              		.loc 1 826 0
 714 02ec 7022     		movs	r2, #112
 715 02ee 304B     		ldr	r3, .L25+148
 716 02f0 1A60     		str	r2, [r3]
 827:Generated_Source\PSoC4/cyfitter_cfg.c **** 	CY_SET_REG32((void *)(CYREG_GPIO_PRT3_PC), 0x001B6D80u);
 717              		.loc 1 827 0
 718 02f2 304A     		ldr	r2, .L25+152
 719 02f4 304B     		ldr	r3, .L25+156
 720 02f6 1A60     		str	r2, [r3]
 828:Generated_Source\PSoC4/cyfitter_cfg.c **** 
 829:Generated_Source\PSoC4/cyfitter_cfg.c **** 	/* IOPINS0_4 Starting address: CYDEV_GPIO_PRT4_BASE */
 830:Generated_Source\PSoC4/cyfitter_cfg.c **** 	CY_SET_REG32((void *)(CYDEV_GPIO_PRT4_BASE), 0x00000003u);
 721              		.loc 1 830 0
 722 02f8 0322     		movs	r2, #3
 723 02fa 304B     		ldr	r3, .L25+160
 724 02fc 1A60     		str	r2, [r3]
 831:Generated_Source\PSoC4/cyfitter_cfg.c **** 	CY_SET_REG32((void *)(CYREG_GPIO_PRT4_PC), 0x00000024u);
 725              		.loc 1 831 0
 726 02fe 2132     		adds	r2, r2, #33
 727 0300 2F4B     		ldr	r3, .L25+164
 728 0302 1A60     		str	r2, [r3]
 832:Generated_Source\PSoC4/cyfitter_cfg.c **** 
 833:Generated_Source\PSoC4/cyfitter_cfg.c **** 	/* IOPINS0_5 Starting address: CYDEV_GPIO_PRT5_BASE */
 834:Generated_Source\PSoC4/cyfitter_cfg.c **** 	CY_SET_REG32((void *)(CYDEV_GPIO_PRT5_BASE), 0x00000090u);
 729              		.loc 1 834 0
 730 0304 6C32     		adds	r2, r2, #108
 731 0306 2F4B     		ldr	r3, .L25+168
 732 0308 1A60     		str	r2, [r3]
 835:Generated_Source\PSoC4/cyfitter_cfg.c **** 	CY_SET_REG32((void *)(CYREG_GPIO_PRT5_PC), 0x00C02000u);
 733              		.loc 1 835 0
 734 030a 2F4A     		ldr	r2, .L25+172
 735 030c 2F4B     		ldr	r3, .L25+176
 736 030e 1A60     		str	r2, [r3]
 836:Generated_Source\PSoC4/cyfitter_cfg.c **** 
 837:Generated_Source\PSoC4/cyfitter_cfg.c **** 
 838:Generated_Source\PSoC4/cyfitter_cfg.c **** 	/* Setup clocks based on selections from Clock DWR */
 839:Generated_Source\PSoC4/cyfitter_cfg.c **** 	ClockSetup();
ARM GAS  C:\Users\psmus\AppData\Local\Temp\ccHyxx8W.s 			page 29


 737              		.loc 1 839 0
 738 0310 FFF776FE 		bl	ClockSetup
 739              	.LVL42:
 840:Generated_Source\PSoC4/cyfitter_cfg.c **** 
 841:Generated_Source\PSoC4/cyfitter_cfg.c **** 	/* Perform basic analog initialization to defaults */
 842:Generated_Source\PSoC4/cyfitter_cfg.c **** 	AnalogSetDefault();
 740              		.loc 1 842 0
 741 0314 FFF7FEFF 		bl	AnalogSetDefault
 742              	.LVL43:
 843:Generated_Source\PSoC4/cyfitter_cfg.c **** 
 844:Generated_Source\PSoC4/cyfitter_cfg.c **** }
 743              		.loc 1 844 0
 744              		@ sp needed
 745              	.LVL44:
 746 0318 10BD     		pop	{r4, pc}
 747              	.L26:
 748 031a C046     		.align	2
 749              	.L25:
 750 031c 1C700F40 		.word	1074753564
 751 0320 00000000 		.word	.LANCHOR0
 752 0324 80020000 		.word	.LANCHOR1
 753 0328 20700F40 		.word	1074753568
 754 032c 00010240 		.word	1073873152
 755 0330 FFFF0000 		.word	65535
 756 0334 00020240 		.word	1073873408
 757 0338 00EE3303 		.word	53734912
 758 033c 00030240 		.word	1073873664
 759 0340 00040240 		.word	1073873920
 760 0344 00050240 		.word	1073874176
 761 0348 00500F40 		.word	1074745344
 762 034c 08500F40 		.word	1074745352
 763 0350 10500F40 		.word	1074745360
 764 0354 18500F40 		.word	1074745368
 765 0358 20500F40 		.word	1074745376
 766 035c 40500F40 		.word	1074745408
 767 0360 50500F40 		.word	1074745424
 768 0364 70500F40 		.word	1074745456
 769 0368 78500F40 		.word	1074745464
 770 036c 20012040 		.word	1075839264
 771 0370 60012040 		.word	1075839328
 772 0374 20001040 		.word	1074790432
 773 0378 00200140 		.word	1073815552
 774 037c 04200140 		.word	1073815556
 775 0380 08200140 		.word	1073815560
 776 0384 00800F40 		.word	1074757632
 777 0388 01700F40 		.word	1074753537
 778 038c 00700F40 		.word	1074753536
 779 0390 00000440 		.word	1074003968
 780 0394 08000440 		.word	1074003976
 781 0398 00010440 		.word	1074004224
 782 039c 18010440 		.word	1074004248
 783 03a0 00020440 		.word	1074004480
 784 03a4 8E6D0000 		.word	28046
 785 03a8 08020440 		.word	1074004488
 786 03ac 18020440 		.word	1074004504
 787 03b0 00030440 		.word	1074004736
 788 03b4 806D1B00 		.word	1797504
ARM GAS  C:\Users\psmus\AppData\Local\Temp\ccHyxx8W.s 			page 30


 789 03b8 08030440 		.word	1074004744
 790 03bc 00040440 		.word	1074004992
 791 03c0 08040440 		.word	1074005000
 792 03c4 00050440 		.word	1074005248
 793 03c8 0020C000 		.word	12591104
 794 03cc 08050440 		.word	1074005256
 795              		.cfi_endproc
 796              	.LFE8:
 797              		.size	cyfitter_cfg, .-cyfitter_cfg
 798              		.section	.rodata
 799              		.align	2
 800              		.set	.LANCHOR0,. + 0
 801              		.set	.LANCHOR1,. + 640
 802              		.type	cfg_memset_list.4992, %object
 803              		.size	cfg_memset_list.4992, 12
 804              	cfg_memset_list.4992:
 805 0000 00300F40 		.word	1074737152
 806 0004 0008     		.short	2048
 807 0006 00400F40 		.4byte	1074741248
 808 000a 0008     		.short	2048
 809              		.type	cy_cfg_data_table.4987, %object
 810              		.size	cy_cfg_data_table.4987, 648
 811              	cy_cfg_data_table.4987:
 812 000c 85       		.byte	-123
 813 000d 7F       		.byte	127
 814 000e 2F       		.byte	47
 815 000f 01       		.byte	1
 816 0010 33       		.byte	51
 817 0011 01       		.byte	1
 818 0012 59       		.byte	89
 819 0013 04       		.byte	4
 820 0014 5F       		.byte	95
 821 0015 01       		.byte	1
 822 0016 86       		.byte	-122
 823 0017 02       		.byte	2
 824 0018 8E       		.byte	-114
 825 0019 01       		.byte	1
 826 001a AC       		.byte	-84
 827 001b 01       		.byte	1
 828 001c AE       		.byte	-82
 829 001d 02       		.byte	2
 830 001e B6       		.byte	-74
 831 001f 03       		.byte	3
 832 0020 BB       		.byte	-69
 833 0021 03       		.byte	3
 834 0022 BE       		.byte	-66
 835 0023 40       		.byte	64
 836 0024 D8       		.byte	-40
 837 0025 04       		.byte	4
 838 0026 D9       		.byte	-39
 839 0027 04       		.byte	4
 840 0028 DB       		.byte	-37
 841 0029 04       		.byte	4
 842 002a DC       		.byte	-36
 843 002b 80       		.byte	-128
 844 002c DF       		.byte	-33
 845 002d 31       		.byte	49
ARM GAS  C:\Users\psmus\AppData\Local\Temp\ccHyxx8W.s 			page 31


 846 002e 06       		.byte	6
 847 002f 12       		.byte	18
 848 0030 15       		.byte	21
 849 0031 40       		.byte	64
 850 0032 1F       		.byte	31
 851 0033 80       		.byte	-128
 852 0034 21       		.byte	33
 853 0035 08       		.byte	8
 854 0036 26       		.byte	38
 855 0037 02       		.byte	2
 856 0038 27       		.byte	39
 857 0039 80       		.byte	-128
 858 003a 28       		.byte	40
 859 003b 02       		.byte	2
 860 003c 6D       		.byte	109
 861 003d 40       		.byte	64
 862 003e 7F       		.byte	127
 863 003f 80       		.byte	-128
 864 0040 81       		.byte	-127
 865 0041 08       		.byte	8
 866 0042 86       		.byte	-122
 867 0043 10       		.byte	16
 868 0044 C0       		.byte	-64
 869 0045 A0       		.byte	-96
 870 0046 C4       		.byte	-60
 871 0047 80       		.byte	-128
 872 0048 CA       		.byte	-54
 873 0049 08       		.byte	8
 874 004a DE       		.byte	-34
 875 004b 80       		.byte	-128
 876 004c E2       		.byte	-30
 877 004d 0A       		.byte	10
 878 004e B6       		.byte	-74
 879 004f 01       		.byte	1
 880 0050 BE       		.byte	-66
 881 0051 40       		.byte	64
 882 0052 D8       		.byte	-40
 883 0053 04       		.byte	4
 884 0054 DF       		.byte	-33
 885 0055 01       		.byte	1
 886 0056 1A       		.byte	26
 887 0057 02       		.byte	2
 888 0058 A2       		.byte	-94
 889 0059 02       		.byte	2
 890 005a AE       		.byte	-82
 891 005b 02       		.byte	2
 892 005c B0       		.byte	-80
 893 005d 02       		.byte	2
 894 005e B3       		.byte	-77
 895 005f 80       		.byte	-128
 896 0060 E0       		.byte	-32
 897 0061 80       		.byte	-128
 898 0062 E4       		.byte	-28
 899 0063 40       		.byte	64
 900 0064 EE       		.byte	-18
 901 0065 28       		.byte	40
 902 0066 3A       		.byte	58
ARM GAS  C:\Users\psmus\AppData\Local\Temp\ccHyxx8W.s 			page 32


 903 0067 30       		.byte	48
 904 0068 58       		.byte	88
 905 0069 04       		.byte	4
 906 006a 5C       		.byte	92
 907 006b 08       		.byte	8
 908 006c 5F       		.byte	95
 909 006d 01       		.byte	1
 910 006e 80       		.byte	-128
 911 006f 10       		.byte	16
 912 0070 83       		.byte	-125
 913 0071 02       		.byte	2
 914 0072 84       		.byte	-124
 915 0073 04       		.byte	4
 916 0074 87       		.byte	-121
 917 0075 01       		.byte	1
 918 0076 8A       		.byte	-118
 919 0077 20       		.byte	32
 920 0078 8B       		.byte	-117
 921 0079 03       		.byte	3
 922 007a 8C       		.byte	-116
 923 007b 0F       		.byte	15
 924 007c 8F       		.byte	-113
 925 007d 50       		.byte	80
 926 007e 90       		.byte	-112
 927 007f 0F       		.byte	15
 928 0080 93       		.byte	-109
 929 0081 03       		.byte	3
 930 0082 94       		.byte	-108
 931 0083 08       		.byte	8
 932 0084 97       		.byte	-105
 933 0085 20       		.byte	32
 934 0086 98       		.byte	-104
 935 0087 0F       		.byte	15
 936 0088 9B       		.byte	-101
 937 0089 03       		.byte	3
 938 008a 9C       		.byte	-100
 939 008b 02       		.byte	2
 940 008c 9D       		.byte	-99
 941 008d 03       		.byte	3
 942 008e 9F       		.byte	-97
 943 008f 58       		.byte	88
 944 0090 A1       		.byte	-95
 945 0091 53       		.byte	83
 946 0092 A3       		.byte	-93
 947 0093 08       		.byte	8
 948 0094 A5       		.byte	-91
 949 0095 53       		.byte	83
 950 0096 A7       		.byte	-89
 951 0097 08       		.byte	8
 952 0098 A8       		.byte	-88
 953 0099 01       		.byte	1
 954 009a AB       		.byte	-85
 955 009b 60       		.byte	96
 956 009c AC       		.byte	-84
 957 009d 01       		.byte	1
 958 009e AD       		.byte	-83
 959 009f 04       		.byte	4
ARM GAS  C:\Users\psmus\AppData\Local\Temp\ccHyxx8W.s 			page 33


 960 00a0 B0       		.byte	-80
 961 00a1 20       		.byte	32
 962 00a2 B1       		.byte	-79
 963 00a3 10       		.byte	16
 964 00a4 B3       		.byte	-77
 965 00a5 04       		.byte	4
 966 00a6 B4       		.byte	-76
 967 00a7 1F       		.byte	31
 968 00a8 B5       		.byte	-75
 969 00a9 60       		.byte	96
 970 00aa B7       		.byte	-73
 971 00ab 0F       		.byte	15
 972 00ac BF       		.byte	-65
 973 00ad 01       		.byte	1
 974 00ae C0       		.byte	-64
 975 00af 24       		.byte	36
 976 00b0 C1       		.byte	-63
 977 00b1 03       		.byte	3
 978 00b2 C5       		.byte	-59
 979 00b3 0E       		.byte	14
 980 00b4 C6       		.byte	-58
 981 00b5 0C       		.byte	12
 982 00b6 C7       		.byte	-57
 983 00b7 0B       		.byte	11
 984 00b8 C8       		.byte	-56
 985 00b9 15       		.byte	21
 986 00ba C9       		.byte	-55
 987 00bb FF       		.byte	-1
 988 00bc CA       		.byte	-54
 989 00bd FF       		.byte	-1
 990 00be CB       		.byte	-53
 991 00bf FF       		.byte	-1
 992 00c0 D0       		.byte	-48
 993 00c1 04       		.byte	4
 994 00c2 D1       		.byte	-47
 995 00c3 10       		.byte	16
 996 00c4 D6       		.byte	-42
 997 00c5 02       		.byte	2
 998 00c6 D7       		.byte	-41
 999 00c7 20       		.byte	32
 1000 00c8 D8       		.byte	-40
 1001 00c9 04       		.byte	4
 1002 00ca D9       		.byte	-39
 1003 00cb 04       		.byte	4
 1004 00cc DA       		.byte	-38
 1005 00cd 04       		.byte	4
 1006 00ce DB       		.byte	-37
 1007 00cf 04       		.byte	4
 1008 00d0 DC       		.byte	-36
 1009 00d1 88       		.byte	-120
 1010 00d2 DD       		.byte	-35
 1011 00d3 88       		.byte	-120
 1012 00d4 DF       		.byte	-33
 1013 00d5 11       		.byte	17
 1014 00d6 E2       		.byte	-30
 1015 00d7 C0       		.byte	-64
 1016 00d8 E4       		.byte	-28
ARM GAS  C:\Users\psmus\AppData\Local\Temp\ccHyxx8W.s 			page 34


 1017 00d9 40       		.byte	64
 1018 00da E5       		.byte	-27
 1019 00db 01       		.byte	1
 1020 00dc E6       		.byte	-26
 1021 00dd 80       		.byte	-128
 1022 00de E8       		.byte	-24
 1023 00df 30       		.byte	48
 1024 00e0 EA       		.byte	-22
 1025 00e1 40       		.byte	64
 1026 00e2 EB       		.byte	-21
 1027 00e3 10       		.byte	16
 1028 00e4 EC       		.byte	-20
 1029 00e5 10       		.byte	16
 1030 00e6 EE       		.byte	-18
 1031 00e7 40       		.byte	64
 1032 00e8 EF       		.byte	-17
 1033 00e9 A8       		.byte	-88
 1034 00ea 04       		.byte	4
 1035 00eb 20       		.byte	32
 1036 00ec 05       		.byte	5
 1037 00ed 01       		.byte	1
 1038 00ee 07       		.byte	7
 1039 00ef 12       		.byte	18
 1040 00f0 0D       		.byte	13
 1041 00f1 20       		.byte	32
 1042 00f2 0E       		.byte	14
 1043 00f3 62       		.byte	98
 1044 00f4 16       		.byte	22
 1045 00f5 0A       		.byte	10
 1046 00f6 1A       		.byte	26
 1047 00f7 08       		.byte	8
 1048 00f8 1C       		.byte	28
 1049 00f9 40       		.byte	64
 1050 00fa 1D       		.byte	29
 1051 00fb 20       		.byte	32
 1052 00fc 1F       		.byte	31
 1053 00fd 20       		.byte	32
 1054 00fe 25       		.byte	37
 1055 00ff 08       		.byte	8
 1056 0100 26       		.byte	38
 1057 0101 88       		.byte	-120
 1058 0102 27       		.byte	39
 1059 0103 46       		.byte	70
 1060 0104 2C       		.byte	44
 1061 0105 80       		.byte	-128
 1062 0106 2F       		.byte	47
 1063 0107 26       		.byte	38
 1064 0108 36       		.byte	54
 1065 0109 81       		.byte	-127
 1066 010a 37       		.byte	55
 1067 010b 14       		.byte	20
 1068 010c 3E       		.byte	62
 1069 010d 1A       		.byte	26
 1070 010e 3F       		.byte	63
 1071 010f 80       		.byte	-128
 1072 0110 45       		.byte	69
 1073 0111 28       		.byte	40
ARM GAS  C:\Users\psmus\AppData\Local\Temp\ccHyxx8W.s 			page 35


 1074 0112 47       		.byte	71
 1075 0113 02       		.byte	2
 1076 0114 4F       		.byte	79
 1077 0115 04       		.byte	4
 1078 0116 57       		.byte	87
 1079 0117 44       		.byte	68
 1080 0118 67       		.byte	103
 1081 0119 02       		.byte	2
 1082 011a 6C       		.byte	108
 1083 011b 01       		.byte	1
 1084 011c 6D       		.byte	109
 1085 011d 81       		.byte	-127
 1086 011e 6E       		.byte	110
 1087 011f 3A       		.byte	58
 1088 0120 6F       		.byte	111
 1089 0121 10       		.byte	16
 1090 0122 76       		.byte	118
 1091 0123 2A       		.byte	42
 1092 0124 7A       		.byte	122
 1093 0125 02       		.byte	2
 1094 0126 7E       		.byte	126
 1095 0127 04       		.byte	4
 1096 0128 87       		.byte	-121
 1097 0129 40       		.byte	64
 1098 012a A2       		.byte	-94
 1099 012b 02       		.byte	2
 1100 012c AE       		.byte	-82
 1101 012d 01       		.byte	1
 1102 012e C0       		.byte	-64
 1103 012f F0       		.byte	-16
 1104 0130 C2       		.byte	-62
 1105 0131 F0       		.byte	-16
 1106 0132 C4       		.byte	-60
 1107 0133 C0       		.byte	-64
 1108 0134 CA       		.byte	-54
 1109 0135 F0       		.byte	-16
 1110 0136 CC       		.byte	-52
 1111 0137 F0       		.byte	-16
 1112 0138 CE       		.byte	-50
 1113 0139 F0       		.byte	-16
 1114 013a D0       		.byte	-48
 1115 013b E0       		.byte	-32
 1116 013c D8       		.byte	-40
 1117 013d 10       		.byte	16
 1118 013e DE       		.byte	-34
 1119 013f 28       		.byte	40
 1120 0140 00       		.byte	0
 1121 0141 01       		.byte	1
 1122 0142 01       		.byte	1
 1123 0143 10       		.byte	16
 1124 0144 02       		.byte	2
 1125 0145 02       		.byte	2
 1126 0146 06       		.byte	6
 1127 0147 01       		.byte	1
 1128 0148 07       		.byte	7
 1129 0149 04       		.byte	4
 1130 014a 08       		.byte	8
ARM GAS  C:\Users\psmus\AppData\Local\Temp\ccHyxx8W.s 			page 36


 1131 014b FF       		.byte	-1
 1132 014c 09       		.byte	9
 1133 014d 01       		.byte	1
 1134 014e 0C       		.byte	12
 1135 014f 01       		.byte	1
 1136 0150 0D       		.byte	13
 1137 0151 02       		.byte	2
 1138 0152 0E       		.byte	14
 1139 0153 10       		.byte	16
 1140 0154 0F       		.byte	15
 1141 0155 04       		.byte	4
 1142 0156 12       		.byte	18
 1143 0157 FE       		.byte	-2
 1144 0158 13       		.byte	19
 1145 0159 02       		.byte	2
 1146 015a 14       		.byte	20
 1147 015b 01       		.byte	1
 1148 015c 16       		.byte	22
 1149 015d 80       		.byte	-128
 1150 015e 18       		.byte	24
 1151 015f 01       		.byte	1
 1152 0160 1A       		.byte	26
 1153 0161 40       		.byte	64
 1154 0162 1D       		.byte	29
 1155 0163 01       		.byte	1
 1156 0164 1E       		.byte	30
 1157 0165 FE       		.byte	-2
 1158 0166 20       		.byte	32
 1159 0167 01       		.byte	1
 1160 0168 22       		.byte	34
 1161 0169 20       		.byte	32
 1162 016a 24       		.byte	36
 1163 016b 01       		.byte	1
 1164 016c 26       		.byte	38
 1165 016d 04       		.byte	4
 1166 016e 28       		.byte	40
 1167 016f 01       		.byte	1
 1168 0170 2A       		.byte	42
 1169 0171 08       		.byte	8
 1170 0172 2F       		.byte	47
 1171 0173 08       		.byte	8
 1172 0174 30       		.byte	48
 1173 0175 FF       		.byte	-1
 1174 0176 31       		.byte	49
 1175 0177 10       		.byte	16
 1176 0178 33       		.byte	51
 1177 0179 08       		.byte	8
 1178 017a 35       		.byte	53
 1179 017b 01       		.byte	1
 1180 017c 37       		.byte	55
 1181 017d 06       		.byte	6
 1182 017e 52       		.byte	82
 1183 017f 05       		.byte	5
 1184 0180 56       		.byte	86
 1185 0181 08       		.byte	8
 1186 0182 58       		.byte	88
 1187 0183 04       		.byte	4
ARM GAS  C:\Users\psmus\AppData\Local\Temp\ccHyxx8W.s 			page 37


 1188 0184 59       		.byte	89
 1189 0185 04       		.byte	4
 1190 0186 5B       		.byte	91
 1191 0187 04       		.byte	4
 1192 0188 5C       		.byte	92
 1193 0189 88       		.byte	-120
 1194 018a 5D       		.byte	93
 1195 018b 80       		.byte	-128
 1196 018c 5F       		.byte	95
 1197 018d 11       		.byte	17
 1198 018e D4       		.byte	-44
 1199 018f 01       		.byte	1
 1200 0190 D6       		.byte	-42
 1201 0191 04       		.byte	4
 1202 0192 DB       		.byte	-37
 1203 0193 04       		.byte	4
 1204 0194 DD       		.byte	-35
 1205 0195 80       		.byte	-128
 1206 0196 DF       		.byte	-33
 1207 0197 11       		.byte	17
 1208 0198 04       		.byte	4
 1209 0199 02       		.byte	2
 1210 019a 06       		.byte	6
 1211 019b 12       		.byte	18
 1212 019c 07       		.byte	7
 1213 019d 04       		.byte	4
 1214 019e 08       		.byte	8
 1215 019f 10       		.byte	16
 1216 01a0 0B       		.byte	11
 1217 01a1 04       		.byte	4
 1218 01a2 0E       		.byte	14
 1219 01a3 68       		.byte	104
 1220 01a4 0F       		.byte	15
 1221 01a5 01       		.byte	1
 1222 01a6 15       		.byte	21
 1223 01a7 01       		.byte	1
 1224 01a8 16       		.byte	22
 1225 01a9 28       		.byte	40
 1226 01aa 1D       		.byte	29
 1227 01ab 01       		.byte	1
 1228 01ac 1E       		.byte	30
 1229 01ad 40       		.byte	64
 1230 01ae 1F       		.byte	31
 1231 01af 02       		.byte	2
 1232 01b0 27       		.byte	39
 1233 01b1 AA       		.byte	-86
 1234 01b2 2D       		.byte	45
 1235 01b3 40       		.byte	64
 1236 01b4 37       		.byte	55
 1237 01b5 82       		.byte	-126
 1238 01b6 3D       		.byte	61
 1239 01b7 80       		.byte	-128
 1240 01b8 3E       		.byte	62
 1241 01b9 20       		.byte	32
 1242 01ba 3F       		.byte	63
 1243 01bb 09       		.byte	9
 1244 01bc 58       		.byte	88
ARM GAS  C:\Users\psmus\AppData\Local\Temp\ccHyxx8W.s 			page 38


 1245 01bd 10       		.byte	16
 1246 01be 5B       		.byte	91
 1247 01bf 40       		.byte	64
 1248 01c0 5C       		.byte	92
 1249 01c1 40       		.byte	64
 1250 01c2 5F       		.byte	95
 1251 01c3 20       		.byte	32
 1252 01c4 63       		.byte	99
 1253 01c5 40       		.byte	64
 1254 01c6 66       		.byte	102
 1255 01c7 10       		.byte	16
 1256 01c8 67       		.byte	103
 1257 01c9 0B       		.byte	11
 1258 01ca 6C       		.byte	108
 1259 01cb 10       		.byte	16
 1260 01cc 6D       		.byte	109
 1261 01cd 40       		.byte	64
 1262 01ce 7B       		.byte	123
 1263 01cf 08       		.byte	8
 1264 01d0 7E       		.byte	126
 1265 01d1 04       		.byte	4
 1266 01d2 7F       		.byte	127
 1267 01d3 08       		.byte	8
 1268 01d4 80       		.byte	-128
 1269 01d5 01       		.byte	1
 1270 01d6 83       		.byte	-125
 1271 01d7 08       		.byte	8
 1272 01d8 87       		.byte	-121
 1273 01d9 02       		.byte	2
 1274 01da 8B       		.byte	-117
 1275 01db 04       		.byte	4
 1276 01dc 90       		.byte	-112
 1277 01dd 42       		.byte	66
 1278 01de 91       		.byte	-111
 1279 01df 01       		.byte	1
 1280 01e0 92       		.byte	-110
 1281 01e1 08       		.byte	8
 1282 01e2 93       		.byte	-109
 1283 01e3 04       		.byte	4
 1284 01e4 94       		.byte	-108
 1285 01e5 20       		.byte	32
 1286 01e6 97       		.byte	-105
 1287 01e7 4A       		.byte	74
 1288 01e8 9A       		.byte	-102
 1289 01e9 2A       		.byte	42
 1290 01ea 9B       		.byte	-101
 1291 01eb 44       		.byte	68
 1292 01ec 9D       		.byte	-99
 1293 01ed 01       		.byte	1
 1294 01ee A1       		.byte	-95
 1295 01ef 40       		.byte	64
 1296 01f0 A2       		.byte	-94
 1297 01f1 14       		.byte	20
 1298 01f2 A3       		.byte	-93
 1299 01f3 04       		.byte	4
 1300 01f4 A7       		.byte	-89
 1301 01f5 02       		.byte	2
ARM GAS  C:\Users\psmus\AppData\Local\Temp\ccHyxx8W.s 			page 39


 1302 01f6 B4       		.byte	-76
 1303 01f7 80       		.byte	-128
 1304 01f8 B6       		.byte	-74
 1305 01f9 48       		.byte	72
 1306 01fa C0       		.byte	-64
 1307 01fb F0       		.byte	-16
 1308 01fc C2       		.byte	-62
 1309 01fd F0       		.byte	-16
 1310 01fe C4       		.byte	-60
 1311 01ff 70       		.byte	112
 1312 0200 CA       		.byte	-54
 1313 0201 10       		.byte	16
 1314 0202 CC       		.byte	-52
 1315 0203 90       		.byte	-112
 1316 0204 CE       		.byte	-50
 1317 0205 F0       		.byte	-16
 1318 0206 D6       		.byte	-42
 1319 0207 3C       		.byte	60
 1320 0208 D8       		.byte	-40
 1321 0209 31       		.byte	49
 1322 020a DE       		.byte	-34
 1323 020b 24       		.byte	36
 1324 020c E0       		.byte	-32
 1325 020d 04       		.byte	4
 1326 020e E4       		.byte	-28
 1327 020f 06       		.byte	6
 1328 0210 61       		.byte	97
 1329 0211 02       		.byte	2
 1330 0212 68       		.byte	104
 1331 0213 10       		.byte	16
 1332 0214 6D       		.byte	109
 1333 0215 08       		.byte	8
 1334 0216 73       		.byte	115
 1335 0217 22       		.byte	34
 1336 0218 77       		.byte	119
 1337 0219 01       		.byte	1
 1338 021a 83       		.byte	-125
 1339 021b 20       		.byte	32
 1340 021c 84       		.byte	-124
 1341 021d 10       		.byte	16
 1342 021e D8       		.byte	-40
 1343 021f 40       		.byte	64
 1344 0220 DA       		.byte	-38
 1345 0221 C0       		.byte	-64
 1346 0222 DC       		.byte	-36
 1347 0223 E0       		.byte	-32
 1348 0224 E2       		.byte	-30
 1349 0225 90       		.byte	-112
 1350 0226 2B       		.byte	43
 1351 0227 40       		.byte	64
 1352 0228 2D       		.byte	45
 1353 0229 08       		.byte	8
 1354 022a 53       		.byte	83
 1355 022b 10       		.byte	16
 1356 022c 89       		.byte	-119
 1357 022d 08       		.byte	8
 1358 022e 8F       		.byte	-113
ARM GAS  C:\Users\psmus\AppData\Local\Temp\ccHyxx8W.s 			page 40


 1359 022f 40       		.byte	64
 1360 0230 9F       		.byte	-97
 1361 0231 03       		.byte	3
 1362 0232 A5       		.byte	-91
 1363 0233 04       		.byte	4
 1364 0234 B1       		.byte	-79
 1365 0235 02       		.byte	2
 1366 0236 CA       		.byte	-54
 1367 0237 C0       		.byte	-64
 1368 0238 D4       		.byte	-44
 1369 0239 20       		.byte	32
 1370 023a 87       		.byte	-121
 1371 023b 02       		.byte	2
 1372 023c 9F       		.byte	-97
 1373 023d 03       		.byte	3
 1374 023e A5       		.byte	-91
 1375 023f 04       		.byte	4
 1376 0240 AF       		.byte	-81
 1377 0241 10       		.byte	16
 1378 0242 E6       		.byte	-26
 1379 0243 40       		.byte	64
 1380 0244 EE       		.byte	-18
 1381 0245 40       		.byte	64
 1382 0246 11       		.byte	17
 1383 0247 08       		.byte	8
 1384 0248 17       		.byte	23
 1385 0249 01       		.byte	1
 1386 024a 9F       		.byte	-97
 1387 024b 01       		.byte	1
 1388 024c A5       		.byte	-91
 1389 024d 04       		.byte	4
 1390 024e C4       		.byte	-60
 1391 024f 30       		.byte	48
 1392 0250 00       		.byte	0
 1393 0251 08       		.byte	8
 1394 0252 1E       		.byte	30
 1395 0253 01       		.byte	1
 1396 0254 25       		.byte	37
 1397 0255 02       		.byte	2
 1398 0256 28       		.byte	40
 1399 0257 08       		.byte	8
 1400 0258 85       		.byte	-123
 1401 0259 02       		.byte	2
 1402 025a 86       		.byte	-122
 1403 025b 01       		.byte	1
 1404 025c C0       		.byte	-64
 1405 025d 08       		.byte	8
 1406 025e C6       		.byte	-58
 1407 025f 01       		.byte	1
 1408 0260 C8       		.byte	-56
 1409 0261 01       		.byte	1
 1410 0262 CA       		.byte	-54
 1411 0263 08       		.byte	8
 1412 0264 4B       		.byte	75
 1413 0265 08       		.byte	8
 1414 0266 4F       		.byte	79
 1415 0267 80       		.byte	-128
ARM GAS  C:\Users\psmus\AppData\Local\Temp\ccHyxx8W.s 			page 41


 1416 0268 8B       		.byte	-117
 1417 0269 04       		.byte	4
 1418 026a 8F       		.byte	-113
 1419 026b 40       		.byte	64
 1420 026c AC       		.byte	-84
 1421 026d 08       		.byte	8
 1422 026e B0       		.byte	-80
 1423 026f 04       		.byte	4
 1424 0270 D2       		.byte	-46
 1425 0271 06       		.byte	6
 1426 0272 E0       		.byte	-32
 1427 0273 01       		.byte	1
 1428 0274 E4       		.byte	-28
 1429 0275 02       		.byte	2
 1430 0276 EA       		.byte	-22
 1431 0277 04       		.byte	4
 1432 0278 3E       		.byte	62
 1433 0279 04       		.byte	4
 1434 027a 59       		.byte	89
 1435 027b 01       		.byte	1
 1436 027c 5C       		.byte	92
 1437 027d 08       		.byte	8
 1438 027e 64       		.byte	100
 1439 027f 10       		.byte	16
 1440 0280 80       		.byte	-128
 1441 0281 08       		.byte	8
 1442 0282 81       		.byte	-127
 1443 0283 01       		.byte	1
 1444 0284 84       		.byte	-124
 1445 0285 10       		.byte	16
 1446 0286 8A       		.byte	-118
 1447 0287 04       		.byte	4
 1448 0288 CE       		.byte	-50
 1449 0289 01       		.byte	1
 1450 028a D6       		.byte	-42
 1451 028b 03       		.byte	3
 1452 028c D8       		.byte	-40
 1453 028d 01       		.byte	1
 1454 028e E4       		.byte	-28
 1455 028f 04       		.byte	4
 1456 0290 01       		.byte	1
 1457 0291 01       		.byte	1
 1458 0292 10       		.byte	16
 1459 0293 01       		.byte	1
 1460              		.type	cy_cfg_addr_table.4986, %object
 1461              		.size	cy_cfg_addr_table.4986, 68
 1462              	cy_cfg_addr_table.4986:
 1463 0294 01000F40 		.word	1074724865
 1464 0298 10300F40 		.word	1074737168
 1465 029c 10310F40 		.word	1074737424
 1466 02a0 04320F40 		.word	1074737668
 1467 02a4 08330F40 		.word	1074737928
 1468 02a8 42340F40 		.word	1074738242
 1469 02ac 2B350F40 		.word	1074738475
 1470 02b0 2C360F40 		.word	1074738732
 1471 02b4 3C370F40 		.word	1074739004
 1472 02b8 0B400F40 		.word	1074741259
ARM GAS  C:\Users\psmus\AppData\Local\Temp\ccHyxx8W.s 			page 42


 1473 02bc 0A410F40 		.word	1074741514
 1474 02c0 06420F40 		.word	1074741766
 1475 02c4 05430F40 		.word	1074742021
 1476 02c8 0A440F40 		.word	1074742282
 1477 02cc 0A450F40 		.word	1074742538
 1478 02d0 0C470F40 		.word	1074743052
 1479 02d4 02600F40 		.word	1074749442
 1480              		.text
 1481              	.Letext0:
 1482              		.file 2 "c:\\program files (x86)\\cypress\\psoc creator\\4.2\\psoc creator\\import\\gnu\\arm\\5.4.
 1483              		.file 3 "Generated_Source\\PSoC4\\cytypes.h"
 1484              		.file 4 "Generated_Source\\PSoC4\\CyLFClk.h"
 1485              		.file 5 "Generated_Source\\PSoC4\\CyLib.h"