ARM GAS  C:\Users\psmus\AppData\Local\Temp\ccNnZNLJ.s 			page 1


   1              		.syntax unified
   2              		.cpu cortex-m0
   3              		.fpu softvfp
   4              		.eabi_attribute 20, 1
   5              		.eabi_attribute 21, 1
   6              		.eabi_attribute 23, 3
   7              		.eabi_attribute 24, 1
   8              		.eabi_attribute 25, 1
   9              		.eabi_attribute 26, 1
  10              		.eabi_attribute 30, 1
  11              		.eabi_attribute 34, 0
  12              		.eabi_attribute 18, 4
  13              		.thumb
  14              		.syntax unified
  15              		.file	"I2S.c"
  16              		.text
  17              	.Ltext0:
  18              		.cfi_sections	.debug_frame
  19              		.section	.text.I2S_Enable,"ax",%progbits
  20              		.align	2
  21              		.global	I2S_Enable
  22              		.code	16
  23              		.thumb_func
  24              		.type	I2S_Enable, %function
  25              	I2S_Enable:
  26              	.LFB1:
  27              		.file 1 "Generated_Source\\PSoC4\\I2S.c"
   1:Generated_Source\PSoC4/I2S.c **** /*******************************************************************************
   2:Generated_Source\PSoC4/I2S.c **** * File Name: I2S.c
   3:Generated_Source\PSoC4/I2S.c **** * Version 2.70
   4:Generated_Source\PSoC4/I2S.c **** *
   5:Generated_Source\PSoC4/I2S.c **** * Description:
   6:Generated_Source\PSoC4/I2S.c **** *  This file contains the setup, control and status commands for the I2S
   7:Generated_Source\PSoC4/I2S.c **** *  component.
   8:Generated_Source\PSoC4/I2S.c **** *
   9:Generated_Source\PSoC4/I2S.c **** * Note:
  10:Generated_Source\PSoC4/I2S.c **** *
  11:Generated_Source\PSoC4/I2S.c **** ********************************************************************************
  12:Generated_Source\PSoC4/I2S.c **** * Copyright 2008-2015, Cypress Semiconductor Corporation.  All rights reserved.
  13:Generated_Source\PSoC4/I2S.c **** * You may use this file only in accordance with the license, terms, conditions,
  14:Generated_Source\PSoC4/I2S.c **** * disclaimers, and limitations in the end user license agreement accompanying
  15:Generated_Source\PSoC4/I2S.c **** * the software package with which this file was provided.
  16:Generated_Source\PSoC4/I2S.c **** *******************************************************************************/
  17:Generated_Source\PSoC4/I2S.c **** 
  18:Generated_Source\PSoC4/I2S.c **** #include "CyLib.h"
  19:Generated_Source\PSoC4/I2S.c **** #include "I2S.h"
  20:Generated_Source\PSoC4/I2S.c **** 
  21:Generated_Source\PSoC4/I2S.c **** uint8 I2S_initVar = 0u;
  22:Generated_Source\PSoC4/I2S.c **** 
  23:Generated_Source\PSoC4/I2S.c **** 
  24:Generated_Source\PSoC4/I2S.c **** /*******************************************************************************
  25:Generated_Source\PSoC4/I2S.c **** * Function Name: I2S_Enable
  26:Generated_Source\PSoC4/I2S.c **** ********************************************************************************
  27:Generated_Source\PSoC4/I2S.c **** *
  28:Generated_Source\PSoC4/I2S.c **** * Summary:
  29:Generated_Source\PSoC4/I2S.c **** *  Enables I2S interface. Starts the generation of the sck and ws outputs.
  30:Generated_Source\PSoC4/I2S.c **** *  The Tx and Rx directions remain disabled. It is not necessary to call
ARM GAS  C:\Users\psmus\AppData\Local\Temp\ccNnZNLJ.s 			page 2


  31:Generated_Source\PSoC4/I2S.c **** *  I2S_Enable() because the I2S_Start() routine calls this function, which is
  32:Generated_Source\PSoC4/I2S.c **** *  the preferred method to begin component operation.
  33:Generated_Source\PSoC4/I2S.c **** *
  34:Generated_Source\PSoC4/I2S.c **** * Parameters:
  35:Generated_Source\PSoC4/I2S.c **** *  None.
  36:Generated_Source\PSoC4/I2S.c **** *
  37:Generated_Source\PSoC4/I2S.c **** * Return:
  38:Generated_Source\PSoC4/I2S.c **** *  None.
  39:Generated_Source\PSoC4/I2S.c **** *
  40:Generated_Source\PSoC4/I2S.c **** *******************************************************************************/
  41:Generated_Source\PSoC4/I2S.c **** void I2S_Enable(void) 
  42:Generated_Source\PSoC4/I2S.c **** {
  28              		.loc 1 42 0
  29              		.cfi_startproc
  30              		@ args = 0, pretend = 0, frame = 0
  31              		@ frame_needed = 0, uses_anonymous_args = 0
  32 0000 10B5     		push	{r4, lr}
  33              		.cfi_def_cfa_offset 8
  34              		.cfi_offset 4, -8
  35              		.cfi_offset 14, -4
  43:Generated_Source\PSoC4/I2S.c ****     uint8 enableInterrupts;
  44:Generated_Source\PSoC4/I2S.c **** 
  45:Generated_Source\PSoC4/I2S.c ****     enableInterrupts = CyEnterCriticalSection();
  36              		.loc 1 45 0
  37 0002 FFF7FEFF 		bl	CyEnterCriticalSection
  38              	.LVL0:
  46:Generated_Source\PSoC4/I2S.c ****     I2S_AUX_CONTROL_REG |= I2S_CNT_START;
  39              		.loc 1 46 0
  40 0006 074A     		ldr	r2, .L2
  41 0008 1178     		ldrb	r1, [r2]
  42 000a 2023     		movs	r3, #32
  43 000c 0B43     		orrs	r3, r1
  44 000e DBB2     		uxtb	r3, r3
  45 0010 1370     		strb	r3, [r2]
  47:Generated_Source\PSoC4/I2S.c ****     CyExitCriticalSection(enableInterrupts);
  46              		.loc 1 47 0
  47 0012 FFF7FEFF 		bl	CyExitCriticalSection
  48              	.LVL1:
  48:Generated_Source\PSoC4/I2S.c **** 
  49:Generated_Source\PSoC4/I2S.c ****     I2S_CONTROL_REG |= I2S_EN;
  49              		.loc 1 49 0
  50 0016 044A     		ldr	r2, .L2+4
  51 0018 1178     		ldrb	r1, [r2]
  52 001a 0423     		movs	r3, #4
  53 001c 0B43     		orrs	r3, r1
  54 001e DBB2     		uxtb	r3, r3
  55 0020 1370     		strb	r3, [r2]
  50:Generated_Source\PSoC4/I2S.c **** }
  56              		.loc 1 50 0
  57              		@ sp needed
  58 0022 10BD     		pop	{r4, pc}
  59              	.L3:
  60              		.align	2
  61              	.L2:
  62 0024 95000F40 		.word	1074725013
  63 0028 76000F40 		.word	1074724982
  64              		.cfi_endproc
ARM GAS  C:\Users\psmus\AppData\Local\Temp\ccNnZNLJ.s 			page 3


  65              	.LFE1:
  66              		.size	I2S_Enable, .-I2S_Enable
  67              		.section	.text.I2S_Init,"ax",%progbits
  68              		.align	2
  69              		.global	I2S_Init
  70              		.code	16
  71              		.thumb_func
  72              		.type	I2S_Init, %function
  73              	I2S_Init:
  74              	.LFB2:
  51:Generated_Source\PSoC4/I2S.c **** 
  52:Generated_Source\PSoC4/I2S.c **** 
  53:Generated_Source\PSoC4/I2S.c **** /*******************************************************************************
  54:Generated_Source\PSoC4/I2S.c **** * Function Name: I2S_Init
  55:Generated_Source\PSoC4/I2S.c **** ********************************************************************************
  56:Generated_Source\PSoC4/I2S.c **** *
  57:Generated_Source\PSoC4/I2S.c **** * Summary:
  58:Generated_Source\PSoC4/I2S.c **** *  Initializes or restores default I2S configuration provided with customizer.
  59:Generated_Source\PSoC4/I2S.c **** *  It is not necessary to call I2S_Init() because the I2S_Start() routine calls
  60:Generated_Source\PSoC4/I2S.c **** *  this function, which is the preferred method to begin component operation.
  61:Generated_Source\PSoC4/I2S.c **** *
  62:Generated_Source\PSoC4/I2S.c **** * Parameters:
  63:Generated_Source\PSoC4/I2S.c **** *  None.
  64:Generated_Source\PSoC4/I2S.c **** *
  65:Generated_Source\PSoC4/I2S.c **** * Return:
  66:Generated_Source\PSoC4/I2S.c **** *  None.
  67:Generated_Source\PSoC4/I2S.c **** *
  68:Generated_Source\PSoC4/I2S.c **** *******************************************************************************/
  69:Generated_Source\PSoC4/I2S.c **** void I2S_Init(void) 
  70:Generated_Source\PSoC4/I2S.c **** {
  75              		.loc 1 70 0
  76              		.cfi_startproc
  77              		@ args = 0, pretend = 0, frame = 0
  78              		@ frame_needed = 0, uses_anonymous_args = 0
  79              		@ link register save eliminated.
  71:Generated_Source\PSoC4/I2S.c ****     #if (I2S_CLIP_DETECT_ENABLE)
  72:Generated_Source\PSoC4/I2S.c ****         static const uint8 CYCODE I2S_posThresholds[] = {64u, 64u, 64u, 64u, 64u};
  73:Generated_Source\PSoC4/I2S.c ****         static const int8  CYCODE I2S_negThresholds[] = {-64, -64, -64, -64, -64};
  74:Generated_Source\PSoC4/I2S.c ****     #endif /* I2S_CLIP_DETECT_ENABLE */
  75:Generated_Source\PSoC4/I2S.c **** 
  76:Generated_Source\PSoC4/I2S.c ****     #if (I2S_DYNAMIC_BIT_RESOLUTION)
  77:Generated_Source\PSoC4/I2S.c ****         (void)I2S_SetDataBits(I2S_DATA_BITS);
  78:Generated_Source\PSoC4/I2S.c ****     #endif /* I2S_DYNAMIC_BIT_RESOLUTION */
  79:Generated_Source\PSoC4/I2S.c **** 
  80:Generated_Source\PSoC4/I2S.c ****     /* Initialize Tx interrupt source selected in customizer */
  81:Generated_Source\PSoC4/I2S.c ****     #if (I2S_TX_DIRECTION_ENABLE)
  82:Generated_Source\PSoC4/I2S.c ****         I2S_SET_TX_INT_MASK(CH0, I2S_TX_INT_SOURCE);
  80              		.loc 1 82 0
  81 0000 044B     		ldr	r3, .L5
  82 0002 1A78     		ldrb	r2, [r3]
  83 0004 0721     		movs	r1, #7
  84 0006 8A43     		bics	r2, r1
  85 0008 1A70     		strb	r2, [r3]
  86 000a 1A78     		ldrb	r2, [r3]
  87 000c D2B2     		uxtb	r2, r2
  88 000e 1A70     		strb	r2, [r3]
  83:Generated_Source\PSoC4/I2S.c ****         #if (I2S_TX_STEREO_1_PRESENT)
ARM GAS  C:\Users\psmus\AppData\Local\Temp\ccNnZNLJ.s 			page 4


  84:Generated_Source\PSoC4/I2S.c ****             I2S_SET_TX_INT_MASK(CH1, I2S_TX_INT_SOURCE);
  85:Generated_Source\PSoC4/I2S.c ****         #endif /* I2S_TX_STEREO_1_PRESENT */
  86:Generated_Source\PSoC4/I2S.c ****         #if (I2S_TX_STEREO_2_PRESENT)
  87:Generated_Source\PSoC4/I2S.c ****             I2S_SET_TX_INT_MASK(CH2, I2S_TX_INT_SOURCE);
  88:Generated_Source\PSoC4/I2S.c ****         #endif /* I2S_TX_STEREO_2_PRESENT */
  89:Generated_Source\PSoC4/I2S.c ****         #if (I2S_TX_STEREO_3_PRESENT)
  90:Generated_Source\PSoC4/I2S.c ****             I2S_SET_TX_INT_MASK(CH3, I2S_TX_INT_SOURCE);
  91:Generated_Source\PSoC4/I2S.c ****         #endif /* I2S_TX_STEREO_3_PRESENT */
  92:Generated_Source\PSoC4/I2S.c ****         #if (I2S_TX_STEREO_4_PRESENT)
  93:Generated_Source\PSoC4/I2S.c ****             I2S_SET_TX_INT_MASK(CH4, I2S_TX_INT_SOURCE);
  94:Generated_Source\PSoC4/I2S.c ****         #endif /* I2S_TX_STEREO_4_PRESENT */
  95:Generated_Source\PSoC4/I2S.c ****     #endif /* (I2S_TX_DIRECTION_ENABLE) */
  96:Generated_Source\PSoC4/I2S.c ****     
  97:Generated_Source\PSoC4/I2S.c ****     /* Initialize Rx interrupt source and clipping thresholds selected in customizer */
  98:Generated_Source\PSoC4/I2S.c ****     #if (I2S_RX_DIRECTION_ENABLE)
  99:Generated_Source\PSoC4/I2S.c ****         I2S_SET_RX_INT_MASK(CH0, I2S_RX_INT_SOURCE);
 100:Generated_Source\PSoC4/I2S.c ****         #if (I2S_CLIP_DETECT_ENABLE)
 101:Generated_Source\PSoC4/I2S.c ****             I2S_SET_POS_THRESHOLD(CH0, I2S_posThresholds[I2S_STEREO_0]);
 102:Generated_Source\PSoC4/I2S.c ****             I2S_SET_NEG_THRESHOLD(CH0, I2S_negThresholds[I2S_STEREO_0]);
 103:Generated_Source\PSoC4/I2S.c ****         #endif /* I2S_CLIP_DETECT_ENABLE */
 104:Generated_Source\PSoC4/I2S.c ****         #if (I2S_RX_STEREO_1_PRESENT)
 105:Generated_Source\PSoC4/I2S.c ****             I2S_SET_RX_INT_MASK(CH1, I2S_RX_INT_SOURCE);
 106:Generated_Source\PSoC4/I2S.c ****             #if (I2S_CLIP_DETECT_ENABLE)
 107:Generated_Source\PSoC4/I2S.c ****                 I2S_SET_POS_THRESHOLD(CH1, I2S_posThresholds[I2S_STEREO_1]);
 108:Generated_Source\PSoC4/I2S.c ****                 I2S_SET_NEG_THRESHOLD(CH1, I2S_negThresholds[I2S_STEREO_1]);
 109:Generated_Source\PSoC4/I2S.c ****             #endif /* I2S_CLIP_DETECT_ENABLE */
 110:Generated_Source\PSoC4/I2S.c ****         #endif /* I2S_RX_STEREO_1_PRESENT */
 111:Generated_Source\PSoC4/I2S.c ****         #if (I2S_RX_STEREO_2_PRESENT)
 112:Generated_Source\PSoC4/I2S.c ****             I2S_SET_RX_INT_MASK(CH2, I2S_RX_INT_SOURCE);
 113:Generated_Source\PSoC4/I2S.c ****             #if (I2S_CLIP_DETECT_ENABLE)
 114:Generated_Source\PSoC4/I2S.c ****                 I2S_SET_POS_THRESHOLD(CH2, I2S_posThresholds[I2S_STEREO_2]);
 115:Generated_Source\PSoC4/I2S.c ****                 I2S_SET_NEG_THRESHOLD(CH2, I2S_negThresholds[I2S_STEREO_2]);
 116:Generated_Source\PSoC4/I2S.c ****             #endif /* I2S_CLIP_DETECT_ENABLE */
 117:Generated_Source\PSoC4/I2S.c ****         #endif /* I2S_RX_STEREO_2_PRESENT */
 118:Generated_Source\PSoC4/I2S.c ****         #if (I2S_RX_STEREO_3_PRESENT)
 119:Generated_Source\PSoC4/I2S.c ****             I2S_SET_RX_INT_MASK(CH3, I2S_RX_INT_SOURCE);
 120:Generated_Source\PSoC4/I2S.c ****             #if (I2S_CLIP_DETECT_ENABLE)
 121:Generated_Source\PSoC4/I2S.c ****                 I2S_SET_POS_THRESHOLD(CH3, I2S_posThresholds[I2S_STEREO_3]);
 122:Generated_Source\PSoC4/I2S.c ****                 I2S_SET_NEG_THRESHOLD(CH3, I2S_negThresholds[I2S_STEREO_3]);
 123:Generated_Source\PSoC4/I2S.c ****             #endif /* I2S_CLIP_DETECT_ENABLE */
 124:Generated_Source\PSoC4/I2S.c ****         #endif /* I2S_RX_STEREO_3_PRESENT */
 125:Generated_Source\PSoC4/I2S.c ****         #if (I2S_RX_STEREO_4_PRESENT)
 126:Generated_Source\PSoC4/I2S.c ****             I2S_SET_RX_INT_MASK(CH4, I2S_RX_INT_SOURCE);
 127:Generated_Source\PSoC4/I2S.c ****             #if (I2S_CLIP_DETECT_ENABLE)
 128:Generated_Source\PSoC4/I2S.c ****                 I2S_SET_POS_THRESHOLD(CH4, I2S_posThresholds[I2S_STEREO_4]);
 129:Generated_Source\PSoC4/I2S.c ****                 I2S_SET_NEG_THRESHOLD(CH4, I2S_negThresholds[I2S_STEREO_4]);
 130:Generated_Source\PSoC4/I2S.c ****             #endif /* I2S_CLIP_DETECT_ENABLE */
 131:Generated_Source\PSoC4/I2S.c ****         #endif /* I2S_RX_STEREO_4_PRESENT */
 132:Generated_Source\PSoC4/I2S.c ****     #endif /* (I2S_RX_DIRECTION_ENABLE) */
 133:Generated_Source\PSoC4/I2S.c **** }
  89              		.loc 1 133 0
  90              		@ sp needed
  91 0010 7047     		bx	lr
  92              	.L6:
  93 0012 C046     		.align	2
  94              	.L5:
  95 0014 87000F40 		.word	1074724999
ARM GAS  C:\Users\psmus\AppData\Local\Temp\ccNnZNLJ.s 			page 5


  96              		.cfi_endproc
  97              	.LFE2:
  98              		.size	I2S_Init, .-I2S_Init
  99              		.section	.text.I2S_Start,"ax",%progbits
 100              		.align	2
 101              		.global	I2S_Start
 102              		.code	16
 103              		.thumb_func
 104              		.type	I2S_Start, %function
 105              	I2S_Start:
 106              	.LFB3:
 134:Generated_Source\PSoC4/I2S.c **** 
 135:Generated_Source\PSoC4/I2S.c **** 
 136:Generated_Source\PSoC4/I2S.c **** /*******************************************************************************
 137:Generated_Source\PSoC4/I2S.c **** * Function Name: I2S_Start
 138:Generated_Source\PSoC4/I2S.c **** ********************************************************************************
 139:Generated_Source\PSoC4/I2S.c **** *
 140:Generated_Source\PSoC4/I2S.c **** * Summary:
 141:Generated_Source\PSoC4/I2S.c **** *  Starts the I2S interface. Starts the generation of the sck and ws outputs.
 142:Generated_Source\PSoC4/I2S.c **** *  The Tx and Rx directions remain disabled.
 143:Generated_Source\PSoC4/I2S.c **** *
 144:Generated_Source\PSoC4/I2S.c **** * Parameters:
 145:Generated_Source\PSoC4/I2S.c **** *  None.
 146:Generated_Source\PSoC4/I2S.c **** *
 147:Generated_Source\PSoC4/I2S.c **** * Return:
 148:Generated_Source\PSoC4/I2S.c **** *  None.
 149:Generated_Source\PSoC4/I2S.c **** *
 150:Generated_Source\PSoC4/I2S.c **** * Global Variables:
 151:Generated_Source\PSoC4/I2S.c **** *  I2S_initVar - used to check initial configuration, modified on
 152:Generated_Source\PSoC4/I2S.c **** *  first function call.
 153:Generated_Source\PSoC4/I2S.c **** *
 154:Generated_Source\PSoC4/I2S.c **** * Reentrant:
 155:Generated_Source\PSoC4/I2S.c **** *  No.
 156:Generated_Source\PSoC4/I2S.c **** *
 157:Generated_Source\PSoC4/I2S.c **** *******************************************************************************/
 158:Generated_Source\PSoC4/I2S.c **** void I2S_Start(void) 
 159:Generated_Source\PSoC4/I2S.c **** {
 107              		.loc 1 159 0
 108              		.cfi_startproc
 109              		@ args = 0, pretend = 0, frame = 0
 110              		@ frame_needed = 0, uses_anonymous_args = 0
 111 0000 10B5     		push	{r4, lr}
 112              		.cfi_def_cfa_offset 8
 113              		.cfi_offset 4, -8
 114              		.cfi_offset 14, -4
 160:Generated_Source\PSoC4/I2S.c ****     if(0u == I2S_initVar)
 115              		.loc 1 160 0
 116 0002 064B     		ldr	r3, .L9
 117 0004 1B78     		ldrb	r3, [r3]
 118 0006 002B     		cmp	r3, #0
 119 0008 04D1     		bne	.L8
 161:Generated_Source\PSoC4/I2S.c ****     {
 162:Generated_Source\PSoC4/I2S.c ****         I2S_Init();
 120              		.loc 1 162 0
 121 000a FFF7FEFF 		bl	I2S_Init
 122              	.LVL2:
 163:Generated_Source\PSoC4/I2S.c ****         I2S_initVar = 1u;
ARM GAS  C:\Users\psmus\AppData\Local\Temp\ccNnZNLJ.s 			page 6


 123              		.loc 1 163 0
 124 000e 0122     		movs	r2, #1
 125 0010 024B     		ldr	r3, .L9
 126 0012 1A70     		strb	r2, [r3]
 127              	.L8:
 164:Generated_Source\PSoC4/I2S.c ****     }
 165:Generated_Source\PSoC4/I2S.c **** 
 166:Generated_Source\PSoC4/I2S.c ****     I2S_Enable();
 128              		.loc 1 166 0
 129 0014 FFF7FEFF 		bl	I2S_Enable
 130              	.LVL3:
 167:Generated_Source\PSoC4/I2S.c **** }
 131              		.loc 1 167 0
 132              		@ sp needed
 133 0018 10BD     		pop	{r4, pc}
 134              	.L10:
 135 001a C046     		.align	2
 136              	.L9:
 137 001c 00000000 		.word	.LANCHOR0
 138              		.cfi_endproc
 139              	.LFE3:
 140              		.size	I2S_Start, .-I2S_Start
 141              		.section	.text.I2S_EnableTx,"ax",%progbits
 142              		.align	2
 143              		.global	I2S_EnableTx
 144              		.code	16
 145              		.thumb_func
 146              		.type	I2S_EnableTx, %function
 147              	I2S_EnableTx:
 148              	.LFB5:
 168:Generated_Source\PSoC4/I2S.c **** 
 169:Generated_Source\PSoC4/I2S.c **** 
 170:Generated_Source\PSoC4/I2S.c **** /*******************************************************************************
 171:Generated_Source\PSoC4/I2S.c **** * Function Name: I2S_Stop
 172:Generated_Source\PSoC4/I2S.c **** ********************************************************************************
 173:Generated_Source\PSoC4/I2S.c **** *
 174:Generated_Source\PSoC4/I2S.c **** * Summary:
 175:Generated_Source\PSoC4/I2S.c **** *  Disables the I2S interface. The sck and ws outputs are set to 0. The Tx and
 176:Generated_Source\PSoC4/I2S.c **** *  Rx directions are disabled and their FIFOs are cleared.
 177:Generated_Source\PSoC4/I2S.c **** *
 178:Generated_Source\PSoC4/I2S.c **** * Parameters:
 179:Generated_Source\PSoC4/I2S.c **** *  None.
 180:Generated_Source\PSoC4/I2S.c **** *
 181:Generated_Source\PSoC4/I2S.c **** * Return:
 182:Generated_Source\PSoC4/I2S.c **** *  None.
 183:Generated_Source\PSoC4/I2S.c **** *
 184:Generated_Source\PSoC4/I2S.c **** *******************************************************************************/
 185:Generated_Source\PSoC4/I2S.c **** void I2S_Stop(void) 
 186:Generated_Source\PSoC4/I2S.c **** {
 187:Generated_Source\PSoC4/I2S.c ****     uint8 enableInterrupts;
 188:Generated_Source\PSoC4/I2S.c **** 
 189:Generated_Source\PSoC4/I2S.c ****     I2S_CONTROL_REG &= (uint8)~I2S_EN;
 190:Generated_Source\PSoC4/I2S.c **** 
 191:Generated_Source\PSoC4/I2S.c ****     enableInterrupts = CyEnterCriticalSection();
 192:Generated_Source\PSoC4/I2S.c ****     I2S_AUX_CONTROL_REG &= (uint8)~I2S_CNT_START;
 193:Generated_Source\PSoC4/I2S.c ****     CyExitCriticalSection(enableInterrupts);
 194:Generated_Source\PSoC4/I2S.c **** 
ARM GAS  C:\Users\psmus\AppData\Local\Temp\ccNnZNLJ.s 			page 7


 195:Generated_Source\PSoC4/I2S.c ****     /* Clear counter value to force reload when component is enabled */
 196:Generated_Source\PSoC4/I2S.c ****     I2S_CNT_COUNT_REG = 0u;
 197:Generated_Source\PSoC4/I2S.c **** 
 198:Generated_Source\PSoC4/I2S.c ****     #if (I2S_TX_DIRECTION_ENABLE)
 199:Generated_Source\PSoC4/I2S.c ****         I2S_DisableTx();
 200:Generated_Source\PSoC4/I2S.c ****         I2S_ClearTxFIFO();
 201:Generated_Source\PSoC4/I2S.c ****     #endif /* (I2S_TX_DIRECTION_ENABLE) */
 202:Generated_Source\PSoC4/I2S.c ****     
 203:Generated_Source\PSoC4/I2S.c ****     #if (I2S_RX_DIRECTION_ENABLE)
 204:Generated_Source\PSoC4/I2S.c ****         I2S_DisableRx();
 205:Generated_Source\PSoC4/I2S.c ****         I2S_ClearRxFIFO();
 206:Generated_Source\PSoC4/I2S.c ****     #endif /* (I2S_RX_DIRECTION_ENABLE) */
 207:Generated_Source\PSoC4/I2S.c **** }
 208:Generated_Source\PSoC4/I2S.c **** 
 209:Generated_Source\PSoC4/I2S.c **** #if (I2S_DYNAMIC_BIT_RESOLUTION)
 210:Generated_Source\PSoC4/I2S.c ****     /*******************************************************************************
 211:Generated_Source\PSoC4/I2S.c ****     * Function Name: I2S_SetDataBits
 212:Generated_Source\PSoC4/I2S.c ****     ********************************************************************************
 213:Generated_Source\PSoC4/I2S.c ****     *
 214:Generated_Source\PSoC4/I2S.c ****     * Summary:
 215:Generated_Source\PSoC4/I2S.c ****     *  Sets the number of data bits for each sample. The component must be stopped
 216:Generated_Source\PSoC4/I2S.c ****     *  before calling this API.
 217:Generated_Source\PSoC4/I2S.c ****     *
 218:Generated_Source\PSoC4/I2S.c ****     * Parameters:
 219:Generated_Source\PSoC4/I2S.c ****     *  dataBits: the number of data bits for each sample. Valid values - 8/16/24/32.
 220:Generated_Source\PSoC4/I2S.c ****     *  If Tx or Rx byte swapping is enabled, valid values are 16 and 24.
 221:Generated_Source\PSoC4/I2S.c ****     *
 222:Generated_Source\PSoC4/I2S.c ****     * Return:
 223:Generated_Source\PSoC4/I2S.c ****     *  CYRET_SUCCESS  : Operation is successful
 224:Generated_Source\PSoC4/I2S.c ****     *  CYRET_BAD_PARAM: Invalid parameter value
 225:Generated_Source\PSoC4/I2S.c ****     *
 226:Generated_Source\PSoC4/I2S.c ****     * Side effects:
 227:Generated_Source\PSoC4/I2S.c ****     *  Calling this API while the component is operating may cause unexpected
 228:Generated_Source\PSoC4/I2S.c ****     *  behavior.
 229:Generated_Source\PSoC4/I2S.c ****     *
 230:Generated_Source\PSoC4/I2S.c ****     *******************************************************************************/
 231:Generated_Source\PSoC4/I2S.c ****     cystatus I2S_SetDataBits(uint8 dataBits)   
 232:Generated_Source\PSoC4/I2S.c ****     {
 233:Generated_Source\PSoC4/I2S.c ****         cystatus status;
 234:Generated_Source\PSoC4/I2S.c **** 
 235:Generated_Source\PSoC4/I2S.c ****         CYASSERT((dataBits >= I2S_MIN_DATA_BITS) && (dataBits <= I2S_MAX_DATA_BITS));
 236:Generated_Source\PSoC4/I2S.c **** 
 237:Generated_Source\PSoC4/I2S.c ****         status = CYRET_SUCCESS;
 238:Generated_Source\PSoC4/I2S.c ****         /* The component must be stopped prior calling this API. Therefore
 239:Generated_Source\PSoC4/I2S.c ****         * all the control bits except the bits modified are zeros.
 240:Generated_Source\PSoC4/I2S.c ****         */
 241:Generated_Source\PSoC4/I2S.c ****         switch(dataBits)
 242:Generated_Source\PSoC4/I2S.c ****         {
 243:Generated_Source\PSoC4/I2S.c ****         case I2S_8BIT_DATA:
 244:Generated_Source\PSoC4/I2S.c ****             I2S_CONTROL_REG = I2S_8BIT_MODE;
 245:Generated_Source\PSoC4/I2S.c ****             break;
 246:Generated_Source\PSoC4/I2S.c ****         case I2S_16BIT_DATA:
 247:Generated_Source\PSoC4/I2S.c ****             I2S_CONTROL_REG = I2S_16BIT_MODE;
 248:Generated_Source\PSoC4/I2S.c ****             break;
 249:Generated_Source\PSoC4/I2S.c ****         case I2S_24BIT_DATA:
 250:Generated_Source\PSoC4/I2S.c ****             I2S_CONTROL_REG = I2S_24BIT_MODE;
 251:Generated_Source\PSoC4/I2S.c ****             break;
ARM GAS  C:\Users\psmus\AppData\Local\Temp\ccNnZNLJ.s 			page 8


 252:Generated_Source\PSoC4/I2S.c ****         case I2S_32BIT_DATA:
 253:Generated_Source\PSoC4/I2S.c ****             I2S_CONTROL_REG = I2S_32BIT_MODE;
 254:Generated_Source\PSoC4/I2S.c ****             break;
 255:Generated_Source\PSoC4/I2S.c ****         default: status = CYRET_BAD_PARAM;
 256:Generated_Source\PSoC4/I2S.c ****             break;
 257:Generated_Source\PSoC4/I2S.c ****         }
 258:Generated_Source\PSoC4/I2S.c **** 
 259:Generated_Source\PSoC4/I2S.c ****         return (status);
 260:Generated_Source\PSoC4/I2S.c ****     }
 261:Generated_Source\PSoC4/I2S.c **** 
 262:Generated_Source\PSoC4/I2S.c **** #endif /* I2S_DYNAMIC_BIT_RESOLUTION */
 263:Generated_Source\PSoC4/I2S.c **** 
 264:Generated_Source\PSoC4/I2S.c **** #if(I2S_TX_DIRECTION_ENABLE)
 265:Generated_Source\PSoC4/I2S.c ****     /*******************************************************************************
 266:Generated_Source\PSoC4/I2S.c ****     * Function Name: I2S_EnableTx
 267:Generated_Source\PSoC4/I2S.c ****     ********************************************************************************
 268:Generated_Source\PSoC4/I2S.c ****     *
 269:Generated_Source\PSoC4/I2S.c ****     * Summary:
 270:Generated_Source\PSoC4/I2S.c ****     *  Enables the Tx direction of the I2S interface.  At the next word
 271:Generated_Source\PSoC4/I2S.c ****     *  select falling edge transmission will begin.
 272:Generated_Source\PSoC4/I2S.c ****     *
 273:Generated_Source\PSoC4/I2S.c ****     * Parameters:
 274:Generated_Source\PSoC4/I2S.c ****     *  None.
 275:Generated_Source\PSoC4/I2S.c ****     *
 276:Generated_Source\PSoC4/I2S.c ****     * Return:
 277:Generated_Source\PSoC4/I2S.c ****     *  None.
 278:Generated_Source\PSoC4/I2S.c ****     *
 279:Generated_Source\PSoC4/I2S.c ****     *******************************************************************************/
 280:Generated_Source\PSoC4/I2S.c ****     void I2S_EnableTx(void) 
 281:Generated_Source\PSoC4/I2S.c ****     {
 149              		.loc 1 281 0
 150              		.cfi_startproc
 151              		@ args = 0, pretend = 0, frame = 0
 152              		@ frame_needed = 0, uses_anonymous_args = 0
 153 0000 10B5     		push	{r4, lr}
 154              		.cfi_def_cfa_offset 8
 155              		.cfi_offset 4, -8
 156              		.cfi_offset 14, -4
 282:Generated_Source\PSoC4/I2S.c ****         uint8 enableInterrupts;
 283:Generated_Source\PSoC4/I2S.c **** 
 284:Generated_Source\PSoC4/I2S.c ****         enableInterrupts = CyEnterCriticalSection();
 157              		.loc 1 284 0
 158 0002 FFF7FEFF 		bl	CyEnterCriticalSection
 159              	.LVL4:
 285:Generated_Source\PSoC4/I2S.c ****         I2S_TX_STS0_1_ACTL_REG |= I2S_INT_EN;
 160              		.loc 1 285 0
 161 0006 074A     		ldr	r2, .L12
 162 0008 1178     		ldrb	r1, [r2]
 163 000a 1023     		movs	r3, #16
 164 000c 0B43     		orrs	r3, r1
 165 000e DBB2     		uxtb	r3, r3
 166 0010 1370     		strb	r3, [r2]
 286:Generated_Source\PSoC4/I2S.c ****         #ifdef I2S_TX_STS2_3_ACTL_REG
 287:Generated_Source\PSoC4/I2S.c ****             I2S_TX_STS2_3_ACTL_REG |= I2S_INT_EN;
 288:Generated_Source\PSoC4/I2S.c ****         #endif /* I2S_TX_STS2_3_ACTL_REG */
 289:Generated_Source\PSoC4/I2S.c ****         #ifdef I2S_TX_STS4_ACTL_REG
 290:Generated_Source\PSoC4/I2S.c ****             I2S_TX_STS4_ACTL_REG |= I2S_INT_EN;
ARM GAS  C:\Users\psmus\AppData\Local\Temp\ccNnZNLJ.s 			page 9


 291:Generated_Source\PSoC4/I2S.c ****         #endif /* I2S_TX_STS4_ACTL_REG */
 292:Generated_Source\PSoC4/I2S.c ****         CyExitCriticalSection(enableInterrupts);
 167              		.loc 1 292 0
 168 0012 FFF7FEFF 		bl	CyExitCriticalSection
 169              	.LVL5:
 293:Generated_Source\PSoC4/I2S.c ****         
 294:Generated_Source\PSoC4/I2S.c ****         I2S_CONTROL_REG |= I2S_TX_EN;
 170              		.loc 1 294 0
 171 0016 044A     		ldr	r2, .L12+4
 172 0018 1178     		ldrb	r1, [r2]
 173 001a 0123     		movs	r3, #1
 174 001c 0B43     		orrs	r3, r1
 175 001e DBB2     		uxtb	r3, r3
 176 0020 1370     		strb	r3, [r2]
 295:Generated_Source\PSoC4/I2S.c ****     }
 177              		.loc 1 295 0
 178              		@ sp needed
 179 0022 10BD     		pop	{r4, pc}
 180              	.L13:
 181              		.align	2
 182              	.L12:
 183 0024 97000F40 		.word	1074725015
 184 0028 76000F40 		.word	1074724982
 185              		.cfi_endproc
 186              	.LFE5:
 187              		.size	I2S_EnableTx, .-I2S_EnableTx
 188              		.section	.text.I2S_DisableTx,"ax",%progbits
 189              		.align	2
 190              		.global	I2S_DisableTx
 191              		.code	16
 192              		.thumb_func
 193              		.type	I2S_DisableTx, %function
 194              	I2S_DisableTx:
 195              	.LFB6:
 296:Generated_Source\PSoC4/I2S.c **** 
 297:Generated_Source\PSoC4/I2S.c **** 
 298:Generated_Source\PSoC4/I2S.c ****     /*******************************************************************************
 299:Generated_Source\PSoC4/I2S.c ****     * Function Name: I2S_DisableTx
 300:Generated_Source\PSoC4/I2S.c ****     ********************************************************************************
 301:Generated_Source\PSoC4/I2S.c ****     *
 302:Generated_Source\PSoC4/I2S.c ****     * Summary:
 303:Generated_Source\PSoC4/I2S.c ****     *  Disables the Tx direction of the I2S interface.  At the next word
 304:Generated_Source\PSoC4/I2S.c ****     *  select falling edge transmission of data will stop and a constant 0 value
 305:Generated_Source\PSoC4/I2S.c ****     *  will be transmitted.
 306:Generated_Source\PSoC4/I2S.c ****     *
 307:Generated_Source\PSoC4/I2S.c ****     * Parameters:
 308:Generated_Source\PSoC4/I2S.c ****     *  None.
 309:Generated_Source\PSoC4/I2S.c ****     *
 310:Generated_Source\PSoC4/I2S.c ****     * Return:
 311:Generated_Source\PSoC4/I2S.c ****     *  None.
 312:Generated_Source\PSoC4/I2S.c ****     *
 313:Generated_Source\PSoC4/I2S.c ****     *******************************************************************************/
 314:Generated_Source\PSoC4/I2S.c ****     void I2S_DisableTx(void) 
 315:Generated_Source\PSoC4/I2S.c ****     {
 196              		.loc 1 315 0
 197              		.cfi_startproc
 198              		@ args = 0, pretend = 0, frame = 0
ARM GAS  C:\Users\psmus\AppData\Local\Temp\ccNnZNLJ.s 			page 10


 199              		@ frame_needed = 0, uses_anonymous_args = 0
 200 0000 10B5     		push	{r4, lr}
 201              		.cfi_def_cfa_offset 8
 202              		.cfi_offset 4, -8
 203              		.cfi_offset 14, -4
 316:Generated_Source\PSoC4/I2S.c ****         uint8 enableInterrupts;
 317:Generated_Source\PSoC4/I2S.c **** 
 318:Generated_Source\PSoC4/I2S.c ****         I2S_CONTROL_REG &= (uint8)~I2S_TX_EN;
 204              		.loc 1 318 0
 205 0002 074A     		ldr	r2, .L15
 206 0004 1378     		ldrb	r3, [r2]
 207 0006 0121     		movs	r1, #1
 208 0008 8B43     		bics	r3, r1
 209 000a 1370     		strb	r3, [r2]
 319:Generated_Source\PSoC4/I2S.c **** 
 320:Generated_Source\PSoC4/I2S.c ****         enableInterrupts = CyEnterCriticalSection();
 210              		.loc 1 320 0
 211 000c FFF7FEFF 		bl	CyEnterCriticalSection
 212              	.LVL6:
 321:Generated_Source\PSoC4/I2S.c ****         I2S_TX_STS0_1_ACTL_REG &= (uint8)~I2S_INT_EN;
 213              		.loc 1 321 0
 214 0010 044A     		ldr	r2, .L15+4
 215 0012 1378     		ldrb	r3, [r2]
 216 0014 1021     		movs	r1, #16
 217 0016 8B43     		bics	r3, r1
 218 0018 1370     		strb	r3, [r2]
 322:Generated_Source\PSoC4/I2S.c ****         #ifdef I2S_TX_STS2_3_ACTL_REG
 323:Generated_Source\PSoC4/I2S.c ****             I2S_TX_STS2_3_ACTL_REG &= (uint8)~I2S_INT_EN;
 324:Generated_Source\PSoC4/I2S.c ****         #endif /* I2S_TX_STS2_3_ACTL_REG */
 325:Generated_Source\PSoC4/I2S.c ****         #ifdef I2S_TX_STS4_ACTL_REG
 326:Generated_Source\PSoC4/I2S.c ****             I2S_TX_STS4_ACTL_REG &= (uint8)~I2S_INT_EN;
 327:Generated_Source\PSoC4/I2S.c ****         #endif /* I2S_TX_STS4_ACTL_REG */
 328:Generated_Source\PSoC4/I2S.c ****         CyExitCriticalSection(enableInterrupts);
 219              		.loc 1 328 0
 220 001a FFF7FEFF 		bl	CyExitCriticalSection
 221              	.LVL7:
 329:Generated_Source\PSoC4/I2S.c ****     }
 222              		.loc 1 329 0
 223              		@ sp needed
 224 001e 10BD     		pop	{r4, pc}
 225              	.L16:
 226              		.align	2
 227              	.L15:
 228 0020 76000F40 		.word	1074724982
 229 0024 97000F40 		.word	1074725015
 230              		.cfi_endproc
 231              	.LFE6:
 232              		.size	I2S_DisableTx, .-I2S_DisableTx
 233              		.section	.text.I2S_ClearTxFIFO,"ax",%progbits
 234              		.align	2
 235              		.global	I2S_ClearTxFIFO
 236              		.code	16
 237              		.thumb_func
 238              		.type	I2S_ClearTxFIFO, %function
 239              	I2S_ClearTxFIFO:
 240              	.LFB7:
 330:Generated_Source\PSoC4/I2S.c **** 
ARM GAS  C:\Users\psmus\AppData\Local\Temp\ccNnZNLJ.s 			page 11


 331:Generated_Source\PSoC4/I2S.c **** 
 332:Generated_Source\PSoC4/I2S.c ****     /*******************************************************************************
 333:Generated_Source\PSoC4/I2S.c ****     * Function Name: I2S_ClearTxFIFO
 334:Generated_Source\PSoC4/I2S.c ****     ********************************************************************************
 335:Generated_Source\PSoC4/I2S.c ****     *
 336:Generated_Source\PSoC4/I2S.c ****     * Summary:
 337:Generated_Source\PSoC4/I2S.c ****     *  Clears out the FIFOs for all Tx channels. Any data present in the FIFO will
 338:Generated_Source\PSoC4/I2S.c ****     *  not be sent. This call should be made only when the Tx direction is disabled.
 339:Generated_Source\PSoC4/I2S.c ****     *
 340:Generated_Source\PSoC4/I2S.c ****     * Parameters:
 341:Generated_Source\PSoC4/I2S.c ****     *  None.
 342:Generated_Source\PSoC4/I2S.c ****     *
 343:Generated_Source\PSoC4/I2S.c ****     * Return:
 344:Generated_Source\PSoC4/I2S.c ****     *  None.
 345:Generated_Source\PSoC4/I2S.c ****     *
 346:Generated_Source\PSoC4/I2S.c ****     *******************************************************************************/
 347:Generated_Source\PSoC4/I2S.c ****     void I2S_ClearTxFIFO(void) 
 348:Generated_Source\PSoC4/I2S.c ****     {
 241              		.loc 1 348 0
 242              		.cfi_startproc
 243              		@ args = 0, pretend = 0, frame = 0
 244              		@ frame_needed = 0, uses_anonymous_args = 0
 245 0000 10B5     		push	{r4, lr}
 246              		.cfi_def_cfa_offset 8
 247              		.cfi_offset 4, -8
 248              		.cfi_offset 14, -4
 349:Generated_Source\PSoC4/I2S.c ****         uint8 enableInterrupts;
 350:Generated_Source\PSoC4/I2S.c **** 
 351:Generated_Source\PSoC4/I2S.c ****         enableInterrupts = CyEnterCriticalSection();
 249              		.loc 1 351 0
 250 0002 FFF7FEFF 		bl	CyEnterCriticalSection
 251              	.LVL8:
 352:Generated_Source\PSoC4/I2S.c ****         I2S_CLEAR_TX_FIFO(CH0);
 252              		.loc 1 352 0
 253 0006 064A     		ldr	r2, .L18
 254 0008 1178     		ldrb	r1, [r2]
 255 000a 0323     		movs	r3, #3
 256 000c 0B43     		orrs	r3, r1
 257 000e DBB2     		uxtb	r3, r3
 258 0010 1370     		strb	r3, [r2]
 259 0012 1378     		ldrb	r3, [r2]
 260 0014 0321     		movs	r1, #3
 261 0016 8B43     		bics	r3, r1
 262 0018 1370     		strb	r3, [r2]
 353:Generated_Source\PSoC4/I2S.c ****         #if (I2S_TX_STEREO_1_PRESENT)
 354:Generated_Source\PSoC4/I2S.c ****             I2S_CLEAR_TX_FIFO(CH1);
 355:Generated_Source\PSoC4/I2S.c ****         #endif /* I2S_TX_STEREO_1_PRESENT */
 356:Generated_Source\PSoC4/I2S.c ****         #if (I2S_TX_STEREO_2_PRESENT)
 357:Generated_Source\PSoC4/I2S.c ****             I2S_CLEAR_TX_FIFO(CH2);
 358:Generated_Source\PSoC4/I2S.c ****         #endif /* I2S_TX_STEREO_2_PRESENT */
 359:Generated_Source\PSoC4/I2S.c ****         #if (I2S_TX_STEREO_3_PRESENT)
 360:Generated_Source\PSoC4/I2S.c ****             I2S_CLEAR_TX_FIFO(CH3);
 361:Generated_Source\PSoC4/I2S.c ****         #endif /* I2S_TX_STEREO_3_PRESENT */
 362:Generated_Source\PSoC4/I2S.c ****         #if (I2S_TX_STEREO_4_PRESENT)
 363:Generated_Source\PSoC4/I2S.c ****             I2S_CLEAR_TX_FIFO(CH4);
 364:Generated_Source\PSoC4/I2S.c ****         #endif /* I2S_TX_STEREO_4_PRESENT */
 365:Generated_Source\PSoC4/I2S.c ****         CyExitCriticalSection(enableInterrupts);
ARM GAS  C:\Users\psmus\AppData\Local\Temp\ccNnZNLJ.s 			page 12


 263              		.loc 1 365 0
 264 001a FFF7FEFF 		bl	CyExitCriticalSection
 265              	.LVL9:
 366:Generated_Source\PSoC4/I2S.c ****     }
 266              		.loc 1 366 0
 267              		@ sp needed
 268 001e 10BD     		pop	{r4, pc}
 269              	.L19:
 270              		.align	2
 271              	.L18:
 272 0020 95000F40 		.word	1074725013
 273              		.cfi_endproc
 274              	.LFE7:
 275              		.size	I2S_ClearTxFIFO, .-I2S_ClearTxFIFO
 276              		.section	.text.I2S_Stop,"ax",%progbits
 277              		.align	2
 278              		.global	I2S_Stop
 279              		.code	16
 280              		.thumb_func
 281              		.type	I2S_Stop, %function
 282              	I2S_Stop:
 283              	.LFB4:
 186:Generated_Source\PSoC4/I2S.c ****     uint8 enableInterrupts;
 284              		.loc 1 186 0
 285              		.cfi_startproc
 286              		@ args = 0, pretend = 0, frame = 0
 287              		@ frame_needed = 0, uses_anonymous_args = 0
 288 0000 10B5     		push	{r4, lr}
 289              		.cfi_def_cfa_offset 8
 290              		.cfi_offset 4, -8
 291              		.cfi_offset 14, -4
 189:Generated_Source\PSoC4/I2S.c **** 
 292              		.loc 1 189 0
 293 0002 0B4A     		ldr	r2, .L21
 294 0004 1378     		ldrb	r3, [r2]
 295 0006 0421     		movs	r1, #4
 296 0008 8B43     		bics	r3, r1
 297 000a 1370     		strb	r3, [r2]
 191:Generated_Source\PSoC4/I2S.c ****     I2S_AUX_CONTROL_REG &= (uint8)~I2S_CNT_START;
 298              		.loc 1 191 0
 299 000c FFF7FEFF 		bl	CyEnterCriticalSection
 300              	.LVL10:
 192:Generated_Source\PSoC4/I2S.c ****     CyExitCriticalSection(enableInterrupts);
 301              		.loc 1 192 0
 302 0010 084A     		ldr	r2, .L21+4
 303 0012 1378     		ldrb	r3, [r2]
 304 0014 2021     		movs	r1, #32
 305 0016 8B43     		bics	r3, r1
 306 0018 1370     		strb	r3, [r2]
 193:Generated_Source\PSoC4/I2S.c **** 
 307              		.loc 1 193 0
 308 001a FFF7FEFF 		bl	CyExitCriticalSection
 309              	.LVL11:
 196:Generated_Source\PSoC4/I2S.c **** 
 310              		.loc 1 196 0
 311 001e 0022     		movs	r2, #0
 312 0020 054B     		ldr	r3, .L21+8
ARM GAS  C:\Users\psmus\AppData\Local\Temp\ccNnZNLJ.s 			page 13


 313 0022 1A70     		strb	r2, [r3]
 199:Generated_Source\PSoC4/I2S.c ****         I2S_ClearTxFIFO();
 314              		.loc 1 199 0
 315 0024 FFF7FEFF 		bl	I2S_DisableTx
 316              	.LVL12:
 200:Generated_Source\PSoC4/I2S.c ****     #endif /* (I2S_TX_DIRECTION_ENABLE) */
 317              		.loc 1 200 0
 318 0028 FFF7FEFF 		bl	I2S_ClearTxFIFO
 319              	.LVL13:
 207:Generated_Source\PSoC4/I2S.c **** 
 320              		.loc 1 207 0
 321              		@ sp needed
 322 002c 10BD     		pop	{r4, pc}
 323              	.L22:
 324 002e C046     		.align	2
 325              	.L21:
 326 0030 76000F40 		.word	1074724982
 327 0034 95000F40 		.word	1074725013
 328 0038 75000F40 		.word	1074724981
 329              		.cfi_endproc
 330              	.LFE4:
 331              		.size	I2S_Stop, .-I2S_Stop
 332              		.global	I2S_initVar
 333              		.bss
 334              		.set	.LANCHOR0,. + 0
 335              		.type	I2S_initVar, %object
 336              		.size	I2S_initVar, 1
 337              	I2S_initVar:
 338 0000 00       		.space	1
 339              		.text
 340              	.Letext0:
 341              		.file 2 "Generated_Source\\PSoC4\\cytypes.h"
 342              		.file 3 "Generated_Source\\PSoC4\\CyLib.h"