ARM GAS  C:\Users\psmus\AppData\Local\Temp\ccd7gu0f.s 			page 1


   1              		.syntax unified
   2              		.cpu cortex-m0
   3              		.fpu softvfp
   4              		.eabi_attribute 20, 1
   5              		.eabi_attribute 21, 1
   6              		.eabi_attribute 23, 3
   7              		.eabi_attribute 24, 1
   8              		.eabi_attribute 25, 1
   9              		.eabi_attribute 26, 1
  10              		.eabi_attribute 30, 1
  11              		.eabi_attribute 34, 0
  12              		.eabi_attribute 18, 4
  13              		.thumb
  14              		.syntax unified
  15              		.file	"Interrupts.c"
  16              		.text
  17              	.Ltext0:
  18              		.cfi_sections	.debug_frame
  19              		.section	.text.ADC_EOC,"ax",%progbits
  20              		.align	2
  21              		.global	ADC_EOC
  22              		.code	16
  23              		.thumb_func
  24              		.type	ADC_EOC, %function
  25              	ADC_EOC:
  26              	.LFB130:
  27              		.file 1 "Interrupts.c"
   1:Interrupts.c  **** /*******************************************************************************
   2:Interrupts.c  **** * File Name: Interrupts.c
   3:Interrupts.c  **** *
   4:Interrupts.c  **** * Version 1.0
   5:Interrupts.c  **** *
   6:Interrupts.c  **** *  Description: This file contains interrupt service routines for all the interrupts
   7:Interrupts.c  **** *               in the system
   8:Interrupts.c  **** *
   9:Interrupts.c  **** *******************************************************************************
  10:Interrupts.c  **** * Copyright (2018), Cypress Semiconductor Corporation. All rights reserved.
  11:Interrupts.c  **** *******************************************************************************
  12:Interrupts.c  **** * This software, including source code, documentation and related materials
  13:Interrupts.c  **** * (“Software”), is owned by Cypress Semiconductor Corporation or one of its
  14:Interrupts.c  **** * subsidiaries (“Cypress”) and is protected by and subject to worldwide patent
  15:Interrupts.c  **** * protection (United States and foreign), United States copyright laws and
  16:Interrupts.c  **** * international treaty provisions. Therefore, you may use this Software only
  17:Interrupts.c  **** * as provided in the license agreement accompanying the software package from
  18:Interrupts.c  **** * which you obtained this Software (“EULA”).
  19:Interrupts.c  **** *
  20:Interrupts.c  **** * If no EULA applies, Cypress hereby grants you a personal, nonexclusive,
  21:Interrupts.c  **** * non-transferable license to copy, modify, and compile the Software source
  22:Interrupts.c  **** * code solely for use in connection with Cypress’s integrated circuit products.
  23:Interrupts.c  **** * Any reproduction, modification, translation, compilation, or representation
  24:Interrupts.c  **** * of this Software except as specified above is prohibited without the express
  25:Interrupts.c  **** * written permission of Cypress.
  26:Interrupts.c  **** *
  27:Interrupts.c  **** * Disclaimer: THIS SOFTWARE IS PROVIDED AS-IS, WITH NO WARRANTY OF ANY KIND, 
  28:Interrupts.c  **** * EXPRESS OR IMPLIED, INCLUDING, BUT NOT LIMITED TO, NONINFRINGEMENT, IMPLIED 
  29:Interrupts.c  **** * WARRANTIES OF MERCHANTABILITY AND FITNESS FOR A PARTICULAR PURPOSE. Cypress 
  30:Interrupts.c  **** * reserves the right to make changes to the Software without notice. Cypress 
ARM GAS  C:\Users\psmus\AppData\Local\Temp\ccd7gu0f.s 			page 2


  31:Interrupts.c  **** * does not assume any liability arising out of the application or use of the 
  32:Interrupts.c  **** * Software or any product or circuit described in the Software. Cypress does 
  33:Interrupts.c  **** * not authorize its products for use in any products where a malfunction or 
  34:Interrupts.c  **** * failure of the Cypress product may reasonably be expected to result in 
  35:Interrupts.c  **** * significant property damage, injury or death (“High Risk Product”). By 
  36:Interrupts.c  **** * including Cypress’s product in a High Risk Product, the manufacturer of such 
  37:Interrupts.c  **** * system or application assumes all risk of such use and in doing so agrees to 
  38:Interrupts.c  **** * indemnify Cypress against all liability.
  39:Interrupts.c  **** *******************************************************************************/
  40:Interrupts.c  **** #include <AudioControl.h>
  41:Interrupts.c  **** #include <AudioOut.h>
  42:Interrupts.c  **** #include <Config.h>
  43:Interrupts.c  **** #include <project.h>
  44:Interrupts.c  **** #include <Interrupts.h>
  45:Interrupts.c  **** #include "waves.h"
  46:Interrupts.c  **** #include "globals.h"
  47:Interrupts.c  **** 
  48:Interrupts.c  **** volatile uint8_t DMA_done_flag = 0;
  49:Interrupts.c  **** volatile uint8_t DMA_counter = 0;
  50:Interrupts.c  **** volatile int8_t* current_buffer;
  51:Interrupts.c  **** volatile uint8_t FIFO_DMA_REQ_FLAG = 0;
  52:Interrupts.c  **** volatile uint8_t update_ADC_flag = 0;
  53:Interrupts.c  **** volatile uint8_t trigger_flag = 0;
  54:Interrupts.c  **** 
  55:Interrupts.c  **** CY_ISR(ADC_EOC) {
  28              		.loc 1 55 0
  29              		.cfi_startproc
  30              		@ args = 0, pretend = 0, frame = 0
  31              		@ frame_needed = 0, uses_anonymous_args = 0
  32              		@ link register save eliminated.
  56:Interrupts.c  ****     //UART_UartPutString("ADC EOC\r\n");
  57:Interrupts.c  ****     update_ADC_flag = 1;
  33              		.loc 1 57 0
  34 0000 0122     		movs	r2, #1
  35 0002 014B     		ldr	r3, .L2
  36 0004 1A70     		strb	r2, [r3]
  58:Interrupts.c  ****     //freq = 2000;
  59:Interrupts.c  **** }
  37              		.loc 1 59 0
  38              		@ sp needed
  39 0006 7047     		bx	lr
  40              	.L3:
  41              		.align	2
  42              	.L2:
  43 0008 00000000 		.word	.LANCHOR0
  44              		.cfi_endproc
  45              	.LFE130:
  46              		.size	ADC_EOC, .-ADC_EOC
  47              		.section	.text.I2STxDone,"ax",%progbits
  48              		.align	2
  49              		.global	I2STxDone
  50              		.code	16
  51              		.thumb_func
  52              		.type	I2STxDone, %function
  53              	I2STxDone:
  54              	.LFB131:
  60:Interrupts.c  **** 
ARM GAS  C:\Users\psmus\AppData\Local\Temp\ccd7gu0f.s 			page 3


  61:Interrupts.c  **** CY_ISR(I2STxDone){
  55              		.loc 1 61 0
  56              		.cfi_startproc
  57              		@ args = 0, pretend = 0, frame = 0
  58              		@ frame_needed = 0, uses_anonymous_args = 0
  59              		@ link register save eliminated.
  62:Interrupts.c  ****     //UART_UartPutString("DMA done\r\n");
  63:Interrupts.c  ****     //CyGlobalIntDisable;
  64:Interrupts.c  ****     DMA_done_flag = 1;
  60              		.loc 1 64 0
  61 0000 034A     		ldr	r2, .L5
  62 0002 0123     		movs	r3, #1
  63 0004 5370     		strb	r3, [r2, #1]
  65:Interrupts.c  ****     DMA_counter++;
  64              		.loc 1 65 0
  65 0006 9378     		ldrb	r3, [r2, #2]
  66 0008 0133     		adds	r3, r3, #1
  67 000a DBB2     		uxtb	r3, r3
  68 000c 9370     		strb	r3, [r2, #2]
  66:Interrupts.c  **** }
  69              		.loc 1 66 0
  70              		@ sp needed
  71 000e 7047     		bx	lr
  72              	.L6:
  73              		.align	2
  74              	.L5:
  75 0010 00000000 		.word	.LANCHOR0
  76              		.cfi_endproc
  77              	.LFE131:
  78              		.size	I2STxDone, .-I2STxDone
  79              		.section	.text.SPIDone,"ax",%progbits
  80              		.align	2
  81              		.global	SPIDone
  82              		.code	16
  83              		.thumb_func
  84              		.type	SPIDone, %function
  85              	SPIDone:
  86              	.LFB132:
  67:Interrupts.c  **** 
  68:Interrupts.c  **** CY_ISR(SPIDone){
  87              		.loc 1 68 0
  88              		.cfi_startproc
  89              		@ args = 0, pretend = 0, frame = 0
  90              		@ frame_needed = 0, uses_anonymous_args = 0
  91 0000 10B5     		push	{r4, lr}
  92              		.cfi_def_cfa_offset 8
  93              		.cfi_offset 4, -8
  94              		.cfi_offset 14, -4
  69:Interrupts.c  ****     LED_Write(0);
  95              		.loc 1 69 0
  96 0002 0020     		movs	r0, #0
  97 0004 FFF7FEFF 		bl	LED_Write
  98              	.LVL0:
  70:Interrupts.c  ****     /* Reset receive buffers. */
  71:Interrupts.c  ****     //memcpy((void *)current_buffer, masterRxBuffer, BUFFER_SIZE);
  72:Interrupts.c  ****     memcpy((void *)output_buffer, masterRxBuffer, BUFFER_SIZE);
  99              		.loc 1 72 0
ARM GAS  C:\Users\psmus\AppData\Local\Temp\ccd7gu0f.s 			page 4


 100 0008 2022     		movs	r2, #32
 101 000a 0949     		ldr	r1, .L8
 102 000c 0948     		ldr	r0, .L8+4
 103 000e FFF7FEFF 		bl	memcpy
 104              	.LVL1:
 105              	.LBB10:
 106              	.LBB11:
 107              		.file 2 "Generated_Source\\PSoC4/SPI_TxDMA.h"
   1:Generated_Source\PSoC4/SPI_TxDMA.h **** /*******************************************************************************
   2:Generated_Source\PSoC4/SPI_TxDMA.h **** * File Name: SPI_TxDMA.h
   3:Generated_Source\PSoC4/SPI_TxDMA.h **** * Version 1.0
   4:Generated_Source\PSoC4/SPI_TxDMA.h **** *
   5:Generated_Source\PSoC4/SPI_TxDMA.h **** * Description:
   6:Generated_Source\PSoC4/SPI_TxDMA.h **** *  This file provides DMA channel defines and API function definitions.
   7:Generated_Source\PSoC4/SPI_TxDMA.h **** *
   8:Generated_Source\PSoC4/SPI_TxDMA.h **** ********************************************************************************
   9:Generated_Source\PSoC4/SPI_TxDMA.h **** * Copyright 2015, Cypress Semiconductor Corporation. All rights reserved.
  10:Generated_Source\PSoC4/SPI_TxDMA.h **** * You may use this file only in accordance with the license, terms, conditions,
  11:Generated_Source\PSoC4/SPI_TxDMA.h **** * disclaimers, and limitations in the end user license agreement accompanying
  12:Generated_Source\PSoC4/SPI_TxDMA.h **** * the software package with which this file was provided.
  13:Generated_Source\PSoC4/SPI_TxDMA.h **** *******************************************************************************/
  14:Generated_Source\PSoC4/SPI_TxDMA.h **** 
  15:Generated_Source\PSoC4/SPI_TxDMA.h **** #ifndef CY_DMA_CHANNEL_SPI_TxDMA_H
  16:Generated_Source\PSoC4/SPI_TxDMA.h **** #define CY_DMA_CHANNEL_SPI_TxDMA_H
  17:Generated_Source\PSoC4/SPI_TxDMA.h **** 
  18:Generated_Source\PSoC4/SPI_TxDMA.h **** #include "CyDMA.h"
  19:Generated_Source\PSoC4/SPI_TxDMA.h **** 
  20:Generated_Source\PSoC4/SPI_TxDMA.h ****     
  21:Generated_Source\PSoC4/SPI_TxDMA.h **** /***************************************
  22:Generated_Source\PSoC4/SPI_TxDMA.h **** *   Conditional Compilation Parameters
  23:Generated_Source\PSoC4/SPI_TxDMA.h **** ***************************************/
  24:Generated_Source\PSoC4/SPI_TxDMA.h **** 
  25:Generated_Source\PSoC4/SPI_TxDMA.h **** #define SPI_TxDMA_CHANNEL           (SPI_TxDMA__CHANNEL_NUMBER)
  26:Generated_Source\PSoC4/SPI_TxDMA.h **** #define SPI_TxDMA_CHANNEL_MASK      ((uint32)(1UL << SPI_TxDMA_CHANNEL))
  27:Generated_Source\PSoC4/SPI_TxDMA.h **** 
  28:Generated_Source\PSoC4/SPI_TxDMA.h **** 
  29:Generated_Source\PSoC4/SPI_TxDMA.h **** /***************************************
  30:Generated_Source\PSoC4/SPI_TxDMA.h **** *        Function Prototypes
  31:Generated_Source\PSoC4/SPI_TxDMA.h **** ***************************************/
  32:Generated_Source\PSoC4/SPI_TxDMA.h **** 
  33:Generated_Source\PSoC4/SPI_TxDMA.h **** /* Functions specific to this DMA channel */
  34:Generated_Source\PSoC4/SPI_TxDMA.h **** void SPI_TxDMA_Init(void);
  35:Generated_Source\PSoC4/SPI_TxDMA.h **** void SPI_TxDMA_Start(void * srcAddress, void * dstAddress);
  36:Generated_Source\PSoC4/SPI_TxDMA.h **** 
  37:Generated_Source\PSoC4/SPI_TxDMA.h **** /* Inline functions that call global API functions */
  38:Generated_Source\PSoC4/SPI_TxDMA.h **** static void   SPI_TxDMA_ChEnable(void);
  39:Generated_Source\PSoC4/SPI_TxDMA.h **** static void   SPI_TxDMA_ChDisable(void);
  40:Generated_Source\PSoC4/SPI_TxDMA.h **** static void   SPI_TxDMA_Trigger(void);
  41:Generated_Source\PSoC4/SPI_TxDMA.h **** static void   SPI_TxDMA_SetPriority(int32 priority);
  42:Generated_Source\PSoC4/SPI_TxDMA.h **** static int32  SPI_TxDMA_GetPriority(void);
  43:Generated_Source\PSoC4/SPI_TxDMA.h **** static void   SPI_TxDMA_SetNextDescriptor(int32 descriptor);
  44:Generated_Source\PSoC4/SPI_TxDMA.h **** static int32  SPI_TxDMA_GetNextDescriptor(void);
  45:Generated_Source\PSoC4/SPI_TxDMA.h **** static void   SPI_TxDMA_SetConfiguration(int32 descriptor, const cydma_init_struct * config);
  46:Generated_Source\PSoC4/SPI_TxDMA.h **** static void   SPI_TxDMA_ValidateDescriptor(int32 descriptor);
  47:Generated_Source\PSoC4/SPI_TxDMA.h **** static uint32 SPI_TxDMA_GetDescriptorStatus(int32 descriptor);
  48:Generated_Source\PSoC4/SPI_TxDMA.h **** static void   SPI_TxDMA_SetSrcAddress(int32 descriptor, void * srcAddress);
  49:Generated_Source\PSoC4/SPI_TxDMA.h **** static void * SPI_TxDMA_GetSrcAddress(int32 descriptor);
ARM GAS  C:\Users\psmus\AppData\Local\Temp\ccd7gu0f.s 			page 5


  50:Generated_Source\PSoC4/SPI_TxDMA.h **** static void   SPI_TxDMA_SetDstAddress(int32 descriptor, void * dstAddress);
  51:Generated_Source\PSoC4/SPI_TxDMA.h **** static void * SPI_TxDMA_GetDstAddress(int32 descriptor);
  52:Generated_Source\PSoC4/SPI_TxDMA.h **** static void   SPI_TxDMA_SetDataElementSize(int32 descriptor, uint32 dataElementSize);
  53:Generated_Source\PSoC4/SPI_TxDMA.h **** static uint32 SPI_TxDMA_GetDataElementSize(int32 descriptor);
  54:Generated_Source\PSoC4/SPI_TxDMA.h **** static void   SPI_TxDMA_SetNumDataElements(int32 descriptor, int32 numDataElements);
  55:Generated_Source\PSoC4/SPI_TxDMA.h **** static int32  SPI_TxDMA_GetNumDataElements(int32 descriptor);
  56:Generated_Source\PSoC4/SPI_TxDMA.h **** static void   SPI_TxDMA_SetSrcDstTransferWidth(int32 descriptor, uint32 transferWidth);
  57:Generated_Source\PSoC4/SPI_TxDMA.h **** static uint32 SPI_TxDMA_GetSrcDstTransferWidth(int32 descriptor);
  58:Generated_Source\PSoC4/SPI_TxDMA.h **** static void   SPI_TxDMA_SetAddressIncrement(int32 descriptor, uint32 addressIncrement);
  59:Generated_Source\PSoC4/SPI_TxDMA.h **** static uint32 SPI_TxDMA_GetAddressIncrement(int32 descriptor);
  60:Generated_Source\PSoC4/SPI_TxDMA.h **** static void   SPI_TxDMA_SetTriggerType(int32 descriptor, uint32 triggerType);
  61:Generated_Source\PSoC4/SPI_TxDMA.h **** static uint32 SPI_TxDMA_GetTriggerType(int32 descriptor);
  62:Generated_Source\PSoC4/SPI_TxDMA.h **** static void   SPI_TxDMA_SetTransferMode(int32 descriptor, uint32 transferMode);
  63:Generated_Source\PSoC4/SPI_TxDMA.h **** static uint32 SPI_TxDMA_GetTransferMode(int32 descriptor);
  64:Generated_Source\PSoC4/SPI_TxDMA.h **** static void   SPI_TxDMA_SetPreemptable(int32 descriptor, uint32 preemptable);
  65:Generated_Source\PSoC4/SPI_TxDMA.h **** static uint32 SPI_TxDMA_GetPreemptable(int32 descriptor);
  66:Generated_Source\PSoC4/SPI_TxDMA.h **** static void   SPI_TxDMA_SetPostCompletionActions(int32 descriptor, uint32 actions);
  67:Generated_Source\PSoC4/SPI_TxDMA.h **** static uint32 SPI_TxDMA_GetPostCompletionAction(int32 descriptor);
  68:Generated_Source\PSoC4/SPI_TxDMA.h **** static cydma_callback_t SPI_TxDMA_SetInterruptCallback(cydma_callback_t callback);
  69:Generated_Source\PSoC4/SPI_TxDMA.h **** static cydma_callback_t SPI_TxDMA_GetInterruptCallback(void);
  70:Generated_Source\PSoC4/SPI_TxDMA.h **** 
  71:Generated_Source\PSoC4/SPI_TxDMA.h **** 
  72:Generated_Source\PSoC4/SPI_TxDMA.h **** /*******************************************************************************
  73:Generated_Source\PSoC4/SPI_TxDMA.h **** * Function Name: SPI_TxDMA_ChEnable
  74:Generated_Source\PSoC4/SPI_TxDMA.h **** ********************************************************************************
  75:Generated_Source\PSoC4/SPI_TxDMA.h **** *
  76:Generated_Source\PSoC4/SPI_TxDMA.h **** * Summary:
  77:Generated_Source\PSoC4/SPI_TxDMA.h **** *  Enables the DMA channel. It is not necessary to call SPI_TxDMA_ChEnable()
  78:Generated_Source\PSoC4/SPI_TxDMA.h **** *  because the SPI_TxDMA_Start() API calls this function, which is the
  79:Generated_Source\PSoC4/SPI_TxDMA.h **** *  preferred method to begin the component operation.
  80:Generated_Source\PSoC4/SPI_TxDMA.h **** *
  81:Generated_Source\PSoC4/SPI_TxDMA.h **** * Parameters:
  82:Generated_Source\PSoC4/SPI_TxDMA.h **** *  None.
  83:Generated_Source\PSoC4/SPI_TxDMA.h **** *                   
  84:Generated_Source\PSoC4/SPI_TxDMA.h **** * Return:
  85:Generated_Source\PSoC4/SPI_TxDMA.h **** *  None.
  86:Generated_Source\PSoC4/SPI_TxDMA.h **** *
  87:Generated_Source\PSoC4/SPI_TxDMA.h **** * Side effect:
  88:Generated_Source\PSoC4/SPI_TxDMA.h **** *  If this function is called before SPI_TxDMA_Start(), or SPI_TxDMA_Init()
  89:Generated_Source\PSoC4/SPI_TxDMA.h **** *  or SPI_TxDMA_SetConfiguration(), and SPI_TxDMA_SetSrcAddress()
  90:Generated_Source\PSoC4/SPI_TxDMA.h **** *  and SPI_TxDMA_SetDstAddress the operation of the DMA is 
  91:Generated_Source\PSoC4/SPI_TxDMA.h **** *  undefined and could result in system data corruption. 
  92:Generated_Source\PSoC4/SPI_TxDMA.h **** *
  93:Generated_Source\PSoC4/SPI_TxDMA.h **** *******************************************************************************/
  94:Generated_Source\PSoC4/SPI_TxDMA.h **** static CY_INLINE void SPI_TxDMA_ChEnable(void)
  95:Generated_Source\PSoC4/SPI_TxDMA.h **** {
  96:Generated_Source\PSoC4/SPI_TxDMA.h ****     CyDmaChEnable(SPI_TxDMA_CHANNEL);
  97:Generated_Source\PSoC4/SPI_TxDMA.h **** }
  98:Generated_Source\PSoC4/SPI_TxDMA.h **** 
  99:Generated_Source\PSoC4/SPI_TxDMA.h **** 
 100:Generated_Source\PSoC4/SPI_TxDMA.h **** /*******************************************************************************
 101:Generated_Source\PSoC4/SPI_TxDMA.h **** * Function Name: SPI_TxDMA_ChDisable
 102:Generated_Source\PSoC4/SPI_TxDMA.h **** ********************************************************************************
 103:Generated_Source\PSoC4/SPI_TxDMA.h **** *
 104:Generated_Source\PSoC4/SPI_TxDMA.h **** * Summary:
 105:Generated_Source\PSoC4/SPI_TxDMA.h **** *  Disables the DMA channel.
 106:Generated_Source\PSoC4/SPI_TxDMA.h **** *
ARM GAS  C:\Users\psmus\AppData\Local\Temp\ccd7gu0f.s 			page 6


 107:Generated_Source\PSoC4/SPI_TxDMA.h **** * Parameters:
 108:Generated_Source\PSoC4/SPI_TxDMA.h **** *  None.
 109:Generated_Source\PSoC4/SPI_TxDMA.h **** *                   
 110:Generated_Source\PSoC4/SPI_TxDMA.h **** * Return:
 111:Generated_Source\PSoC4/SPI_TxDMA.h **** *  None.
 112:Generated_Source\PSoC4/SPI_TxDMA.h **** *
 113:Generated_Source\PSoC4/SPI_TxDMA.h **** * Side effect:
 114:Generated_Source\PSoC4/SPI_TxDMA.h **** *  If this function is called during a DMA transfer the transfer is aborted. 
 115:Generated_Source\PSoC4/SPI_TxDMA.h **** *
 116:Generated_Source\PSoC4/SPI_TxDMA.h **** *******************************************************************************/
 117:Generated_Source\PSoC4/SPI_TxDMA.h **** static CY_INLINE void SPI_TxDMA_ChDisable(void)
 118:Generated_Source\PSoC4/SPI_TxDMA.h **** {
 119:Generated_Source\PSoC4/SPI_TxDMA.h ****     CyDmaChDisable(SPI_TxDMA_CHANNEL);
 120:Generated_Source\PSoC4/SPI_TxDMA.h **** }
 121:Generated_Source\PSoC4/SPI_TxDMA.h **** 
 122:Generated_Source\PSoC4/SPI_TxDMA.h **** 
 123:Generated_Source\PSoC4/SPI_TxDMA.h **** /*******************************************************************************
 124:Generated_Source\PSoC4/SPI_TxDMA.h **** * Function Name: SPI_TxDMA_Trigger
 125:Generated_Source\PSoC4/SPI_TxDMA.h **** ********************************************************************************
 126:Generated_Source\PSoC4/SPI_TxDMA.h **** *
 127:Generated_Source\PSoC4/SPI_TxDMA.h **** * Summary:
 128:Generated_Source\PSoC4/SPI_TxDMA.h **** *  Triggers the DMA channel, this is useful only for software triggers. This is
 129:Generated_Source\PSoC4/SPI_TxDMA.h **** *  not needed when hardware triggers are used.
 130:Generated_Source\PSoC4/SPI_TxDMA.h **** *
 131:Generated_Source\PSoC4/SPI_TxDMA.h **** * Parameters:
 132:Generated_Source\PSoC4/SPI_TxDMA.h **** *  None.
 133:Generated_Source\PSoC4/SPI_TxDMA.h **** *                   
 134:Generated_Source\PSoC4/SPI_TxDMA.h **** * Return:
 135:Generated_Source\PSoC4/SPI_TxDMA.h **** *  None. 
 136:Generated_Source\PSoC4/SPI_TxDMA.h **** *
 137:Generated_Source\PSoC4/SPI_TxDMA.h **** *******************************************************************************/
 138:Generated_Source\PSoC4/SPI_TxDMA.h **** static CY_INLINE void SPI_TxDMA_Trigger(void)
 139:Generated_Source\PSoC4/SPI_TxDMA.h **** {
 140:Generated_Source\PSoC4/SPI_TxDMA.h ****     CyDmaTrigger(SPI_TxDMA_CHANNEL);
 141:Generated_Source\PSoC4/SPI_TxDMA.h **** }
 142:Generated_Source\PSoC4/SPI_TxDMA.h **** 
 143:Generated_Source\PSoC4/SPI_TxDMA.h **** 
 144:Generated_Source\PSoC4/SPI_TxDMA.h **** /*******************************************************************************
 145:Generated_Source\PSoC4/SPI_TxDMA.h **** * Function Name: SPI_TxDMA_SetPriority
 146:Generated_Source\PSoC4/SPI_TxDMA.h **** ********************************************************************************
 147:Generated_Source\PSoC4/SPI_TxDMA.h **** *
 148:Generated_Source\PSoC4/SPI_TxDMA.h **** * Summary:
 149:Generated_Source\PSoC4/SPI_TxDMA.h **** *  Sets the priority for the channel.
 150:Generated_Source\PSoC4/SPI_TxDMA.h **** *
 151:Generated_Source\PSoC4/SPI_TxDMA.h **** * Parameters:
 152:Generated_Source\PSoC4/SPI_TxDMA.h **** *  priority: Priority for channel. Priority can be 0,1,2, or 3.
 153:Generated_Source\PSoC4/SPI_TxDMA.h **** *            0 is the highest priority.
 154:Generated_Source\PSoC4/SPI_TxDMA.h **** *                   
 155:Generated_Source\PSoC4/SPI_TxDMA.h **** * Return:
 156:Generated_Source\PSoC4/SPI_TxDMA.h **** *  None.
 157:Generated_Source\PSoC4/SPI_TxDMA.h **** *
 158:Generated_Source\PSoC4/SPI_TxDMA.h **** * Side effect:
 159:Generated_Source\PSoC4/SPI_TxDMA.h **** *  This function should not be called while the channel is enabled.
 160:Generated_Source\PSoC4/SPI_TxDMA.h **** *
 161:Generated_Source\PSoC4/SPI_TxDMA.h **** *******************************************************************************/
 162:Generated_Source\PSoC4/SPI_TxDMA.h **** static CY_INLINE void SPI_TxDMA_SetPriority(int32 priority)
 163:Generated_Source\PSoC4/SPI_TxDMA.h **** {
ARM GAS  C:\Users\psmus\AppData\Local\Temp\ccd7gu0f.s 			page 7


 164:Generated_Source\PSoC4/SPI_TxDMA.h ****     CyDmaSetPriority(SPI_TxDMA_CHANNEL, priority);
 165:Generated_Source\PSoC4/SPI_TxDMA.h **** }
 166:Generated_Source\PSoC4/SPI_TxDMA.h **** 
 167:Generated_Source\PSoC4/SPI_TxDMA.h **** 
 168:Generated_Source\PSoC4/SPI_TxDMA.h **** /*******************************************************************************
 169:Generated_Source\PSoC4/SPI_TxDMA.h **** * Function Name: SPI_TxDMA_GetPriority
 170:Generated_Source\PSoC4/SPI_TxDMA.h **** ********************************************************************************
 171:Generated_Source\PSoC4/SPI_TxDMA.h **** *
 172:Generated_Source\PSoC4/SPI_TxDMA.h **** * Summary:
 173:Generated_Source\PSoC4/SPI_TxDMA.h **** *  Gets the priority for the channel.
 174:Generated_Source\PSoC4/SPI_TxDMA.h **** *
 175:Generated_Source\PSoC4/SPI_TxDMA.h **** * Parameters:
 176:Generated_Source\PSoC4/SPI_TxDMA.h **** *  None.
 177:Generated_Source\PSoC4/SPI_TxDMA.h **** *                   
 178:Generated_Source\PSoC4/SPI_TxDMA.h **** * Return:
 179:Generated_Source\PSoC4/SPI_TxDMA.h **** *  Priority for channel. Priority can be 0,1,2, or 3. 0 is the highest priority.
 180:Generated_Source\PSoC4/SPI_TxDMA.h **** *
 181:Generated_Source\PSoC4/SPI_TxDMA.h **** *******************************************************************************/
 182:Generated_Source\PSoC4/SPI_TxDMA.h **** static CY_INLINE int32 SPI_TxDMA_GetPriority(void)
 183:Generated_Source\PSoC4/SPI_TxDMA.h **** {
 184:Generated_Source\PSoC4/SPI_TxDMA.h ****     return (CyDmaGetPriority(SPI_TxDMA_CHANNEL));
 185:Generated_Source\PSoC4/SPI_TxDMA.h **** }
 186:Generated_Source\PSoC4/SPI_TxDMA.h **** 
 187:Generated_Source\PSoC4/SPI_TxDMA.h **** 
 188:Generated_Source\PSoC4/SPI_TxDMA.h **** /*******************************************************************************
 189:Generated_Source\PSoC4/SPI_TxDMA.h **** * Function Name: SPI_TxDMA_SetNextDescriptor
 190:Generated_Source\PSoC4/SPI_TxDMA.h **** ********************************************************************************
 191:Generated_Source\PSoC4/SPI_TxDMA.h **** *
 192:Generated_Source\PSoC4/SPI_TxDMA.h **** * Summary:
 193:Generated_Source\PSoC4/SPI_TxDMA.h **** *  Sets the descriptor that should be run the next time the channel is
 194:Generated_Source\PSoC4/SPI_TxDMA.h **** *  triggered.
 195:Generated_Source\PSoC4/SPI_TxDMA.h **** *
 196:Generated_Source\PSoC4/SPI_TxDMA.h **** * Parameters:
 197:Generated_Source\PSoC4/SPI_TxDMA.h **** *  descriptor: Next Descriptor to run (0 or 1).
 198:Generated_Source\PSoC4/SPI_TxDMA.h **** *                   
 199:Generated_Source\PSoC4/SPI_TxDMA.h **** * Side effect:
 200:Generated_Source\PSoC4/SPI_TxDMA.h **** *  This function should not be called while the channel is enabled.
 201:Generated_Source\PSoC4/SPI_TxDMA.h **** *
 202:Generated_Source\PSoC4/SPI_TxDMA.h **** *******************************************************************************/
 203:Generated_Source\PSoC4/SPI_TxDMA.h **** static CY_INLINE void SPI_TxDMA_SetNextDescriptor(int32 descriptor)
 204:Generated_Source\PSoC4/SPI_TxDMA.h **** {
 205:Generated_Source\PSoC4/SPI_TxDMA.h ****     CyDmaSetNextDescriptor(SPI_TxDMA_CHANNEL, descriptor);
 206:Generated_Source\PSoC4/SPI_TxDMA.h **** }
 207:Generated_Source\PSoC4/SPI_TxDMA.h **** 
 208:Generated_Source\PSoC4/SPI_TxDMA.h **** 
 209:Generated_Source\PSoC4/SPI_TxDMA.h **** /*******************************************************************************
 210:Generated_Source\PSoC4/SPI_TxDMA.h **** * Function Name: SPI_TxDMA_GetNextDescriptor
 211:Generated_Source\PSoC4/SPI_TxDMA.h **** ********************************************************************************
 212:Generated_Source\PSoC4/SPI_TxDMA.h **** *
 213:Generated_Source\PSoC4/SPI_TxDMA.h **** * Summary:
 214:Generated_Source\PSoC4/SPI_TxDMA.h **** *  Returns the next descriptor that should be run, as set by 
 215:Generated_Source\PSoC4/SPI_TxDMA.h **** *  SPI_TxDMA_SetNextDescriptor().
 216:Generated_Source\PSoC4/SPI_TxDMA.h **** *
 217:Generated_Source\PSoC4/SPI_TxDMA.h **** * Parameters:
 218:Generated_Source\PSoC4/SPI_TxDMA.h **** *  None.
 219:Generated_Source\PSoC4/SPI_TxDMA.h **** *                   
 220:Generated_Source\PSoC4/SPI_TxDMA.h **** * Return:
ARM GAS  C:\Users\psmus\AppData\Local\Temp\ccd7gu0f.s 			page 8


 221:Generated_Source\PSoC4/SPI_TxDMA.h **** *  Next Descriptor to run (0 or 1).
 222:Generated_Source\PSoC4/SPI_TxDMA.h **** *
 223:Generated_Source\PSoC4/SPI_TxDMA.h **** *******************************************************************************/
 224:Generated_Source\PSoC4/SPI_TxDMA.h **** static CY_INLINE int32 SPI_TxDMA_GetNextDescriptor(void)
 225:Generated_Source\PSoC4/SPI_TxDMA.h **** {
 226:Generated_Source\PSoC4/SPI_TxDMA.h ****     return (CyDmaGetNextDescriptor(SPI_TxDMA_CHANNEL));
 227:Generated_Source\PSoC4/SPI_TxDMA.h **** }
 228:Generated_Source\PSoC4/SPI_TxDMA.h **** 
 229:Generated_Source\PSoC4/SPI_TxDMA.h **** 
 230:Generated_Source\PSoC4/SPI_TxDMA.h **** /*******************************************************************************
 231:Generated_Source\PSoC4/SPI_TxDMA.h **** * Function Name: SPI_TxDMA_SetConfiguration
 232:Generated_Source\PSoC4/SPI_TxDMA.h **** ********************************************************************************
 233:Generated_Source\PSoC4/SPI_TxDMA.h **** *
 234:Generated_Source\PSoC4/SPI_TxDMA.h **** * Summary:
 235:Generated_Source\PSoC4/SPI_TxDMA.h **** *  Sets configuration information for the specified descriptor.
 236:Generated_Source\PSoC4/SPI_TxDMA.h **** *
 237:Generated_Source\PSoC4/SPI_TxDMA.h **** * Parameters:
 238:Generated_Source\PSoC4/SPI_TxDMA.h **** *  descriptor: Descriptor (0 or 1) modified by this function.
 239:Generated_Source\PSoC4/SPI_TxDMA.h **** *  config: Pointer to a configuration structure. Refer to cydma_init_struct
 240:Generated_Source\PSoC4/SPI_TxDMA.h **** *          structure definition in CyDMA_P4.h or the component datasheet.
 241:Generated_Source\PSoC4/SPI_TxDMA.h **** *                   
 242:Generated_Source\PSoC4/SPI_TxDMA.h **** * Return:
 243:Generated_Source\PSoC4/SPI_TxDMA.h **** *  None.
 244:Generated_Source\PSoC4/SPI_TxDMA.h **** *
 245:Generated_Source\PSoC4/SPI_TxDMA.h **** * Side effect:
 246:Generated_Source\PSoC4/SPI_TxDMA.h **** *  The status register associated with the specified descriptor is reset to
 247:Generated_Source\PSoC4/SPI_TxDMA.h **** *  zero after this function call. This function also validates the descriptor.
 248:Generated_Source\PSoC4/SPI_TxDMA.h **** *  This function should not be called while the descriptor is active.
 249:Generated_Source\PSoC4/SPI_TxDMA.h **** *  This can be checked by calling CyDmaGetStatus().
 250:Generated_Source\PSoC4/SPI_TxDMA.h **** *
 251:Generated_Source\PSoC4/SPI_TxDMA.h **** *******************************************************************************/
 252:Generated_Source\PSoC4/SPI_TxDMA.h **** static CY_INLINE void SPI_TxDMA_SetConfiguration(int32 descriptor, const cydma_init_struct * config
 253:Generated_Source\PSoC4/SPI_TxDMA.h **** {
 254:Generated_Source\PSoC4/SPI_TxDMA.h ****     CyDmaSetConfiguration(SPI_TxDMA_CHANNEL, descriptor, config);
 255:Generated_Source\PSoC4/SPI_TxDMA.h **** }
 256:Generated_Source\PSoC4/SPI_TxDMA.h **** 
 257:Generated_Source\PSoC4/SPI_TxDMA.h **** 
 258:Generated_Source\PSoC4/SPI_TxDMA.h **** /*******************************************************************************
 259:Generated_Source\PSoC4/SPI_TxDMA.h **** * Function Name: SPI_TxDMA_ValidateDescriptor
 260:Generated_Source\PSoC4/SPI_TxDMA.h **** ********************************************************************************
 261:Generated_Source\PSoC4/SPI_TxDMA.h **** *
 262:Generated_Source\PSoC4/SPI_TxDMA.h **** * Summary:
 263:Generated_Source\PSoC4/SPI_TxDMA.h **** *  Validates the specified descriptor after it has been invalidated.
 264:Generated_Source\PSoC4/SPI_TxDMA.h **** *
 265:Generated_Source\PSoC4/SPI_TxDMA.h **** * Parameters:
 266:Generated_Source\PSoC4/SPI_TxDMA.h **** *  descriptor: Descriptor (0 or 1) modified by this function.
 267:Generated_Source\PSoC4/SPI_TxDMA.h **** *                   
 268:Generated_Source\PSoC4/SPI_TxDMA.h **** * Return:
 269:Generated_Source\PSoC4/SPI_TxDMA.h **** *  None. 
 270:Generated_Source\PSoC4/SPI_TxDMA.h **** *
 271:Generated_Source\PSoC4/SPI_TxDMA.h **** * Side effect:
 272:Generated_Source\PSoC4/SPI_TxDMA.h **** *  The status register associated with the specified descriptor is reset to
 273:Generated_Source\PSoC4/SPI_TxDMA.h **** *  zero after this function call. This function should not be called while the
 274:Generated_Source\PSoC4/SPI_TxDMA.h **** *  descriptor is active. This can be checked by calling CyDmaGetStatus().
 275:Generated_Source\PSoC4/SPI_TxDMA.h **** *
 276:Generated_Source\PSoC4/SPI_TxDMA.h **** *******************************************************************************/
 277:Generated_Source\PSoC4/SPI_TxDMA.h **** static CY_INLINE void SPI_TxDMA_ValidateDescriptor(int32 descriptor)
ARM GAS  C:\Users\psmus\AppData\Local\Temp\ccd7gu0f.s 			page 9


 278:Generated_Source\PSoC4/SPI_TxDMA.h **** {
 279:Generated_Source\PSoC4/SPI_TxDMA.h ****     CyDmaValidateDescriptor(SPI_TxDMA_CHANNEL, descriptor);
 108              		.loc 2 279 0
 109 0012 0021     		movs	r1, #0
 110 0014 0220     		movs	r0, #2
 111 0016 FFF7FEFF 		bl	CyDmaValidateDescriptor
 112              	.LVL2:
 113              	.LBE11:
 114              	.LBE10:
 115              	.LBB12:
 116              	.LBB13:
  96:Generated_Source\PSoC4/SPI_TxDMA.h **** }
 117              		.loc 2 96 0
 118 001a 0220     		movs	r0, #2
 119 001c FFF7FEFF 		bl	CyDmaChEnable
 120              	.LVL3:
 121              	.LBE13:
 122              	.LBE12:
 123              	.LBB14:
 124              	.LBB15:
 125              		.file 3 "Generated_Source\\PSoC4/I2STxDMA.h"
   1:Generated_Source\PSoC4/I2STxDMA.h **** /*******************************************************************************
   2:Generated_Source\PSoC4/I2STxDMA.h **** * File Name: I2STxDMA.h
   3:Generated_Source\PSoC4/I2STxDMA.h **** * Version 1.0
   4:Generated_Source\PSoC4/I2STxDMA.h **** *
   5:Generated_Source\PSoC4/I2STxDMA.h **** * Description:
   6:Generated_Source\PSoC4/I2STxDMA.h **** *  This file provides DMA channel defines and API function definitions.
   7:Generated_Source\PSoC4/I2STxDMA.h **** *
   8:Generated_Source\PSoC4/I2STxDMA.h **** ********************************************************************************
   9:Generated_Source\PSoC4/I2STxDMA.h **** * Copyright 2015, Cypress Semiconductor Corporation. All rights reserved.
  10:Generated_Source\PSoC4/I2STxDMA.h **** * You may use this file only in accordance with the license, terms, conditions,
  11:Generated_Source\PSoC4/I2STxDMA.h **** * disclaimers, and limitations in the end user license agreement accompanying
  12:Generated_Source\PSoC4/I2STxDMA.h **** * the software package with which this file was provided.
  13:Generated_Source\PSoC4/I2STxDMA.h **** *******************************************************************************/
  14:Generated_Source\PSoC4/I2STxDMA.h **** 
  15:Generated_Source\PSoC4/I2STxDMA.h **** #ifndef CY_DMA_CHANNEL_I2STxDMA_H
  16:Generated_Source\PSoC4/I2STxDMA.h **** #define CY_DMA_CHANNEL_I2STxDMA_H
  17:Generated_Source\PSoC4/I2STxDMA.h **** 
  18:Generated_Source\PSoC4/I2STxDMA.h **** #include "CyDMA.h"
  19:Generated_Source\PSoC4/I2STxDMA.h **** 
  20:Generated_Source\PSoC4/I2STxDMA.h ****     
  21:Generated_Source\PSoC4/I2STxDMA.h **** /***************************************
  22:Generated_Source\PSoC4/I2STxDMA.h **** *   Conditional Compilation Parameters
  23:Generated_Source\PSoC4/I2STxDMA.h **** ***************************************/
  24:Generated_Source\PSoC4/I2STxDMA.h **** 
  25:Generated_Source\PSoC4/I2STxDMA.h **** #define I2STxDMA_CHANNEL           (I2STxDMA__CHANNEL_NUMBER)
  26:Generated_Source\PSoC4/I2STxDMA.h **** #define I2STxDMA_CHANNEL_MASK      ((uint32)(1UL << I2STxDMA_CHANNEL))
  27:Generated_Source\PSoC4/I2STxDMA.h **** 
  28:Generated_Source\PSoC4/I2STxDMA.h **** 
  29:Generated_Source\PSoC4/I2STxDMA.h **** /***************************************
  30:Generated_Source\PSoC4/I2STxDMA.h **** *        Function Prototypes
  31:Generated_Source\PSoC4/I2STxDMA.h **** ***************************************/
  32:Generated_Source\PSoC4/I2STxDMA.h **** 
  33:Generated_Source\PSoC4/I2STxDMA.h **** /* Functions specific to this DMA channel */
  34:Generated_Source\PSoC4/I2STxDMA.h **** void I2STxDMA_Init(void);
  35:Generated_Source\PSoC4/I2STxDMA.h **** void I2STxDMA_Start(void * srcAddress, void * dstAddress);
  36:Generated_Source\PSoC4/I2STxDMA.h **** 
ARM GAS  C:\Users\psmus\AppData\Local\Temp\ccd7gu0f.s 			page 10


  37:Generated_Source\PSoC4/I2STxDMA.h **** /* Inline functions that call global API functions */
  38:Generated_Source\PSoC4/I2STxDMA.h **** static void   I2STxDMA_ChEnable(void);
  39:Generated_Source\PSoC4/I2STxDMA.h **** static void   I2STxDMA_ChDisable(void);
  40:Generated_Source\PSoC4/I2STxDMA.h **** static void   I2STxDMA_Trigger(void);
  41:Generated_Source\PSoC4/I2STxDMA.h **** static void   I2STxDMA_SetPriority(int32 priority);
  42:Generated_Source\PSoC4/I2STxDMA.h **** static int32  I2STxDMA_GetPriority(void);
  43:Generated_Source\PSoC4/I2STxDMA.h **** static void   I2STxDMA_SetNextDescriptor(int32 descriptor);
  44:Generated_Source\PSoC4/I2STxDMA.h **** static int32  I2STxDMA_GetNextDescriptor(void);
  45:Generated_Source\PSoC4/I2STxDMA.h **** static void   I2STxDMA_SetConfiguration(int32 descriptor, const cydma_init_struct * config);
  46:Generated_Source\PSoC4/I2STxDMA.h **** static void   I2STxDMA_ValidateDescriptor(int32 descriptor);
  47:Generated_Source\PSoC4/I2STxDMA.h **** static uint32 I2STxDMA_GetDescriptorStatus(int32 descriptor);
  48:Generated_Source\PSoC4/I2STxDMA.h **** static void   I2STxDMA_SetSrcAddress(int32 descriptor, void * srcAddress);
  49:Generated_Source\PSoC4/I2STxDMA.h **** static void * I2STxDMA_GetSrcAddress(int32 descriptor);
  50:Generated_Source\PSoC4/I2STxDMA.h **** static void   I2STxDMA_SetDstAddress(int32 descriptor, void * dstAddress);
  51:Generated_Source\PSoC4/I2STxDMA.h **** static void * I2STxDMA_GetDstAddress(int32 descriptor);
  52:Generated_Source\PSoC4/I2STxDMA.h **** static void   I2STxDMA_SetDataElementSize(int32 descriptor, uint32 dataElementSize);
  53:Generated_Source\PSoC4/I2STxDMA.h **** static uint32 I2STxDMA_GetDataElementSize(int32 descriptor);
  54:Generated_Source\PSoC4/I2STxDMA.h **** static void   I2STxDMA_SetNumDataElements(int32 descriptor, int32 numDataElements);
  55:Generated_Source\PSoC4/I2STxDMA.h **** static int32  I2STxDMA_GetNumDataElements(int32 descriptor);
  56:Generated_Source\PSoC4/I2STxDMA.h **** static void   I2STxDMA_SetSrcDstTransferWidth(int32 descriptor, uint32 transferWidth);
  57:Generated_Source\PSoC4/I2STxDMA.h **** static uint32 I2STxDMA_GetSrcDstTransferWidth(int32 descriptor);
  58:Generated_Source\PSoC4/I2STxDMA.h **** static void   I2STxDMA_SetAddressIncrement(int32 descriptor, uint32 addressIncrement);
  59:Generated_Source\PSoC4/I2STxDMA.h **** static uint32 I2STxDMA_GetAddressIncrement(int32 descriptor);
  60:Generated_Source\PSoC4/I2STxDMA.h **** static void   I2STxDMA_SetTriggerType(int32 descriptor, uint32 triggerType);
  61:Generated_Source\PSoC4/I2STxDMA.h **** static uint32 I2STxDMA_GetTriggerType(int32 descriptor);
  62:Generated_Source\PSoC4/I2STxDMA.h **** static void   I2STxDMA_SetTransferMode(int32 descriptor, uint32 transferMode);
  63:Generated_Source\PSoC4/I2STxDMA.h **** static uint32 I2STxDMA_GetTransferMode(int32 descriptor);
  64:Generated_Source\PSoC4/I2STxDMA.h **** static void   I2STxDMA_SetPreemptable(int32 descriptor, uint32 preemptable);
  65:Generated_Source\PSoC4/I2STxDMA.h **** static uint32 I2STxDMA_GetPreemptable(int32 descriptor);
  66:Generated_Source\PSoC4/I2STxDMA.h **** static void   I2STxDMA_SetPostCompletionActions(int32 descriptor, uint32 actions);
  67:Generated_Source\PSoC4/I2STxDMA.h **** static uint32 I2STxDMA_GetPostCompletionAction(int32 descriptor);
  68:Generated_Source\PSoC4/I2STxDMA.h **** static cydma_callback_t I2STxDMA_SetInterruptCallback(cydma_callback_t callback);
  69:Generated_Source\PSoC4/I2STxDMA.h **** static cydma_callback_t I2STxDMA_GetInterruptCallback(void);
  70:Generated_Source\PSoC4/I2STxDMA.h **** 
  71:Generated_Source\PSoC4/I2STxDMA.h **** 
  72:Generated_Source\PSoC4/I2STxDMA.h **** /*******************************************************************************
  73:Generated_Source\PSoC4/I2STxDMA.h **** * Function Name: I2STxDMA_ChEnable
  74:Generated_Source\PSoC4/I2STxDMA.h **** ********************************************************************************
  75:Generated_Source\PSoC4/I2STxDMA.h **** *
  76:Generated_Source\PSoC4/I2STxDMA.h **** * Summary:
  77:Generated_Source\PSoC4/I2STxDMA.h **** *  Enables the DMA channel. It is not necessary to call I2STxDMA_ChEnable()
  78:Generated_Source\PSoC4/I2STxDMA.h **** *  because the I2STxDMA_Start() API calls this function, which is the
  79:Generated_Source\PSoC4/I2STxDMA.h **** *  preferred method to begin the component operation.
  80:Generated_Source\PSoC4/I2STxDMA.h **** *
  81:Generated_Source\PSoC4/I2STxDMA.h **** * Parameters:
  82:Generated_Source\PSoC4/I2STxDMA.h **** *  None.
  83:Generated_Source\PSoC4/I2STxDMA.h **** *                   
  84:Generated_Source\PSoC4/I2STxDMA.h **** * Return:
  85:Generated_Source\PSoC4/I2STxDMA.h **** *  None.
  86:Generated_Source\PSoC4/I2STxDMA.h **** *
  87:Generated_Source\PSoC4/I2STxDMA.h **** * Side effect:
  88:Generated_Source\PSoC4/I2STxDMA.h **** *  If this function is called before I2STxDMA_Start(), or I2STxDMA_Init()
  89:Generated_Source\PSoC4/I2STxDMA.h **** *  or I2STxDMA_SetConfiguration(), and I2STxDMA_SetSrcAddress()
  90:Generated_Source\PSoC4/I2STxDMA.h **** *  and I2STxDMA_SetDstAddress the operation of the DMA is 
  91:Generated_Source\PSoC4/I2STxDMA.h **** *  undefined and could result in system data corruption. 
  92:Generated_Source\PSoC4/I2STxDMA.h **** *
  93:Generated_Source\PSoC4/I2STxDMA.h **** *******************************************************************************/
ARM GAS  C:\Users\psmus\AppData\Local\Temp\ccd7gu0f.s 			page 11


  94:Generated_Source\PSoC4/I2STxDMA.h **** static CY_INLINE void I2STxDMA_ChEnable(void)
  95:Generated_Source\PSoC4/I2STxDMA.h **** {
  96:Generated_Source\PSoC4/I2STxDMA.h ****     CyDmaChEnable(I2STxDMA_CHANNEL);
  97:Generated_Source\PSoC4/I2STxDMA.h **** }
  98:Generated_Source\PSoC4/I2STxDMA.h **** 
  99:Generated_Source\PSoC4/I2STxDMA.h **** 
 100:Generated_Source\PSoC4/I2STxDMA.h **** /*******************************************************************************
 101:Generated_Source\PSoC4/I2STxDMA.h **** * Function Name: I2STxDMA_ChDisable
 102:Generated_Source\PSoC4/I2STxDMA.h **** ********************************************************************************
 103:Generated_Source\PSoC4/I2STxDMA.h **** *
 104:Generated_Source\PSoC4/I2STxDMA.h **** * Summary:
 105:Generated_Source\PSoC4/I2STxDMA.h **** *  Disables the DMA channel.
 106:Generated_Source\PSoC4/I2STxDMA.h **** *
 107:Generated_Source\PSoC4/I2STxDMA.h **** * Parameters:
 108:Generated_Source\PSoC4/I2STxDMA.h **** *  None.
 109:Generated_Source\PSoC4/I2STxDMA.h **** *                   
 110:Generated_Source\PSoC4/I2STxDMA.h **** * Return:
 111:Generated_Source\PSoC4/I2STxDMA.h **** *  None.
 112:Generated_Source\PSoC4/I2STxDMA.h **** *
 113:Generated_Source\PSoC4/I2STxDMA.h **** * Side effect:
 114:Generated_Source\PSoC4/I2STxDMA.h **** *  If this function is called during a DMA transfer the transfer is aborted. 
 115:Generated_Source\PSoC4/I2STxDMA.h **** *
 116:Generated_Source\PSoC4/I2STxDMA.h **** *******************************************************************************/
 117:Generated_Source\PSoC4/I2STxDMA.h **** static CY_INLINE void I2STxDMA_ChDisable(void)
 118:Generated_Source\PSoC4/I2STxDMA.h **** {
 119:Generated_Source\PSoC4/I2STxDMA.h ****     CyDmaChDisable(I2STxDMA_CHANNEL);
 120:Generated_Source\PSoC4/I2STxDMA.h **** }
 121:Generated_Source\PSoC4/I2STxDMA.h **** 
 122:Generated_Source\PSoC4/I2STxDMA.h **** 
 123:Generated_Source\PSoC4/I2STxDMA.h **** /*******************************************************************************
 124:Generated_Source\PSoC4/I2STxDMA.h **** * Function Name: I2STxDMA_Trigger
 125:Generated_Source\PSoC4/I2STxDMA.h **** ********************************************************************************
 126:Generated_Source\PSoC4/I2STxDMA.h **** *
 127:Generated_Source\PSoC4/I2STxDMA.h **** * Summary:
 128:Generated_Source\PSoC4/I2STxDMA.h **** *  Triggers the DMA channel, this is useful only for software triggers. This is
 129:Generated_Source\PSoC4/I2STxDMA.h **** *  not needed when hardware triggers are used.
 130:Generated_Source\PSoC4/I2STxDMA.h **** *
 131:Generated_Source\PSoC4/I2STxDMA.h **** * Parameters:
 132:Generated_Source\PSoC4/I2STxDMA.h **** *  None.
 133:Generated_Source\PSoC4/I2STxDMA.h **** *                   
 134:Generated_Source\PSoC4/I2STxDMA.h **** * Return:
 135:Generated_Source\PSoC4/I2STxDMA.h **** *  None. 
 136:Generated_Source\PSoC4/I2STxDMA.h **** *
 137:Generated_Source\PSoC4/I2STxDMA.h **** *******************************************************************************/
 138:Generated_Source\PSoC4/I2STxDMA.h **** static CY_INLINE void I2STxDMA_Trigger(void)
 139:Generated_Source\PSoC4/I2STxDMA.h **** {
 140:Generated_Source\PSoC4/I2STxDMA.h ****     CyDmaTrigger(I2STxDMA_CHANNEL);
 141:Generated_Source\PSoC4/I2STxDMA.h **** }
 142:Generated_Source\PSoC4/I2STxDMA.h **** 
 143:Generated_Source\PSoC4/I2STxDMA.h **** 
 144:Generated_Source\PSoC4/I2STxDMA.h **** /*******************************************************************************
 145:Generated_Source\PSoC4/I2STxDMA.h **** * Function Name: I2STxDMA_SetPriority
 146:Generated_Source\PSoC4/I2STxDMA.h **** ********************************************************************************
 147:Generated_Source\PSoC4/I2STxDMA.h **** *
 148:Generated_Source\PSoC4/I2STxDMA.h **** * Summary:
 149:Generated_Source\PSoC4/I2STxDMA.h **** *  Sets the priority for the channel.
 150:Generated_Source\PSoC4/I2STxDMA.h **** *
ARM GAS  C:\Users\psmus\AppData\Local\Temp\ccd7gu0f.s 			page 12


 151:Generated_Source\PSoC4/I2STxDMA.h **** * Parameters:
 152:Generated_Source\PSoC4/I2STxDMA.h **** *  priority: Priority for channel. Priority can be 0,1,2, or 3.
 153:Generated_Source\PSoC4/I2STxDMA.h **** *            0 is the highest priority.
 154:Generated_Source\PSoC4/I2STxDMA.h **** *                   
 155:Generated_Source\PSoC4/I2STxDMA.h **** * Return:
 156:Generated_Source\PSoC4/I2STxDMA.h **** *  None.
 157:Generated_Source\PSoC4/I2STxDMA.h **** *
 158:Generated_Source\PSoC4/I2STxDMA.h **** * Side effect:
 159:Generated_Source\PSoC4/I2STxDMA.h **** *  This function should not be called while the channel is enabled.
 160:Generated_Source\PSoC4/I2STxDMA.h **** *
 161:Generated_Source\PSoC4/I2STxDMA.h **** *******************************************************************************/
 162:Generated_Source\PSoC4/I2STxDMA.h **** static CY_INLINE void I2STxDMA_SetPriority(int32 priority)
 163:Generated_Source\PSoC4/I2STxDMA.h **** {
 164:Generated_Source\PSoC4/I2STxDMA.h ****     CyDmaSetPriority(I2STxDMA_CHANNEL, priority);
 165:Generated_Source\PSoC4/I2STxDMA.h **** }
 166:Generated_Source\PSoC4/I2STxDMA.h **** 
 167:Generated_Source\PSoC4/I2STxDMA.h **** 
 168:Generated_Source\PSoC4/I2STxDMA.h **** /*******************************************************************************
 169:Generated_Source\PSoC4/I2STxDMA.h **** * Function Name: I2STxDMA_GetPriority
 170:Generated_Source\PSoC4/I2STxDMA.h **** ********************************************************************************
 171:Generated_Source\PSoC4/I2STxDMA.h **** *
 172:Generated_Source\PSoC4/I2STxDMA.h **** * Summary:
 173:Generated_Source\PSoC4/I2STxDMA.h **** *  Gets the priority for the channel.
 174:Generated_Source\PSoC4/I2STxDMA.h **** *
 175:Generated_Source\PSoC4/I2STxDMA.h **** * Parameters:
 176:Generated_Source\PSoC4/I2STxDMA.h **** *  None.
 177:Generated_Source\PSoC4/I2STxDMA.h **** *                   
 178:Generated_Source\PSoC4/I2STxDMA.h **** * Return:
 179:Generated_Source\PSoC4/I2STxDMA.h **** *  Priority for channel. Priority can be 0,1,2, or 3. 0 is the highest priority.
 180:Generated_Source\PSoC4/I2STxDMA.h **** *
 181:Generated_Source\PSoC4/I2STxDMA.h **** *******************************************************************************/
 182:Generated_Source\PSoC4/I2STxDMA.h **** static CY_INLINE int32 I2STxDMA_GetPriority(void)
 183:Generated_Source\PSoC4/I2STxDMA.h **** {
 184:Generated_Source\PSoC4/I2STxDMA.h ****     return (CyDmaGetPriority(I2STxDMA_CHANNEL));
 185:Generated_Source\PSoC4/I2STxDMA.h **** }
 186:Generated_Source\PSoC4/I2STxDMA.h **** 
 187:Generated_Source\PSoC4/I2STxDMA.h **** 
 188:Generated_Source\PSoC4/I2STxDMA.h **** /*******************************************************************************
 189:Generated_Source\PSoC4/I2STxDMA.h **** * Function Name: I2STxDMA_SetNextDescriptor
 190:Generated_Source\PSoC4/I2STxDMA.h **** ********************************************************************************
 191:Generated_Source\PSoC4/I2STxDMA.h **** *
 192:Generated_Source\PSoC4/I2STxDMA.h **** * Summary:
 193:Generated_Source\PSoC4/I2STxDMA.h **** *  Sets the descriptor that should be run the next time the channel is
 194:Generated_Source\PSoC4/I2STxDMA.h **** *  triggered.
 195:Generated_Source\PSoC4/I2STxDMA.h **** *
 196:Generated_Source\PSoC4/I2STxDMA.h **** * Parameters:
 197:Generated_Source\PSoC4/I2STxDMA.h **** *  descriptor: Next Descriptor to run (0 or 1).
 198:Generated_Source\PSoC4/I2STxDMA.h **** *                   
 199:Generated_Source\PSoC4/I2STxDMA.h **** * Side effect:
 200:Generated_Source\PSoC4/I2STxDMA.h **** *  This function should not be called while the channel is enabled.
 201:Generated_Source\PSoC4/I2STxDMA.h **** *
 202:Generated_Source\PSoC4/I2STxDMA.h **** *******************************************************************************/
 203:Generated_Source\PSoC4/I2STxDMA.h **** static CY_INLINE void I2STxDMA_SetNextDescriptor(int32 descriptor)
 204:Generated_Source\PSoC4/I2STxDMA.h **** {
 205:Generated_Source\PSoC4/I2STxDMA.h ****     CyDmaSetNextDescriptor(I2STxDMA_CHANNEL, descriptor);
 206:Generated_Source\PSoC4/I2STxDMA.h **** }
 207:Generated_Source\PSoC4/I2STxDMA.h **** 
ARM GAS  C:\Users\psmus\AppData\Local\Temp\ccd7gu0f.s 			page 13


 208:Generated_Source\PSoC4/I2STxDMA.h **** 
 209:Generated_Source\PSoC4/I2STxDMA.h **** /*******************************************************************************
 210:Generated_Source\PSoC4/I2STxDMA.h **** * Function Name: I2STxDMA_GetNextDescriptor
 211:Generated_Source\PSoC4/I2STxDMA.h **** ********************************************************************************
 212:Generated_Source\PSoC4/I2STxDMA.h **** *
 213:Generated_Source\PSoC4/I2STxDMA.h **** * Summary:
 214:Generated_Source\PSoC4/I2STxDMA.h **** *  Returns the next descriptor that should be run, as set by 
 215:Generated_Source\PSoC4/I2STxDMA.h **** *  I2STxDMA_SetNextDescriptor().
 216:Generated_Source\PSoC4/I2STxDMA.h **** *
 217:Generated_Source\PSoC4/I2STxDMA.h **** * Parameters:
 218:Generated_Source\PSoC4/I2STxDMA.h **** *  None.
 219:Generated_Source\PSoC4/I2STxDMA.h **** *                   
 220:Generated_Source\PSoC4/I2STxDMA.h **** * Return:
 221:Generated_Source\PSoC4/I2STxDMA.h **** *  Next Descriptor to run (0 or 1).
 222:Generated_Source\PSoC4/I2STxDMA.h **** *
 223:Generated_Source\PSoC4/I2STxDMA.h **** *******************************************************************************/
 224:Generated_Source\PSoC4/I2STxDMA.h **** static CY_INLINE int32 I2STxDMA_GetNextDescriptor(void)
 225:Generated_Source\PSoC4/I2STxDMA.h **** {
 226:Generated_Source\PSoC4/I2STxDMA.h ****     return (CyDmaGetNextDescriptor(I2STxDMA_CHANNEL));
 227:Generated_Source\PSoC4/I2STxDMA.h **** }
 228:Generated_Source\PSoC4/I2STxDMA.h **** 
 229:Generated_Source\PSoC4/I2STxDMA.h **** 
 230:Generated_Source\PSoC4/I2STxDMA.h **** /*******************************************************************************
 231:Generated_Source\PSoC4/I2STxDMA.h **** * Function Name: I2STxDMA_SetConfiguration
 232:Generated_Source\PSoC4/I2STxDMA.h **** ********************************************************************************
 233:Generated_Source\PSoC4/I2STxDMA.h **** *
 234:Generated_Source\PSoC4/I2STxDMA.h **** * Summary:
 235:Generated_Source\PSoC4/I2STxDMA.h **** *  Sets configuration information for the specified descriptor.
 236:Generated_Source\PSoC4/I2STxDMA.h **** *
 237:Generated_Source\PSoC4/I2STxDMA.h **** * Parameters:
 238:Generated_Source\PSoC4/I2STxDMA.h **** *  descriptor: Descriptor (0 or 1) modified by this function.
 239:Generated_Source\PSoC4/I2STxDMA.h **** *  config: Pointer to a configuration structure. Refer to cydma_init_struct
 240:Generated_Source\PSoC4/I2STxDMA.h **** *          structure definition in CyDMA_P4.h or the component datasheet.
 241:Generated_Source\PSoC4/I2STxDMA.h **** *                   
 242:Generated_Source\PSoC4/I2STxDMA.h **** * Return:
 243:Generated_Source\PSoC4/I2STxDMA.h **** *  None.
 244:Generated_Source\PSoC4/I2STxDMA.h **** *
 245:Generated_Source\PSoC4/I2STxDMA.h **** * Side effect:
 246:Generated_Source\PSoC4/I2STxDMA.h **** *  The status register associated with the specified descriptor is reset to
 247:Generated_Source\PSoC4/I2STxDMA.h **** *  zero after this function call. This function also validates the descriptor.
 248:Generated_Source\PSoC4/I2STxDMA.h **** *  This function should not be called while the descriptor is active.
 249:Generated_Source\PSoC4/I2STxDMA.h **** *  This can be checked by calling CyDmaGetStatus().
 250:Generated_Source\PSoC4/I2STxDMA.h **** *
 251:Generated_Source\PSoC4/I2STxDMA.h **** *******************************************************************************/
 252:Generated_Source\PSoC4/I2STxDMA.h **** static CY_INLINE void I2STxDMA_SetConfiguration(int32 descriptor, const cydma_init_struct * config)
 253:Generated_Source\PSoC4/I2STxDMA.h **** {
 254:Generated_Source\PSoC4/I2STxDMA.h ****     CyDmaSetConfiguration(I2STxDMA_CHANNEL, descriptor, config);
 255:Generated_Source\PSoC4/I2STxDMA.h **** }
 256:Generated_Source\PSoC4/I2STxDMA.h **** 
 257:Generated_Source\PSoC4/I2STxDMA.h **** 
 258:Generated_Source\PSoC4/I2STxDMA.h **** /*******************************************************************************
 259:Generated_Source\PSoC4/I2STxDMA.h **** * Function Name: I2STxDMA_ValidateDescriptor
 260:Generated_Source\PSoC4/I2STxDMA.h **** ********************************************************************************
 261:Generated_Source\PSoC4/I2STxDMA.h **** *
 262:Generated_Source\PSoC4/I2STxDMA.h **** * Summary:
 263:Generated_Source\PSoC4/I2STxDMA.h **** *  Validates the specified descriptor after it has been invalidated.
 264:Generated_Source\PSoC4/I2STxDMA.h **** *
ARM GAS  C:\Users\psmus\AppData\Local\Temp\ccd7gu0f.s 			page 14


 265:Generated_Source\PSoC4/I2STxDMA.h **** * Parameters:
 266:Generated_Source\PSoC4/I2STxDMA.h **** *  descriptor: Descriptor (0 or 1) modified by this function.
 267:Generated_Source\PSoC4/I2STxDMA.h **** *                   
 268:Generated_Source\PSoC4/I2STxDMA.h **** * Return:
 269:Generated_Source\PSoC4/I2STxDMA.h **** *  None. 
 270:Generated_Source\PSoC4/I2STxDMA.h **** *
 271:Generated_Source\PSoC4/I2STxDMA.h **** * Side effect:
 272:Generated_Source\PSoC4/I2STxDMA.h **** *  The status register associated with the specified descriptor is reset to
 273:Generated_Source\PSoC4/I2STxDMA.h **** *  zero after this function call. This function should not be called while the
 274:Generated_Source\PSoC4/I2STxDMA.h **** *  descriptor is active. This can be checked by calling CyDmaGetStatus().
 275:Generated_Source\PSoC4/I2STxDMA.h **** *
 276:Generated_Source\PSoC4/I2STxDMA.h **** *******************************************************************************/
 277:Generated_Source\PSoC4/I2STxDMA.h **** static CY_INLINE void I2STxDMA_ValidateDescriptor(int32 descriptor)
 278:Generated_Source\PSoC4/I2STxDMA.h **** {
 279:Generated_Source\PSoC4/I2STxDMA.h ****     CyDmaValidateDescriptor(I2STxDMA_CHANNEL, descriptor);
 126              		.loc 3 279 0
 127 0020 0021     		movs	r1, #0
 128 0022 0120     		movs	r0, #1
 129 0024 FFF7FEFF 		bl	CyDmaValidateDescriptor
 130              	.LVL4:
 131              	.LBE15:
 132              	.LBE14:
 133              	.LBB16:
 134              	.LBB17:
  96:Generated_Source\PSoC4/I2STxDMA.h **** }
 135              		.loc 3 96 0
 136 0028 0120     		movs	r0, #1
 137 002a FFF7FEFF 		bl	CyDmaChEnable
 138              	.LVL5:
 139              	.LBE17:
 140              	.LBE16:
  73:Interrupts.c  ****     
  74:Interrupts.c  ****     /* Re-enable transfer. TxDmaM controls the number of bytes to be sent
  75:Interrupts.c  ****     * to the slave and correspondingly the number of bytes returned by the
  76:Interrupts.c  ****     * slave. Therefore it is configured to be invalidated when it
  77:Interrupts.c  ****     * finishes a transfer.
  78:Interrupts.c  ****     */
  79:Interrupts.c  ****     SPI_TxDMA_ValidateDescriptor(0);
  80:Interrupts.c  ****     SPI_TxDMA_ChEnable();
  81:Interrupts.c  ****     I2STxDMA_ValidateDescriptor(0);
  82:Interrupts.c  ****     I2STxDMA_ChEnable();
  83:Interrupts.c  **** }
 141              		.loc 1 83 0
 142              		@ sp needed
 143 002e 10BD     		pop	{r4, pc}
 144              	.L9:
 145              		.align	2
 146              	.L8:
 147 0030 00000000 		.word	masterRxBuffer
 148 0034 00000000 		.word	output_buffer
 149              		.cfi_endproc
 150              	.LFE132:
 151              		.size	SPIDone, .-SPIDone
 152              		.section	.text.SPI_RxDMA_Done_Interrupt,"ax",%progbits
 153              		.align	2
 154              		.global	SPI_RxDMA_Done_Interrupt
 155              		.code	16
ARM GAS  C:\Users\psmus\AppData\Local\Temp\ccd7gu0f.s 			page 15


 156              		.thumb_func
 157              		.type	SPI_RxDMA_Done_Interrupt, %function
 158              	SPI_RxDMA_Done_Interrupt:
 159              	.LFB133:
  84:Interrupts.c  **** 
  85:Interrupts.c  **** CY_ISR(SPI_RxDMA_Done_Interrupt){
 160              		.loc 1 85 0
 161              		.cfi_startproc
 162              		@ args = 0, pretend = 0, frame = 0
 163              		@ frame_needed = 0, uses_anonymous_args = 0
 164              		@ link register save eliminated.
  86:Interrupts.c  ****     //LED_Write(~LED_Read());
  87:Interrupts.c  ****     //SPI_reset_Write(~SPI_reset_Read());
  88:Interrupts.c  **** }
 165              		.loc 1 88 0
 166              		@ sp needed
 167 0000 7047     		bx	lr
 168              		.cfi_endproc
 169              	.LFE133:
 170              		.size	SPI_RxDMA_Done_Interrupt, .-SPI_RxDMA_Done_Interrupt
 171 0002 C046     		.section	.text.SPI_TxDMA_Done_Interrupt,"ax",%progbits
 172              		.align	2
 173              		.global	SPI_TxDMA_Done_Interrupt
 174              		.code	16
 175              		.thumb_func
 176              		.type	SPI_TxDMA_Done_Interrupt, %function
 177              	SPI_TxDMA_Done_Interrupt:
 178              	.LFB134:
  89:Interrupts.c  **** 
  90:Interrupts.c  **** CY_ISR(SPI_TxDMA_Done_Interrupt){
 179              		.loc 1 90 0
 180              		.cfi_startproc
 181              		@ args = 0, pretend = 0, frame = 0
 182              		@ frame_needed = 0, uses_anonymous_args = 0
 183              		@ link register save eliminated.
  91:Interrupts.c  ****     //LED_Write(~LED_Read());
  92:Interrupts.c  ****     //SPI_reset_Write(~SPI_reset_Read());
  93:Interrupts.c  **** }
 184              		.loc 1 93 0
 185              		@ sp needed
 186 0000 7047     		bx	lr
 187              		.cfi_endproc
 188              	.LFE134:
 189              		.size	SPI_TxDMA_Done_Interrupt, .-SPI_TxDMA_Done_Interrupt
 190 0002 C046     		.section	.text.I2SUnderflow,"ax",%progbits
 191              		.align	2
 192              		.global	I2SUnderflow
 193              		.code	16
 194              		.thumb_func
 195              		.type	I2SUnderflow, %function
 196              	I2SUnderflow:
 197              	.LFB135:
  94:Interrupts.c  **** 
  95:Interrupts.c  **** CY_ISR(I2SUnderflow) {
 198              		.loc 1 95 0
 199              		.cfi_startproc
 200              		@ args = 0, pretend = 0, frame = 0
ARM GAS  C:\Users\psmus\AppData\Local\Temp\ccd7gu0f.s 			page 16


 201              		@ frame_needed = 0, uses_anonymous_args = 0
 202              		@ link register save eliminated.
  96:Interrupts.c  ****     //UART_UartPutString("I2S undeflow\r\n");    
  97:Interrupts.c  **** }
 203              		.loc 1 97 0
 204              		@ sp needed
 205 0000 7047     		bx	lr
 206              		.cfi_endproc
 207              	.LFE135:
 208              		.size	I2SUnderflow, .-I2SUnderflow
 209 0002 C046     		.section	.text.envelope_trigger_interrupt,"ax",%progbits
 210              		.align	2
 211              		.global	envelope_trigger_interrupt
 212              		.code	16
 213              		.thumb_func
 214              		.type	envelope_trigger_interrupt, %function
 215              	envelope_trigger_interrupt:
 216              	.LFB136:
  98:Interrupts.c  **** 
  99:Interrupts.c  **** CY_ISR(envelope_trigger_interrupt){
 217              		.loc 1 99 0
 218              		.cfi_startproc
 219              		@ args = 0, pretend = 0, frame = 0
 220              		@ frame_needed = 0, uses_anonymous_args = 0
 221              		@ link register save eliminated.
 100:Interrupts.c  ****     //UART_UartPutString("env trig\r\n");
 101:Interrupts.c  **** }
 222              		.loc 1 101 0
 223              		@ sp needed
 224 0000 7047     		bx	lr
 225              		.cfi_endproc
 226              	.LFE136:
 227              		.size	envelope_trigger_interrupt, .-envelope_trigger_interrupt
 228              		.global	trigger_flag
 229              		.global	update_ADC_flag
 230              		.global	FIFO_DMA_REQ_FLAG
 231              		.comm	current_buffer,4,4
 232              		.global	DMA_counter
 233              		.global	DMA_done_flag
 234              		.comm	v8,16,4
 235              		.comm	v7,16,4
 236              		.comm	v6,16,4
 237              		.comm	v5,16,4
 238              		.comm	v4,16,4
 239              		.comm	v3,16,4
 240              		.comm	v2,16,4
 241              		.comm	v1,16,4
 242              		.comm	lfo_sine,256,4
 243              		.comm	base_sq,4096,4
 244              		.comm	base_pos_saw,4096,4
 245              		.comm	base_sine,8192,4
 246 0002 C046     		.bss
 247              		.set	.LANCHOR0,. + 0
 248              		.type	update_ADC_flag, %object
 249              		.size	update_ADC_flag, 1
 250              	update_ADC_flag:
 251 0000 00       		.space	1
ARM GAS  C:\Users\psmus\AppData\Local\Temp\ccd7gu0f.s 			page 17


 252              		.type	DMA_done_flag, %object
 253              		.size	DMA_done_flag, 1
 254              	DMA_done_flag:
 255 0001 00       		.space	1
 256              		.type	DMA_counter, %object
 257              		.size	DMA_counter, 1
 258              	DMA_counter:
 259 0002 00       		.space	1
 260              		.type	trigger_flag, %object
 261              		.size	trigger_flag, 1
 262              	trigger_flag:
 263 0003 00       		.space	1
 264              		.type	FIFO_DMA_REQ_FLAG, %object
 265              		.size	FIFO_DMA_REQ_FLAG, 1
 266              	FIFO_DMA_REQ_FLAG:
 267 0004 00       		.space	1
 268              		.text
 269              	.Letext0:
 270              		.file 4 "c:\\program files (x86)\\cypress\\psoc creator\\4.2\\psoc creator\\import\\gnu\\arm\\5.4.
 271              		.file 5 "c:\\program files (x86)\\cypress\\psoc creator\\4.2\\psoc creator\\import\\gnu\\arm\\5.4.
 272              		.file 6 "Generated_Source\\PSoC4/cytypes.h"
 273              		.file 7 "oscillator.h"
 274              		.file 8 "waves.h"
 275              		.file 9 "globals.h"
 276              		.file 10 "Generated_Source\\PSoC4/CyDMA.h"
 277              		.file 11 "Generated_Source\\PSoC4/LED.h"