ARM GAS  C:\Users\psmus\AppData\Local\Temp\ccWnCDHr.s 			page 1


   1              		.syntax unified
   2              		.cpu cortex-m0
   3              		.fpu softvfp
   4              		.eabi_attribute 20, 1
   5              		.eabi_attribute 21, 1
   6              		.eabi_attribute 23, 3
   7              		.eabi_attribute 24, 1
   8              		.eabi_attribute 25, 1
   9              		.eabi_attribute 26, 1
  10              		.eabi_attribute 30, 1
  11              		.eabi_attribute 34, 0
  12              		.eabi_attribute 18, 4
  13              		.thumb
  14              		.syntax unified
  15              		.file	"isr_trigger.c"
  16              		.text
  17              	.Ltext0:
  18              		.cfi_sections	.debug_frame
  19              		.section	.text.isr_trigger_Interrupt,"ax",%progbits
  20              		.align	2
  21              		.global	isr_trigger_Interrupt
  22              		.code	16
  23              		.thumb_func
  24              		.type	isr_trigger_Interrupt, %function
  25              	isr_trigger_Interrupt:
  26              	.LFB4:
  27              		.file 1 "Generated_Source\\PSoC4\\isr_trigger.c"
   1:Generated_Source\PSoC4/isr_trigger.c **** /*******************************************************************************
   2:Generated_Source\PSoC4/isr_trigger.c **** * File Name: isr_trigger.c  
   3:Generated_Source\PSoC4/isr_trigger.c **** * Version 1.70
   4:Generated_Source\PSoC4/isr_trigger.c **** *
   5:Generated_Source\PSoC4/isr_trigger.c **** *  Description:
   6:Generated_Source\PSoC4/isr_trigger.c **** *   API for controlling the state of an interrupt.
   7:Generated_Source\PSoC4/isr_trigger.c **** *
   8:Generated_Source\PSoC4/isr_trigger.c **** *
   9:Generated_Source\PSoC4/isr_trigger.c **** *  Note:
  10:Generated_Source\PSoC4/isr_trigger.c **** *
  11:Generated_Source\PSoC4/isr_trigger.c **** ********************************************************************************
  12:Generated_Source\PSoC4/isr_trigger.c **** * Copyright 2008-2015, Cypress Semiconductor Corporation.  All rights reserved.
  13:Generated_Source\PSoC4/isr_trigger.c **** * You may use this file only in accordance with the license, terms, conditions, 
  14:Generated_Source\PSoC4/isr_trigger.c **** * disclaimers, and limitations in the end user license agreement accompanying 
  15:Generated_Source\PSoC4/isr_trigger.c **** * the software package with which this file was provided.
  16:Generated_Source\PSoC4/isr_trigger.c **** *******************************************************************************/
  17:Generated_Source\PSoC4/isr_trigger.c **** 
  18:Generated_Source\PSoC4/isr_trigger.c **** 
  19:Generated_Source\PSoC4/isr_trigger.c **** #include <cydevice_trm.h>
  20:Generated_Source\PSoC4/isr_trigger.c **** #include <CyLib.h>
  21:Generated_Source\PSoC4/isr_trigger.c **** #include <isr_trigger.h>
  22:Generated_Source\PSoC4/isr_trigger.c **** #include "cyapicallbacks.h"
  23:Generated_Source\PSoC4/isr_trigger.c **** 
  24:Generated_Source\PSoC4/isr_trigger.c **** #if !defined(isr_trigger__REMOVED) /* Check for removal by optimization */
  25:Generated_Source\PSoC4/isr_trigger.c **** 
  26:Generated_Source\PSoC4/isr_trigger.c **** /*******************************************************************************
  27:Generated_Source\PSoC4/isr_trigger.c **** *  Place your includes, defines and code here 
  28:Generated_Source\PSoC4/isr_trigger.c **** ********************************************************************************/
  29:Generated_Source\PSoC4/isr_trigger.c **** /* `#START isr_trigger_intc` */
  30:Generated_Source\PSoC4/isr_trigger.c **** 
ARM GAS  C:\Users\psmus\AppData\Local\Temp\ccWnCDHr.s 			page 2


  31:Generated_Source\PSoC4/isr_trigger.c **** /* `#END` */
  32:Generated_Source\PSoC4/isr_trigger.c **** 
  33:Generated_Source\PSoC4/isr_trigger.c **** extern cyisraddress CyRamVectors[CYINT_IRQ_BASE + CY_NUM_INTERRUPTS];
  34:Generated_Source\PSoC4/isr_trigger.c **** 
  35:Generated_Source\PSoC4/isr_trigger.c **** /* Declared in startup, used to set unused interrupts to. */
  36:Generated_Source\PSoC4/isr_trigger.c **** CY_ISR_PROTO(IntDefaultHandler);
  37:Generated_Source\PSoC4/isr_trigger.c **** 
  38:Generated_Source\PSoC4/isr_trigger.c **** 
  39:Generated_Source\PSoC4/isr_trigger.c **** /*******************************************************************************
  40:Generated_Source\PSoC4/isr_trigger.c **** * Function Name: isr_trigger_Start
  41:Generated_Source\PSoC4/isr_trigger.c **** ********************************************************************************
  42:Generated_Source\PSoC4/isr_trigger.c **** *
  43:Generated_Source\PSoC4/isr_trigger.c **** * Summary:
  44:Generated_Source\PSoC4/isr_trigger.c **** *  Set up the interrupt and enable it. This function disables the interrupt, 
  45:Generated_Source\PSoC4/isr_trigger.c **** *  sets the default interrupt vector, sets the priority from the value in the
  46:Generated_Source\PSoC4/isr_trigger.c **** *  Design Wide Resources Interrupt Editor, then enables the interrupt to the 
  47:Generated_Source\PSoC4/isr_trigger.c **** *  interrupt controller.
  48:Generated_Source\PSoC4/isr_trigger.c **** *
  49:Generated_Source\PSoC4/isr_trigger.c **** * Parameters:  
  50:Generated_Source\PSoC4/isr_trigger.c **** *   None
  51:Generated_Source\PSoC4/isr_trigger.c **** *
  52:Generated_Source\PSoC4/isr_trigger.c **** * Return:
  53:Generated_Source\PSoC4/isr_trigger.c **** *   None
  54:Generated_Source\PSoC4/isr_trigger.c **** *
  55:Generated_Source\PSoC4/isr_trigger.c **** *******************************************************************************/
  56:Generated_Source\PSoC4/isr_trigger.c **** void isr_trigger_Start(void)
  57:Generated_Source\PSoC4/isr_trigger.c **** {
  58:Generated_Source\PSoC4/isr_trigger.c ****     /* For all we know the interrupt is active. */
  59:Generated_Source\PSoC4/isr_trigger.c ****     isr_trigger_Disable();
  60:Generated_Source\PSoC4/isr_trigger.c **** 
  61:Generated_Source\PSoC4/isr_trigger.c ****     /* Set the ISR to point to the isr_trigger Interrupt. */
  62:Generated_Source\PSoC4/isr_trigger.c ****     isr_trigger_SetVector(&isr_trigger_Interrupt);
  63:Generated_Source\PSoC4/isr_trigger.c **** 
  64:Generated_Source\PSoC4/isr_trigger.c ****     /* Set the priority. */
  65:Generated_Source\PSoC4/isr_trigger.c ****     isr_trigger_SetPriority((uint8)isr_trigger_INTC_PRIOR_NUMBER);
  66:Generated_Source\PSoC4/isr_trigger.c **** 
  67:Generated_Source\PSoC4/isr_trigger.c ****     /* Enable it. */
  68:Generated_Source\PSoC4/isr_trigger.c ****     isr_trigger_Enable();
  69:Generated_Source\PSoC4/isr_trigger.c **** }
  70:Generated_Source\PSoC4/isr_trigger.c **** 
  71:Generated_Source\PSoC4/isr_trigger.c **** 
  72:Generated_Source\PSoC4/isr_trigger.c **** /*******************************************************************************
  73:Generated_Source\PSoC4/isr_trigger.c **** * Function Name: isr_trigger_StartEx
  74:Generated_Source\PSoC4/isr_trigger.c **** ********************************************************************************
  75:Generated_Source\PSoC4/isr_trigger.c **** *
  76:Generated_Source\PSoC4/isr_trigger.c **** * Summary:
  77:Generated_Source\PSoC4/isr_trigger.c **** *  Sets up the interrupt and enables it. This function disables the interrupt,
  78:Generated_Source\PSoC4/isr_trigger.c **** *  sets the interrupt vector based on the address passed in, sets the priority 
  79:Generated_Source\PSoC4/isr_trigger.c **** *  from the value in the Design Wide Resources Interrupt Editor, then enables 
  80:Generated_Source\PSoC4/isr_trigger.c **** *  the interrupt to the interrupt controller.
  81:Generated_Source\PSoC4/isr_trigger.c **** *  
  82:Generated_Source\PSoC4/isr_trigger.c **** *  When defining ISR functions, the CY_ISR and CY_ISR_PROTO macros should be 
  83:Generated_Source\PSoC4/isr_trigger.c **** *  used to provide consistent definition across compilers:
  84:Generated_Source\PSoC4/isr_trigger.c **** *  
  85:Generated_Source\PSoC4/isr_trigger.c **** *  Function definition example:
  86:Generated_Source\PSoC4/isr_trigger.c **** *   CY_ISR(MyISR)
  87:Generated_Source\PSoC4/isr_trigger.c **** *   {
ARM GAS  C:\Users\psmus\AppData\Local\Temp\ccWnCDHr.s 			page 3


  88:Generated_Source\PSoC4/isr_trigger.c **** *   }
  89:Generated_Source\PSoC4/isr_trigger.c **** *   Function prototype example:
  90:Generated_Source\PSoC4/isr_trigger.c **** *   CY_ISR_PROTO(MyISR);
  91:Generated_Source\PSoC4/isr_trigger.c **** *
  92:Generated_Source\PSoC4/isr_trigger.c **** * Parameters:  
  93:Generated_Source\PSoC4/isr_trigger.c **** *   address: Address of the ISR to set in the interrupt vector table.
  94:Generated_Source\PSoC4/isr_trigger.c **** *
  95:Generated_Source\PSoC4/isr_trigger.c **** * Return:
  96:Generated_Source\PSoC4/isr_trigger.c **** *   None
  97:Generated_Source\PSoC4/isr_trigger.c **** *
  98:Generated_Source\PSoC4/isr_trigger.c **** *******************************************************************************/
  99:Generated_Source\PSoC4/isr_trigger.c **** void isr_trigger_StartEx(cyisraddress address)
 100:Generated_Source\PSoC4/isr_trigger.c **** {
 101:Generated_Source\PSoC4/isr_trigger.c ****     /* For all we know the interrupt is active. */
 102:Generated_Source\PSoC4/isr_trigger.c ****     isr_trigger_Disable();
 103:Generated_Source\PSoC4/isr_trigger.c **** 
 104:Generated_Source\PSoC4/isr_trigger.c ****     /* Set the ISR to point to the isr_trigger Interrupt. */
 105:Generated_Source\PSoC4/isr_trigger.c ****     isr_trigger_SetVector(address);
 106:Generated_Source\PSoC4/isr_trigger.c **** 
 107:Generated_Source\PSoC4/isr_trigger.c ****     /* Set the priority. */
 108:Generated_Source\PSoC4/isr_trigger.c ****     isr_trigger_SetPriority((uint8)isr_trigger_INTC_PRIOR_NUMBER);
 109:Generated_Source\PSoC4/isr_trigger.c **** 
 110:Generated_Source\PSoC4/isr_trigger.c ****     /* Enable it. */
 111:Generated_Source\PSoC4/isr_trigger.c ****     isr_trigger_Enable();
 112:Generated_Source\PSoC4/isr_trigger.c **** }
 113:Generated_Source\PSoC4/isr_trigger.c **** 
 114:Generated_Source\PSoC4/isr_trigger.c **** 
 115:Generated_Source\PSoC4/isr_trigger.c **** /*******************************************************************************
 116:Generated_Source\PSoC4/isr_trigger.c **** * Function Name: isr_trigger_Stop
 117:Generated_Source\PSoC4/isr_trigger.c **** ********************************************************************************
 118:Generated_Source\PSoC4/isr_trigger.c **** *
 119:Generated_Source\PSoC4/isr_trigger.c **** * Summary:
 120:Generated_Source\PSoC4/isr_trigger.c **** *   Disables and removes the interrupt.
 121:Generated_Source\PSoC4/isr_trigger.c **** *
 122:Generated_Source\PSoC4/isr_trigger.c **** * Parameters:  
 123:Generated_Source\PSoC4/isr_trigger.c **** *   None
 124:Generated_Source\PSoC4/isr_trigger.c **** *
 125:Generated_Source\PSoC4/isr_trigger.c **** * Return:
 126:Generated_Source\PSoC4/isr_trigger.c **** *   None
 127:Generated_Source\PSoC4/isr_trigger.c **** *
 128:Generated_Source\PSoC4/isr_trigger.c **** *******************************************************************************/
 129:Generated_Source\PSoC4/isr_trigger.c **** void isr_trigger_Stop(void)
 130:Generated_Source\PSoC4/isr_trigger.c **** {
 131:Generated_Source\PSoC4/isr_trigger.c ****     /* Disable this interrupt. */
 132:Generated_Source\PSoC4/isr_trigger.c ****     isr_trigger_Disable();
 133:Generated_Source\PSoC4/isr_trigger.c **** 
 134:Generated_Source\PSoC4/isr_trigger.c ****     /* Set the ISR to point to the passive one. */
 135:Generated_Source\PSoC4/isr_trigger.c ****     isr_trigger_SetVector(&IntDefaultHandler);
 136:Generated_Source\PSoC4/isr_trigger.c **** }
 137:Generated_Source\PSoC4/isr_trigger.c **** 
 138:Generated_Source\PSoC4/isr_trigger.c **** 
 139:Generated_Source\PSoC4/isr_trigger.c **** /*******************************************************************************
 140:Generated_Source\PSoC4/isr_trigger.c **** * Function Name: isr_trigger_Interrupt
 141:Generated_Source\PSoC4/isr_trigger.c **** ********************************************************************************
 142:Generated_Source\PSoC4/isr_trigger.c **** *
 143:Generated_Source\PSoC4/isr_trigger.c **** * Summary:
 144:Generated_Source\PSoC4/isr_trigger.c **** *   The default Interrupt Service Routine for isr_trigger.
ARM GAS  C:\Users\psmus\AppData\Local\Temp\ccWnCDHr.s 			page 4


 145:Generated_Source\PSoC4/isr_trigger.c **** *
 146:Generated_Source\PSoC4/isr_trigger.c **** *   Add custom code between the START and END comments to keep the next version
 147:Generated_Source\PSoC4/isr_trigger.c **** *   of this file from over-writing your code.
 148:Generated_Source\PSoC4/isr_trigger.c **** *
 149:Generated_Source\PSoC4/isr_trigger.c **** *   Note You may use either the default ISR by using this API, or you may define
 150:Generated_Source\PSoC4/isr_trigger.c **** *   your own separate ISR through ISR_StartEx().
 151:Generated_Source\PSoC4/isr_trigger.c **** *
 152:Generated_Source\PSoC4/isr_trigger.c **** * Parameters:  
 153:Generated_Source\PSoC4/isr_trigger.c **** *   None
 154:Generated_Source\PSoC4/isr_trigger.c **** *
 155:Generated_Source\PSoC4/isr_trigger.c **** * Return:
 156:Generated_Source\PSoC4/isr_trigger.c **** *   None
 157:Generated_Source\PSoC4/isr_trigger.c **** *
 158:Generated_Source\PSoC4/isr_trigger.c **** *******************************************************************************/
 159:Generated_Source\PSoC4/isr_trigger.c **** CY_ISR(isr_trigger_Interrupt)
 160:Generated_Source\PSoC4/isr_trigger.c **** {
  28              		.loc 1 160 0
  29              		.cfi_startproc
  30              		@ args = 0, pretend = 0, frame = 0
  31              		@ frame_needed = 0, uses_anonymous_args = 0
  32              		@ link register save eliminated.
 161:Generated_Source\PSoC4/isr_trigger.c ****     #ifdef isr_trigger_INTERRUPT_INTERRUPT_CALLBACK
 162:Generated_Source\PSoC4/isr_trigger.c ****         isr_trigger_Interrupt_InterruptCallback();
 163:Generated_Source\PSoC4/isr_trigger.c ****     #endif /* isr_trigger_INTERRUPT_INTERRUPT_CALLBACK */ 
 164:Generated_Source\PSoC4/isr_trigger.c **** 
 165:Generated_Source\PSoC4/isr_trigger.c ****     /*  Place your Interrupt code here. */
 166:Generated_Source\PSoC4/isr_trigger.c ****     /* `#START isr_trigger_Interrupt` */
 167:Generated_Source\PSoC4/isr_trigger.c **** 
 168:Generated_Source\PSoC4/isr_trigger.c ****     /* `#END` */
 169:Generated_Source\PSoC4/isr_trigger.c **** }
  33              		.loc 1 169 0
  34              		@ sp needed
  35 0000 7047     		bx	lr
  36              		.cfi_endproc
  37              	.LFE4:
  38              		.size	isr_trigger_Interrupt, .-isr_trigger_Interrupt
  39 0002 C046     		.section	.text.isr_trigger_SetVector,"ax",%progbits
  40              		.align	2
  41              		.global	isr_trigger_SetVector
  42              		.code	16
  43              		.thumb_func
  44              		.type	isr_trigger_SetVector, %function
  45              	isr_trigger_SetVector:
  46              	.LFB5:
 170:Generated_Source\PSoC4/isr_trigger.c **** 
 171:Generated_Source\PSoC4/isr_trigger.c **** 
 172:Generated_Source\PSoC4/isr_trigger.c **** /*******************************************************************************
 173:Generated_Source\PSoC4/isr_trigger.c **** * Function Name: isr_trigger_SetVector
 174:Generated_Source\PSoC4/isr_trigger.c **** ********************************************************************************
 175:Generated_Source\PSoC4/isr_trigger.c **** *
 176:Generated_Source\PSoC4/isr_trigger.c **** * Summary:
 177:Generated_Source\PSoC4/isr_trigger.c **** *   Change the ISR vector for the Interrupt. Note calling isr_trigger_Start
 178:Generated_Source\PSoC4/isr_trigger.c **** *   will override any effect this method would have had. To set the vector 
 179:Generated_Source\PSoC4/isr_trigger.c **** *   before the component has been started use isr_trigger_StartEx instead.
 180:Generated_Source\PSoC4/isr_trigger.c **** * 
 181:Generated_Source\PSoC4/isr_trigger.c **** *   When defining ISR functions, the CY_ISR and CY_ISR_PROTO macros should be 
 182:Generated_Source\PSoC4/isr_trigger.c **** *   used to provide consistent definition across compilers:
ARM GAS  C:\Users\psmus\AppData\Local\Temp\ccWnCDHr.s 			page 5


 183:Generated_Source\PSoC4/isr_trigger.c **** *
 184:Generated_Source\PSoC4/isr_trigger.c **** *   Function definition example:
 185:Generated_Source\PSoC4/isr_trigger.c **** *   CY_ISR(MyISR)
 186:Generated_Source\PSoC4/isr_trigger.c **** *   {
 187:Generated_Source\PSoC4/isr_trigger.c **** *   }
 188:Generated_Source\PSoC4/isr_trigger.c **** *
 189:Generated_Source\PSoC4/isr_trigger.c **** *   Function prototype example:
 190:Generated_Source\PSoC4/isr_trigger.c **** *     CY_ISR_PROTO(MyISR);
 191:Generated_Source\PSoC4/isr_trigger.c **** *
 192:Generated_Source\PSoC4/isr_trigger.c **** * Parameters:
 193:Generated_Source\PSoC4/isr_trigger.c **** *   address: Address of the ISR to set in the interrupt vector table.
 194:Generated_Source\PSoC4/isr_trigger.c **** *
 195:Generated_Source\PSoC4/isr_trigger.c **** * Return:
 196:Generated_Source\PSoC4/isr_trigger.c **** *   None
 197:Generated_Source\PSoC4/isr_trigger.c **** *
 198:Generated_Source\PSoC4/isr_trigger.c **** *******************************************************************************/
 199:Generated_Source\PSoC4/isr_trigger.c **** void isr_trigger_SetVector(cyisraddress address)
 200:Generated_Source\PSoC4/isr_trigger.c **** {
  47              		.loc 1 200 0
  48              		.cfi_startproc
  49              		@ args = 0, pretend = 0, frame = 0
  50              		@ frame_needed = 0, uses_anonymous_args = 0
  51              		@ link register save eliminated.
  52              	.LVL0:
 201:Generated_Source\PSoC4/isr_trigger.c ****     CyRamVectors[CYINT_IRQ_BASE + isr_trigger__INTC_NUMBER] = address;
  53              		.loc 1 201 0
  54 0000 014B     		ldr	r3, .L3
  55 0002 1865     		str	r0, [r3, #80]
 202:Generated_Source\PSoC4/isr_trigger.c **** }
  56              		.loc 1 202 0
  57              		@ sp needed
  58 0004 7047     		bx	lr
  59              	.L4:
  60 0006 C046     		.align	2
  61              	.L3:
  62 0008 00000000 		.word	CyRamVectors
  63              		.cfi_endproc
  64              	.LFE5:
  65              		.size	isr_trigger_SetVector, .-isr_trigger_SetVector
  66              		.section	.text.isr_trigger_GetVector,"ax",%progbits
  67              		.align	2
  68              		.global	isr_trigger_GetVector
  69              		.code	16
  70              		.thumb_func
  71              		.type	isr_trigger_GetVector, %function
  72              	isr_trigger_GetVector:
  73              	.LFB6:
 203:Generated_Source\PSoC4/isr_trigger.c **** 
 204:Generated_Source\PSoC4/isr_trigger.c **** 
 205:Generated_Source\PSoC4/isr_trigger.c **** /*******************************************************************************
 206:Generated_Source\PSoC4/isr_trigger.c **** * Function Name: isr_trigger_GetVector
 207:Generated_Source\PSoC4/isr_trigger.c **** ********************************************************************************
 208:Generated_Source\PSoC4/isr_trigger.c **** *
 209:Generated_Source\PSoC4/isr_trigger.c **** * Summary:
 210:Generated_Source\PSoC4/isr_trigger.c **** *   Gets the "address" of the current ISR vector for the Interrupt.
 211:Generated_Source\PSoC4/isr_trigger.c **** *
 212:Generated_Source\PSoC4/isr_trigger.c **** * Parameters:
ARM GAS  C:\Users\psmus\AppData\Local\Temp\ccWnCDHr.s 			page 6


 213:Generated_Source\PSoC4/isr_trigger.c **** *   None
 214:Generated_Source\PSoC4/isr_trigger.c **** *
 215:Generated_Source\PSoC4/isr_trigger.c **** * Return:
 216:Generated_Source\PSoC4/isr_trigger.c **** *   Address of the ISR in the interrupt vector table.
 217:Generated_Source\PSoC4/isr_trigger.c **** *
 218:Generated_Source\PSoC4/isr_trigger.c **** *******************************************************************************/
 219:Generated_Source\PSoC4/isr_trigger.c **** cyisraddress isr_trigger_GetVector(void)
 220:Generated_Source\PSoC4/isr_trigger.c **** {
  74              		.loc 1 220 0
  75              		.cfi_startproc
  76              		@ args = 0, pretend = 0, frame = 0
  77              		@ frame_needed = 0, uses_anonymous_args = 0
  78              		@ link register save eliminated.
 221:Generated_Source\PSoC4/isr_trigger.c ****     return CyRamVectors[CYINT_IRQ_BASE + isr_trigger__INTC_NUMBER];
  79              		.loc 1 221 0
  80 0000 014B     		ldr	r3, .L6
  81 0002 186D     		ldr	r0, [r3, #80]
 222:Generated_Source\PSoC4/isr_trigger.c **** }
  82              		.loc 1 222 0
  83              		@ sp needed
  84 0004 7047     		bx	lr
  85              	.L7:
  86 0006 C046     		.align	2
  87              	.L6:
  88 0008 00000000 		.word	CyRamVectors
  89              		.cfi_endproc
  90              	.LFE6:
  91              		.size	isr_trigger_GetVector, .-isr_trigger_GetVector
  92              		.section	.text.isr_trigger_SetPriority,"ax",%progbits
  93              		.align	2
  94              		.global	isr_trigger_SetPriority
  95              		.code	16
  96              		.thumb_func
  97              		.type	isr_trigger_SetPriority, %function
  98              	isr_trigger_SetPriority:
  99              	.LFB7:
 223:Generated_Source\PSoC4/isr_trigger.c **** 
 224:Generated_Source\PSoC4/isr_trigger.c **** 
 225:Generated_Source\PSoC4/isr_trigger.c **** /*******************************************************************************
 226:Generated_Source\PSoC4/isr_trigger.c **** * Function Name: isr_trigger_SetPriority
 227:Generated_Source\PSoC4/isr_trigger.c **** ********************************************************************************
 228:Generated_Source\PSoC4/isr_trigger.c **** *
 229:Generated_Source\PSoC4/isr_trigger.c **** * Summary:
 230:Generated_Source\PSoC4/isr_trigger.c **** *   Sets the Priority of the Interrupt. 
 231:Generated_Source\PSoC4/isr_trigger.c **** *
 232:Generated_Source\PSoC4/isr_trigger.c **** *   Note calling isr_trigger_Start or isr_trigger_StartEx will 
 233:Generated_Source\PSoC4/isr_trigger.c **** *   override any effect this API would have had. This API should only be called
 234:Generated_Source\PSoC4/isr_trigger.c **** *   after isr_trigger_Start or isr_trigger_StartEx has been called. 
 235:Generated_Source\PSoC4/isr_trigger.c **** *   To set the initial priority for the component, use the Design-Wide Resources
 236:Generated_Source\PSoC4/isr_trigger.c **** *   Interrupt Editor.
 237:Generated_Source\PSoC4/isr_trigger.c **** *
 238:Generated_Source\PSoC4/isr_trigger.c **** *   Note This API has no effect on Non-maskable interrupt NMI).
 239:Generated_Source\PSoC4/isr_trigger.c **** *
 240:Generated_Source\PSoC4/isr_trigger.c **** * Parameters:
 241:Generated_Source\PSoC4/isr_trigger.c **** *   priority: Priority of the interrupt, 0 being the highest priority
 242:Generated_Source\PSoC4/isr_trigger.c **** *             PSoC 3 and PSoC 5LP: Priority is from 0 to 7.
 243:Generated_Source\PSoC4/isr_trigger.c **** *             PSoC 4: Priority is from 0 to 3.
ARM GAS  C:\Users\psmus\AppData\Local\Temp\ccWnCDHr.s 			page 7


 244:Generated_Source\PSoC4/isr_trigger.c **** *
 245:Generated_Source\PSoC4/isr_trigger.c **** * Return:
 246:Generated_Source\PSoC4/isr_trigger.c **** *   None
 247:Generated_Source\PSoC4/isr_trigger.c **** *
 248:Generated_Source\PSoC4/isr_trigger.c **** *******************************************************************************/
 249:Generated_Source\PSoC4/isr_trigger.c **** void isr_trigger_SetPriority(uint8 priority)
 250:Generated_Source\PSoC4/isr_trigger.c **** {
 100              		.loc 1 250 0
 101              		.cfi_startproc
 102              		@ args = 0, pretend = 0, frame = 0
 103              		@ frame_needed = 0, uses_anonymous_args = 0
 104              	.LVL1:
 105 0000 10B5     		push	{r4, lr}
 106              		.cfi_def_cfa_offset 8
 107              		.cfi_offset 4, -8
 108              		.cfi_offset 14, -4
 109 0002 0400     		movs	r4, r0
 110              	.LVL2:
 251:Generated_Source\PSoC4/isr_trigger.c **** 	uint8 interruptState;
 252:Generated_Source\PSoC4/isr_trigger.c ****     uint32 priorityOffset = ((isr_trigger__INTC_NUMBER % 4u) * 8u) + 6u;
 253:Generated_Source\PSoC4/isr_trigger.c ****     
 254:Generated_Source\PSoC4/isr_trigger.c **** 	interruptState = CyEnterCriticalSection();
 111              		.loc 1 254 0
 112 0004 FFF7FEFF 		bl	CyEnterCriticalSection
 113              	.LVL3:
 255:Generated_Source\PSoC4/isr_trigger.c ****     *isr_trigger_INTC_PRIOR = (*isr_trigger_INTC_PRIOR & (uint32)(~isr_trigger__INTC_PRIOR_MASK)) |
 114              		.loc 1 255 0
 115 0008 044A     		ldr	r2, .L9
 116 000a 1368     		ldr	r3, [r2]
 117 000c C021     		movs	r1, #192
 118 000e 8B43     		bics	r3, r1
 256:Generated_Source\PSoC4/isr_trigger.c ****                                     ((uint32)priority << priorityOffset);
 119              		.loc 1 256 0
 120 0010 A401     		lsls	r4, r4, #6
 255:Generated_Source\PSoC4/isr_trigger.c ****     *isr_trigger_INTC_PRIOR = (*isr_trigger_INTC_PRIOR & (uint32)(~isr_trigger__INTC_PRIOR_MASK)) |
 121              		.loc 1 255 0
 122 0012 1C43     		orrs	r4, r3
 123 0014 1460     		str	r4, [r2]
 257:Generated_Source\PSoC4/isr_trigger.c **** 	CyExitCriticalSection(interruptState);
 124              		.loc 1 257 0
 125 0016 FFF7FEFF 		bl	CyExitCriticalSection
 126              	.LVL4:
 258:Generated_Source\PSoC4/isr_trigger.c **** }
 127              		.loc 1 258 0
 128              		@ sp needed
 129 001a 10BD     		pop	{r4, pc}
 130              	.L10:
 131              		.align	2
 132              	.L9:
 133 001c 04E400E0 		.word	-536812540
 134              		.cfi_endproc
 135              	.LFE7:
 136              		.size	isr_trigger_SetPriority, .-isr_trigger_SetPriority
 137              		.section	.text.isr_trigger_GetPriority,"ax",%progbits
 138              		.align	2
 139              		.global	isr_trigger_GetPriority
 140              		.code	16
ARM GAS  C:\Users\psmus\AppData\Local\Temp\ccWnCDHr.s 			page 8


 141              		.thumb_func
 142              		.type	isr_trigger_GetPriority, %function
 143              	isr_trigger_GetPriority:
 144              	.LFB8:
 259:Generated_Source\PSoC4/isr_trigger.c **** 
 260:Generated_Source\PSoC4/isr_trigger.c **** 
 261:Generated_Source\PSoC4/isr_trigger.c **** /*******************************************************************************
 262:Generated_Source\PSoC4/isr_trigger.c **** * Function Name: isr_trigger_GetPriority
 263:Generated_Source\PSoC4/isr_trigger.c **** ********************************************************************************
 264:Generated_Source\PSoC4/isr_trigger.c **** *
 265:Generated_Source\PSoC4/isr_trigger.c **** * Summary:
 266:Generated_Source\PSoC4/isr_trigger.c **** *   Gets the Priority of the Interrupt.
 267:Generated_Source\PSoC4/isr_trigger.c **** *
 268:Generated_Source\PSoC4/isr_trigger.c **** * Parameters:
 269:Generated_Source\PSoC4/isr_trigger.c **** *   None
 270:Generated_Source\PSoC4/isr_trigger.c **** *
 271:Generated_Source\PSoC4/isr_trigger.c **** * Return:
 272:Generated_Source\PSoC4/isr_trigger.c **** *   Priority of the interrupt, 0 being the highest priority
 273:Generated_Source\PSoC4/isr_trigger.c **** *    PSoC 3 and PSoC 5LP: Priority is from 0 to 7.
 274:Generated_Source\PSoC4/isr_trigger.c **** *    PSoC 4: Priority is from 0 to 3.
 275:Generated_Source\PSoC4/isr_trigger.c **** *
 276:Generated_Source\PSoC4/isr_trigger.c **** *******************************************************************************/
 277:Generated_Source\PSoC4/isr_trigger.c **** uint8 isr_trigger_GetPriority(void)
 278:Generated_Source\PSoC4/isr_trigger.c **** {
 145              		.loc 1 278 0
 146              		.cfi_startproc
 147              		@ args = 0, pretend = 0, frame = 0
 148              		@ frame_needed = 0, uses_anonymous_args = 0
 149              		@ link register save eliminated.
 150              	.LVL5:
 279:Generated_Source\PSoC4/isr_trigger.c ****     uint32 priority;
 280:Generated_Source\PSoC4/isr_trigger.c **** 	uint32 priorityOffset = ((isr_trigger__INTC_NUMBER % 4u) * 8u) + 6u;
 281:Generated_Source\PSoC4/isr_trigger.c **** 
 282:Generated_Source\PSoC4/isr_trigger.c ****     priority = (*isr_trigger_INTC_PRIOR & isr_trigger__INTC_PRIOR_MASK) >> priorityOffset;
 151              		.loc 1 282 0
 152 0000 024B     		ldr	r3, .L12
 153 0002 1868     		ldr	r0, [r3]
 154 0004 8009     		lsrs	r0, r0, #6
 155              	.LVL6:
 283:Generated_Source\PSoC4/isr_trigger.c **** 
 284:Generated_Source\PSoC4/isr_trigger.c ****     return (uint8)priority;
 156              		.loc 1 284 0
 157 0006 0323     		movs	r3, #3
 158 0008 1840     		ands	r0, r3
 159              	.LVL7:
 285:Generated_Source\PSoC4/isr_trigger.c **** }
 160              		.loc 1 285 0
 161              		@ sp needed
 162 000a 7047     		bx	lr
 163              	.L13:
 164              		.align	2
 165              	.L12:
 166 000c 04E400E0 		.word	-536812540
 167              		.cfi_endproc
 168              	.LFE8:
 169              		.size	isr_trigger_GetPriority, .-isr_trigger_GetPriority
 170              		.section	.text.isr_trigger_Enable,"ax",%progbits
ARM GAS  C:\Users\psmus\AppData\Local\Temp\ccWnCDHr.s 			page 9


 171              		.align	2
 172              		.global	isr_trigger_Enable
 173              		.code	16
 174              		.thumb_func
 175              		.type	isr_trigger_Enable, %function
 176              	isr_trigger_Enable:
 177              	.LFB9:
 286:Generated_Source\PSoC4/isr_trigger.c **** 
 287:Generated_Source\PSoC4/isr_trigger.c **** 
 288:Generated_Source\PSoC4/isr_trigger.c **** /*******************************************************************************
 289:Generated_Source\PSoC4/isr_trigger.c **** * Function Name: isr_trigger_Enable
 290:Generated_Source\PSoC4/isr_trigger.c **** ********************************************************************************
 291:Generated_Source\PSoC4/isr_trigger.c **** *
 292:Generated_Source\PSoC4/isr_trigger.c **** * Summary:
 293:Generated_Source\PSoC4/isr_trigger.c **** *   Enables the interrupt to the interrupt controller. Do not call this function
 294:Generated_Source\PSoC4/isr_trigger.c **** *   unless ISR_Start() has been called or the functionality of the ISR_Start() 
 295:Generated_Source\PSoC4/isr_trigger.c **** *   function, which sets the vector and the priority, has been called.
 296:Generated_Source\PSoC4/isr_trigger.c **** *
 297:Generated_Source\PSoC4/isr_trigger.c **** * Parameters:
 298:Generated_Source\PSoC4/isr_trigger.c **** *   None
 299:Generated_Source\PSoC4/isr_trigger.c **** *
 300:Generated_Source\PSoC4/isr_trigger.c **** * Return:
 301:Generated_Source\PSoC4/isr_trigger.c **** *   None
 302:Generated_Source\PSoC4/isr_trigger.c **** *
 303:Generated_Source\PSoC4/isr_trigger.c **** *******************************************************************************/
 304:Generated_Source\PSoC4/isr_trigger.c **** void isr_trigger_Enable(void)
 305:Generated_Source\PSoC4/isr_trigger.c **** {
 178              		.loc 1 305 0
 179              		.cfi_startproc
 180              		@ args = 0, pretend = 0, frame = 0
 181              		@ frame_needed = 0, uses_anonymous_args = 0
 182              		@ link register save eliminated.
 306:Generated_Source\PSoC4/isr_trigger.c ****     /* Enable the general interrupt. */
 307:Generated_Source\PSoC4/isr_trigger.c ****     *isr_trigger_INTC_SET_EN = isr_trigger__INTC_MASK;
 183              		.loc 1 307 0
 184 0000 1022     		movs	r2, #16
 185 0002 014B     		ldr	r3, .L15
 186 0004 1A60     		str	r2, [r3]
 308:Generated_Source\PSoC4/isr_trigger.c **** }
 187              		.loc 1 308 0
 188              		@ sp needed
 189 0006 7047     		bx	lr
 190              	.L16:
 191              		.align	2
 192              	.L15:
 193 0008 00E100E0 		.word	-536813312
 194              		.cfi_endproc
 195              	.LFE9:
 196              		.size	isr_trigger_Enable, .-isr_trigger_Enable
 197              		.section	.text.isr_trigger_GetState,"ax",%progbits
 198              		.align	2
 199              		.global	isr_trigger_GetState
 200              		.code	16
 201              		.thumb_func
 202              		.type	isr_trigger_GetState, %function
 203              	isr_trigger_GetState:
 204              	.LFB10:
ARM GAS  C:\Users\psmus\AppData\Local\Temp\ccWnCDHr.s 			page 10


 309:Generated_Source\PSoC4/isr_trigger.c **** 
 310:Generated_Source\PSoC4/isr_trigger.c **** 
 311:Generated_Source\PSoC4/isr_trigger.c **** /*******************************************************************************
 312:Generated_Source\PSoC4/isr_trigger.c **** * Function Name: isr_trigger_GetState
 313:Generated_Source\PSoC4/isr_trigger.c **** ********************************************************************************
 314:Generated_Source\PSoC4/isr_trigger.c **** *
 315:Generated_Source\PSoC4/isr_trigger.c **** * Summary:
 316:Generated_Source\PSoC4/isr_trigger.c **** *   Gets the state (enabled, disabled) of the Interrupt.
 317:Generated_Source\PSoC4/isr_trigger.c **** *
 318:Generated_Source\PSoC4/isr_trigger.c **** * Parameters:
 319:Generated_Source\PSoC4/isr_trigger.c **** *   None
 320:Generated_Source\PSoC4/isr_trigger.c **** *
 321:Generated_Source\PSoC4/isr_trigger.c **** * Return:
 322:Generated_Source\PSoC4/isr_trigger.c **** *   1 if enabled, 0 if disabled.
 323:Generated_Source\PSoC4/isr_trigger.c **** *
 324:Generated_Source\PSoC4/isr_trigger.c **** *******************************************************************************/
 325:Generated_Source\PSoC4/isr_trigger.c **** uint8 isr_trigger_GetState(void)
 326:Generated_Source\PSoC4/isr_trigger.c **** {
 205              		.loc 1 326 0
 206              		.cfi_startproc
 207              		@ args = 0, pretend = 0, frame = 0
 208              		@ frame_needed = 0, uses_anonymous_args = 0
 209              		@ link register save eliminated.
 327:Generated_Source\PSoC4/isr_trigger.c ****     /* Get the state of the general interrupt. */
 328:Generated_Source\PSoC4/isr_trigger.c ****     return ((*isr_trigger_INTC_SET_EN & (uint32)isr_trigger__INTC_MASK) != 0u) ? 1u:0u;
 210              		.loc 1 328 0
 211 0000 034B     		ldr	r3, .L20
 212 0002 1B68     		ldr	r3, [r3]
 213 0004 DB06     		lsls	r3, r3, #27
 214 0006 01D5     		bpl	.L19
 215 0008 0120     		movs	r0, #1
 216 000a 00E0     		b	.L18
 217              	.L19:
 218 000c 0020     		movs	r0, #0
 219              	.L18:
 329:Generated_Source\PSoC4/isr_trigger.c **** }
 220              		.loc 1 329 0 discriminator 4
 221              		@ sp needed
 222 000e 7047     		bx	lr
 223              	.L21:
 224              		.align	2
 225              	.L20:
 226 0010 00E100E0 		.word	-536813312
 227              		.cfi_endproc
 228              	.LFE10:
 229              		.size	isr_trigger_GetState, .-isr_trigger_GetState
 230              		.section	.text.isr_trigger_Disable,"ax",%progbits
 231              		.align	2
 232              		.global	isr_trigger_Disable
 233              		.code	16
 234              		.thumb_func
 235              		.type	isr_trigger_Disable, %function
 236              	isr_trigger_Disable:
 237              	.LFB11:
 330:Generated_Source\PSoC4/isr_trigger.c **** 
 331:Generated_Source\PSoC4/isr_trigger.c **** 
 332:Generated_Source\PSoC4/isr_trigger.c **** /*******************************************************************************
ARM GAS  C:\Users\psmus\AppData\Local\Temp\ccWnCDHr.s 			page 11


 333:Generated_Source\PSoC4/isr_trigger.c **** * Function Name: isr_trigger_Disable
 334:Generated_Source\PSoC4/isr_trigger.c **** ********************************************************************************
 335:Generated_Source\PSoC4/isr_trigger.c **** *
 336:Generated_Source\PSoC4/isr_trigger.c **** * Summary:
 337:Generated_Source\PSoC4/isr_trigger.c **** *   Disables the Interrupt in the interrupt controller.
 338:Generated_Source\PSoC4/isr_trigger.c **** *
 339:Generated_Source\PSoC4/isr_trigger.c **** * Parameters:
 340:Generated_Source\PSoC4/isr_trigger.c **** *   None
 341:Generated_Source\PSoC4/isr_trigger.c **** *
 342:Generated_Source\PSoC4/isr_trigger.c **** * Return:
 343:Generated_Source\PSoC4/isr_trigger.c **** *   None
 344:Generated_Source\PSoC4/isr_trigger.c **** *
 345:Generated_Source\PSoC4/isr_trigger.c **** *******************************************************************************/
 346:Generated_Source\PSoC4/isr_trigger.c **** void isr_trigger_Disable(void)
 347:Generated_Source\PSoC4/isr_trigger.c **** {
 238              		.loc 1 347 0
 239              		.cfi_startproc
 240              		@ args = 0, pretend = 0, frame = 0
 241              		@ frame_needed = 0, uses_anonymous_args = 0
 242              		@ link register save eliminated.
 348:Generated_Source\PSoC4/isr_trigger.c ****     /* Disable the general interrupt. */
 349:Generated_Source\PSoC4/isr_trigger.c ****     *isr_trigger_INTC_CLR_EN = isr_trigger__INTC_MASK;
 243              		.loc 1 349 0
 244 0000 1022     		movs	r2, #16
 245 0002 014B     		ldr	r3, .L23
 246 0004 1A60     		str	r2, [r3]
 350:Generated_Source\PSoC4/isr_trigger.c **** }
 247              		.loc 1 350 0
 248              		@ sp needed
 249 0006 7047     		bx	lr
 250              	.L24:
 251              		.align	2
 252              	.L23:
 253 0008 80E100E0 		.word	-536813184
 254              		.cfi_endproc
 255              	.LFE11:
 256              		.size	isr_trigger_Disable, .-isr_trigger_Disable
 257              		.section	.text.isr_trigger_Start,"ax",%progbits
 258              		.align	2
 259              		.global	isr_trigger_Start
 260              		.code	16
 261              		.thumb_func
 262              		.type	isr_trigger_Start, %function
 263              	isr_trigger_Start:
 264              	.LFB1:
  57:Generated_Source\PSoC4/isr_trigger.c ****     /* For all we know the interrupt is active. */
 265              		.loc 1 57 0
 266              		.cfi_startproc
 267              		@ args = 0, pretend = 0, frame = 0
 268              		@ frame_needed = 0, uses_anonymous_args = 0
 269 0000 10B5     		push	{r4, lr}
 270              		.cfi_def_cfa_offset 8
 271              		.cfi_offset 4, -8
 272              		.cfi_offset 14, -4
  59:Generated_Source\PSoC4/isr_trigger.c **** 
 273              		.loc 1 59 0
 274 0002 FFF7FEFF 		bl	isr_trigger_Disable
ARM GAS  C:\Users\psmus\AppData\Local\Temp\ccWnCDHr.s 			page 12


 275              	.LVL8:
  62:Generated_Source\PSoC4/isr_trigger.c **** 
 276              		.loc 1 62 0
 277 0006 0448     		ldr	r0, .L26
 278 0008 FFF7FEFF 		bl	isr_trigger_SetVector
 279              	.LVL9:
  65:Generated_Source\PSoC4/isr_trigger.c **** 
 280              		.loc 1 65 0
 281 000c 0320     		movs	r0, #3
 282 000e FFF7FEFF 		bl	isr_trigger_SetPriority
 283              	.LVL10:
  68:Generated_Source\PSoC4/isr_trigger.c **** }
 284              		.loc 1 68 0
 285 0012 FFF7FEFF 		bl	isr_trigger_Enable
 286              	.LVL11:
  69:Generated_Source\PSoC4/isr_trigger.c **** 
 287              		.loc 1 69 0
 288              		@ sp needed
 289 0016 10BD     		pop	{r4, pc}
 290              	.L27:
 291              		.align	2
 292              	.L26:
 293 0018 00000000 		.word	isr_trigger_Interrupt
 294              		.cfi_endproc
 295              	.LFE1:
 296              		.size	isr_trigger_Start, .-isr_trigger_Start
 297              		.section	.text.isr_trigger_StartEx,"ax",%progbits
 298              		.align	2
 299              		.global	isr_trigger_StartEx
 300              		.code	16
 301              		.thumb_func
 302              		.type	isr_trigger_StartEx, %function
 303              	isr_trigger_StartEx:
 304              	.LFB2:
 100:Generated_Source\PSoC4/isr_trigger.c ****     /* For all we know the interrupt is active. */
 305              		.loc 1 100 0
 306              		.cfi_startproc
 307              		@ args = 0, pretend = 0, frame = 0
 308              		@ frame_needed = 0, uses_anonymous_args = 0
 309              	.LVL12:
 310 0000 10B5     		push	{r4, lr}
 311              		.cfi_def_cfa_offset 8
 312              		.cfi_offset 4, -8
 313              		.cfi_offset 14, -4
 314 0002 0400     		movs	r4, r0
 102:Generated_Source\PSoC4/isr_trigger.c **** 
 315              		.loc 1 102 0
 316 0004 FFF7FEFF 		bl	isr_trigger_Disable
 317              	.LVL13:
 105:Generated_Source\PSoC4/isr_trigger.c **** 
 318              		.loc 1 105 0
 319 0008 2000     		movs	r0, r4
 320 000a FFF7FEFF 		bl	isr_trigger_SetVector
 321              	.LVL14:
 108:Generated_Source\PSoC4/isr_trigger.c **** 
 322              		.loc 1 108 0
 323 000e 0320     		movs	r0, #3
ARM GAS  C:\Users\psmus\AppData\Local\Temp\ccWnCDHr.s 			page 13


 324 0010 FFF7FEFF 		bl	isr_trigger_SetPriority
 325              	.LVL15:
 111:Generated_Source\PSoC4/isr_trigger.c **** }
 326              		.loc 1 111 0
 327 0014 FFF7FEFF 		bl	isr_trigger_Enable
 328              	.LVL16:
 112:Generated_Source\PSoC4/isr_trigger.c **** 
 329              		.loc 1 112 0
 330              		@ sp needed
 331              	.LVL17:
 332 0018 10BD     		pop	{r4, pc}
 333              		.cfi_endproc
 334              	.LFE2:
 335              		.size	isr_trigger_StartEx, .-isr_trigger_StartEx
 336 001a C046     		.section	.text.isr_trigger_Stop,"ax",%progbits
 337              		.align	2
 338              		.global	isr_trigger_Stop
 339              		.code	16
 340              		.thumb_func
 341              		.type	isr_trigger_Stop, %function
 342              	isr_trigger_Stop:
 343              	.LFB3:
 130:Generated_Source\PSoC4/isr_trigger.c ****     /* Disable this interrupt. */
 344              		.loc 1 130 0
 345              		.cfi_startproc
 346              		@ args = 0, pretend = 0, frame = 0
 347              		@ frame_needed = 0, uses_anonymous_args = 0
 348 0000 10B5     		push	{r4, lr}
 349              		.cfi_def_cfa_offset 8
 350              		.cfi_offset 4, -8
 351              		.cfi_offset 14, -4
 132:Generated_Source\PSoC4/isr_trigger.c **** 
 352              		.loc 1 132 0
 353 0002 FFF7FEFF 		bl	isr_trigger_Disable
 354              	.LVL18:
 135:Generated_Source\PSoC4/isr_trigger.c **** }
 355              		.loc 1 135 0
 356 0006 0248     		ldr	r0, .L30
 357 0008 FFF7FEFF 		bl	isr_trigger_SetVector
 358              	.LVL19:
 136:Generated_Source\PSoC4/isr_trigger.c **** 
 359              		.loc 1 136 0
 360              		@ sp needed
 361 000c 10BD     		pop	{r4, pc}
 362              	.L31:
 363 000e C046     		.align	2
 364              	.L30:
 365 0010 00000000 		.word	IntDefaultHandler
 366              		.cfi_endproc
 367              	.LFE3:
 368              		.size	isr_trigger_Stop, .-isr_trigger_Stop
 369              		.section	.text.isr_trigger_SetPending,"ax",%progbits
 370              		.align	2
 371              		.global	isr_trigger_SetPending
 372              		.code	16
 373              		.thumb_func
 374              		.type	isr_trigger_SetPending, %function
ARM GAS  C:\Users\psmus\AppData\Local\Temp\ccWnCDHr.s 			page 14


 375              	isr_trigger_SetPending:
 376              	.LFB12:
 351:Generated_Source\PSoC4/isr_trigger.c **** 
 352:Generated_Source\PSoC4/isr_trigger.c **** 
 353:Generated_Source\PSoC4/isr_trigger.c **** /*******************************************************************************
 354:Generated_Source\PSoC4/isr_trigger.c **** * Function Name: isr_trigger_SetPending
 355:Generated_Source\PSoC4/isr_trigger.c **** ********************************************************************************
 356:Generated_Source\PSoC4/isr_trigger.c **** *
 357:Generated_Source\PSoC4/isr_trigger.c **** * Summary:
 358:Generated_Source\PSoC4/isr_trigger.c **** *   Causes the Interrupt to enter the pending state, a software method of
 359:Generated_Source\PSoC4/isr_trigger.c **** *   generating the interrupt.
 360:Generated_Source\PSoC4/isr_trigger.c **** *
 361:Generated_Source\PSoC4/isr_trigger.c **** * Parameters:
 362:Generated_Source\PSoC4/isr_trigger.c **** *   None
 363:Generated_Source\PSoC4/isr_trigger.c **** *
 364:Generated_Source\PSoC4/isr_trigger.c **** * Return:
 365:Generated_Source\PSoC4/isr_trigger.c **** *   None
 366:Generated_Source\PSoC4/isr_trigger.c **** *
 367:Generated_Source\PSoC4/isr_trigger.c **** * Side Effects:
 368:Generated_Source\PSoC4/isr_trigger.c **** *   If interrupts are enabled and the interrupt is set up properly, the ISR is
 369:Generated_Source\PSoC4/isr_trigger.c **** *   entered (depending on the priority of this interrupt and other pending 
 370:Generated_Source\PSoC4/isr_trigger.c **** *   interrupts).
 371:Generated_Source\PSoC4/isr_trigger.c **** *
 372:Generated_Source\PSoC4/isr_trigger.c **** *******************************************************************************/
 373:Generated_Source\PSoC4/isr_trigger.c **** void isr_trigger_SetPending(void)
 374:Generated_Source\PSoC4/isr_trigger.c **** {
 377              		.loc 1 374 0
 378              		.cfi_startproc
 379              		@ args = 0, pretend = 0, frame = 0
 380              		@ frame_needed = 0, uses_anonymous_args = 0
 381              		@ link register save eliminated.
 375:Generated_Source\PSoC4/isr_trigger.c ****     *isr_trigger_INTC_SET_PD = isr_trigger__INTC_MASK;
 382              		.loc 1 375 0
 383 0000 1022     		movs	r2, #16
 384 0002 014B     		ldr	r3, .L33
 385 0004 1A60     		str	r2, [r3]
 376:Generated_Source\PSoC4/isr_trigger.c **** }
 386              		.loc 1 376 0
 387              		@ sp needed
 388 0006 7047     		bx	lr
 389              	.L34:
 390              		.align	2
 391              	.L33:
 392 0008 00E200E0 		.word	-536813056
 393              		.cfi_endproc
 394              	.LFE12:
 395              		.size	isr_trigger_SetPending, .-isr_trigger_SetPending
 396              		.section	.text.isr_trigger_ClearPending,"ax",%progbits
 397              		.align	2
 398              		.global	isr_trigger_ClearPending
 399              		.code	16
 400              		.thumb_func
 401              		.type	isr_trigger_ClearPending, %function
 402              	isr_trigger_ClearPending:
 403              	.LFB13:
 377:Generated_Source\PSoC4/isr_trigger.c **** 
 378:Generated_Source\PSoC4/isr_trigger.c **** 
ARM GAS  C:\Users\psmus\AppData\Local\Temp\ccWnCDHr.s 			page 15


 379:Generated_Source\PSoC4/isr_trigger.c **** /*******************************************************************************
 380:Generated_Source\PSoC4/isr_trigger.c **** * Function Name: isr_trigger_ClearPending
 381:Generated_Source\PSoC4/isr_trigger.c **** ********************************************************************************
 382:Generated_Source\PSoC4/isr_trigger.c **** *
 383:Generated_Source\PSoC4/isr_trigger.c **** * Summary:
 384:Generated_Source\PSoC4/isr_trigger.c **** *   Clears a pending interrupt in the interrupt controller.
 385:Generated_Source\PSoC4/isr_trigger.c **** *
 386:Generated_Source\PSoC4/isr_trigger.c **** *   Note Some interrupt sources are clear-on-read and require the block 
 387:Generated_Source\PSoC4/isr_trigger.c **** *   interrupt/status register to be read/cleared with the appropriate block API 
 388:Generated_Source\PSoC4/isr_trigger.c **** *   (GPIO, UART, and so on). Otherwise the ISR will continue to remain in 
 389:Generated_Source\PSoC4/isr_trigger.c **** *   pending state even though the interrupt itself is cleared using this API.
 390:Generated_Source\PSoC4/isr_trigger.c **** *
 391:Generated_Source\PSoC4/isr_trigger.c **** * Parameters:
 392:Generated_Source\PSoC4/isr_trigger.c **** *   None
 393:Generated_Source\PSoC4/isr_trigger.c **** *
 394:Generated_Source\PSoC4/isr_trigger.c **** * Return:
 395:Generated_Source\PSoC4/isr_trigger.c **** *   None
 396:Generated_Source\PSoC4/isr_trigger.c **** *
 397:Generated_Source\PSoC4/isr_trigger.c **** *******************************************************************************/
 398:Generated_Source\PSoC4/isr_trigger.c **** void isr_trigger_ClearPending(void)
 399:Generated_Source\PSoC4/isr_trigger.c **** {
 404              		.loc 1 399 0
 405              		.cfi_startproc
 406              		@ args = 0, pretend = 0, frame = 0
 407              		@ frame_needed = 0, uses_anonymous_args = 0
 408              		@ link register save eliminated.
 400:Generated_Source\PSoC4/isr_trigger.c ****     *isr_trigger_INTC_CLR_PD = isr_trigger__INTC_MASK;
 409              		.loc 1 400 0
 410 0000 1022     		movs	r2, #16
 411 0002 014B     		ldr	r3, .L36
 412 0004 1A60     		str	r2, [r3]
 401:Generated_Source\PSoC4/isr_trigger.c **** }
 413              		.loc 1 401 0
 414              		@ sp needed
 415 0006 7047     		bx	lr
 416              	.L37:
 417              		.align	2
 418              	.L36:
 419 0008 80E200E0 		.word	-536812928
 420              		.cfi_endproc
 421              	.LFE13:
 422              		.size	isr_trigger_ClearPending, .-isr_trigger_ClearPending
 423              		.text
 424              	.Letext0:
 425              		.file 2 "Generated_Source\\PSoC4/cytypes.h"
 426              		.file 3 "Generated_Source\\PSoC4/CyLib.h"