ARM GAS  C:\Users\psmus\AppData\Local\Temp\ccmehLig.s 			page 1


   1              		.syntax unified
   2              		.cpu cortex-m0
   3              		.fpu softvfp
   4              		.eabi_attribute 20, 1
   5              		.eabi_attribute 21, 1
   6              		.eabi_attribute 23, 3
   7              		.eabi_attribute 24, 1
   8              		.eabi_attribute 25, 1
   9              		.eabi_attribute 26, 1
  10              		.eabi_attribute 30, 1
  11              		.eabi_attribute 34, 0
  12              		.eabi_attribute 18, 4
  13              		.thumb
  14              		.syntax unified
  15              		.file	"main.c"
  16              		.text
  17              	.Ltext0:
  18              		.cfi_sections	.debug_frame
  19              		.section	.text.main,"ax",%progbits
  20              		.align	2
  21              		.global	main
  22              		.code	16
  23              		.thumb_func
  24              		.type	main, %function
  25              	main:
  26              	.LFB130:
  27              		.file 1 "main.c"
   1:main.c        **** #include <project.h>
   2:main.c        **** #include "Codec.h"
   3:main.c        **** #include "AudioControl.h"
   4:main.c        **** #include "waves.h"
   5:main.c        **** #include "Interrupts.h"
   6:main.c        **** #include "AudioOut.h"
   7:main.c        **** #include "globals.h"
   8:main.c        **** 
   9:main.c        **** #include "oscillator.h"
  10:main.c        **** 
  11:main.c        **** uint32_t sample;
  12:main.c        **** int8_t masterTxBuffer[BUFFER_SIZE] = {"Data to transmit by SPI Master !"};
  13:main.c        **** int8_t masterRxBuffer[BUFFER_SIZE] = {0};
  14:main.c        **** //void FillBufferFromFPGA(int8_t* buffer);
  15:main.c        **** 
  16:main.c        **** uint8_t current_env_mode = 0;
  17:main.c        **** uint16_t attack_freq = 0;
  18:main.c        **** uint16_t decay_freq = 0;
  19:main.c        **** uint16_t sustain_freq = 0;
  20:main.c        **** uint16_t release_freq = 0;
  21:main.c        **** uint16_t waveshape = 0;
  22:main.c        ****     
  23:main.c        **** struct voice v1 = {0,0,0,0,0};
  24:main.c        **** struct voice v2 = {0,0,0,0,0};
  25:main.c        **** struct voice v3 = {0,0,0,0,0};
  26:main.c        **** struct voice v4 = {0,0,0,0,0};
  27:main.c        **** struct voice v5 = {0,0,0,0,0};
  28:main.c        **** struct voice v6 = {0,0,0,0,0};
  29:main.c        **** struct voice v7 = {0,0,0,0,0};
  30:main.c        **** struct voice v8 = {0,0,0,0,0};
ARM GAS  C:\Users\psmus\AppData\Local\Temp\ccmehLig.s 			page 2


  31:main.c        **** 
  32:main.c        **** /*******************************************************************************
  33:main.c        **** * USB and MIDI stuff
  34:main.c        **** * references Cypress MIDI code examples
  35:main.c        **** *******************************************************************************/
  36:main.c        **** #define DEVICE                  (0u)
  37:main.c        **** #define MIDI_MSG_SIZE           (4u)
  38:main.c        **** 
  39:main.c        **** /*MIDI Message Fields */
  40:main.c        **** #define MIDI_MSG_TYPE           (0u)
  41:main.c        **** #define MIDI_NOTE_NUMBER        (1u)
  42:main.c        **** #define MIDI_NOTE_VELOCITY      (2u)
  43:main.c        **** 
  44:main.c        **** /* Identity Reply message */
  45:main.c        **** const uint8 CYCODE MIDI_IDENTITY_REPLY[] = {
  46:main.c        ****     0xF0u,      /* SysEx */
  47:main.c        ****     0x7Eu,      /* Non-real time */
  48:main.c        ****     0x7Fu,      /* ID of target device (7F - "All Call") */
  49:main.c        ****     0x06u,      /* Sub-ID#1 - General Information */
  50:main.c        ****     0x02u,      /* Sub-ID#2 - Identity Reply */
  51:main.c        ****     0x7Du,      /* Manufacturer's ID: 7D - Educational Use */
  52:main.c        ****     0xB4u, 0x04u,               /* Family code */
  53:main.c        ****     0x32u, 0xD2u,               /* Model number */
  54:main.c        ****     0x01u, 0x00u, 0x00u, 0x00u, /* Version number */
  55:main.c        ****     /*0xF7         End of SysEx automatically appended */
  56:main.c        **** };
  57:main.c        **** 
  58:main.c        **** /* Need for Identity Reply message */
  59:main.c        **** volatile uint8 USB_MIDI1_InqFlags;
  60:main.c        **** 
  61:main.c        **** volatile uint8 usbActivityCounter = 0u;
  62:main.c        **** 
  63:main.c        **** uint8 inqFlagsOld = 0u;
  64:main.c        **** 
  65:main.c        **** uint8 midiMsg[MIDI_MSG_SIZE];   
  66:main.c        **** char buff[32];//output UART buffer
  67:main.c        **** 
  68:main.c        **** // volatile uint8_t MIDI_RX_flag = 0;
  69:main.c        **** void ProcessUSBMIDI();
  70:main.c        **** void UART_PrintNumber(int32_t);
  71:main.c        **** 
  72:main.c        **** /*******************************************************************************
  73:main.c        **** * main
  74:main.c        **** *******************************************************************************/
  75:main.c        **** int main() {
  28              		.loc 1 75 0
  29              		.cfi_startproc
  30              		@ args = 0, pretend = 0, frame = 0
  31              		@ frame_needed = 0, uses_anonymous_args = 0
  32 0000 10B5     		push	{r4, lr}
  33              		.cfi_def_cfa_offset 8
  34              		.cfi_offset 4, -8
  35              		.cfi_offset 14, -4
  76:main.c        ****     LED_Write(1);
  36              		.loc 1 76 0
  37 0002 0120     		movs	r0, #1
  38 0004 FFF7FEFF 		bl	LED_Write
ARM GAS  C:\Users\psmus\AppData\Local\Temp\ccmehLig.s 			page 3


  39              	.LVL0:
  77:main.c        ****     //UART_Start();
  78:main.c        ****     TxByteCounter_Start();
  40              		.loc 1 78 0
  41 0008 FFF7FEFF 		bl	TxByteCounter_Start
  42              	.LVL1:
  79:main.c        ****     SPIByteCounter_Start();
  43              		.loc 1 79 0
  44 000c FFF7FEFF 		bl	SPIByteCounter_Start
  45              	.LVL2:
  80:main.c        ****     //isr_trigger_StartEx(envelope_trigger_interrupt);
  81:main.c        ****     
  82:main.c        ****     //UART_UartPutString("\r\n\r\n\r\n********************\r\n");
  83:main.c        ****     //UART_UartPutString("PMA Wavetable Synth\r\n");
  84:main.c        ****     //UART_UartPutString("********************\r\n");
  85:main.c        **** 	InitAudioPath();
  46              		.loc 1 85 0
  47 0010 FFF7FEFF 		bl	InitAudioPath
  48              	.LVL3:
  86:main.c        ****     //UART_UartPutString("Audio path initialized...\r\n");
  87:main.c        ****     
  88:main.c        ****     init_wavetable();
  49              		.loc 1 88 0
  50 0014 FFF7FEFF 		bl	init_wavetable
  51              	.LVL4:
  89:main.c        ****     //UART_UartPutString("Wavetable initialized...\r\n");
  90:main.c        ****     
  91:main.c        ****     ADC_Start();
  52              		.loc 1 91 0
  53 0018 FFF7FEFF 		bl	ADC_Start
  54              	.LVL5:
  92:main.c        ****     ADC_StartConvert();
  55              		.loc 1 92 0
  56 001c FFF7FEFF 		bl	ADC_StartConvert
  57              	.LVL6:
  93:main.c        ****     isr_ADC_EOC_StartEx(ADC_EOC);
  58              		.loc 1 93 0
  59 0020 1F48     		ldr	r0, .L10
  60 0022 FFF7FEFF 		bl	isr_ADC_EOC_StartEx
  61              	.LVL7:
  94:main.c        ****     
  95:main.c        ****     SPI_Start();
  62              		.loc 1 95 0
  63 0026 FFF7FEFF 		bl	SPI_Start
  64              	.LVL8:
  96:main.c        ****     SPI_SpiUartWriteTxData(0u);
  65              		.loc 1 96 0
  66 002a 0020     		movs	r0, #0
  67 002c FFF7FEFF 		bl	SPI_SpiUartWriteTxData
  68              	.LVL9:
  69              	.L2:
  97:main.c        **** 
  98:main.c        ****     while(0u == SPI_SpiUartGetRxBufferSize())
  70              		.loc 1 98 0 discriminator 1
  71 0030 FFF7FEFF 		bl	SPI_SpiUartGetRxBufferSize
  72              	.LVL10:
  73 0034 0028     		cmp	r0, #0
ARM GAS  C:\Users\psmus\AppData\Local\Temp\ccmehLig.s 			page 4


  74 0036 FBD0     		beq	.L2
  99:main.c        ****     {
 100:main.c        ****         /* Wait for the first byte exchange. */
 101:main.c        ****     }
 102:main.c        ****     //SPI_SpiUartClearRxBuffer();
 103:main.c        ****     //UART_UartPutString("SPI initialized... \r\n");
 104:main.c        ****     
 105:main.c        ****     CodecI2CM_Start();	
  75              		.loc 1 105 0
  76 0038 FFF7FEFF 		bl	CodecI2CM_Start
  77              	.LVL11:
 106:main.c        **** 	if(Codec_Init() == 0) {
  78              		.loc 1 106 0
  79 003c FFF7FEFF 		bl	Codec_Init
  80              	.LVL12:
  81 0040 0028     		cmp	r0, #0
  82 0042 01D1     		bne	.L3
 107:main.c        ****     	//UART_UartPutString("Codec comm works!... \r\n");
 108:main.c        ****         Codec_Activate();
  83              		.loc 1 108 0
  84 0044 FFF7FEFF 		bl	Codec_Activate
  85              	.LVL13:
  86              	.L3:
 109:main.c        **** 	}
 110:main.c        **** 	else {
 111:main.c        **** 		//UART_UartPutString("Codec comm DOESN'T work!... \r\n");
 112:main.c        **** 	}
 113:main.c        ****     
 114:main.c        ****     I2S_Start();
  87              		.loc 1 114 0
  88 0048 FFF7FEFF 		bl	I2S_Start
  89              	.LVL14:
 115:main.c        ****     I2S_EnableTx(); /* Unmute the TX output */ 
  90              		.loc 1 115 0
  91 004c FFF7FEFF 		bl	I2S_EnableTx
  92              	.LVL15:
 116:main.c        ****     isr_I2S_underflow_StartEx(I2SUnderflow);
  93              		.loc 1 116 0
  94 0050 1448     		ldr	r0, .L10+4
  95 0052 FFF7FEFF 		bl	isr_I2S_underflow_StartEx
  96              	.LVL16:
  97              	.LBB2:
 117:main.c        ****     
 118:main.c        ****     // Init USB and MIDI
 119:main.c        ****     // references Cypress USB MIDI code example
 120:main.c        ****     //USB_Start(DEVICE, USB_DWR_VDDD_OPERATION); 
 121:main.c        ****     //MIDI1_UART_Start();
 122:main.c        ****     //MIDI_RX_StartEx(MIDI_RX_VECT);
 123:main.c        ****     //UART_UartPutString("USB MIDI initialized...\r\n");
 124:main.c        ****     
 125:main.c        ****     for(uint32_t i = 0; i < 10000; i++){
  98              		.loc 1 125 0
  99 0056 0024     		movs	r4, #0
 100 0058 05E0     		b	.L4
 101              	.LVL17:
 102              	.L5:
 126:main.c        ****         CyGlobalIntDisable;
ARM GAS  C:\Users\psmus\AppData\Local\Temp\ccmehLig.s 			page 5


 103              		.loc 1 126 0 discriminator 3
 104              		.syntax divided
 105              	@ 126 "main.c" 1
 106 005a 72B6     		CPSID   i
 107              	@ 0 "" 2
 127:main.c        ****         //ProcessUSBMIDI();
 128:main.c        ****         CyGlobalIntEnable;
 108              		.loc 1 128 0 discriminator 3
 109              	@ 128 "main.c" 1
 110 005c 62B6     		CPSIE   i
 111              	@ 0 "" 2
 129:main.c        ****         CyDelayUs(100);
 112              		.loc 1 129 0 discriminator 3
 113              		.thumb
 114              		.syntax unified
 115 005e 6420     		movs	r0, #100
 116 0060 FFF7FEFF 		bl	CyDelayUs
 117              	.LVL18:
 125:main.c        ****         CyGlobalIntDisable;
 118              		.loc 1 125 0 discriminator 3
 119 0064 0134     		adds	r4, r4, #1
 120              	.LVL19:
 121              	.L4:
 125:main.c        ****         CyGlobalIntDisable;
 122              		.loc 1 125 0 is_stmt 0 discriminator 1
 123 0066 104B     		ldr	r3, .L10+8
 124 0068 9C42     		cmp	r4, r3
 125 006a F6D9     		bls	.L5
 126              	.LBE2:
 130:main.c        ****     }
 131:main.c        ****     
 132:main.c        ****     //FillBufferFromFPGA(output_buffer);
 133:main.c        ****     CyGlobalIntEnable;
 127              		.loc 1 133 0 is_stmt 1
 128              		.syntax divided
 129              	@ 133 "main.c" 1
 130 006c 62B6     		CPSIE   i
 131              	@ 0 "" 2
 132              		.thumb
 133              		.syntax unified
 134              	.L7:
 134:main.c        **** 
 135:main.c        ****     for(;;) {
 136:main.c        ****         LED_Write(1);
 135              		.loc 1 136 0
 136 006e 0120     		movs	r0, #1
 137 0070 FFF7FEFF 		bl	LED_Write
 138              	.LVL20:
 137:main.c        ****         if(DMA_done_flag){
 139              		.loc 1 137 0
 140 0074 0D4B     		ldr	r3, .L10+12
 141 0076 1B78     		ldrb	r3, [r3]
 142 0078 002B     		cmp	r3, #0
 143 007a F8D0     		beq	.L7
 138:main.c        ****             DMA_done_flag = 0;
 144              		.loc 1 138 0
 145 007c 0022     		movs	r2, #0
ARM GAS  C:\Users\psmus\AppData\Local\Temp\ccmehLig.s 			page 6


 146 007e 0B4B     		ldr	r3, .L10+12
 147 0080 1A70     		strb	r2, [r3]
 139:main.c        ****             
 140:main.c        ****             if(DMA_counter % 2 == 0){
 148              		.loc 1 140 0
 149 0082 0B4B     		ldr	r3, .L10+16
 150 0084 1B78     		ldrb	r3, [r3]
 151 0086 DB07     		lsls	r3, r3, #31
 152 0088 04D4     		bmi	.L8
 141:main.c        ****                 current_buffer = output_buffer2;
 153              		.loc 1 141 0
 154 008a 0A4A     		ldr	r2, .L10+20
 155 008c 0A4B     		ldr	r3, .L10+24
 156 008e 1A60     		str	r2, [r3]
 142:main.c        ****                 CyGlobalIntEnable;
 157              		.loc 1 142 0
 158              		.syntax divided
 159              	@ 142 "main.c" 1
 160 0090 62B6     		CPSIE   i
 161              	@ 0 "" 2
 162              		.thumb
 163              		.syntax unified
 164 0092 ECE7     		b	.L7
 165              	.L8:
 143:main.c        ****                 //FillBufferFromFPGA(output_buffer2);
 144:main.c        ****             }
 145:main.c        ****             else {
 146:main.c        ****                 CyGlobalIntEnable;
 166              		.loc 1 146 0
 167              		.syntax divided
 168              	@ 146 "main.c" 1
 169 0094 62B6     		CPSIE   i
 170              	@ 0 "" 2
 147:main.c        ****                 current_buffer = output_buffer;
 171              		.loc 1 147 0
 172              		.thumb
 173              		.syntax unified
 174 0096 094A     		ldr	r2, .L10+28
 175 0098 074B     		ldr	r3, .L10+24
 176 009a 1A60     		str	r2, [r3]
 177 009c E7E7     		b	.L7
 178              	.L11:
 179 009e C046     		.align	2
 180              	.L10:
 181 00a0 00000000 		.word	ADC_EOC
 182 00a4 00000000 		.word	I2SUnderflow
 183 00a8 0F270000 		.word	9999
 184 00ac 00000000 		.word	DMA_done_flag
 185 00b0 00000000 		.word	DMA_counter
 186 00b4 00000000 		.word	output_buffer2
 187 00b8 00000000 		.word	current_buffer
 188 00bc 00000000 		.word	output_buffer
 189              		.cfi_endproc
 190              	.LFE130:
 191              		.size	main, .-main
 192              		.section	.text.USB_callbackLocalMidiEvent,"ax",%progbits
 193              		.align	2
ARM GAS  C:\Users\psmus\AppData\Local\Temp\ccmehLig.s 			page 7


 194              		.global	USB_callbackLocalMidiEvent
 195              		.code	16
 196              		.thumb_func
 197              		.type	USB_callbackLocalMidiEvent, %function
 198              	USB_callbackLocalMidiEvent:
 199              	.LFB131:
 148:main.c        ****                 //FillBufferFromFPGA(output_buffer);
 149:main.c        ****             }
 150:main.c        ****         }
 151:main.c        ****     }
 152:main.c        **** }
 153:main.c        **** 
 154:main.c        **** //void FillBufferFromFPGA(int8_t* buffer){
 155:main.c        ****     /*
 156:main.c        ****     uint8_t val;
 157:main.c        ****     uint32_t counter = 0;
 158:main.c        ****     uint8_t wren;
 159:main.c        ****     uint8_t new_sample;
 160:main.c        ****     wren = wr_en_Read();
 161:main.c        ****     new_sample = new_sample_Read();
 162:main.c        ****     uint8_t temp_gpio_read;
 163:main.c        ****     
 164:main.c        ****     uint16_t byte_counter = 0;
 165:main.c        ****     
 166:main.c        ****     CyGlobalIntDisable;
 167:main.c        ****     
 168:main.c        ****     for(int i = 0; i < OUT_BUFSIZE; i++){
 169:main.c        ****         cts_Write(1);
 170:main.c        ****         temp_gpio_read = wr_en_Read();
 171:main.c        ****         if(wren != temp_gpio_read){
 172:main.c        ****             counter++;
 173:main.c        ****             wren = temp_gpio_read;
 174:main.c        ****             val = spi_miso_testing_Read();
 175:main.c        ****             sample = sample<<1 | (val&0b1);
 176:main.c        ****             cts_Write(0);
 177:main.c        ****             if(val == 1){
 178:main.c        ****                 //UART_UartPutString("1");
 179:main.c        ****             }
 180:main.c        ****             else {
 181:main.c        ****                 //UART_UartPutString("0");
 182:main.c        ****             }
 183:main.c        ****             
 184:main.c        ****             //if(counter == 8){
 185:main.c        ****             temp_gpio_read = new_sample_Read();
 186:main.c        ****             if(new_sample != temp_gpio_read){
 187:main.c        ****                 
 188:main.c        ****                 counter = 0;
 189:main.c        ****                 
 190:main.c        ****                 new_sample = temp_gpio_read;
 191:main.c        ****                 //UART_UartPutString("\n");
 192:main.c        ****                 
 193:main.c        ****                 
 194:main.c        ****                 
 195:main.c        ****                 //char string[30];
 196:main.c        ****                 //sprintf(string, "%d\n",(sample>>19));
 197:main.c        ****                 //UART_UartPutString(string);
 198:main.c        ****                 byte_counter++;
ARM GAS  C:\Users\psmus\AppData\Local\Temp\ccmehLig.s 			page 8


 199:main.c        ****                 buffer[i] = (sample>>19) & 0xFF;
 200:main.c        ****                 
 201:main.c        ****                 sample = 0;
 202:main.c        ****                 
 203:main.c        ****             }
 204:main.c        ****             
 205:main.c        ****         }
 206:main.c        ****     }   
 207:main.c        ****     cts_Write(0);
 208:main.c        ****     CyGlobalIntEnable;
 209:main.c        ****     */
 210:main.c        **** //}
 211:main.c        **** 
 212:main.c        **** //void UART_PrintNumber(int32_t number){
 213:main.c        ****     //char string[30];
 214:main.c        ****     //sprintf(string, "%d\n",number);
 215:main.c        ****     //UART_UartPutString(string);
 216:main.c        **** //}
 217:main.c        **** 
 218:main.c        **** 
 219:main.c        **** 
 220:main.c        **** 
 221:main.c        **** /*******************************************************************************
 222:main.c        **** * Function Name: USB_callbackLocalMidiEvent
 223:main.c        **** ********************************************************************************
 224:main.c        **** * Summary: Local processing of the USB MIDI out-events.
 225:main.c        **** * References: Cypress code examples, 
 226:main.c        **** * and https://community.cypress.com/message/144752#144752
 227:main.c        **** *******************************************************************************/
 228:main.c        **** void USB_callbackLocalMidiEvent(uint8 cable, uint8 *midiMsg) CYREENTRANT
 229:main.c        **** {
 200              		.loc 1 229 0
 201              		.cfi_startproc
 202              		@ args = 0, pretend = 0, frame = 0
 203              		@ frame_needed = 0, uses_anonymous_args = 0
 204              		@ link register save eliminated.
 205              	.LVL21:
 230:main.c        ****     //uint8 note;
 231:main.c        ****     
 232:main.c        ****     /* Support General System On/Off Message. */
 233:main.c        ****     /*
 234:main.c        ****     if((0u == (USB_MIDI1_InqFlags & USB_INQ_SYSEX_FLAG)) \
 235:main.c        ****             && (0u != (inqFlagsOld & USB_INQ_SYSEX_FLAG)))
 236:main.c        ****     {
 237:main.c        ****         if(midiMsg[USB_EVENT_BYTE0] == USB_MIDI_SYSEX_GEN_MESSAGE)
 238:main.c        ****         {
 239:main.c        ****             if(midiMsg[USB_EVENT_BYTE1] == USB_MIDI_SYSEX_SYSTEM_ON)
 240:main.c        ****             {
 241:main.c        ****                 MIDI_PWR_Write(0u); 
 242:main.c        ****             }
 243:main.c        ****             else if(midiMsg[USB_EVENT_BYTE1] == USB_MIDI_SYSEX_SYSTEM_OFF)
 244:main.c        ****             {
 245:main.c        ****                 MIDI_PWR_Write(1u); 
 246:main.c        ****             }
 247:main.c        ****         }
 248:main.c        ****     }
 249:main.c        ****     */
ARM GAS  C:\Users\psmus\AppData\Local\Temp\ccmehLig.s 			page 9


 250:main.c        ****     inqFlagsOld = USB_MIDI1_InqFlags;
 206              		.loc 1 250 0
 207 0000 024B     		ldr	r3, .L13
 208 0002 1A78     		ldrb	r2, [r3]
 209 0004 024B     		ldr	r3, .L13+4
 210 0006 1A70     		strb	r2, [r3]
 211              	.LVL22:
 251:main.c        ****     cable = cable;
 252:main.c        ****     
 253:main.c        ****     /*
 254:main.c        ****     if (midiMsg[USB_EVENT_BYTE0] == USB_MIDI_NOTE_ON)
 255:main.c        ****     {
 256:main.c        ****         note = midiMsg[USB_EVENT_BYTE1];
 257:main.c        ****         DispatchNote(note);
 258:main.c        ****         LED_Write(0);
 259:main.c        ****     }
 260:main.c        ****     else if (midiMsg[USB_EVENT_BYTE0] == USB_MIDI_NOTE_OFF)
 261:main.c        ****     {
 262:main.c        ****         note = midiMsg[USB_EVENT_BYTE1];
 263:main.c        ****         NoteOff(note);
 264:main.c        ****         
 265:main.c        ****         //trigger_flag = 0;
 266:main.c        ****         //current_env_mode = RELEASE_MODE;
 267:main.c        ****         LED_Write(1);
 268:main.c        ****     }
 269:main.c        ****     */
 270:main.c        **** }    
 212              		.loc 1 270 0
 213              		@ sp needed
 214 0008 7047     		bx	lr
 215              	.L14:
 216 000a C046     		.align	2
 217              	.L13:
 218 000c 00000000 		.word	USB_MIDI1_InqFlags
 219 0010 00000000 		.word	.LANCHOR0
 220              		.cfi_endproc
 221              	.LFE131:
 222              		.size	USB_callbackLocalMidiEvent, .-USB_callbackLocalMidiEvent
 223              		.section	.text.USB_MIDI1_ProcessUsbOut_EntryCallback,"ax",%progbits
 224              		.align	2
 225              		.global	USB_MIDI1_ProcessUsbOut_EntryCallback
 226              		.code	16
 227              		.thumb_func
 228              		.type	USB_MIDI1_ProcessUsbOut_EntryCallback, %function
 229              	USB_MIDI1_ProcessUsbOut_EntryCallback:
 230              	.LFB132:
 271:main.c        **** 
 272:main.c        **** 
 273:main.c        **** /*******************************************************************************
 274:main.c        **** * Function Name: USB_MIDI1_ProcessUsbOut_EntryCallback
 275:main.c        **** ********************************************************************************
 276:main.c        **** * Summary:  Turn the LED_OutA on at the beginning of the function
 277:main.c        **** * USB_MIDI1_ProcessUsbOut() when data comes to be put in the UART1 out
 278:main.c        **** * buffer.
 279:main.c        **** * 
 280:main.c        **** *******************************************************************************/
 281:main.c        **** void USB_MIDI1_ProcessUsbOut_EntryCallback(void)
ARM GAS  C:\Users\psmus\AppData\Local\Temp\ccmehLig.s 			page 10


 282:main.c        **** {
 231              		.loc 1 282 0
 232              		.cfi_startproc
 233              		@ args = 0, pretend = 0, frame = 0
 234              		@ frame_needed = 0, uses_anonymous_args = 0
 235              		@ link register save eliminated.
 283:main.c        ****     //LED_OutA_Write(1);
 284:main.c        **** }
 236              		.loc 1 284 0
 237              		@ sp needed
 238 0000 7047     		bx	lr
 239              		.cfi_endproc
 240              	.LFE132:
 241              		.size	USB_MIDI1_ProcessUsbOut_EntryCallback, .-USB_MIDI1_ProcessUsbOut_EntryCallback
 242 0002 C046     		.section	.text.USB_MIDI1_ProcessUsbOut_ExitCallback,"ax",%progbits
 243              		.align	2
 244              		.global	USB_MIDI1_ProcessUsbOut_ExitCallback
 245              		.code	16
 246              		.thumb_func
 247              		.type	USB_MIDI1_ProcessUsbOut_ExitCallback, %function
 248              	USB_MIDI1_ProcessUsbOut_ExitCallback:
 249              	.LFB133:
 285:main.c        **** 
 286:main.c        **** 
 287:main.c        **** /*******************************************************************************
 288:main.c        **** * Function Name: USB_MIDI1_ProcessUsbOut_ExitCallback
 289:main.c        **** ********************************************************************************
 290:main.c        **** * Summary:  Turn the LED_OutA off at the end of the function  
 291:main.c        **** * USB_MIDI1_ProcessUsbOut() when data is put in the UART1 out-buffer.
 292:main.c        **** * 
 293:main.c        **** *******************************************************************************/
 294:main.c        **** void USB_MIDI1_ProcessUsbOut_ExitCallback(void)
 295:main.c        **** {
 250              		.loc 1 295 0
 251              		.cfi_startproc
 252              		@ args = 0, pretend = 0, frame = 0
 253              		@ frame_needed = 0, uses_anonymous_args = 0
 254              		@ link register save eliminated.
 296:main.c        ****     //LED_OutA_Write(0);
 297:main.c        **** }
 255              		.loc 1 297 0
 256              		@ sp needed
 257 0000 7047     		bx	lr
 258              		.cfi_endproc
 259              	.LFE133:
 260              		.size	USB_MIDI1_ProcessUsbOut_ExitCallback, .-USB_MIDI1_ProcessUsbOut_ExitCallback
 261 0002 C046     		.section	.text.MIDI1_UART_RXISR_EntryCallback,"ax",%progbits
 262              		.align	2
 263              		.global	MIDI1_UART_RXISR_EntryCallback
 264              		.code	16
 265              		.thumb_func
 266              		.type	MIDI1_UART_RXISR_EntryCallback, %function
 267              	MIDI1_UART_RXISR_EntryCallback:
 268              	.LFB134:
 298:main.c        **** 
 299:main.c        **** /*******************************************************************************
 300:main.c        **** * Function Name: MIDI1_UART_RXISR_EntryCallback
ARM GAS  C:\Users\psmus\AppData\Local\Temp\ccmehLig.s 			page 11


 301:main.c        **** ********************************************************************************
 302:main.c        **** * Summary:  Turn the LED_InA on at the beginning of the MIDI1_UART_RXISR ISR  
 303:main.c        **** * when data comes to UART1 to be put in the USBFS_MIDI IN endpoint
 304:main.c        **** * buffer.
 305:main.c        **** *
 306:main.c        **** *******************************************************************************/
 307:main.c        **** void MIDI1_UART_RXISR_EntryCallback(void)
 308:main.c        **** {
 269              		.loc 1 308 0
 270              		.cfi_startproc
 271              		@ args = 0, pretend = 0, frame = 0
 272              		@ frame_needed = 0, uses_anonymous_args = 0
 273              		@ link register save eliminated.
 309:main.c        ****     /* These LEDs indicate MIDI input activity */
 310:main.c        ****     //LED_InA_Write(1);
 311:main.c        **** }
 274              		.loc 1 311 0
 275              		@ sp needed
 276 0000 7047     		bx	lr
 277              		.cfi_endproc
 278              	.LFE134:
 279              		.size	MIDI1_UART_RXISR_EntryCallback, .-MIDI1_UART_RXISR_EntryCallback
 280 0002 C046     		.section	.text.MIDI1_UART_RXISR_ExitCallback,"ax",%progbits
 281              		.align	2
 282              		.global	MIDI1_UART_RXISR_ExitCallback
 283              		.code	16
 284              		.thumb_func
 285              		.type	MIDI1_UART_RXISR_ExitCallback, %function
 286              	MIDI1_UART_RXISR_ExitCallback:
 287              	.LFB135:
 312:main.c        **** 
 313:main.c        **** 
 314:main.c        **** /*******************************************************************************
 315:main.c        **** * Function Name: MIDI1_UART_RXISR_ExitCallback
 316:main.c        **** ********************************************************************************
 317:main.c        **** * Summary:  Turn the LED_InA off at the end of the MIDI1_UART_RXISR ISR  
 318:main.c        **** * when data is put in the USBFS_MIDI IN endpoint buffer.
 319:main.c        **** *
 320:main.c        **** *******************************************************************************/
 321:main.c        **** void MIDI1_UART_RXISR_ExitCallback(void)
 322:main.c        **** {
 288              		.loc 1 322 0
 289              		.cfi_startproc
 290              		@ args = 0, pretend = 0, frame = 0
 291              		@ frame_needed = 0, uses_anonymous_args = 0
 292              		@ link register save eliminated.
 323:main.c        ****     #if (USB_EP_MANAGEMENT_DMA_AUTO) 
 324:main.c        ****         USB_MIDI_IN_Service();
 325:main.c        ****     #endif /* (USB_EP_MANAGEMENT_DMA_AUTO) */
 326:main.c        ****     
 327:main.c        ****     //LED_InA_Write(0);
 328:main.c        **** }
 293              		.loc 1 328 0
 294              		@ sp needed
 295 0000 7047     		bx	lr
 296              		.cfi_endproc
 297              	.LFE135:
ARM GAS  C:\Users\psmus\AppData\Local\Temp\ccmehLig.s 			page 12


 298              		.size	MIDI1_UART_RXISR_ExitCallback, .-MIDI1_UART_RXISR_ExitCallback
 299              		.comm	buff,32,4
 300              		.comm	midiMsg,4,4
 301              		.global	inqFlagsOld
 302              		.global	usbActivityCounter
 303              		.comm	USB_MIDI1_InqFlags,1,1
 304              		.global	MIDI_IDENTITY_REPLY
 305              		.global	waveshape
 306              		.global	release_freq
 307              		.global	sustain_freq
 308              		.global	decay_freq
 309              		.global	attack_freq
 310              		.global	current_env_mode
 311              		.global	masterRxBuffer
 312              		.global	masterTxBuffer
 313              		.comm	sample,4,4
 314              		.global	v8
 315              		.global	v7
 316              		.global	v6
 317              		.global	v5
 318              		.global	v4
 319              		.global	v3
 320              		.global	v2
 321              		.global	v1
 322              		.comm	lfo_sine,256,4
 323              		.comm	base_sq,4096,4
 324              		.comm	base_pos_saw,4096,4
 325              		.comm	base_sine,8192,4
 326 0002 C046     		.section	.rodata
 327              		.align	2
 328              		.type	MIDI_IDENTITY_REPLY, %object
 329              		.size	MIDI_IDENTITY_REPLY, 14
 330              	MIDI_IDENTITY_REPLY:
 331 0000 F0       		.byte	-16
 332 0001 7E       		.byte	126
 333 0002 7F       		.byte	127
 334 0003 06       		.byte	6
 335 0004 02       		.byte	2
 336 0005 7D       		.byte	125
 337 0006 B4       		.byte	-76
 338 0007 04       		.byte	4
 339 0008 32       		.byte	50
 340 0009 D2       		.byte	-46
 341 000a 01       		.byte	1
 342 000b 00       		.byte	0
 343 000c 00       		.byte	0
 344 000d 00       		.byte	0
 345              		.data
 346              		.align	2
 347              		.type	masterTxBuffer, %object
 348              		.size	masterTxBuffer, 32
 349              	masterTxBuffer:
 350 0000 44617461 		.ascii	"Data to transmit by SPI Master !"
 350      20746F20 
 350      7472616E 
 350      736D6974 
 350      20627920 
ARM GAS  C:\Users\psmus\AppData\Local\Temp\ccmehLig.s 			page 13


 351              		.bss
 352              		.align	2
 353              		.set	.LANCHOR0,. + 0
 354              		.type	inqFlagsOld, %object
 355              		.size	inqFlagsOld, 1
 356              	inqFlagsOld:
 357 0000 00       		.space	1
 358              		.type	usbActivityCounter, %object
 359              		.size	usbActivityCounter, 1
 360              	usbActivityCounter:
 361 0001 00       		.space	1
 362              		.type	waveshape, %object
 363              		.size	waveshape, 2
 364              	waveshape:
 365 0002 0000     		.space	2
 366              		.type	release_freq, %object
 367              		.size	release_freq, 2
 368              	release_freq:
 369 0004 0000     		.space	2
 370              		.type	sustain_freq, %object
 371              		.size	sustain_freq, 2
 372              	sustain_freq:
 373 0006 0000     		.space	2
 374              		.type	decay_freq, %object
 375              		.size	decay_freq, 2
 376              	decay_freq:
 377 0008 0000     		.space	2
 378              		.type	attack_freq, %object
 379              		.size	attack_freq, 2
 380              	attack_freq:
 381 000a 0000     		.space	2
 382              		.type	current_env_mode, %object
 383              		.size	current_env_mode, 1
 384              	current_env_mode:
 385 000c 00       		.space	1
 386 000d 000000   		.space	3
 387              		.type	masterRxBuffer, %object
 388              		.size	masterRxBuffer, 32
 389              	masterRxBuffer:
 390 0010 00000000 		.space	32
 390      00000000 
 390      00000000 
 390      00000000 
 390      00000000 
 391              		.type	v8, %object
 392              		.size	v8, 16
 393              	v8:
 394 0030 00000000 		.space	16
 394      00000000 
 394      00000000 
 394      00000000 
 395              		.type	v7, %object
 396              		.size	v7, 16
 397              	v7:
 398 0040 00000000 		.space	16
 398      00000000 
 398      00000000 
ARM GAS  C:\Users\psmus\AppData\Local\Temp\ccmehLig.s 			page 14


 398      00000000 
 399              		.type	v6, %object
 400              		.size	v6, 16
 401              	v6:
 402 0050 00000000 		.space	16
 402      00000000 
 402      00000000 
 402      00000000 
 403              		.type	v5, %object
 404              		.size	v5, 16
 405              	v5:
 406 0060 00000000 		.space	16
 406      00000000 
 406      00000000 
 406      00000000 
 407              		.type	v4, %object
 408              		.size	v4, 16
 409              	v4:
 410 0070 00000000 		.space	16
 410      00000000 
 410      00000000 
 410      00000000 
 411              		.type	v3, %object
 412              		.size	v3, 16
 413              	v3:
 414 0080 00000000 		.space	16
 414      00000000 
 414      00000000 
 414      00000000 
 415              		.type	v2, %object
 416              		.size	v2, 16
 417              	v2:
 418 0090 00000000 		.space	16
 418      00000000 
 418      00000000 
 418      00000000 
 419              		.type	v1, %object
 420              		.size	v1, 16
 421              	v1:
 422 00a0 00000000 		.space	16
 422      00000000 
 422      00000000 
 422      00000000 
 423              		.text
 424              	.Letext0:
 425              		.file 2 "c:\\program files (x86)\\cypress\\psoc creator\\4.2\\psoc creator\\import\\gnu\\arm\\5.4.
 426              		.file 3 "c:\\program files (x86)\\cypress\\psoc creator\\4.2\\psoc creator\\import\\gnu\\arm\\5.4.
 427              		.file 4 "Generated_Source\\PSoC4/cytypes.h"
 428              		.file 5 "oscillator.h"
 429              		.file 6 "waves.h"
 430              		.file 7 "globals.h"
 431              		.file 8 "Generated_Source\\PSoC4/CyLib.h"
 432              		.file 9 "Generated_Source\\PSoC4/LED.h"
 433              		.file 10 "Generated_Source\\PSoC4/TxByteCounter.h"
 434              		.file 11 "Generated_Source\\PSoC4/SPIByteCounter.h"
 435              		.file 12 "AudioControl.h"
 436              		.file 13 "Generated_Source\\PSoC4/ADC.h"
ARM GAS  C:\Users\psmus\AppData\Local\Temp\ccmehLig.s 			page 15


 437              		.file 14 "Generated_Source\\PSoC4/isr_ADC_EOC.h"
 438              		.file 15 "Generated_Source\\PSoC4/SPI.h"
 439              		.file 16 "Generated_Source\\PSoC4/SPI_SPI_UART.h"
 440              		.file 17 "Generated_Source\\PSoC4/CodecI2CM.h"
 441              		.file 18 "Codec.h"
 442              		.file 19 "Generated_Source\\PSoC4/I2S.h"
 443              		.file 20 "Generated_Source\\PSoC4/isr_I2S_underflow.h"