ARM GAS  C:\Users\psmus\AppData\Local\Temp\ccyQO4JR.s 			page 1


   1              		.syntax unified
   2              		.cpu cortex-m0
   3              		.fpu softvfp
   4              		.eabi_attribute 20, 1
   5              		.eabi_attribute 21, 1
   6              		.eabi_attribute 23, 3
   7              		.eabi_attribute 24, 1
   8              		.eabi_attribute 25, 1
   9              		.eabi_attribute 26, 1
  10              		.eabi_attribute 30, 1
  11              		.eabi_attribute 34, 0
  12              		.eabi_attribute 18, 4
  13              		.thumb
  14              		.syntax unified
  15              		.file	"MIDI1_UART.c"
  16              		.text
  17              	.Ltext0:
  18              		.cfi_sections	.debug_frame
  19              		.section	.text.MIDI1_UART_Init,"ax",%progbits
  20              		.align	2
  21              		.global	MIDI1_UART_Init
  22              		.code	16
  23              		.thumb_func
  24              		.type	MIDI1_UART_Init, %function
  25              	MIDI1_UART_Init:
  26              	.LFB2:
  27              		.file 1 "Generated_Source\\PSoC4\\MIDI1_UART.c"
   1:Generated_Source\PSoC4/MIDI1_UART.c **** /*******************************************************************************
   2:Generated_Source\PSoC4/MIDI1_UART.c **** * File Name: MIDI1_UART.c
   3:Generated_Source\PSoC4/MIDI1_UART.c **** * Version 2.50
   4:Generated_Source\PSoC4/MIDI1_UART.c **** *
   5:Generated_Source\PSoC4/MIDI1_UART.c **** * Description:
   6:Generated_Source\PSoC4/MIDI1_UART.c **** *  This file provides all API functionality of the UART component
   7:Generated_Source\PSoC4/MIDI1_UART.c **** *
   8:Generated_Source\PSoC4/MIDI1_UART.c **** * Note:
   9:Generated_Source\PSoC4/MIDI1_UART.c **** *
  10:Generated_Source\PSoC4/MIDI1_UART.c **** ********************************************************************************
  11:Generated_Source\PSoC4/MIDI1_UART.c **** * Copyright 2008-2015, Cypress Semiconductor Corporation.  All rights reserved.
  12:Generated_Source\PSoC4/MIDI1_UART.c **** * You may use this file only in accordance with the license, terms, conditions,
  13:Generated_Source\PSoC4/MIDI1_UART.c **** * disclaimers, and limitations in the end user license agreement accompanying
  14:Generated_Source\PSoC4/MIDI1_UART.c **** * the software package with which this file was provided.
  15:Generated_Source\PSoC4/MIDI1_UART.c **** *******************************************************************************/
  16:Generated_Source\PSoC4/MIDI1_UART.c **** 
  17:Generated_Source\PSoC4/MIDI1_UART.c **** #include "MIDI1_UART.h"
  18:Generated_Source\PSoC4/MIDI1_UART.c **** #if (MIDI1_UART_INTERNAL_CLOCK_USED)
  19:Generated_Source\PSoC4/MIDI1_UART.c ****     #include "MIDI1_UART_IntClock.h"
  20:Generated_Source\PSoC4/MIDI1_UART.c **** #endif /* End MIDI1_UART_INTERNAL_CLOCK_USED */
  21:Generated_Source\PSoC4/MIDI1_UART.c **** 
  22:Generated_Source\PSoC4/MIDI1_UART.c **** 
  23:Generated_Source\PSoC4/MIDI1_UART.c **** /***************************************
  24:Generated_Source\PSoC4/MIDI1_UART.c **** * Global data allocation
  25:Generated_Source\PSoC4/MIDI1_UART.c **** ***************************************/
  26:Generated_Source\PSoC4/MIDI1_UART.c **** 
  27:Generated_Source\PSoC4/MIDI1_UART.c **** uint8 MIDI1_UART_initVar = 0u;
  28:Generated_Source\PSoC4/MIDI1_UART.c **** 
  29:Generated_Source\PSoC4/MIDI1_UART.c **** #if (MIDI1_UART_TX_INTERRUPT_ENABLED && MIDI1_UART_TX_ENABLED)
  30:Generated_Source\PSoC4/MIDI1_UART.c ****     volatile uint8 MIDI1_UART_txBuffer[MIDI1_UART_TX_BUFFER_SIZE];
ARM GAS  C:\Users\psmus\AppData\Local\Temp\ccyQO4JR.s 			page 2


  31:Generated_Source\PSoC4/MIDI1_UART.c ****     volatile uint8 MIDI1_UART_txBufferRead = 0u;
  32:Generated_Source\PSoC4/MIDI1_UART.c ****     uint8 MIDI1_UART_txBufferWrite = 0u;
  33:Generated_Source\PSoC4/MIDI1_UART.c **** #endif /* (MIDI1_UART_TX_INTERRUPT_ENABLED && MIDI1_UART_TX_ENABLED) */
  34:Generated_Source\PSoC4/MIDI1_UART.c **** 
  35:Generated_Source\PSoC4/MIDI1_UART.c **** #if (MIDI1_UART_RX_INTERRUPT_ENABLED && (MIDI1_UART_RX_ENABLED || MIDI1_UART_HD_ENABLED))
  36:Generated_Source\PSoC4/MIDI1_UART.c ****     uint8 MIDI1_UART_errorStatus = 0u;
  37:Generated_Source\PSoC4/MIDI1_UART.c ****     volatile uint8 MIDI1_UART_rxBuffer[MIDI1_UART_RX_BUFFER_SIZE];
  38:Generated_Source\PSoC4/MIDI1_UART.c ****     volatile uint8 MIDI1_UART_rxBufferRead  = 0u;
  39:Generated_Source\PSoC4/MIDI1_UART.c ****     volatile uint8 MIDI1_UART_rxBufferWrite = 0u;
  40:Generated_Source\PSoC4/MIDI1_UART.c ****     volatile uint8 MIDI1_UART_rxBufferLoopDetect = 0u;
  41:Generated_Source\PSoC4/MIDI1_UART.c ****     volatile uint8 MIDI1_UART_rxBufferOverflow   = 0u;
  42:Generated_Source\PSoC4/MIDI1_UART.c ****     #if (MIDI1_UART_RXHW_ADDRESS_ENABLED)
  43:Generated_Source\PSoC4/MIDI1_UART.c ****         volatile uint8 MIDI1_UART_rxAddressMode = MIDI1_UART_RX_ADDRESS_MODE;
  44:Generated_Source\PSoC4/MIDI1_UART.c ****         volatile uint8 MIDI1_UART_rxAddressDetected = 0u;
  45:Generated_Source\PSoC4/MIDI1_UART.c ****     #endif /* (MIDI1_UART_RXHW_ADDRESS_ENABLED) */
  46:Generated_Source\PSoC4/MIDI1_UART.c **** #endif /* (MIDI1_UART_RX_INTERRUPT_ENABLED && (MIDI1_UART_RX_ENABLED || MIDI1_UART_HD_ENABLED)) */
  47:Generated_Source\PSoC4/MIDI1_UART.c **** 
  48:Generated_Source\PSoC4/MIDI1_UART.c **** 
  49:Generated_Source\PSoC4/MIDI1_UART.c **** /*******************************************************************************
  50:Generated_Source\PSoC4/MIDI1_UART.c **** * Function Name: MIDI1_UART_Start
  51:Generated_Source\PSoC4/MIDI1_UART.c **** ********************************************************************************
  52:Generated_Source\PSoC4/MIDI1_UART.c **** *
  53:Generated_Source\PSoC4/MIDI1_UART.c **** * Summary:
  54:Generated_Source\PSoC4/MIDI1_UART.c **** *  This is the preferred method to begin component operation.
  55:Generated_Source\PSoC4/MIDI1_UART.c **** *  MIDI1_UART_Start() sets the initVar variable, calls the
  56:Generated_Source\PSoC4/MIDI1_UART.c **** *  MIDI1_UART_Init() function, and then calls the
  57:Generated_Source\PSoC4/MIDI1_UART.c **** *  MIDI1_UART_Enable() function.
  58:Generated_Source\PSoC4/MIDI1_UART.c **** *
  59:Generated_Source\PSoC4/MIDI1_UART.c **** * Parameters:
  60:Generated_Source\PSoC4/MIDI1_UART.c **** *  None.
  61:Generated_Source\PSoC4/MIDI1_UART.c **** *
  62:Generated_Source\PSoC4/MIDI1_UART.c **** * Return:
  63:Generated_Source\PSoC4/MIDI1_UART.c **** *  None.
  64:Generated_Source\PSoC4/MIDI1_UART.c **** *
  65:Generated_Source\PSoC4/MIDI1_UART.c **** * Global variables:
  66:Generated_Source\PSoC4/MIDI1_UART.c **** *  The MIDI1_UART_intiVar variable is used to indicate initial
  67:Generated_Source\PSoC4/MIDI1_UART.c **** *  configuration of this component. The variable is initialized to zero (0u)
  68:Generated_Source\PSoC4/MIDI1_UART.c **** *  and set to one (1u) the first time MIDI1_UART_Start() is called. This
  69:Generated_Source\PSoC4/MIDI1_UART.c **** *  allows for component initialization without re-initialization in all
  70:Generated_Source\PSoC4/MIDI1_UART.c **** *  subsequent calls to the MIDI1_UART_Start() routine.
  71:Generated_Source\PSoC4/MIDI1_UART.c **** *
  72:Generated_Source\PSoC4/MIDI1_UART.c **** * Reentrant:
  73:Generated_Source\PSoC4/MIDI1_UART.c **** *  No.
  74:Generated_Source\PSoC4/MIDI1_UART.c **** *
  75:Generated_Source\PSoC4/MIDI1_UART.c **** *******************************************************************************/
  76:Generated_Source\PSoC4/MIDI1_UART.c **** void MIDI1_UART_Start(void) 
  77:Generated_Source\PSoC4/MIDI1_UART.c **** {
  78:Generated_Source\PSoC4/MIDI1_UART.c ****     /* If not initialized then initialize all required hardware and software */
  79:Generated_Source\PSoC4/MIDI1_UART.c ****     if(MIDI1_UART_initVar == 0u)
  80:Generated_Source\PSoC4/MIDI1_UART.c ****     {
  81:Generated_Source\PSoC4/MIDI1_UART.c ****         MIDI1_UART_Init();
  82:Generated_Source\PSoC4/MIDI1_UART.c ****         MIDI1_UART_initVar = 1u;
  83:Generated_Source\PSoC4/MIDI1_UART.c ****     }
  84:Generated_Source\PSoC4/MIDI1_UART.c **** 
  85:Generated_Source\PSoC4/MIDI1_UART.c ****     MIDI1_UART_Enable();
  86:Generated_Source\PSoC4/MIDI1_UART.c **** }
  87:Generated_Source\PSoC4/MIDI1_UART.c **** 
ARM GAS  C:\Users\psmus\AppData\Local\Temp\ccyQO4JR.s 			page 3


  88:Generated_Source\PSoC4/MIDI1_UART.c **** 
  89:Generated_Source\PSoC4/MIDI1_UART.c **** /*******************************************************************************
  90:Generated_Source\PSoC4/MIDI1_UART.c **** * Function Name: MIDI1_UART_Init
  91:Generated_Source\PSoC4/MIDI1_UART.c **** ********************************************************************************
  92:Generated_Source\PSoC4/MIDI1_UART.c **** *
  93:Generated_Source\PSoC4/MIDI1_UART.c **** * Summary:
  94:Generated_Source\PSoC4/MIDI1_UART.c **** *  Initializes or restores the component according to the customizer Configure
  95:Generated_Source\PSoC4/MIDI1_UART.c **** *  dialog settings. It is not necessary to call MIDI1_UART_Init() because
  96:Generated_Source\PSoC4/MIDI1_UART.c **** *  the MIDI1_UART_Start() API calls this function and is the preferred
  97:Generated_Source\PSoC4/MIDI1_UART.c **** *  method to begin component operation.
  98:Generated_Source\PSoC4/MIDI1_UART.c **** *
  99:Generated_Source\PSoC4/MIDI1_UART.c **** * Parameters:
 100:Generated_Source\PSoC4/MIDI1_UART.c **** *  None.
 101:Generated_Source\PSoC4/MIDI1_UART.c **** *
 102:Generated_Source\PSoC4/MIDI1_UART.c **** * Return:
 103:Generated_Source\PSoC4/MIDI1_UART.c **** *  None.
 104:Generated_Source\PSoC4/MIDI1_UART.c **** *
 105:Generated_Source\PSoC4/MIDI1_UART.c **** *******************************************************************************/
 106:Generated_Source\PSoC4/MIDI1_UART.c **** void MIDI1_UART_Init(void) 
 107:Generated_Source\PSoC4/MIDI1_UART.c **** {
  28              		.loc 1 107 0
  29              		.cfi_startproc
  30              		@ args = 0, pretend = 0, frame = 0
  31              		@ frame_needed = 0, uses_anonymous_args = 0
  32 0000 10B5     		push	{r4, lr}
  33              		.cfi_def_cfa_offset 8
  34              		.cfi_offset 4, -8
  35              		.cfi_offset 14, -4
 108:Generated_Source\PSoC4/MIDI1_UART.c ****     #if(MIDI1_UART_RX_ENABLED || MIDI1_UART_HD_ENABLED)
 109:Generated_Source\PSoC4/MIDI1_UART.c **** 
 110:Generated_Source\PSoC4/MIDI1_UART.c ****         #if (MIDI1_UART_RX_INTERRUPT_ENABLED)
 111:Generated_Source\PSoC4/MIDI1_UART.c ****             /* Set RX interrupt vector and priority */
 112:Generated_Source\PSoC4/MIDI1_UART.c ****             (void) CyIntSetVector(MIDI1_UART_RX_VECT_NUM, &MIDI1_UART_RXISR);
  36              		.loc 1 112 0
  37 0002 1149     		ldr	r1, .L2
  38 0004 0020     		movs	r0, #0
  39 0006 FFF7FEFF 		bl	CyIntSetVector
  40              	.LVL0:
 113:Generated_Source\PSoC4/MIDI1_UART.c ****             CyIntSetPriority(MIDI1_UART_RX_VECT_NUM, MIDI1_UART_RX_PRIOR_NUM);
  41              		.loc 1 113 0
  42 000a 0321     		movs	r1, #3
  43 000c 0020     		movs	r0, #0
  44 000e FFF7FEFF 		bl	CyIntSetPriority
  45              	.LVL1:
 114:Generated_Source\PSoC4/MIDI1_UART.c ****             MIDI1_UART_errorStatus = 0u;
  46              		.loc 1 114 0
  47 0012 0022     		movs	r2, #0
  48 0014 0D4B     		ldr	r3, .L2+4
  49 0016 1A70     		strb	r2, [r3]
 115:Generated_Source\PSoC4/MIDI1_UART.c ****         #endif /* (MIDI1_UART_RX_INTERRUPT_ENABLED) */
 116:Generated_Source\PSoC4/MIDI1_UART.c **** 
 117:Generated_Source\PSoC4/MIDI1_UART.c ****         #if (MIDI1_UART_RXHW_ADDRESS_ENABLED)
 118:Generated_Source\PSoC4/MIDI1_UART.c ****             MIDI1_UART_SetRxAddressMode(MIDI1_UART_RX_ADDRESS_MODE);
 119:Generated_Source\PSoC4/MIDI1_UART.c ****             MIDI1_UART_SetRxAddress1(MIDI1_UART_RX_HW_ADDRESS1);
 120:Generated_Source\PSoC4/MIDI1_UART.c ****             MIDI1_UART_SetRxAddress2(MIDI1_UART_RX_HW_ADDRESS2);
 121:Generated_Source\PSoC4/MIDI1_UART.c ****         #endif /* End MIDI1_UART_RXHW_ADDRESS_ENABLED */
 122:Generated_Source\PSoC4/MIDI1_UART.c **** 
ARM GAS  C:\Users\psmus\AppData\Local\Temp\ccyQO4JR.s 			page 4


 123:Generated_Source\PSoC4/MIDI1_UART.c ****         /* Init Count7 period */
 124:Generated_Source\PSoC4/MIDI1_UART.c ****         MIDI1_UART_RXBITCTR_PERIOD_REG = MIDI1_UART_RXBITCTR_INIT;
  50              		.loc 1 124 0
  51 0018 7232     		adds	r2, r2, #114
  52 001a 0D4B     		ldr	r3, .L2+8
  53 001c 1A70     		strb	r2, [r3]
 125:Generated_Source\PSoC4/MIDI1_UART.c ****         /* Configure the Initial RX interrupt mask */
 126:Generated_Source\PSoC4/MIDI1_UART.c ****         MIDI1_UART_RXSTATUS_MASK_REG  = MIDI1_UART_INIT_RX_INTERRUPTS_MASK;
  54              		.loc 1 126 0
  55 001e 523A     		subs	r2, r2, #82
  56 0020 0C4B     		ldr	r3, .L2+12
  57 0022 1A70     		strb	r2, [r3]
 127:Generated_Source\PSoC4/MIDI1_UART.c ****     #endif /* End MIDI1_UART_RX_ENABLED || MIDI1_UART_HD_ENABLED*/
 128:Generated_Source\PSoC4/MIDI1_UART.c **** 
 129:Generated_Source\PSoC4/MIDI1_UART.c ****     #if(MIDI1_UART_TX_ENABLED)
 130:Generated_Source\PSoC4/MIDI1_UART.c ****         #if (MIDI1_UART_TX_INTERRUPT_ENABLED)
 131:Generated_Source\PSoC4/MIDI1_UART.c ****             /* Set TX interrupt vector and priority */
 132:Generated_Source\PSoC4/MIDI1_UART.c ****             (void) CyIntSetVector(MIDI1_UART_TX_VECT_NUM, &MIDI1_UART_TXISR);
  58              		.loc 1 132 0
  59 0024 0C49     		ldr	r1, .L2+16
  60 0026 0120     		movs	r0, #1
  61 0028 FFF7FEFF 		bl	CyIntSetVector
  62              	.LVL2:
 133:Generated_Source\PSoC4/MIDI1_UART.c ****             CyIntSetPriority(MIDI1_UART_TX_VECT_NUM, MIDI1_UART_TX_PRIOR_NUM);
  63              		.loc 1 133 0
  64 002c 0321     		movs	r1, #3
  65 002e 0120     		movs	r0, #1
  66 0030 FFF7FEFF 		bl	CyIntSetPriority
  67              	.LVL3:
 134:Generated_Source\PSoC4/MIDI1_UART.c ****         #endif /* (MIDI1_UART_TX_INTERRUPT_ENABLED) */
 135:Generated_Source\PSoC4/MIDI1_UART.c **** 
 136:Generated_Source\PSoC4/MIDI1_UART.c ****         /* Write Counter Value for TX Bit Clk Generator*/
 137:Generated_Source\PSoC4/MIDI1_UART.c ****         #if (MIDI1_UART_TXCLKGEN_DP)
 138:Generated_Source\PSoC4/MIDI1_UART.c ****             MIDI1_UART_TXBITCLKGEN_CTR_REG = MIDI1_UART_BIT_CENTER;
  68              		.loc 1 138 0
  69 0034 0622     		movs	r2, #6
  70 0036 094B     		ldr	r3, .L2+20
  71 0038 1A70     		strb	r2, [r3]
 139:Generated_Source\PSoC4/MIDI1_UART.c ****             MIDI1_UART_TXBITCLKTX_COMPLETE_REG = ((MIDI1_UART_NUMBER_OF_DATA_BITS +
  72              		.loc 1 139 0
  73 003a 4132     		adds	r2, r2, #65
  74 003c 084B     		ldr	r3, .L2+24
  75 003e 1A70     		strb	r2, [r3]
 140:Generated_Source\PSoC4/MIDI1_UART.c ****                         MIDI1_UART_NUMBER_OF_START_BIT) * MIDI1_UART_OVER_SAMPLE_COUNT) - 1u;
 141:Generated_Source\PSoC4/MIDI1_UART.c ****         #else
 142:Generated_Source\PSoC4/MIDI1_UART.c ****             MIDI1_UART_TXBITCTR_PERIOD_REG = ((MIDI1_UART_NUMBER_OF_DATA_BITS +
 143:Generated_Source\PSoC4/MIDI1_UART.c ****                         MIDI1_UART_NUMBER_OF_START_BIT) * MIDI1_UART_OVER_SAMPLE_8) - 1u;
 144:Generated_Source\PSoC4/MIDI1_UART.c ****         #endif /* End MIDI1_UART_TXCLKGEN_DP */
 145:Generated_Source\PSoC4/MIDI1_UART.c **** 
 146:Generated_Source\PSoC4/MIDI1_UART.c ****         /* Configure the Initial TX interrupt mask */
 147:Generated_Source\PSoC4/MIDI1_UART.c ****         #if (MIDI1_UART_TX_INTERRUPT_ENABLED)
 148:Generated_Source\PSoC4/MIDI1_UART.c ****             MIDI1_UART_TXSTATUS_MASK_REG = MIDI1_UART_TX_STS_FIFO_EMPTY;
  76              		.loc 1 148 0
  77 0040 453A     		subs	r2, r2, #69
  78 0042 084B     		ldr	r3, .L2+28
  79 0044 1A70     		strb	r2, [r3]
 149:Generated_Source\PSoC4/MIDI1_UART.c ****         #else
ARM GAS  C:\Users\psmus\AppData\Local\Temp\ccyQO4JR.s 			page 5


 150:Generated_Source\PSoC4/MIDI1_UART.c ****             MIDI1_UART_TXSTATUS_MASK_REG = MIDI1_UART_INIT_TX_INTERRUPTS_MASK;
 151:Generated_Source\PSoC4/MIDI1_UART.c ****         #endif /*End MIDI1_UART_TX_INTERRUPT_ENABLED*/
 152:Generated_Source\PSoC4/MIDI1_UART.c **** 
 153:Generated_Source\PSoC4/MIDI1_UART.c ****     #endif /* End MIDI1_UART_TX_ENABLED */
 154:Generated_Source\PSoC4/MIDI1_UART.c **** 
 155:Generated_Source\PSoC4/MIDI1_UART.c ****     #if(MIDI1_UART_PARITY_TYPE_SW)  /* Write Parity to Control Register */
 156:Generated_Source\PSoC4/MIDI1_UART.c ****         MIDI1_UART_WriteControlRegister( \
 157:Generated_Source\PSoC4/MIDI1_UART.c ****             (MIDI1_UART_ReadControlRegister() & (uint8)~MIDI1_UART_CTRL_PARITY_TYPE_MASK) | \
 158:Generated_Source\PSoC4/MIDI1_UART.c ****             (uint8)(MIDI1_UART_PARITY_TYPE << MIDI1_UART_CTRL_PARITY_TYPE0_SHIFT) );
 159:Generated_Source\PSoC4/MIDI1_UART.c ****     #endif /* End MIDI1_UART_PARITY_TYPE_SW */
 160:Generated_Source\PSoC4/MIDI1_UART.c **** }
  80              		.loc 1 160 0
  81              		@ sp needed
  82 0046 10BD     		pop	{r4, pc}
  83              	.L3:
  84              		.align	2
  85              	.L2:
  86 0048 00000000 		.word	MIDI1_UART_RXISR
  87 004c 00000000 		.word	.LANCHOR0
  88 0050 81000F40 		.word	1074724993
  89 0054 83000F40 		.word	1074724995
  90 0058 00000000 		.word	MIDI1_UART_TXISR
  91 005c 24000F40 		.word	1074724900
  92 0060 34000F40 		.word	1074724916
  93 0064 84000F40 		.word	1074724996
  94              		.cfi_endproc
  95              	.LFE2:
  96              		.size	MIDI1_UART_Init, .-MIDI1_UART_Init
  97              		.section	.text.MIDI1_UART_Enable,"ax",%progbits
  98              		.align	2
  99              		.global	MIDI1_UART_Enable
 100              		.code	16
 101              		.thumb_func
 102              		.type	MIDI1_UART_Enable, %function
 103              	MIDI1_UART_Enable:
 104              	.LFB3:
 161:Generated_Source\PSoC4/MIDI1_UART.c **** 
 162:Generated_Source\PSoC4/MIDI1_UART.c **** 
 163:Generated_Source\PSoC4/MIDI1_UART.c **** /*******************************************************************************
 164:Generated_Source\PSoC4/MIDI1_UART.c **** * Function Name: MIDI1_UART_Enable
 165:Generated_Source\PSoC4/MIDI1_UART.c **** ********************************************************************************
 166:Generated_Source\PSoC4/MIDI1_UART.c **** *
 167:Generated_Source\PSoC4/MIDI1_UART.c **** * Summary:
 168:Generated_Source\PSoC4/MIDI1_UART.c **** *  Activates the hardware and begins component operation. It is not necessary
 169:Generated_Source\PSoC4/MIDI1_UART.c **** *  to call MIDI1_UART_Enable() because the MIDI1_UART_Start() API
 170:Generated_Source\PSoC4/MIDI1_UART.c **** *  calls this function, which is the preferred method to begin component
 171:Generated_Source\PSoC4/MIDI1_UART.c **** *  operation.
 172:Generated_Source\PSoC4/MIDI1_UART.c **** 
 173:Generated_Source\PSoC4/MIDI1_UART.c **** * Parameters:
 174:Generated_Source\PSoC4/MIDI1_UART.c **** *  None.
 175:Generated_Source\PSoC4/MIDI1_UART.c **** *
 176:Generated_Source\PSoC4/MIDI1_UART.c **** * Return:
 177:Generated_Source\PSoC4/MIDI1_UART.c **** *  None.
 178:Generated_Source\PSoC4/MIDI1_UART.c **** *
 179:Generated_Source\PSoC4/MIDI1_UART.c **** * Global Variables:
 180:Generated_Source\PSoC4/MIDI1_UART.c **** *  MIDI1_UART_rxAddressDetected - set to initial state (0).
 181:Generated_Source\PSoC4/MIDI1_UART.c **** *
ARM GAS  C:\Users\psmus\AppData\Local\Temp\ccyQO4JR.s 			page 6


 182:Generated_Source\PSoC4/MIDI1_UART.c **** *******************************************************************************/
 183:Generated_Source\PSoC4/MIDI1_UART.c **** void MIDI1_UART_Enable(void) 
 184:Generated_Source\PSoC4/MIDI1_UART.c **** {
 105              		.loc 1 184 0
 106              		.cfi_startproc
 107              		@ args = 0, pretend = 0, frame = 0
 108              		@ frame_needed = 0, uses_anonymous_args = 0
 109 0000 70B5     		push	{r4, r5, r6, lr}
 110              		.cfi_def_cfa_offset 16
 111              		.cfi_offset 4, -16
 112              		.cfi_offset 5, -12
 113              		.cfi_offset 6, -8
 114              		.cfi_offset 14, -4
 185:Generated_Source\PSoC4/MIDI1_UART.c ****     uint8 enableInterrupts;
 186:Generated_Source\PSoC4/MIDI1_UART.c ****     enableInterrupts = CyEnterCriticalSection();
 115              		.loc 1 186 0
 116 0002 FFF7FEFF 		bl	CyEnterCriticalSection
 117              	.LVL4:
 118 0006 0500     		movs	r5, r0
 119              	.LVL5:
 187:Generated_Source\PSoC4/MIDI1_UART.c **** 
 188:Generated_Source\PSoC4/MIDI1_UART.c ****     #if (MIDI1_UART_RX_ENABLED || MIDI1_UART_HD_ENABLED)
 189:Generated_Source\PSoC4/MIDI1_UART.c ****         /* RX Counter (Count7) Enable */
 190:Generated_Source\PSoC4/MIDI1_UART.c ****         MIDI1_UART_RXBITCTR_CONTROL_REG |= MIDI1_UART_CNTR_ENABLE;
 120              		.loc 1 190 0
 121 0008 104A     		ldr	r2, .L5
 122 000a 1178     		ldrb	r1, [r2]
 123 000c 2023     		movs	r3, #32
 124 000e 0B43     		orrs	r3, r1
 125 0010 DBB2     		uxtb	r3, r3
 126 0012 1370     		strb	r3, [r2]
 191:Generated_Source\PSoC4/MIDI1_UART.c **** 
 192:Generated_Source\PSoC4/MIDI1_UART.c ****         /* Enable the RX Interrupt */
 193:Generated_Source\PSoC4/MIDI1_UART.c ****         MIDI1_UART_RXSTATUS_ACTL_REG  |= MIDI1_UART_INT_ENABLE;
 127              		.loc 1 193 0
 128 0014 0E4A     		ldr	r2, .L5+4
 129 0016 1378     		ldrb	r3, [r2]
 130 0018 1024     		movs	r4, #16
 131 001a 2343     		orrs	r3, r4
 132 001c DBB2     		uxtb	r3, r3
 133 001e 1370     		strb	r3, [r2]
 194:Generated_Source\PSoC4/MIDI1_UART.c **** 
 195:Generated_Source\PSoC4/MIDI1_UART.c ****         #if (MIDI1_UART_RX_INTERRUPT_ENABLED)
 196:Generated_Source\PSoC4/MIDI1_UART.c ****             MIDI1_UART_EnableRxInt();
 134              		.loc 1 196 0
 135 0020 0020     		movs	r0, #0
 136 0022 FFF7FEFF 		bl	CyIntEnable
 137              	.LVL6:
 197:Generated_Source\PSoC4/MIDI1_UART.c **** 
 198:Generated_Source\PSoC4/MIDI1_UART.c ****             #if (MIDI1_UART_RXHW_ADDRESS_ENABLED)
 199:Generated_Source\PSoC4/MIDI1_UART.c ****                 MIDI1_UART_rxAddressDetected = 0u;
 200:Generated_Source\PSoC4/MIDI1_UART.c ****             #endif /* (MIDI1_UART_RXHW_ADDRESS_ENABLED) */
 201:Generated_Source\PSoC4/MIDI1_UART.c ****         #endif /* (MIDI1_UART_RX_INTERRUPT_ENABLED) */
 202:Generated_Source\PSoC4/MIDI1_UART.c ****     #endif /* (MIDI1_UART_RX_ENABLED || MIDI1_UART_HD_ENABLED) */
 203:Generated_Source\PSoC4/MIDI1_UART.c **** 
 204:Generated_Source\PSoC4/MIDI1_UART.c ****     #if(MIDI1_UART_TX_ENABLED)
 205:Generated_Source\PSoC4/MIDI1_UART.c ****         /* TX Counter (DP/Count7) Enable */
ARM GAS  C:\Users\psmus\AppData\Local\Temp\ccyQO4JR.s 			page 7


 206:Generated_Source\PSoC4/MIDI1_UART.c ****         #if(!MIDI1_UART_TXCLKGEN_DP)
 207:Generated_Source\PSoC4/MIDI1_UART.c ****             MIDI1_UART_TXBITCTR_CONTROL_REG |= MIDI1_UART_CNTR_ENABLE;
 208:Generated_Source\PSoC4/MIDI1_UART.c ****         #endif /* End MIDI1_UART_TXCLKGEN_DP */
 209:Generated_Source\PSoC4/MIDI1_UART.c **** 
 210:Generated_Source\PSoC4/MIDI1_UART.c ****         /* Enable the TX Interrupt */
 211:Generated_Source\PSoC4/MIDI1_UART.c ****         MIDI1_UART_TXSTATUS_ACTL_REG |= MIDI1_UART_INT_ENABLE;
 138              		.loc 1 211 0
 139 0026 0B4B     		ldr	r3, .L5+8
 140 0028 1A78     		ldrb	r2, [r3]
 141 002a 1443     		orrs	r4, r2
 142 002c E4B2     		uxtb	r4, r4
 143 002e 1C70     		strb	r4, [r3]
 212:Generated_Source\PSoC4/MIDI1_UART.c ****         #if (MIDI1_UART_TX_INTERRUPT_ENABLED)
 213:Generated_Source\PSoC4/MIDI1_UART.c ****             MIDI1_UART_ClearPendingTxInt(); /* Clear history of TX_NOT_EMPTY */
 144              		.loc 1 213 0
 145 0030 0120     		movs	r0, #1
 146 0032 FFF7FEFF 		bl	CyIntClearPending
 147              	.LVL7:
 214:Generated_Source\PSoC4/MIDI1_UART.c ****             MIDI1_UART_EnableTxInt();
 148              		.loc 1 214 0
 149 0036 0120     		movs	r0, #1
 150 0038 FFF7FEFF 		bl	CyIntEnable
 151              	.LVL8:
 215:Generated_Source\PSoC4/MIDI1_UART.c ****         #endif /* (MIDI1_UART_TX_INTERRUPT_ENABLED) */
 216:Generated_Source\PSoC4/MIDI1_UART.c ****      #endif /* (MIDI1_UART_TX_INTERRUPT_ENABLED) */
 217:Generated_Source\PSoC4/MIDI1_UART.c **** 
 218:Generated_Source\PSoC4/MIDI1_UART.c ****     #if (MIDI1_UART_INTERNAL_CLOCK_USED)
 219:Generated_Source\PSoC4/MIDI1_UART.c ****         MIDI1_UART_IntClock_Start();  /* Enable the clock */
 152              		.loc 1 219 0
 153 003c FF20     		movs	r0, #255
 154 003e FFF7FEFF 		bl	MIDI1_UART_IntClock_StartEx
 155              	.LVL9:
 220:Generated_Source\PSoC4/MIDI1_UART.c ****     #endif /* (MIDI1_UART_INTERNAL_CLOCK_USED) */
 221:Generated_Source\PSoC4/MIDI1_UART.c **** 
 222:Generated_Source\PSoC4/MIDI1_UART.c ****     CyExitCriticalSection(enableInterrupts);
 156              		.loc 1 222 0
 157 0042 2800     		movs	r0, r5
 158 0044 FFF7FEFF 		bl	CyExitCriticalSection
 159              	.LVL10:
 223:Generated_Source\PSoC4/MIDI1_UART.c **** }
 160              		.loc 1 223 0
 161              		@ sp needed
 162              	.LVL11:
 163 0048 70BD     		pop	{r4, r5, r6, pc}
 164              	.L6:
 165 004a C046     		.align	2
 166              	.L5:
 167 004c 91000F40 		.word	1074725009
 168 0050 93000F40 		.word	1074725011
 169 0054 94000F40 		.word	1074725012
 170              		.cfi_endproc
 171              	.LFE3:
 172              		.size	MIDI1_UART_Enable, .-MIDI1_UART_Enable
 173              		.section	.text.MIDI1_UART_Start,"ax",%progbits
 174              		.align	2
 175              		.global	MIDI1_UART_Start
 176              		.code	16
ARM GAS  C:\Users\psmus\AppData\Local\Temp\ccyQO4JR.s 			page 8


 177              		.thumb_func
 178              		.type	MIDI1_UART_Start, %function
 179              	MIDI1_UART_Start:
 180              	.LFB1:
  77:Generated_Source\PSoC4/MIDI1_UART.c ****     /* If not initialized then initialize all required hardware and software */
 181              		.loc 1 77 0
 182              		.cfi_startproc
 183              		@ args = 0, pretend = 0, frame = 0
 184              		@ frame_needed = 0, uses_anonymous_args = 0
 185 0000 10B5     		push	{r4, lr}
 186              		.cfi_def_cfa_offset 8
 187              		.cfi_offset 4, -8
 188              		.cfi_offset 14, -4
  79:Generated_Source\PSoC4/MIDI1_UART.c ****     {
 189              		.loc 1 79 0
 190 0002 064B     		ldr	r3, .L9
 191 0004 5B78     		ldrb	r3, [r3, #1]
 192 0006 002B     		cmp	r3, #0
 193 0008 04D1     		bne	.L8
  81:Generated_Source\PSoC4/MIDI1_UART.c ****         MIDI1_UART_initVar = 1u;
 194              		.loc 1 81 0
 195 000a FFF7FEFF 		bl	MIDI1_UART_Init
 196              	.LVL12:
  82:Generated_Source\PSoC4/MIDI1_UART.c ****     }
 197              		.loc 1 82 0
 198 000e 0122     		movs	r2, #1
 199 0010 024B     		ldr	r3, .L9
 200 0012 5A70     		strb	r2, [r3, #1]
 201              	.L8:
  85:Generated_Source\PSoC4/MIDI1_UART.c **** }
 202              		.loc 1 85 0
 203 0014 FFF7FEFF 		bl	MIDI1_UART_Enable
 204              	.LVL13:
  86:Generated_Source\PSoC4/MIDI1_UART.c **** 
 205              		.loc 1 86 0
 206              		@ sp needed
 207 0018 10BD     		pop	{r4, pc}
 208              	.L10:
 209 001a C046     		.align	2
 210              	.L9:
 211 001c 00000000 		.word	.LANCHOR0
 212              		.cfi_endproc
 213              	.LFE1:
 214              		.size	MIDI1_UART_Start, .-MIDI1_UART_Start
 215              		.section	.text.MIDI1_UART_Stop,"ax",%progbits
 216              		.align	2
 217              		.global	MIDI1_UART_Stop
 218              		.code	16
 219              		.thumb_func
 220              		.type	MIDI1_UART_Stop, %function
 221              	MIDI1_UART_Stop:
 222              	.LFB4:
 224:Generated_Source\PSoC4/MIDI1_UART.c **** 
 225:Generated_Source\PSoC4/MIDI1_UART.c **** 
 226:Generated_Source\PSoC4/MIDI1_UART.c **** /*******************************************************************************
 227:Generated_Source\PSoC4/MIDI1_UART.c **** * Function Name: MIDI1_UART_Stop
 228:Generated_Source\PSoC4/MIDI1_UART.c **** ********************************************************************************
ARM GAS  C:\Users\psmus\AppData\Local\Temp\ccyQO4JR.s 			page 9


 229:Generated_Source\PSoC4/MIDI1_UART.c **** *
 230:Generated_Source\PSoC4/MIDI1_UART.c **** * Summary:
 231:Generated_Source\PSoC4/MIDI1_UART.c **** *  Disables the UART operation.
 232:Generated_Source\PSoC4/MIDI1_UART.c **** *
 233:Generated_Source\PSoC4/MIDI1_UART.c **** * Parameters:
 234:Generated_Source\PSoC4/MIDI1_UART.c **** *  None.
 235:Generated_Source\PSoC4/MIDI1_UART.c **** *
 236:Generated_Source\PSoC4/MIDI1_UART.c **** * Return:
 237:Generated_Source\PSoC4/MIDI1_UART.c **** *  None.
 238:Generated_Source\PSoC4/MIDI1_UART.c **** *
 239:Generated_Source\PSoC4/MIDI1_UART.c **** *******************************************************************************/
 240:Generated_Source\PSoC4/MIDI1_UART.c **** void MIDI1_UART_Stop(void) 
 241:Generated_Source\PSoC4/MIDI1_UART.c **** {
 223              		.loc 1 241 0
 224              		.cfi_startproc
 225              		@ args = 0, pretend = 0, frame = 0
 226              		@ frame_needed = 0, uses_anonymous_args = 0
 227 0000 70B5     		push	{r4, r5, r6, lr}
 228              		.cfi_def_cfa_offset 16
 229              		.cfi_offset 4, -16
 230              		.cfi_offset 5, -12
 231              		.cfi_offset 6, -8
 232              		.cfi_offset 14, -4
 242:Generated_Source\PSoC4/MIDI1_UART.c ****     uint8 enableInterrupts;
 243:Generated_Source\PSoC4/MIDI1_UART.c ****     enableInterrupts = CyEnterCriticalSection();
 233              		.loc 1 243 0
 234 0002 FFF7FEFF 		bl	CyEnterCriticalSection
 235              	.LVL14:
 236 0006 0400     		movs	r4, r0
 237              	.LVL15:
 244:Generated_Source\PSoC4/MIDI1_UART.c **** 
 245:Generated_Source\PSoC4/MIDI1_UART.c ****     /* Write Bit Counter Disable */
 246:Generated_Source\PSoC4/MIDI1_UART.c ****     #if (MIDI1_UART_RX_ENABLED || MIDI1_UART_HD_ENABLED)
 247:Generated_Source\PSoC4/MIDI1_UART.c ****         MIDI1_UART_RXBITCTR_CONTROL_REG &= (uint8) ~MIDI1_UART_CNTR_ENABLE;
 238              		.loc 1 247 0
 239 0008 0C4A     		ldr	r2, .L12
 240 000a 1378     		ldrb	r3, [r2]
 241 000c 2021     		movs	r1, #32
 242 000e 8B43     		bics	r3, r1
 243 0010 1370     		strb	r3, [r2]
 248:Generated_Source\PSoC4/MIDI1_UART.c ****     #endif /* (MIDI1_UART_RX_ENABLED || MIDI1_UART_HD_ENABLED) */
 249:Generated_Source\PSoC4/MIDI1_UART.c **** 
 250:Generated_Source\PSoC4/MIDI1_UART.c ****     #if (MIDI1_UART_TX_ENABLED)
 251:Generated_Source\PSoC4/MIDI1_UART.c ****         #if(!MIDI1_UART_TXCLKGEN_DP)
 252:Generated_Source\PSoC4/MIDI1_UART.c ****             MIDI1_UART_TXBITCTR_CONTROL_REG &= (uint8) ~MIDI1_UART_CNTR_ENABLE;
 253:Generated_Source\PSoC4/MIDI1_UART.c ****         #endif /* (!MIDI1_UART_TXCLKGEN_DP) */
 254:Generated_Source\PSoC4/MIDI1_UART.c ****     #endif /* (MIDI1_UART_TX_ENABLED) */
 255:Generated_Source\PSoC4/MIDI1_UART.c **** 
 256:Generated_Source\PSoC4/MIDI1_UART.c ****     #if (MIDI1_UART_INTERNAL_CLOCK_USED)
 257:Generated_Source\PSoC4/MIDI1_UART.c ****         MIDI1_UART_IntClock_Stop();   /* Disable the clock */
 244              		.loc 1 257 0
 245 0012 FFF7FEFF 		bl	MIDI1_UART_IntClock_Stop
 246              	.LVL16:
 258:Generated_Source\PSoC4/MIDI1_UART.c ****     #endif /* (MIDI1_UART_INTERNAL_CLOCK_USED) */
 259:Generated_Source\PSoC4/MIDI1_UART.c **** 
 260:Generated_Source\PSoC4/MIDI1_UART.c ****     /* Disable internal interrupt component */
 261:Generated_Source\PSoC4/MIDI1_UART.c ****     #if (MIDI1_UART_RX_ENABLED || MIDI1_UART_HD_ENABLED)
ARM GAS  C:\Users\psmus\AppData\Local\Temp\ccyQO4JR.s 			page 10


 262:Generated_Source\PSoC4/MIDI1_UART.c ****         MIDI1_UART_RXSTATUS_ACTL_REG  &= (uint8) ~MIDI1_UART_INT_ENABLE;
 247              		.loc 1 262 0
 248 0016 0A4A     		ldr	r2, .L12+4
 249 0018 1378     		ldrb	r3, [r2]
 250 001a 1025     		movs	r5, #16
 251 001c AB43     		bics	r3, r5
 252 001e 1370     		strb	r3, [r2]
 263:Generated_Source\PSoC4/MIDI1_UART.c **** 
 264:Generated_Source\PSoC4/MIDI1_UART.c ****         #if (MIDI1_UART_RX_INTERRUPT_ENABLED)
 265:Generated_Source\PSoC4/MIDI1_UART.c ****             MIDI1_UART_DisableRxInt();
 253              		.loc 1 265 0
 254 0020 0020     		movs	r0, #0
 255 0022 FFF7FEFF 		bl	CyIntDisable
 256              	.LVL17:
 266:Generated_Source\PSoC4/MIDI1_UART.c ****         #endif /* (MIDI1_UART_RX_INTERRUPT_ENABLED) */
 267:Generated_Source\PSoC4/MIDI1_UART.c ****     #endif /* (MIDI1_UART_RX_ENABLED || MIDI1_UART_HD_ENABLED) */
 268:Generated_Source\PSoC4/MIDI1_UART.c **** 
 269:Generated_Source\PSoC4/MIDI1_UART.c ****     #if (MIDI1_UART_TX_ENABLED)
 270:Generated_Source\PSoC4/MIDI1_UART.c ****         MIDI1_UART_TXSTATUS_ACTL_REG &= (uint8) ~MIDI1_UART_INT_ENABLE;
 257              		.loc 1 270 0
 258 0026 074A     		ldr	r2, .L12+8
 259 0028 1378     		ldrb	r3, [r2]
 260 002a AB43     		bics	r3, r5
 261 002c 1370     		strb	r3, [r2]
 271:Generated_Source\PSoC4/MIDI1_UART.c **** 
 272:Generated_Source\PSoC4/MIDI1_UART.c ****         #if (MIDI1_UART_TX_INTERRUPT_ENABLED)
 273:Generated_Source\PSoC4/MIDI1_UART.c ****             MIDI1_UART_DisableTxInt();
 262              		.loc 1 273 0
 263 002e 0120     		movs	r0, #1
 264 0030 FFF7FEFF 		bl	CyIntDisable
 265              	.LVL18:
 274:Generated_Source\PSoC4/MIDI1_UART.c ****         #endif /* (MIDI1_UART_TX_INTERRUPT_ENABLED) */
 275:Generated_Source\PSoC4/MIDI1_UART.c ****     #endif /* (MIDI1_UART_TX_ENABLED) */
 276:Generated_Source\PSoC4/MIDI1_UART.c **** 
 277:Generated_Source\PSoC4/MIDI1_UART.c ****     CyExitCriticalSection(enableInterrupts);
 266              		.loc 1 277 0
 267 0034 2000     		movs	r0, r4
 268 0036 FFF7FEFF 		bl	CyExitCriticalSection
 269              	.LVL19:
 278:Generated_Source\PSoC4/MIDI1_UART.c **** }
 270              		.loc 1 278 0
 271              		@ sp needed
 272              	.LVL20:
 273 003a 70BD     		pop	{r4, r5, r6, pc}
 274              	.L13:
 275              		.align	2
 276              	.L12:
 277 003c 91000F40 		.word	1074725009
 278 0040 93000F40 		.word	1074725011
 279 0044 94000F40 		.word	1074725012
 280              		.cfi_endproc
 281              	.LFE4:
 282              		.size	MIDI1_UART_Stop, .-MIDI1_UART_Stop
 283              		.section	.text.MIDI1_UART_ReadControlRegister,"ax",%progbits
 284              		.align	2
 285              		.global	MIDI1_UART_ReadControlRegister
 286              		.code	16
ARM GAS  C:\Users\psmus\AppData\Local\Temp\ccyQO4JR.s 			page 11


 287              		.thumb_func
 288              		.type	MIDI1_UART_ReadControlRegister, %function
 289              	MIDI1_UART_ReadControlRegister:
 290              	.LFB5:
 279:Generated_Source\PSoC4/MIDI1_UART.c **** 
 280:Generated_Source\PSoC4/MIDI1_UART.c **** 
 281:Generated_Source\PSoC4/MIDI1_UART.c **** /*******************************************************************************
 282:Generated_Source\PSoC4/MIDI1_UART.c **** * Function Name: MIDI1_UART_ReadControlRegister
 283:Generated_Source\PSoC4/MIDI1_UART.c **** ********************************************************************************
 284:Generated_Source\PSoC4/MIDI1_UART.c **** *
 285:Generated_Source\PSoC4/MIDI1_UART.c **** * Summary:
 286:Generated_Source\PSoC4/MIDI1_UART.c **** *  Returns the current value of the control register.
 287:Generated_Source\PSoC4/MIDI1_UART.c **** *
 288:Generated_Source\PSoC4/MIDI1_UART.c **** * Parameters:
 289:Generated_Source\PSoC4/MIDI1_UART.c **** *  None.
 290:Generated_Source\PSoC4/MIDI1_UART.c **** *
 291:Generated_Source\PSoC4/MIDI1_UART.c **** * Return:
 292:Generated_Source\PSoC4/MIDI1_UART.c **** *  Contents of the control register.
 293:Generated_Source\PSoC4/MIDI1_UART.c **** *
 294:Generated_Source\PSoC4/MIDI1_UART.c **** *******************************************************************************/
 295:Generated_Source\PSoC4/MIDI1_UART.c **** uint8 MIDI1_UART_ReadControlRegister(void) 
 296:Generated_Source\PSoC4/MIDI1_UART.c **** {
 291              		.loc 1 296 0
 292              		.cfi_startproc
 293              		@ args = 0, pretend = 0, frame = 0
 294              		@ frame_needed = 0, uses_anonymous_args = 0
 295              		@ link register save eliminated.
 297:Generated_Source\PSoC4/MIDI1_UART.c ****     #if (MIDI1_UART_CONTROL_REG_REMOVED)
 298:Generated_Source\PSoC4/MIDI1_UART.c ****         return(0u);
 299:Generated_Source\PSoC4/MIDI1_UART.c ****     #else
 300:Generated_Source\PSoC4/MIDI1_UART.c ****         return(MIDI1_UART_CONTROL_REG);
 301:Generated_Source\PSoC4/MIDI1_UART.c ****     #endif /* (MIDI1_UART_CONTROL_REG_REMOVED) */
 302:Generated_Source\PSoC4/MIDI1_UART.c **** }
 296              		.loc 1 302 0
 297 0000 0020     		movs	r0, #0
 298              		@ sp needed
 299 0002 7047     		bx	lr
 300              		.cfi_endproc
 301              	.LFE5:
 302              		.size	MIDI1_UART_ReadControlRegister, .-MIDI1_UART_ReadControlRegister
 303              		.section	.text.MIDI1_UART_WriteControlRegister,"ax",%progbits
 304              		.align	2
 305              		.global	MIDI1_UART_WriteControlRegister
 306              		.code	16
 307              		.thumb_func
 308              		.type	MIDI1_UART_WriteControlRegister, %function
 309              	MIDI1_UART_WriteControlRegister:
 310              	.LFB6:
 303:Generated_Source\PSoC4/MIDI1_UART.c **** 
 304:Generated_Source\PSoC4/MIDI1_UART.c **** 
 305:Generated_Source\PSoC4/MIDI1_UART.c **** /*******************************************************************************
 306:Generated_Source\PSoC4/MIDI1_UART.c **** * Function Name: MIDI1_UART_WriteControlRegister
 307:Generated_Source\PSoC4/MIDI1_UART.c **** ********************************************************************************
 308:Generated_Source\PSoC4/MIDI1_UART.c **** *
 309:Generated_Source\PSoC4/MIDI1_UART.c **** * Summary:
 310:Generated_Source\PSoC4/MIDI1_UART.c **** *  Writes an 8-bit value into the control register
 311:Generated_Source\PSoC4/MIDI1_UART.c **** *
ARM GAS  C:\Users\psmus\AppData\Local\Temp\ccyQO4JR.s 			page 12


 312:Generated_Source\PSoC4/MIDI1_UART.c **** * Parameters:
 313:Generated_Source\PSoC4/MIDI1_UART.c **** *  control:  control register value
 314:Generated_Source\PSoC4/MIDI1_UART.c **** *
 315:Generated_Source\PSoC4/MIDI1_UART.c **** * Return:
 316:Generated_Source\PSoC4/MIDI1_UART.c **** *  None.
 317:Generated_Source\PSoC4/MIDI1_UART.c **** *
 318:Generated_Source\PSoC4/MIDI1_UART.c **** *******************************************************************************/
 319:Generated_Source\PSoC4/MIDI1_UART.c **** void  MIDI1_UART_WriteControlRegister(uint8 control) 
 320:Generated_Source\PSoC4/MIDI1_UART.c **** {
 311              		.loc 1 320 0
 312              		.cfi_startproc
 313              		@ args = 0, pretend = 0, frame = 0
 314              		@ frame_needed = 0, uses_anonymous_args = 0
 315              		@ link register save eliminated.
 316              	.LVL21:
 321:Generated_Source\PSoC4/MIDI1_UART.c ****     #if (MIDI1_UART_CONTROL_REG_REMOVED)
 322:Generated_Source\PSoC4/MIDI1_UART.c ****         if(0u != control)
 323:Generated_Source\PSoC4/MIDI1_UART.c ****         {
 324:Generated_Source\PSoC4/MIDI1_UART.c ****             /* Suppress compiler warning */
 325:Generated_Source\PSoC4/MIDI1_UART.c ****         }
 326:Generated_Source\PSoC4/MIDI1_UART.c ****     #else
 327:Generated_Source\PSoC4/MIDI1_UART.c ****        MIDI1_UART_CONTROL_REG = control;
 328:Generated_Source\PSoC4/MIDI1_UART.c ****     #endif /* (MIDI1_UART_CONTROL_REG_REMOVED) */
 329:Generated_Source\PSoC4/MIDI1_UART.c **** }
 317              		.loc 1 329 0
 318              		@ sp needed
 319 0000 7047     		bx	lr
 320              		.cfi_endproc
 321              	.LFE6:
 322              		.size	MIDI1_UART_WriteControlRegister, .-MIDI1_UART_WriteControlRegister
 323 0002 C046     		.section	.text.MIDI1_UART_SetRxInterruptMode,"ax",%progbits
 324              		.align	2
 325              		.global	MIDI1_UART_SetRxInterruptMode
 326              		.code	16
 327              		.thumb_func
 328              		.type	MIDI1_UART_SetRxInterruptMode, %function
 329              	MIDI1_UART_SetRxInterruptMode:
 330              	.LFB7:
 330:Generated_Source\PSoC4/MIDI1_UART.c **** 
 331:Generated_Source\PSoC4/MIDI1_UART.c **** 
 332:Generated_Source\PSoC4/MIDI1_UART.c **** #if(MIDI1_UART_RX_ENABLED || MIDI1_UART_HD_ENABLED)
 333:Generated_Source\PSoC4/MIDI1_UART.c ****     /*******************************************************************************
 334:Generated_Source\PSoC4/MIDI1_UART.c ****     * Function Name: MIDI1_UART_SetRxInterruptMode
 335:Generated_Source\PSoC4/MIDI1_UART.c ****     ********************************************************************************
 336:Generated_Source\PSoC4/MIDI1_UART.c ****     *
 337:Generated_Source\PSoC4/MIDI1_UART.c ****     * Summary:
 338:Generated_Source\PSoC4/MIDI1_UART.c ****     *  Configures the RX interrupt sources enabled.
 339:Generated_Source\PSoC4/MIDI1_UART.c ****     *
 340:Generated_Source\PSoC4/MIDI1_UART.c ****     * Parameters:
 341:Generated_Source\PSoC4/MIDI1_UART.c ****     *  IntSrc:  Bit field containing the RX interrupts to enable. Based on the 
 342:Generated_Source\PSoC4/MIDI1_UART.c ****     *  bit-field arrangement of the status register. This value must be a 
 343:Generated_Source\PSoC4/MIDI1_UART.c ****     *  combination of status register bit-masks shown below:
 344:Generated_Source\PSoC4/MIDI1_UART.c ****     *      MIDI1_UART_RX_STS_FIFO_NOTEMPTY    Interrupt on byte received.
 345:Generated_Source\PSoC4/MIDI1_UART.c ****     *      MIDI1_UART_RX_STS_PAR_ERROR        Interrupt on parity error.
 346:Generated_Source\PSoC4/MIDI1_UART.c ****     *      MIDI1_UART_RX_STS_STOP_ERROR       Interrupt on stop error.
 347:Generated_Source\PSoC4/MIDI1_UART.c ****     *      MIDI1_UART_RX_STS_BREAK            Interrupt on break.
 348:Generated_Source\PSoC4/MIDI1_UART.c ****     *      MIDI1_UART_RX_STS_OVERRUN          Interrupt on overrun error.
ARM GAS  C:\Users\psmus\AppData\Local\Temp\ccyQO4JR.s 			page 13


 349:Generated_Source\PSoC4/MIDI1_UART.c ****     *      MIDI1_UART_RX_STS_ADDR_MATCH       Interrupt on address match.
 350:Generated_Source\PSoC4/MIDI1_UART.c ****     *      MIDI1_UART_RX_STS_MRKSPC           Interrupt on address detect.
 351:Generated_Source\PSoC4/MIDI1_UART.c ****     *
 352:Generated_Source\PSoC4/MIDI1_UART.c ****     * Return:
 353:Generated_Source\PSoC4/MIDI1_UART.c ****     *  None.
 354:Generated_Source\PSoC4/MIDI1_UART.c ****     *
 355:Generated_Source\PSoC4/MIDI1_UART.c ****     * Theory:
 356:Generated_Source\PSoC4/MIDI1_UART.c ****     *  Enables the output of specific status bits to the interrupt controller
 357:Generated_Source\PSoC4/MIDI1_UART.c ****     *
 358:Generated_Source\PSoC4/MIDI1_UART.c ****     *******************************************************************************/
 359:Generated_Source\PSoC4/MIDI1_UART.c ****     void MIDI1_UART_SetRxInterruptMode(uint8 intSrc) 
 360:Generated_Source\PSoC4/MIDI1_UART.c ****     {
 331              		.loc 1 360 0
 332              		.cfi_startproc
 333              		@ args = 0, pretend = 0, frame = 0
 334              		@ frame_needed = 0, uses_anonymous_args = 0
 335              		@ link register save eliminated.
 336              	.LVL22:
 361:Generated_Source\PSoC4/MIDI1_UART.c ****         MIDI1_UART_RXSTATUS_MASK_REG  = intSrc;
 337              		.loc 1 361 0
 338 0000 014B     		ldr	r3, .L17
 339 0002 1870     		strb	r0, [r3]
 362:Generated_Source\PSoC4/MIDI1_UART.c ****     }
 340              		.loc 1 362 0
 341              		@ sp needed
 342 0004 7047     		bx	lr
 343              	.L18:
 344 0006 C046     		.align	2
 345              	.L17:
 346 0008 83000F40 		.word	1074724995
 347              		.cfi_endproc
 348              	.LFE7:
 349              		.size	MIDI1_UART_SetRxInterruptMode, .-MIDI1_UART_SetRxInterruptMode
 350              		.section	.text.MIDI1_UART_ReadRxData,"ax",%progbits
 351              		.align	2
 352              		.global	MIDI1_UART_ReadRxData
 353              		.code	16
 354              		.thumb_func
 355              		.type	MIDI1_UART_ReadRxData, %function
 356              	MIDI1_UART_ReadRxData:
 357              	.LFB8:
 363:Generated_Source\PSoC4/MIDI1_UART.c **** 
 364:Generated_Source\PSoC4/MIDI1_UART.c **** 
 365:Generated_Source\PSoC4/MIDI1_UART.c ****     /*******************************************************************************
 366:Generated_Source\PSoC4/MIDI1_UART.c ****     * Function Name: MIDI1_UART_ReadRxData
 367:Generated_Source\PSoC4/MIDI1_UART.c ****     ********************************************************************************
 368:Generated_Source\PSoC4/MIDI1_UART.c ****     *
 369:Generated_Source\PSoC4/MIDI1_UART.c ****     * Summary:
 370:Generated_Source\PSoC4/MIDI1_UART.c ****     *  Returns the next byte of received data. This function returns data without
 371:Generated_Source\PSoC4/MIDI1_UART.c ****     *  checking the status. You must check the status separately.
 372:Generated_Source\PSoC4/MIDI1_UART.c ****     *
 373:Generated_Source\PSoC4/MIDI1_UART.c ****     * Parameters:
 374:Generated_Source\PSoC4/MIDI1_UART.c ****     *  None.
 375:Generated_Source\PSoC4/MIDI1_UART.c ****     *
 376:Generated_Source\PSoC4/MIDI1_UART.c ****     * Return:
 377:Generated_Source\PSoC4/MIDI1_UART.c ****     *  Received data from RX register
 378:Generated_Source\PSoC4/MIDI1_UART.c ****     *
ARM GAS  C:\Users\psmus\AppData\Local\Temp\ccyQO4JR.s 			page 14


 379:Generated_Source\PSoC4/MIDI1_UART.c ****     * Global Variables:
 380:Generated_Source\PSoC4/MIDI1_UART.c ****     *  MIDI1_UART_rxBuffer - RAM buffer pointer for save received data.
 381:Generated_Source\PSoC4/MIDI1_UART.c ****     *  MIDI1_UART_rxBufferWrite - cyclic index for write to rxBuffer,
 382:Generated_Source\PSoC4/MIDI1_UART.c ****     *     checked to identify new data.
 383:Generated_Source\PSoC4/MIDI1_UART.c ****     *  MIDI1_UART_rxBufferRead - cyclic index for read from rxBuffer,
 384:Generated_Source\PSoC4/MIDI1_UART.c ****     *     incremented after each byte has been read from buffer.
 385:Generated_Source\PSoC4/MIDI1_UART.c ****     *  MIDI1_UART_rxBufferLoopDetect - cleared if loop condition was detected
 386:Generated_Source\PSoC4/MIDI1_UART.c ****     *     in RX ISR.
 387:Generated_Source\PSoC4/MIDI1_UART.c ****     *
 388:Generated_Source\PSoC4/MIDI1_UART.c ****     * Reentrant:
 389:Generated_Source\PSoC4/MIDI1_UART.c ****     *  No.
 390:Generated_Source\PSoC4/MIDI1_UART.c ****     *
 391:Generated_Source\PSoC4/MIDI1_UART.c ****     *******************************************************************************/
 392:Generated_Source\PSoC4/MIDI1_UART.c ****     uint8 MIDI1_UART_ReadRxData(void) 
 393:Generated_Source\PSoC4/MIDI1_UART.c ****     {
 358              		.loc 1 393 0
 359              		.cfi_startproc
 360              		@ args = 0, pretend = 0, frame = 0
 361              		@ frame_needed = 0, uses_anonymous_args = 0
 362 0000 10B5     		push	{r4, lr}
 363              		.cfi_def_cfa_offset 8
 364              		.cfi_offset 4, -8
 365              		.cfi_offset 14, -4
 394:Generated_Source\PSoC4/MIDI1_UART.c ****         uint8 rxData;
 395:Generated_Source\PSoC4/MIDI1_UART.c **** 
 396:Generated_Source\PSoC4/MIDI1_UART.c ****     #if (MIDI1_UART_RX_INTERRUPT_ENABLED)
 397:Generated_Source\PSoC4/MIDI1_UART.c **** 
 398:Generated_Source\PSoC4/MIDI1_UART.c ****         uint8 locRxBufferRead;
 399:Generated_Source\PSoC4/MIDI1_UART.c ****         uint8 locRxBufferWrite;
 400:Generated_Source\PSoC4/MIDI1_UART.c **** 
 401:Generated_Source\PSoC4/MIDI1_UART.c ****         /* Protect variables that could change on interrupt */
 402:Generated_Source\PSoC4/MIDI1_UART.c ****         MIDI1_UART_DisableRxInt();
 366              		.loc 1 402 0
 367 0002 0020     		movs	r0, #0
 368 0004 FFF7FEFF 		bl	CyIntDisable
 369              	.LVL23:
 403:Generated_Source\PSoC4/MIDI1_UART.c **** 
 404:Generated_Source\PSoC4/MIDI1_UART.c ****         locRxBufferRead  = MIDI1_UART_rxBufferRead;
 370              		.loc 1 404 0
 371 0008 114A     		ldr	r2, .L25
 372 000a 9378     		ldrb	r3, [r2, #2]
 373 000c DBB2     		uxtb	r3, r3
 374              	.LVL24:
 405:Generated_Source\PSoC4/MIDI1_UART.c ****         locRxBufferWrite = MIDI1_UART_rxBufferWrite;
 375              		.loc 1 405 0
 376 000e D178     		ldrb	r1, [r2, #3]
 377 0010 C9B2     		uxtb	r1, r1
 378              	.LVL25:
 406:Generated_Source\PSoC4/MIDI1_UART.c **** 
 407:Generated_Source\PSoC4/MIDI1_UART.c ****         if( (MIDI1_UART_rxBufferLoopDetect != 0u) || (locRxBufferRead != locRxBufferWrite) )
 379              		.loc 1 407 0
 380 0012 1279     		ldrb	r2, [r2, #4]
 381 0014 002A     		cmp	r2, #0
 382 0016 01D1     		bne	.L20
 383              		.loc 1 407 0 is_stmt 0 discriminator 1
 384 0018 8B42     		cmp	r3, r1
 385 001a 10D0     		beq	.L21
ARM GAS  C:\Users\psmus\AppData\Local\Temp\ccyQO4JR.s 			page 15


 386              	.L20:
 408:Generated_Source\PSoC4/MIDI1_UART.c ****         {
 409:Generated_Source\PSoC4/MIDI1_UART.c ****             rxData = MIDI1_UART_rxBuffer[locRxBufferRead];
 387              		.loc 1 409 0 is_stmt 1
 388 001c 0D4A     		ldr	r2, .L25+4
 389 001e D45C     		ldrb	r4, [r2, r3]
 390 0020 E4B2     		uxtb	r4, r4
 391              	.LVL26:
 410:Generated_Source\PSoC4/MIDI1_UART.c ****             locRxBufferRead++;
 392              		.loc 1 410 0
 393 0022 0133     		adds	r3, r3, #1
 394              	.LVL27:
 395 0024 DBB2     		uxtb	r3, r3
 396              	.LVL28:
 411:Generated_Source\PSoC4/MIDI1_UART.c **** 
 412:Generated_Source\PSoC4/MIDI1_UART.c ****             if(locRxBufferRead >= MIDI1_UART_RX_BUFFER_SIZE)
 397              		.loc 1 412 0
 398 0026 3F2B     		cmp	r3, #63
 399 0028 00D9     		bls	.L22
 413:Generated_Source\PSoC4/MIDI1_UART.c ****             {
 414:Generated_Source\PSoC4/MIDI1_UART.c ****                 locRxBufferRead = 0u;
 400              		.loc 1 414 0
 401 002a 0023     		movs	r3, #0
 402              	.LVL29:
 403              	.L22:
 415:Generated_Source\PSoC4/MIDI1_UART.c ****             }
 416:Generated_Source\PSoC4/MIDI1_UART.c ****             /* Update the real pointer */
 417:Generated_Source\PSoC4/MIDI1_UART.c ****             MIDI1_UART_rxBufferRead = locRxBufferRead;
 404              		.loc 1 417 0
 405 002c 084A     		ldr	r2, .L25
 406 002e 9370     		strb	r3, [r2, #2]
 418:Generated_Source\PSoC4/MIDI1_UART.c **** 
 419:Generated_Source\PSoC4/MIDI1_UART.c ****             if(MIDI1_UART_rxBufferLoopDetect != 0u)
 407              		.loc 1 419 0
 408 0030 1379     		ldrb	r3, [r2, #4]
 409              	.LVL30:
 410 0032 002B     		cmp	r3, #0
 411 0034 06D0     		beq	.L23
 420:Generated_Source\PSoC4/MIDI1_UART.c ****             {
 421:Generated_Source\PSoC4/MIDI1_UART.c ****                 MIDI1_UART_rxBufferLoopDetect = 0u;
 412              		.loc 1 421 0
 413 0036 0022     		movs	r2, #0
 414 0038 054B     		ldr	r3, .L25
 415 003a 1A71     		strb	r2, [r3, #4]
 416              	.LVL31:
 417 003c 02E0     		b	.L23
 418              	.LVL32:
 419              	.L21:
 422:Generated_Source\PSoC4/MIDI1_UART.c ****                 #if ((MIDI1_UART_RX_INTERRUPT_ENABLED) && (MIDI1_UART_FLOW_CONTROL != 0u))
 423:Generated_Source\PSoC4/MIDI1_UART.c ****                     /* When Hardware Flow Control selected - return RX mask */
 424:Generated_Source\PSoC4/MIDI1_UART.c ****                     #if( MIDI1_UART_HD_ENABLED )
 425:Generated_Source\PSoC4/MIDI1_UART.c ****                         if((MIDI1_UART_CONTROL_REG & MIDI1_UART_CTRL_HD_SEND) == 0u)
 426:Generated_Source\PSoC4/MIDI1_UART.c ****                         {   /* In Half duplex mode return RX mask only in RX
 427:Generated_Source\PSoC4/MIDI1_UART.c ****                             *  configuration set, otherwise
 428:Generated_Source\PSoC4/MIDI1_UART.c ****                             *  mask will be returned in LoadRxConfig() API.
 429:Generated_Source\PSoC4/MIDI1_UART.c ****                             */
 430:Generated_Source\PSoC4/MIDI1_UART.c ****                             MIDI1_UART_RXSTATUS_MASK_REG  |= MIDI1_UART_RX_STS_FIFO_NOTEMPTY;
ARM GAS  C:\Users\psmus\AppData\Local\Temp\ccyQO4JR.s 			page 16


 431:Generated_Source\PSoC4/MIDI1_UART.c ****                         }
 432:Generated_Source\PSoC4/MIDI1_UART.c ****                     #else
 433:Generated_Source\PSoC4/MIDI1_UART.c ****                         MIDI1_UART_RXSTATUS_MASK_REG  |= MIDI1_UART_RX_STS_FIFO_NOTEMPTY;
 434:Generated_Source\PSoC4/MIDI1_UART.c ****                     #endif /* end MIDI1_UART_HD_ENABLED */
 435:Generated_Source\PSoC4/MIDI1_UART.c ****                 #endif /* ((MIDI1_UART_RX_INTERRUPT_ENABLED) && (MIDI1_UART_FLOW_CONTROL != 0u)) */
 436:Generated_Source\PSoC4/MIDI1_UART.c ****             }
 437:Generated_Source\PSoC4/MIDI1_UART.c ****         }
 438:Generated_Source\PSoC4/MIDI1_UART.c ****         else
 439:Generated_Source\PSoC4/MIDI1_UART.c ****         {   /* Needs to check status for RX_STS_FIFO_NOTEMPTY bit */
 440:Generated_Source\PSoC4/MIDI1_UART.c ****             rxData = MIDI1_UART_RXDATA_REG;
 420              		.loc 1 440 0
 421 003e 064B     		ldr	r3, .L25+8
 422              	.LVL33:
 423 0040 1C78     		ldrb	r4, [r3]
 424 0042 E4B2     		uxtb	r4, r4
 425              	.LVL34:
 426              	.L23:
 441:Generated_Source\PSoC4/MIDI1_UART.c ****         }
 442:Generated_Source\PSoC4/MIDI1_UART.c **** 
 443:Generated_Source\PSoC4/MIDI1_UART.c ****         MIDI1_UART_EnableRxInt();
 427              		.loc 1 443 0
 428 0044 0020     		movs	r0, #0
 429 0046 FFF7FEFF 		bl	CyIntEnable
 430              	.LVL35:
 444:Generated_Source\PSoC4/MIDI1_UART.c **** 
 445:Generated_Source\PSoC4/MIDI1_UART.c ****     #else
 446:Generated_Source\PSoC4/MIDI1_UART.c **** 
 447:Generated_Source\PSoC4/MIDI1_UART.c ****         /* Needs to check status for RX_STS_FIFO_NOTEMPTY bit */
 448:Generated_Source\PSoC4/MIDI1_UART.c ****         rxData = MIDI1_UART_RXDATA_REG;
 449:Generated_Source\PSoC4/MIDI1_UART.c **** 
 450:Generated_Source\PSoC4/MIDI1_UART.c ****     #endif /* (MIDI1_UART_RX_INTERRUPT_ENABLED) */
 451:Generated_Source\PSoC4/MIDI1_UART.c **** 
 452:Generated_Source\PSoC4/MIDI1_UART.c ****         return(rxData);
 453:Generated_Source\PSoC4/MIDI1_UART.c ****     }
 431              		.loc 1 453 0
 432 004a 2000     		movs	r0, r4
 433              		@ sp needed
 434              	.LVL36:
 435 004c 10BD     		pop	{r4, pc}
 436              	.L26:
 437 004e C046     		.align	2
 438              	.L25:
 439 0050 00000000 		.word	.LANCHOR0
 440 0054 00000000 		.word	MIDI1_UART_rxBuffer
 441 0058 42000F40 		.word	1074724930
 442              		.cfi_endproc
 443              	.LFE8:
 444              		.size	MIDI1_UART_ReadRxData, .-MIDI1_UART_ReadRxData
 445              		.section	.text.MIDI1_UART_ReadRxStatus,"ax",%progbits
 446              		.align	2
 447              		.global	MIDI1_UART_ReadRxStatus
 448              		.code	16
 449              		.thumb_func
 450              		.type	MIDI1_UART_ReadRxStatus, %function
 451              	MIDI1_UART_ReadRxStatus:
 452              	.LFB9:
 454:Generated_Source\PSoC4/MIDI1_UART.c **** 
ARM GAS  C:\Users\psmus\AppData\Local\Temp\ccyQO4JR.s 			page 17


 455:Generated_Source\PSoC4/MIDI1_UART.c **** 
 456:Generated_Source\PSoC4/MIDI1_UART.c ****     /*******************************************************************************
 457:Generated_Source\PSoC4/MIDI1_UART.c ****     * Function Name: MIDI1_UART_ReadRxStatus
 458:Generated_Source\PSoC4/MIDI1_UART.c ****     ********************************************************************************
 459:Generated_Source\PSoC4/MIDI1_UART.c ****     *
 460:Generated_Source\PSoC4/MIDI1_UART.c ****     * Summary:
 461:Generated_Source\PSoC4/MIDI1_UART.c ****     *  Returns the current state of the receiver status register and the software
 462:Generated_Source\PSoC4/MIDI1_UART.c ****     *  buffer overflow status.
 463:Generated_Source\PSoC4/MIDI1_UART.c ****     *
 464:Generated_Source\PSoC4/MIDI1_UART.c ****     * Parameters:
 465:Generated_Source\PSoC4/MIDI1_UART.c ****     *  None.
 466:Generated_Source\PSoC4/MIDI1_UART.c ****     *
 467:Generated_Source\PSoC4/MIDI1_UART.c ****     * Return:
 468:Generated_Source\PSoC4/MIDI1_UART.c ****     *  Current state of the status register.
 469:Generated_Source\PSoC4/MIDI1_UART.c ****     *
 470:Generated_Source\PSoC4/MIDI1_UART.c ****     * Side Effect:
 471:Generated_Source\PSoC4/MIDI1_UART.c ****     *  All status register bits are clear-on-read except
 472:Generated_Source\PSoC4/MIDI1_UART.c ****     *  MIDI1_UART_RX_STS_FIFO_NOTEMPTY.
 473:Generated_Source\PSoC4/MIDI1_UART.c ****     *  MIDI1_UART_RX_STS_FIFO_NOTEMPTY clears immediately after RX data
 474:Generated_Source\PSoC4/MIDI1_UART.c ****     *  register read.
 475:Generated_Source\PSoC4/MIDI1_UART.c ****     *
 476:Generated_Source\PSoC4/MIDI1_UART.c ****     * Global Variables:
 477:Generated_Source\PSoC4/MIDI1_UART.c ****     *  MIDI1_UART_rxBufferOverflow - used to indicate overload condition.
 478:Generated_Source\PSoC4/MIDI1_UART.c ****     *   It set to one in RX interrupt when there isn't free space in
 479:Generated_Source\PSoC4/MIDI1_UART.c ****     *   MIDI1_UART_rxBufferRead to write new data. This condition returned
 480:Generated_Source\PSoC4/MIDI1_UART.c ****     *   and cleared to zero by this API as an
 481:Generated_Source\PSoC4/MIDI1_UART.c ****     *   MIDI1_UART_RX_STS_SOFT_BUFF_OVER bit along with RX Status register
 482:Generated_Source\PSoC4/MIDI1_UART.c ****     *   bits.
 483:Generated_Source\PSoC4/MIDI1_UART.c ****     *
 484:Generated_Source\PSoC4/MIDI1_UART.c ****     *******************************************************************************/
 485:Generated_Source\PSoC4/MIDI1_UART.c ****     uint8 MIDI1_UART_ReadRxStatus(void) 
 486:Generated_Source\PSoC4/MIDI1_UART.c ****     {
 453              		.loc 1 486 0
 454              		.cfi_startproc
 455              		@ args = 0, pretend = 0, frame = 0
 456              		@ frame_needed = 0, uses_anonymous_args = 0
 457              		@ link register save eliminated.
 487:Generated_Source\PSoC4/MIDI1_UART.c ****         uint8 status;
 488:Generated_Source\PSoC4/MIDI1_UART.c **** 
 489:Generated_Source\PSoC4/MIDI1_UART.c ****         status = MIDI1_UART_RXSTATUS_REG & MIDI1_UART_RX_HW_MASK;
 458              		.loc 1 489 0
 459 0000 074B     		ldr	r3, .L29
 460 0002 1878     		ldrb	r0, [r3]
 461 0004 7F23     		movs	r3, #127
 462 0006 1840     		ands	r0, r3
 463              	.LVL37:
 490:Generated_Source\PSoC4/MIDI1_UART.c **** 
 491:Generated_Source\PSoC4/MIDI1_UART.c ****     #if (MIDI1_UART_RX_INTERRUPT_ENABLED)
 492:Generated_Source\PSoC4/MIDI1_UART.c ****         if(MIDI1_UART_rxBufferOverflow != 0u)
 464              		.loc 1 492 0
 465 0008 064B     		ldr	r3, .L29+4
 466 000a 5B79     		ldrb	r3, [r3, #5]
 467 000c 002B     		cmp	r3, #0
 468 000e 06D0     		beq	.L28
 493:Generated_Source\PSoC4/MIDI1_UART.c ****         {
 494:Generated_Source\PSoC4/MIDI1_UART.c ****             status |= MIDI1_UART_RX_STS_SOFT_BUFF_OVER;
 469              		.loc 1 494 0
ARM GAS  C:\Users\psmus\AppData\Local\Temp\ccyQO4JR.s 			page 18


 470 0010 8023     		movs	r3, #128
 471 0012 5B42     		rsbs	r3, r3, #0
 472 0014 1843     		orrs	r0, r3
 473              	.LVL38:
 474 0016 C0B2     		uxtb	r0, r0
 475              	.LVL39:
 495:Generated_Source\PSoC4/MIDI1_UART.c ****             MIDI1_UART_rxBufferOverflow = 0u;
 476              		.loc 1 495 0
 477 0018 0022     		movs	r2, #0
 478 001a 024B     		ldr	r3, .L29+4
 479 001c 5A71     		strb	r2, [r3, #5]
 480              	.L28:
 496:Generated_Source\PSoC4/MIDI1_UART.c ****         }
 497:Generated_Source\PSoC4/MIDI1_UART.c ****     #endif /* (MIDI1_UART_RX_INTERRUPT_ENABLED) */
 498:Generated_Source\PSoC4/MIDI1_UART.c **** 
 499:Generated_Source\PSoC4/MIDI1_UART.c ****         return(status);
 500:Generated_Source\PSoC4/MIDI1_UART.c ****     }
 481              		.loc 1 500 0
 482              		@ sp needed
 483 001e 7047     		bx	lr
 484              	.L30:
 485              		.align	2
 486              	.L29:
 487 0020 63000F40 		.word	1074724963
 488 0024 00000000 		.word	.LANCHOR0
 489              		.cfi_endproc
 490              	.LFE9:
 491              		.size	MIDI1_UART_ReadRxStatus, .-MIDI1_UART_ReadRxStatus
 492              		.section	.text.MIDI1_UART_GetChar,"ax",%progbits
 493              		.align	2
 494              		.global	MIDI1_UART_GetChar
 495              		.code	16
 496              		.thumb_func
 497              		.type	MIDI1_UART_GetChar, %function
 498              	MIDI1_UART_GetChar:
 499              	.LFB10:
 501:Generated_Source\PSoC4/MIDI1_UART.c **** 
 502:Generated_Source\PSoC4/MIDI1_UART.c **** 
 503:Generated_Source\PSoC4/MIDI1_UART.c ****     /*******************************************************************************
 504:Generated_Source\PSoC4/MIDI1_UART.c ****     * Function Name: MIDI1_UART_GetChar
 505:Generated_Source\PSoC4/MIDI1_UART.c ****     ********************************************************************************
 506:Generated_Source\PSoC4/MIDI1_UART.c ****     *
 507:Generated_Source\PSoC4/MIDI1_UART.c ****     * Summary:
 508:Generated_Source\PSoC4/MIDI1_UART.c ****     *  Returns the last received byte of data. MIDI1_UART_GetChar() is
 509:Generated_Source\PSoC4/MIDI1_UART.c ****     *  designed for ASCII characters and returns a uint8 where 1 to 255 are values
 510:Generated_Source\PSoC4/MIDI1_UART.c ****     *  for valid characters and 0 indicates an error occurred or no data is present.
 511:Generated_Source\PSoC4/MIDI1_UART.c ****     *
 512:Generated_Source\PSoC4/MIDI1_UART.c ****     * Parameters:
 513:Generated_Source\PSoC4/MIDI1_UART.c ****     *  None.
 514:Generated_Source\PSoC4/MIDI1_UART.c ****     *
 515:Generated_Source\PSoC4/MIDI1_UART.c ****     * Return:
 516:Generated_Source\PSoC4/MIDI1_UART.c ****     *  Character read from UART RX buffer. ASCII characters from 1 to 255 are valid.
 517:Generated_Source\PSoC4/MIDI1_UART.c ****     *  A returned zero signifies an error condition or no data available.
 518:Generated_Source\PSoC4/MIDI1_UART.c ****     *
 519:Generated_Source\PSoC4/MIDI1_UART.c ****     * Global Variables:
 520:Generated_Source\PSoC4/MIDI1_UART.c ****     *  MIDI1_UART_rxBuffer - RAM buffer pointer for save received data.
 521:Generated_Source\PSoC4/MIDI1_UART.c ****     *  MIDI1_UART_rxBufferWrite - cyclic index for write to rxBuffer,
ARM GAS  C:\Users\psmus\AppData\Local\Temp\ccyQO4JR.s 			page 19


 522:Generated_Source\PSoC4/MIDI1_UART.c ****     *     checked to identify new data.
 523:Generated_Source\PSoC4/MIDI1_UART.c ****     *  MIDI1_UART_rxBufferRead - cyclic index for read from rxBuffer,
 524:Generated_Source\PSoC4/MIDI1_UART.c ****     *     incremented after each byte has been read from buffer.
 525:Generated_Source\PSoC4/MIDI1_UART.c ****     *  MIDI1_UART_rxBufferLoopDetect - cleared if loop condition was detected
 526:Generated_Source\PSoC4/MIDI1_UART.c ****     *     in RX ISR.
 527:Generated_Source\PSoC4/MIDI1_UART.c ****     *
 528:Generated_Source\PSoC4/MIDI1_UART.c ****     * Reentrant:
 529:Generated_Source\PSoC4/MIDI1_UART.c ****     *  No.
 530:Generated_Source\PSoC4/MIDI1_UART.c ****     *
 531:Generated_Source\PSoC4/MIDI1_UART.c ****     *******************************************************************************/
 532:Generated_Source\PSoC4/MIDI1_UART.c ****     uint8 MIDI1_UART_GetChar(void) 
 533:Generated_Source\PSoC4/MIDI1_UART.c ****     {
 500              		.loc 1 533 0
 501              		.cfi_startproc
 502              		@ args = 0, pretend = 0, frame = 0
 503              		@ frame_needed = 0, uses_anonymous_args = 0
 504 0000 10B5     		push	{r4, lr}
 505              		.cfi_def_cfa_offset 8
 506              		.cfi_offset 4, -8
 507              		.cfi_offset 14, -4
 508              	.LVL40:
 534:Generated_Source\PSoC4/MIDI1_UART.c ****         uint8 rxData = 0u;
 535:Generated_Source\PSoC4/MIDI1_UART.c ****         uint8 rxStatus;
 536:Generated_Source\PSoC4/MIDI1_UART.c **** 
 537:Generated_Source\PSoC4/MIDI1_UART.c ****     #if (MIDI1_UART_RX_INTERRUPT_ENABLED)
 538:Generated_Source\PSoC4/MIDI1_UART.c ****         uint8 locRxBufferRead;
 539:Generated_Source\PSoC4/MIDI1_UART.c ****         uint8 locRxBufferWrite;
 540:Generated_Source\PSoC4/MIDI1_UART.c **** 
 541:Generated_Source\PSoC4/MIDI1_UART.c ****         /* Protect variables that could change on interrupt */
 542:Generated_Source\PSoC4/MIDI1_UART.c ****         MIDI1_UART_DisableRxInt();
 509              		.loc 1 542 0
 510 0002 0020     		movs	r0, #0
 511 0004 FFF7FEFF 		bl	CyIntDisable
 512              	.LVL41:
 543:Generated_Source\PSoC4/MIDI1_UART.c **** 
 544:Generated_Source\PSoC4/MIDI1_UART.c ****         locRxBufferRead  = MIDI1_UART_rxBufferRead;
 513              		.loc 1 544 0
 514 0008 174A     		ldr	r2, .L39
 515 000a 9378     		ldrb	r3, [r2, #2]
 516 000c DBB2     		uxtb	r3, r3
 517              	.LVL42:
 545:Generated_Source\PSoC4/MIDI1_UART.c ****         locRxBufferWrite = MIDI1_UART_rxBufferWrite;
 518              		.loc 1 545 0
 519 000e D178     		ldrb	r1, [r2, #3]
 520 0010 C9B2     		uxtb	r1, r1
 521              	.LVL43:
 546:Generated_Source\PSoC4/MIDI1_UART.c **** 
 547:Generated_Source\PSoC4/MIDI1_UART.c ****         if( (MIDI1_UART_rxBufferLoopDetect != 0u) || (locRxBufferRead != locRxBufferWrite) )
 522              		.loc 1 547 0
 523 0012 1279     		ldrb	r2, [r2, #4]
 524 0014 002A     		cmp	r2, #0
 525 0016 01D1     		bne	.L32
 526              		.loc 1 547 0 is_stmt 0 discriminator 1
 527 0018 8B42     		cmp	r3, r1
 528 001a 10D0     		beq	.L33
 529              	.L32:
 548:Generated_Source\PSoC4/MIDI1_UART.c ****         {
ARM GAS  C:\Users\psmus\AppData\Local\Temp\ccyQO4JR.s 			page 20


 549:Generated_Source\PSoC4/MIDI1_UART.c ****             rxData = MIDI1_UART_rxBuffer[locRxBufferRead];
 530              		.loc 1 549 0 is_stmt 1
 531 001c 134A     		ldr	r2, .L39+4
 532 001e D45C     		ldrb	r4, [r2, r3]
 533 0020 E4B2     		uxtb	r4, r4
 534              	.LVL44:
 550:Generated_Source\PSoC4/MIDI1_UART.c ****             locRxBufferRead++;
 535              		.loc 1 550 0
 536 0022 0133     		adds	r3, r3, #1
 537              	.LVL45:
 538 0024 DBB2     		uxtb	r3, r3
 539              	.LVL46:
 551:Generated_Source\PSoC4/MIDI1_UART.c ****             if(locRxBufferRead >= MIDI1_UART_RX_BUFFER_SIZE)
 540              		.loc 1 551 0
 541 0026 3F2B     		cmp	r3, #63
 542 0028 00D9     		bls	.L34
 552:Generated_Source\PSoC4/MIDI1_UART.c ****             {
 553:Generated_Source\PSoC4/MIDI1_UART.c ****                 locRxBufferRead = 0u;
 543              		.loc 1 553 0
 544 002a 0023     		movs	r3, #0
 545              	.LVL47:
 546              	.L34:
 554:Generated_Source\PSoC4/MIDI1_UART.c ****             }
 555:Generated_Source\PSoC4/MIDI1_UART.c ****             /* Update the real pointer */
 556:Generated_Source\PSoC4/MIDI1_UART.c ****             MIDI1_UART_rxBufferRead = locRxBufferRead;
 547              		.loc 1 556 0
 548 002c 0E4A     		ldr	r2, .L39
 549 002e 9370     		strb	r3, [r2, #2]
 557:Generated_Source\PSoC4/MIDI1_UART.c **** 
 558:Generated_Source\PSoC4/MIDI1_UART.c ****             if(MIDI1_UART_rxBufferLoopDetect != 0u)
 550              		.loc 1 558 0
 551 0030 1379     		ldrb	r3, [r2, #4]
 552              	.LVL48:
 553 0032 002B     		cmp	r3, #0
 554 0034 12D0     		beq	.L35
 559:Generated_Source\PSoC4/MIDI1_UART.c ****             {
 560:Generated_Source\PSoC4/MIDI1_UART.c ****                 MIDI1_UART_rxBufferLoopDetect = 0u;
 555              		.loc 1 560 0
 556 0036 0022     		movs	r2, #0
 557 0038 0B4B     		ldr	r3, .L39
 558 003a 1A71     		strb	r2, [r3, #4]
 559              	.LVL49:
 560 003c 0EE0     		b	.L35
 561              	.LVL50:
 562              	.L33:
 561:Generated_Source\PSoC4/MIDI1_UART.c ****                 #if( (MIDI1_UART_RX_INTERRUPT_ENABLED) && (MIDI1_UART_FLOW_CONTROL != 0u) )
 562:Generated_Source\PSoC4/MIDI1_UART.c ****                     /* When Hardware Flow Control selected - return RX mask */
 563:Generated_Source\PSoC4/MIDI1_UART.c ****                     #if( MIDI1_UART_HD_ENABLED )
 564:Generated_Source\PSoC4/MIDI1_UART.c ****                         if((MIDI1_UART_CONTROL_REG & MIDI1_UART_CTRL_HD_SEND) == 0u)
 565:Generated_Source\PSoC4/MIDI1_UART.c ****                         {   /* In Half duplex mode return RX mask only if
 566:Generated_Source\PSoC4/MIDI1_UART.c ****                             *  RX configuration set, otherwise
 567:Generated_Source\PSoC4/MIDI1_UART.c ****                             *  mask will be returned in LoadRxConfig() API.
 568:Generated_Source\PSoC4/MIDI1_UART.c ****                             */
 569:Generated_Source\PSoC4/MIDI1_UART.c ****                             MIDI1_UART_RXSTATUS_MASK_REG |= MIDI1_UART_RX_STS_FIFO_NOTEMPTY;
 570:Generated_Source\PSoC4/MIDI1_UART.c ****                         }
 571:Generated_Source\PSoC4/MIDI1_UART.c ****                     #else
 572:Generated_Source\PSoC4/MIDI1_UART.c ****                         MIDI1_UART_RXSTATUS_MASK_REG |= MIDI1_UART_RX_STS_FIFO_NOTEMPTY;
ARM GAS  C:\Users\psmus\AppData\Local\Temp\ccyQO4JR.s 			page 21


 573:Generated_Source\PSoC4/MIDI1_UART.c ****                     #endif /* end MIDI1_UART_HD_ENABLED */
 574:Generated_Source\PSoC4/MIDI1_UART.c ****                 #endif /* MIDI1_UART_RX_INTERRUPT_ENABLED and Hardware flow control*/
 575:Generated_Source\PSoC4/MIDI1_UART.c ****             }
 576:Generated_Source\PSoC4/MIDI1_UART.c **** 
 577:Generated_Source\PSoC4/MIDI1_UART.c ****         }
 578:Generated_Source\PSoC4/MIDI1_UART.c ****         else
 579:Generated_Source\PSoC4/MIDI1_UART.c ****         {   rxStatus = MIDI1_UART_RXSTATUS_REG;
 563              		.loc 1 579 0
 564 003e 0C4B     		ldr	r3, .L39+8
 565              	.LVL51:
 566 0040 1B78     		ldrb	r3, [r3]
 567 0042 DBB2     		uxtb	r3, r3
 568              	.LVL52:
 580:Generated_Source\PSoC4/MIDI1_UART.c ****             if((rxStatus & MIDI1_UART_RX_STS_FIFO_NOTEMPTY) != 0u)
 569              		.loc 1 580 0
 570 0044 9A06     		lsls	r2, r3, #26
 571 0046 06D5     		bpl	.L37
 581:Generated_Source\PSoC4/MIDI1_UART.c ****             {   /* Read received data from FIFO */
 582:Generated_Source\PSoC4/MIDI1_UART.c ****                 rxData = MIDI1_UART_RXDATA_REG;
 572              		.loc 1 582 0
 573 0048 0A4A     		ldr	r2, .L39+12
 574 004a 1478     		ldrb	r4, [r2]
 575 004c E4B2     		uxtb	r4, r4
 576              	.LVL53:
 583:Generated_Source\PSoC4/MIDI1_UART.c ****                 /*Check status on error*/
 584:Generated_Source\PSoC4/MIDI1_UART.c ****                 if((rxStatus & (MIDI1_UART_RX_STS_BREAK | MIDI1_UART_RX_STS_PAR_ERROR |
 577              		.loc 1 584 0
 578 004e 1E22     		movs	r2, #30
 579 0050 1A42     		tst	r2, r3
 580 0052 02D1     		bne	.L38
 581 0054 02E0     		b	.L35
 582              	.LVL54:
 583              	.L37:
 534:Generated_Source\PSoC4/MIDI1_UART.c ****         uint8 rxStatus;
 584              		.loc 1 534 0
 585 0056 0024     		movs	r4, #0
 586 0058 00E0     		b	.L35
 587              	.LVL55:
 588              	.L38:
 585:Generated_Source\PSoC4/MIDI1_UART.c ****                                 MIDI1_UART_RX_STS_STOP_ERROR | MIDI1_UART_RX_STS_OVERRUN)) != 0u)
 586:Generated_Source\PSoC4/MIDI1_UART.c ****                 {
 587:Generated_Source\PSoC4/MIDI1_UART.c ****                     rxData = 0u;
 589              		.loc 1 587 0
 590 005a 0024     		movs	r4, #0
 591              	.LVL56:
 592              	.L35:
 588:Generated_Source\PSoC4/MIDI1_UART.c ****                 }
 589:Generated_Source\PSoC4/MIDI1_UART.c ****             }
 590:Generated_Source\PSoC4/MIDI1_UART.c ****         }
 591:Generated_Source\PSoC4/MIDI1_UART.c **** 
 592:Generated_Source\PSoC4/MIDI1_UART.c ****         MIDI1_UART_EnableRxInt();
 593              		.loc 1 592 0
 594 005c 0020     		movs	r0, #0
 595 005e FFF7FEFF 		bl	CyIntEnable
 596              	.LVL57:
 593:Generated_Source\PSoC4/MIDI1_UART.c **** 
 594:Generated_Source\PSoC4/MIDI1_UART.c ****     #else
ARM GAS  C:\Users\psmus\AppData\Local\Temp\ccyQO4JR.s 			page 22


 595:Generated_Source\PSoC4/MIDI1_UART.c **** 
 596:Generated_Source\PSoC4/MIDI1_UART.c ****         rxStatus =MIDI1_UART_RXSTATUS_REG;
 597:Generated_Source\PSoC4/MIDI1_UART.c ****         if((rxStatus & MIDI1_UART_RX_STS_FIFO_NOTEMPTY) != 0u)
 598:Generated_Source\PSoC4/MIDI1_UART.c ****         {
 599:Generated_Source\PSoC4/MIDI1_UART.c ****             /* Read received data from FIFO */
 600:Generated_Source\PSoC4/MIDI1_UART.c ****             rxData = MIDI1_UART_RXDATA_REG;
 601:Generated_Source\PSoC4/MIDI1_UART.c **** 
 602:Generated_Source\PSoC4/MIDI1_UART.c ****             /*Check status on error*/
 603:Generated_Source\PSoC4/MIDI1_UART.c ****             if((rxStatus & (MIDI1_UART_RX_STS_BREAK | MIDI1_UART_RX_STS_PAR_ERROR |
 604:Generated_Source\PSoC4/MIDI1_UART.c ****                             MIDI1_UART_RX_STS_STOP_ERROR | MIDI1_UART_RX_STS_OVERRUN)) != 0u)
 605:Generated_Source\PSoC4/MIDI1_UART.c ****             {
 606:Generated_Source\PSoC4/MIDI1_UART.c ****                 rxData = 0u;
 607:Generated_Source\PSoC4/MIDI1_UART.c ****             }
 608:Generated_Source\PSoC4/MIDI1_UART.c ****         }
 609:Generated_Source\PSoC4/MIDI1_UART.c ****     #endif /* (MIDI1_UART_RX_INTERRUPT_ENABLED) */
 610:Generated_Source\PSoC4/MIDI1_UART.c **** 
 611:Generated_Source\PSoC4/MIDI1_UART.c ****         return(rxData);
 612:Generated_Source\PSoC4/MIDI1_UART.c ****     }
 597              		.loc 1 612 0
 598 0062 2000     		movs	r0, r4
 599              		@ sp needed
 600              	.LVL58:
 601 0064 10BD     		pop	{r4, pc}
 602              	.L40:
 603 0066 C046     		.align	2
 604              	.L39:
 605 0068 00000000 		.word	.LANCHOR0
 606 006c 00000000 		.word	MIDI1_UART_rxBuffer
 607 0070 63000F40 		.word	1074724963
 608 0074 42000F40 		.word	1074724930
 609              		.cfi_endproc
 610              	.LFE10:
 611              		.size	MIDI1_UART_GetChar, .-MIDI1_UART_GetChar
 612              		.section	.text.MIDI1_UART_GetByte,"ax",%progbits
 613              		.align	2
 614              		.global	MIDI1_UART_GetByte
 615              		.code	16
 616              		.thumb_func
 617              		.type	MIDI1_UART_GetByte, %function
 618              	MIDI1_UART_GetByte:
 619              	.LFB11:
 613:Generated_Source\PSoC4/MIDI1_UART.c **** 
 614:Generated_Source\PSoC4/MIDI1_UART.c **** 
 615:Generated_Source\PSoC4/MIDI1_UART.c ****     /*******************************************************************************
 616:Generated_Source\PSoC4/MIDI1_UART.c ****     * Function Name: MIDI1_UART_GetByte
 617:Generated_Source\PSoC4/MIDI1_UART.c ****     ********************************************************************************
 618:Generated_Source\PSoC4/MIDI1_UART.c ****     *
 619:Generated_Source\PSoC4/MIDI1_UART.c ****     * Summary:
 620:Generated_Source\PSoC4/MIDI1_UART.c ****     *  Reads UART RX buffer immediately, returns received character and error
 621:Generated_Source\PSoC4/MIDI1_UART.c ****     *  condition.
 622:Generated_Source\PSoC4/MIDI1_UART.c ****     *
 623:Generated_Source\PSoC4/MIDI1_UART.c ****     * Parameters:
 624:Generated_Source\PSoC4/MIDI1_UART.c ****     *  None.
 625:Generated_Source\PSoC4/MIDI1_UART.c ****     *
 626:Generated_Source\PSoC4/MIDI1_UART.c ****     * Return:
 627:Generated_Source\PSoC4/MIDI1_UART.c ****     *  MSB contains status and LSB contains UART RX data. If the MSB is nonzero,
 628:Generated_Source\PSoC4/MIDI1_UART.c ****     *  an error has occurred.
ARM GAS  C:\Users\psmus\AppData\Local\Temp\ccyQO4JR.s 			page 23


 629:Generated_Source\PSoC4/MIDI1_UART.c ****     *
 630:Generated_Source\PSoC4/MIDI1_UART.c ****     * Reentrant:
 631:Generated_Source\PSoC4/MIDI1_UART.c ****     *  No.
 632:Generated_Source\PSoC4/MIDI1_UART.c ****     *
 633:Generated_Source\PSoC4/MIDI1_UART.c ****     *******************************************************************************/
 634:Generated_Source\PSoC4/MIDI1_UART.c ****     uint16 MIDI1_UART_GetByte(void) 
 635:Generated_Source\PSoC4/MIDI1_UART.c ****     {
 620              		.loc 1 635 0
 621              		.cfi_startproc
 622              		@ args = 0, pretend = 0, frame = 0
 623              		@ frame_needed = 0, uses_anonymous_args = 0
 624 0000 10B5     		push	{r4, lr}
 625              		.cfi_def_cfa_offset 8
 626              		.cfi_offset 4, -8
 627              		.cfi_offset 14, -4
 636:Generated_Source\PSoC4/MIDI1_UART.c ****         
 637:Generated_Source\PSoC4/MIDI1_UART.c ****     #if (MIDI1_UART_RX_INTERRUPT_ENABLED)
 638:Generated_Source\PSoC4/MIDI1_UART.c ****         uint16 locErrorStatus;
 639:Generated_Source\PSoC4/MIDI1_UART.c ****         /* Protect variables that could change on interrupt */
 640:Generated_Source\PSoC4/MIDI1_UART.c ****         MIDI1_UART_DisableRxInt();
 628              		.loc 1 640 0
 629 0002 0020     		movs	r0, #0
 630 0004 FFF7FEFF 		bl	CyIntDisable
 631              	.LVL59:
 641:Generated_Source\PSoC4/MIDI1_UART.c ****         locErrorStatus = (uint16)MIDI1_UART_errorStatus;
 632              		.loc 1 641 0
 633 0008 064B     		ldr	r3, .L42
 634 000a 1C78     		ldrb	r4, [r3]
 635              	.LVL60:
 642:Generated_Source\PSoC4/MIDI1_UART.c ****         MIDI1_UART_errorStatus = 0u;
 636              		.loc 1 642 0
 637 000c 0022     		movs	r2, #0
 638 000e 1A70     		strb	r2, [r3]
 643:Generated_Source\PSoC4/MIDI1_UART.c ****         MIDI1_UART_EnableRxInt();
 639              		.loc 1 643 0
 640 0010 0020     		movs	r0, #0
 641 0012 FFF7FEFF 		bl	CyIntEnable
 642              	.LVL61:
 644:Generated_Source\PSoC4/MIDI1_UART.c ****         return ( (uint16)(locErrorStatus << 8u) | MIDI1_UART_ReadRxData() );
 643              		.loc 1 644 0
 644 0016 2402     		lsls	r4, r4, #8
 645              	.LVL62:
 646 0018 FFF7FEFF 		bl	MIDI1_UART_ReadRxData
 647              	.LVL63:
 648 001c 2043     		orrs	r0, r4
 649 001e 80B2     		uxth	r0, r0
 645:Generated_Source\PSoC4/MIDI1_UART.c ****     #else
 646:Generated_Source\PSoC4/MIDI1_UART.c ****         return ( ((uint16)MIDI1_UART_ReadRxStatus() << 8u) | MIDI1_UART_ReadRxData() );
 647:Generated_Source\PSoC4/MIDI1_UART.c ****     #endif /* MIDI1_UART_RX_INTERRUPT_ENABLED */
 648:Generated_Source\PSoC4/MIDI1_UART.c ****         
 649:Generated_Source\PSoC4/MIDI1_UART.c ****     }
 650              		.loc 1 649 0
 651              		@ sp needed
 652 0020 10BD     		pop	{r4, pc}
 653              	.L43:
 654 0022 C046     		.align	2
 655              	.L42:
ARM GAS  C:\Users\psmus\AppData\Local\Temp\ccyQO4JR.s 			page 24


 656 0024 00000000 		.word	.LANCHOR0
 657              		.cfi_endproc
 658              	.LFE11:
 659              		.size	MIDI1_UART_GetByte, .-MIDI1_UART_GetByte
 660              		.section	.text.MIDI1_UART_GetRxBufferSize,"ax",%progbits
 661              		.align	2
 662              		.global	MIDI1_UART_GetRxBufferSize
 663              		.code	16
 664              		.thumb_func
 665              		.type	MIDI1_UART_GetRxBufferSize, %function
 666              	MIDI1_UART_GetRxBufferSize:
 667              	.LFB12:
 650:Generated_Source\PSoC4/MIDI1_UART.c **** 
 651:Generated_Source\PSoC4/MIDI1_UART.c **** 
 652:Generated_Source\PSoC4/MIDI1_UART.c ****     /*******************************************************************************
 653:Generated_Source\PSoC4/MIDI1_UART.c ****     * Function Name: MIDI1_UART_GetRxBufferSize
 654:Generated_Source\PSoC4/MIDI1_UART.c ****     ********************************************************************************
 655:Generated_Source\PSoC4/MIDI1_UART.c ****     *
 656:Generated_Source\PSoC4/MIDI1_UART.c ****     * Summary:
 657:Generated_Source\PSoC4/MIDI1_UART.c ****     *  Returns the number of received bytes available in the RX buffer.
 658:Generated_Source\PSoC4/MIDI1_UART.c ****     *  * RX software buffer is disabled (RX Buffer Size parameter is equal to 4): 
 659:Generated_Source\PSoC4/MIDI1_UART.c ****     *    returns 0 for empty RX FIFO or 1 for not empty RX FIFO.
 660:Generated_Source\PSoC4/MIDI1_UART.c ****     *  * RX software buffer is enabled: returns the number of bytes available in 
 661:Generated_Source\PSoC4/MIDI1_UART.c ****     *    the RX software buffer. Bytes available in the RX FIFO do not take to 
 662:Generated_Source\PSoC4/MIDI1_UART.c ****     *    account.
 663:Generated_Source\PSoC4/MIDI1_UART.c ****     *
 664:Generated_Source\PSoC4/MIDI1_UART.c ****     * Parameters:
 665:Generated_Source\PSoC4/MIDI1_UART.c ****     *  None.
 666:Generated_Source\PSoC4/MIDI1_UART.c ****     *
 667:Generated_Source\PSoC4/MIDI1_UART.c ****     * Return:
 668:Generated_Source\PSoC4/MIDI1_UART.c ****     *  uint8: Number of bytes in the RX buffer. 
 669:Generated_Source\PSoC4/MIDI1_UART.c ****     *    Return value type depends on RX Buffer Size parameter.
 670:Generated_Source\PSoC4/MIDI1_UART.c ****     *
 671:Generated_Source\PSoC4/MIDI1_UART.c ****     * Global Variables:
 672:Generated_Source\PSoC4/MIDI1_UART.c ****     *  MIDI1_UART_rxBufferWrite - used to calculate left bytes.
 673:Generated_Source\PSoC4/MIDI1_UART.c ****     *  MIDI1_UART_rxBufferRead - used to calculate left bytes.
 674:Generated_Source\PSoC4/MIDI1_UART.c ****     *  MIDI1_UART_rxBufferLoopDetect - checked to decide left bytes amount.
 675:Generated_Source\PSoC4/MIDI1_UART.c ****     *
 676:Generated_Source\PSoC4/MIDI1_UART.c ****     * Reentrant:
 677:Generated_Source\PSoC4/MIDI1_UART.c ****     *  No.
 678:Generated_Source\PSoC4/MIDI1_UART.c ****     *
 679:Generated_Source\PSoC4/MIDI1_UART.c ****     * Theory:
 680:Generated_Source\PSoC4/MIDI1_UART.c ****     *  Allows the user to find out how full the RX Buffer is.
 681:Generated_Source\PSoC4/MIDI1_UART.c ****     *
 682:Generated_Source\PSoC4/MIDI1_UART.c ****     *******************************************************************************/
 683:Generated_Source\PSoC4/MIDI1_UART.c ****     uint8 MIDI1_UART_GetRxBufferSize(void)
 684:Generated_Source\PSoC4/MIDI1_UART.c ****                                                             
 685:Generated_Source\PSoC4/MIDI1_UART.c ****     {
 668              		.loc 1 685 0
 669              		.cfi_startproc
 670              		@ args = 0, pretend = 0, frame = 0
 671              		@ frame_needed = 0, uses_anonymous_args = 0
 672 0000 10B5     		push	{r4, lr}
 673              		.cfi_def_cfa_offset 8
 674              		.cfi_offset 4, -8
 675              		.cfi_offset 14, -4
 686:Generated_Source\PSoC4/MIDI1_UART.c ****         uint8 size;
ARM GAS  C:\Users\psmus\AppData\Local\Temp\ccyQO4JR.s 			page 25


 687:Generated_Source\PSoC4/MIDI1_UART.c **** 
 688:Generated_Source\PSoC4/MIDI1_UART.c ****     #if (MIDI1_UART_RX_INTERRUPT_ENABLED)
 689:Generated_Source\PSoC4/MIDI1_UART.c **** 
 690:Generated_Source\PSoC4/MIDI1_UART.c ****         /* Protect variables that could change on interrupt */
 691:Generated_Source\PSoC4/MIDI1_UART.c ****         MIDI1_UART_DisableRxInt();
 676              		.loc 1 691 0
 677 0002 0020     		movs	r0, #0
 678 0004 FFF7FEFF 		bl	CyIntDisable
 679              	.LVL64:
 692:Generated_Source\PSoC4/MIDI1_UART.c **** 
 693:Generated_Source\PSoC4/MIDI1_UART.c ****         if(MIDI1_UART_rxBufferRead == MIDI1_UART_rxBufferWrite)
 680              		.loc 1 693 0
 681 0008 134B     		ldr	r3, .L49
 682 000a 9A78     		ldrb	r2, [r3, #2]
 683 000c D2B2     		uxtb	r2, r2
 684 000e DB78     		ldrb	r3, [r3, #3]
 685 0010 DBB2     		uxtb	r3, r3
 686 0012 9A42     		cmp	r2, r3
 687 0014 05D1     		bne	.L45
 694:Generated_Source\PSoC4/MIDI1_UART.c ****         {
 695:Generated_Source\PSoC4/MIDI1_UART.c ****             if(MIDI1_UART_rxBufferLoopDetect != 0u)
 688              		.loc 1 695 0
 689 0016 104B     		ldr	r3, .L49
 690 0018 1B79     		ldrb	r3, [r3, #4]
 691 001a 002B     		cmp	r3, #0
 692 001c 15D0     		beq	.L48
 696:Generated_Source\PSoC4/MIDI1_UART.c ****             {
 697:Generated_Source\PSoC4/MIDI1_UART.c ****                 size = MIDI1_UART_RX_BUFFER_SIZE;
 693              		.loc 1 697 0
 694 001e 4024     		movs	r4, #64
 695 0020 14E0     		b	.L46
 696              	.L45:
 698:Generated_Source\PSoC4/MIDI1_UART.c ****             }
 699:Generated_Source\PSoC4/MIDI1_UART.c ****             else
 700:Generated_Source\PSoC4/MIDI1_UART.c ****             {
 701:Generated_Source\PSoC4/MIDI1_UART.c ****                 size = 0u;
 702:Generated_Source\PSoC4/MIDI1_UART.c ****             }
 703:Generated_Source\PSoC4/MIDI1_UART.c ****         }
 704:Generated_Source\PSoC4/MIDI1_UART.c ****         else if(MIDI1_UART_rxBufferRead < MIDI1_UART_rxBufferWrite)
 697              		.loc 1 704 0
 698 0022 0D4B     		ldr	r3, .L49
 699 0024 9A78     		ldrb	r2, [r3, #2]
 700 0026 D2B2     		uxtb	r2, r2
 701 0028 DB78     		ldrb	r3, [r3, #3]
 702 002a DBB2     		uxtb	r3, r3
 703 002c 9A42     		cmp	r2, r3
 704 002e 05D2     		bcs	.L47
 705:Generated_Source\PSoC4/MIDI1_UART.c ****         {
 706:Generated_Source\PSoC4/MIDI1_UART.c ****             size = (MIDI1_UART_rxBufferWrite - MIDI1_UART_rxBufferRead);
 705              		.loc 1 706 0
 706 0030 094A     		ldr	r2, .L49
 707 0032 D378     		ldrb	r3, [r2, #3]
 708 0034 9478     		ldrb	r4, [r2, #2]
 709 0036 1C1B     		subs	r4, r3, r4
 710 0038 E4B2     		uxtb	r4, r4
 711              	.LVL65:
 712 003a 07E0     		b	.L46
ARM GAS  C:\Users\psmus\AppData\Local\Temp\ccyQO4JR.s 			page 26


 713              	.LVL66:
 714              	.L47:
 707:Generated_Source\PSoC4/MIDI1_UART.c ****         }
 708:Generated_Source\PSoC4/MIDI1_UART.c ****         else
 709:Generated_Source\PSoC4/MIDI1_UART.c ****         {
 710:Generated_Source\PSoC4/MIDI1_UART.c ****             size = (MIDI1_UART_RX_BUFFER_SIZE - MIDI1_UART_rxBufferRead) + MIDI1_UART_rxBufferWrite
 715              		.loc 1 710 0
 716 003c 064A     		ldr	r2, .L49
 717 003e D378     		ldrb	r3, [r2, #3]
 718 0040 9478     		ldrb	r4, [r2, #2]
 719 0042 1C1B     		subs	r4, r3, r4
 720 0044 4034     		adds	r4, r4, #64
 721 0046 E4B2     		uxtb	r4, r4
 722              	.LVL67:
 723 0048 00E0     		b	.L46
 724              	.LVL68:
 725              	.L48:
 701:Generated_Source\PSoC4/MIDI1_UART.c ****             }
 726              		.loc 1 701 0
 727 004a 0024     		movs	r4, #0
 728              	.L46:
 729              	.LVL69:
 711:Generated_Source\PSoC4/MIDI1_UART.c ****         }
 712:Generated_Source\PSoC4/MIDI1_UART.c **** 
 713:Generated_Source\PSoC4/MIDI1_UART.c ****         MIDI1_UART_EnableRxInt();
 730              		.loc 1 713 0
 731 004c 0020     		movs	r0, #0
 732 004e FFF7FEFF 		bl	CyIntEnable
 733              	.LVL70:
 714:Generated_Source\PSoC4/MIDI1_UART.c **** 
 715:Generated_Source\PSoC4/MIDI1_UART.c ****     #else
 716:Generated_Source\PSoC4/MIDI1_UART.c **** 
 717:Generated_Source\PSoC4/MIDI1_UART.c ****         /* We can only know if there is data in the fifo. */
 718:Generated_Source\PSoC4/MIDI1_UART.c ****         size = ((MIDI1_UART_RXSTATUS_REG & MIDI1_UART_RX_STS_FIFO_NOTEMPTY) != 0u) ? 1u : 0u;
 719:Generated_Source\PSoC4/MIDI1_UART.c **** 
 720:Generated_Source\PSoC4/MIDI1_UART.c ****     #endif /* (MIDI1_UART_RX_INTERRUPT_ENABLED) */
 721:Generated_Source\PSoC4/MIDI1_UART.c **** 
 722:Generated_Source\PSoC4/MIDI1_UART.c ****         return(size);
 723:Generated_Source\PSoC4/MIDI1_UART.c ****     }
 734              		.loc 1 723 0
 735 0052 2000     		movs	r0, r4
 736              		@ sp needed
 737              	.LVL71:
 738 0054 10BD     		pop	{r4, pc}
 739              	.L50:
 740 0056 C046     		.align	2
 741              	.L49:
 742 0058 00000000 		.word	.LANCHOR0
 743              		.cfi_endproc
 744              	.LFE12:
 745              		.size	MIDI1_UART_GetRxBufferSize, .-MIDI1_UART_GetRxBufferSize
 746              		.section	.text.MIDI1_UART_ClearRxBuffer,"ax",%progbits
 747              		.align	2
 748              		.global	MIDI1_UART_ClearRxBuffer
 749              		.code	16
 750              		.thumb_func
 751              		.type	MIDI1_UART_ClearRxBuffer, %function
ARM GAS  C:\Users\psmus\AppData\Local\Temp\ccyQO4JR.s 			page 27


 752              	MIDI1_UART_ClearRxBuffer:
 753              	.LFB13:
 724:Generated_Source\PSoC4/MIDI1_UART.c **** 
 725:Generated_Source\PSoC4/MIDI1_UART.c **** 
 726:Generated_Source\PSoC4/MIDI1_UART.c ****     /*******************************************************************************
 727:Generated_Source\PSoC4/MIDI1_UART.c ****     * Function Name: MIDI1_UART_ClearRxBuffer
 728:Generated_Source\PSoC4/MIDI1_UART.c ****     ********************************************************************************
 729:Generated_Source\PSoC4/MIDI1_UART.c ****     *
 730:Generated_Source\PSoC4/MIDI1_UART.c ****     * Summary:
 731:Generated_Source\PSoC4/MIDI1_UART.c ****     *  Clears the receiver memory buffer and hardware RX FIFO of all received data.
 732:Generated_Source\PSoC4/MIDI1_UART.c ****     *
 733:Generated_Source\PSoC4/MIDI1_UART.c ****     * Parameters:
 734:Generated_Source\PSoC4/MIDI1_UART.c ****     *  None.
 735:Generated_Source\PSoC4/MIDI1_UART.c ****     *
 736:Generated_Source\PSoC4/MIDI1_UART.c ****     * Return:
 737:Generated_Source\PSoC4/MIDI1_UART.c ****     *  None.
 738:Generated_Source\PSoC4/MIDI1_UART.c ****     *
 739:Generated_Source\PSoC4/MIDI1_UART.c ****     * Global Variables:
 740:Generated_Source\PSoC4/MIDI1_UART.c ****     *  MIDI1_UART_rxBufferWrite - cleared to zero.
 741:Generated_Source\PSoC4/MIDI1_UART.c ****     *  MIDI1_UART_rxBufferRead - cleared to zero.
 742:Generated_Source\PSoC4/MIDI1_UART.c ****     *  MIDI1_UART_rxBufferLoopDetect - cleared to zero.
 743:Generated_Source\PSoC4/MIDI1_UART.c ****     *  MIDI1_UART_rxBufferOverflow - cleared to zero.
 744:Generated_Source\PSoC4/MIDI1_UART.c ****     *
 745:Generated_Source\PSoC4/MIDI1_UART.c ****     * Reentrant:
 746:Generated_Source\PSoC4/MIDI1_UART.c ****     *  No.
 747:Generated_Source\PSoC4/MIDI1_UART.c ****     *
 748:Generated_Source\PSoC4/MIDI1_UART.c ****     * Theory:
 749:Generated_Source\PSoC4/MIDI1_UART.c ****     *  Setting the pointers to zero makes the system believe there is no data to
 750:Generated_Source\PSoC4/MIDI1_UART.c ****     *  read and writing will resume at address 0 overwriting any data that may
 751:Generated_Source\PSoC4/MIDI1_UART.c ****     *  have remained in the RAM.
 752:Generated_Source\PSoC4/MIDI1_UART.c ****     *
 753:Generated_Source\PSoC4/MIDI1_UART.c ****     * Side Effects:
 754:Generated_Source\PSoC4/MIDI1_UART.c ****     *  Any received data not read from the RAM or FIFO buffer will be lost.
 755:Generated_Source\PSoC4/MIDI1_UART.c ****     *
 756:Generated_Source\PSoC4/MIDI1_UART.c ****     *******************************************************************************/
 757:Generated_Source\PSoC4/MIDI1_UART.c ****     void MIDI1_UART_ClearRxBuffer(void) 
 758:Generated_Source\PSoC4/MIDI1_UART.c ****     {
 754              		.loc 1 758 0
 755              		.cfi_startproc
 756              		@ args = 0, pretend = 0, frame = 0
 757              		@ frame_needed = 0, uses_anonymous_args = 0
 758 0000 10B5     		push	{r4, lr}
 759              		.cfi_def_cfa_offset 8
 760              		.cfi_offset 4, -8
 761              		.cfi_offset 14, -4
 759:Generated_Source\PSoC4/MIDI1_UART.c ****         uint8 enableInterrupts;
 760:Generated_Source\PSoC4/MIDI1_UART.c **** 
 761:Generated_Source\PSoC4/MIDI1_UART.c ****         /* Clear the HW FIFO */
 762:Generated_Source\PSoC4/MIDI1_UART.c ****         enableInterrupts = CyEnterCriticalSection();
 762              		.loc 1 762 0
 763 0002 FFF7FEFF 		bl	CyEnterCriticalSection
 764              	.LVL72:
 763:Generated_Source\PSoC4/MIDI1_UART.c ****         MIDI1_UART_RXDATA_AUX_CTL_REG |= (uint8)  MIDI1_UART_RX_FIFO_CLR;
 765              		.loc 1 763 0
 766 0006 0C4A     		ldr	r2, .L52
 767 0008 1178     		ldrb	r1, [r2]
 768 000a 0123     		movs	r3, #1
ARM GAS  C:\Users\psmus\AppData\Local\Temp\ccyQO4JR.s 			page 28


 769 000c 0B43     		orrs	r3, r1
 770 000e DBB2     		uxtb	r3, r3
 771 0010 1370     		strb	r3, [r2]
 764:Generated_Source\PSoC4/MIDI1_UART.c ****         MIDI1_UART_RXDATA_AUX_CTL_REG &= (uint8) ~MIDI1_UART_RX_FIFO_CLR;
 772              		.loc 1 764 0
 773 0012 1378     		ldrb	r3, [r2]
 774 0014 0121     		movs	r1, #1
 775 0016 8B43     		bics	r3, r1
 776 0018 1370     		strb	r3, [r2]
 765:Generated_Source\PSoC4/MIDI1_UART.c ****         CyExitCriticalSection(enableInterrupts);
 777              		.loc 1 765 0
 778 001a FFF7FEFF 		bl	CyExitCriticalSection
 779              	.LVL73:
 766:Generated_Source\PSoC4/MIDI1_UART.c **** 
 767:Generated_Source\PSoC4/MIDI1_UART.c ****     #if (MIDI1_UART_RX_INTERRUPT_ENABLED)
 768:Generated_Source\PSoC4/MIDI1_UART.c **** 
 769:Generated_Source\PSoC4/MIDI1_UART.c ****         /* Protect variables that could change on interrupt. */
 770:Generated_Source\PSoC4/MIDI1_UART.c ****         MIDI1_UART_DisableRxInt();
 780              		.loc 1 770 0
 781 001e 0020     		movs	r0, #0
 782 0020 FFF7FEFF 		bl	CyIntDisable
 783              	.LVL74:
 771:Generated_Source\PSoC4/MIDI1_UART.c **** 
 772:Generated_Source\PSoC4/MIDI1_UART.c ****         MIDI1_UART_rxBufferRead = 0u;
 784              		.loc 1 772 0
 785 0024 054B     		ldr	r3, .L52+4
 786 0026 0022     		movs	r2, #0
 787 0028 9A70     		strb	r2, [r3, #2]
 773:Generated_Source\PSoC4/MIDI1_UART.c ****         MIDI1_UART_rxBufferWrite = 0u;
 788              		.loc 1 773 0
 789 002a DA70     		strb	r2, [r3, #3]
 774:Generated_Source\PSoC4/MIDI1_UART.c ****         MIDI1_UART_rxBufferLoopDetect = 0u;
 790              		.loc 1 774 0
 791 002c 1A71     		strb	r2, [r3, #4]
 775:Generated_Source\PSoC4/MIDI1_UART.c ****         MIDI1_UART_rxBufferOverflow = 0u;
 792              		.loc 1 775 0
 793 002e 5A71     		strb	r2, [r3, #5]
 776:Generated_Source\PSoC4/MIDI1_UART.c **** 
 777:Generated_Source\PSoC4/MIDI1_UART.c ****         MIDI1_UART_EnableRxInt();
 794              		.loc 1 777 0
 795 0030 0020     		movs	r0, #0
 796 0032 FFF7FEFF 		bl	CyIntEnable
 797              	.LVL75:
 778:Generated_Source\PSoC4/MIDI1_UART.c **** 
 779:Generated_Source\PSoC4/MIDI1_UART.c ****     #endif /* (MIDI1_UART_RX_INTERRUPT_ENABLED) */
 780:Generated_Source\PSoC4/MIDI1_UART.c **** 
 781:Generated_Source\PSoC4/MIDI1_UART.c ****     }
 798              		.loc 1 781 0
 799              		@ sp needed
 800 0036 10BD     		pop	{r4, pc}
 801              	.L53:
 802              		.align	2
 803              	.L52:
 804 0038 92000F40 		.word	1074725010
 805 003c 00000000 		.word	.LANCHOR0
 806              		.cfi_endproc
 807              	.LFE13:
ARM GAS  C:\Users\psmus\AppData\Local\Temp\ccyQO4JR.s 			page 29


 808              		.size	MIDI1_UART_ClearRxBuffer, .-MIDI1_UART_ClearRxBuffer
 809              		.section	.text.MIDI1_UART_SetRxAddressMode,"ax",%progbits
 810              		.align	2
 811              		.global	MIDI1_UART_SetRxAddressMode
 812              		.code	16
 813              		.thumb_func
 814              		.type	MIDI1_UART_SetRxAddressMode, %function
 815              	MIDI1_UART_SetRxAddressMode:
 816              	.LFB14:
 782:Generated_Source\PSoC4/MIDI1_UART.c **** 
 783:Generated_Source\PSoC4/MIDI1_UART.c **** 
 784:Generated_Source\PSoC4/MIDI1_UART.c ****     /*******************************************************************************
 785:Generated_Source\PSoC4/MIDI1_UART.c ****     * Function Name: MIDI1_UART_SetRxAddressMode
 786:Generated_Source\PSoC4/MIDI1_UART.c ****     ********************************************************************************
 787:Generated_Source\PSoC4/MIDI1_UART.c ****     *
 788:Generated_Source\PSoC4/MIDI1_UART.c ****     * Summary:
 789:Generated_Source\PSoC4/MIDI1_UART.c ****     *  Sets the software controlled Addressing mode used by the RX portion of the
 790:Generated_Source\PSoC4/MIDI1_UART.c ****     *  UART.
 791:Generated_Source\PSoC4/MIDI1_UART.c ****     *
 792:Generated_Source\PSoC4/MIDI1_UART.c ****     * Parameters:
 793:Generated_Source\PSoC4/MIDI1_UART.c ****     *  addressMode: Enumerated value indicating the mode of RX addressing
 794:Generated_Source\PSoC4/MIDI1_UART.c ****     *  MIDI1_UART__B_UART__AM_SW_BYTE_BYTE -  Software Byte-by-Byte address
 795:Generated_Source\PSoC4/MIDI1_UART.c ****     *                                               detection
 796:Generated_Source\PSoC4/MIDI1_UART.c ****     *  MIDI1_UART__B_UART__AM_SW_DETECT_TO_BUFFER - Software Detect to Buffer
 797:Generated_Source\PSoC4/MIDI1_UART.c ****     *                                               address detection
 798:Generated_Source\PSoC4/MIDI1_UART.c ****     *  MIDI1_UART__B_UART__AM_HW_BYTE_BY_BYTE - Hardware Byte-by-Byte address
 799:Generated_Source\PSoC4/MIDI1_UART.c ****     *                                               detection
 800:Generated_Source\PSoC4/MIDI1_UART.c ****     *  MIDI1_UART__B_UART__AM_HW_DETECT_TO_BUFFER - Hardware Detect to Buffer
 801:Generated_Source\PSoC4/MIDI1_UART.c ****     *                                               address detection
 802:Generated_Source\PSoC4/MIDI1_UART.c ****     *  MIDI1_UART__B_UART__AM_NONE - No address detection
 803:Generated_Source\PSoC4/MIDI1_UART.c ****     *
 804:Generated_Source\PSoC4/MIDI1_UART.c ****     * Return:
 805:Generated_Source\PSoC4/MIDI1_UART.c ****     *  None.
 806:Generated_Source\PSoC4/MIDI1_UART.c ****     *
 807:Generated_Source\PSoC4/MIDI1_UART.c ****     * Global Variables:
 808:Generated_Source\PSoC4/MIDI1_UART.c ****     *  MIDI1_UART_rxAddressMode - the parameter stored in this variable for
 809:Generated_Source\PSoC4/MIDI1_UART.c ****     *   the farther usage in RX ISR.
 810:Generated_Source\PSoC4/MIDI1_UART.c ****     *  MIDI1_UART_rxAddressDetected - set to initial state (0).
 811:Generated_Source\PSoC4/MIDI1_UART.c ****     *
 812:Generated_Source\PSoC4/MIDI1_UART.c ****     *******************************************************************************/
 813:Generated_Source\PSoC4/MIDI1_UART.c ****     void MIDI1_UART_SetRxAddressMode(uint8 addressMode)
 814:Generated_Source\PSoC4/MIDI1_UART.c ****                                                         
 815:Generated_Source\PSoC4/MIDI1_UART.c ****     {
 817              		.loc 1 815 0
 818              		.cfi_startproc
 819              		@ args = 0, pretend = 0, frame = 0
 820              		@ frame_needed = 0, uses_anonymous_args = 0
 821              		@ link register save eliminated.
 822              	.LVL76:
 816:Generated_Source\PSoC4/MIDI1_UART.c ****         #if(MIDI1_UART_RXHW_ADDRESS_ENABLED)
 817:Generated_Source\PSoC4/MIDI1_UART.c ****             #if(MIDI1_UART_CONTROL_REG_REMOVED)
 818:Generated_Source\PSoC4/MIDI1_UART.c ****                 if(0u != addressMode)
 819:Generated_Source\PSoC4/MIDI1_UART.c ****                 {
 820:Generated_Source\PSoC4/MIDI1_UART.c ****                     /* Suppress compiler warning */
 821:Generated_Source\PSoC4/MIDI1_UART.c ****                 }
 822:Generated_Source\PSoC4/MIDI1_UART.c ****             #else /* MIDI1_UART_CONTROL_REG_REMOVED */
 823:Generated_Source\PSoC4/MIDI1_UART.c ****                 uint8 tmpCtrl;
ARM GAS  C:\Users\psmus\AppData\Local\Temp\ccyQO4JR.s 			page 30


 824:Generated_Source\PSoC4/MIDI1_UART.c ****                 tmpCtrl = MIDI1_UART_CONTROL_REG & (uint8)~MIDI1_UART_CTRL_RXADDR_MODE_MASK;
 825:Generated_Source\PSoC4/MIDI1_UART.c ****                 tmpCtrl |= (uint8)(addressMode << MIDI1_UART_CTRL_RXADDR_MODE0_SHIFT);
 826:Generated_Source\PSoC4/MIDI1_UART.c ****                 MIDI1_UART_CONTROL_REG = tmpCtrl;
 827:Generated_Source\PSoC4/MIDI1_UART.c **** 
 828:Generated_Source\PSoC4/MIDI1_UART.c ****                 #if(MIDI1_UART_RX_INTERRUPT_ENABLED && \
 829:Generated_Source\PSoC4/MIDI1_UART.c ****                    (MIDI1_UART_RXBUFFERSIZE > MIDI1_UART_FIFO_LENGTH) )
 830:Generated_Source\PSoC4/MIDI1_UART.c ****                     MIDI1_UART_rxAddressMode = addressMode;
 831:Generated_Source\PSoC4/MIDI1_UART.c ****                     MIDI1_UART_rxAddressDetected = 0u;
 832:Generated_Source\PSoC4/MIDI1_UART.c ****                 #endif /* End MIDI1_UART_RXBUFFERSIZE > MIDI1_UART_FIFO_LENGTH*/
 833:Generated_Source\PSoC4/MIDI1_UART.c ****             #endif /* End MIDI1_UART_CONTROL_REG_REMOVED */
 834:Generated_Source\PSoC4/MIDI1_UART.c ****         #else /* MIDI1_UART_RXHW_ADDRESS_ENABLED */
 835:Generated_Source\PSoC4/MIDI1_UART.c ****             if(0u != addressMode)
 836:Generated_Source\PSoC4/MIDI1_UART.c ****             {
 837:Generated_Source\PSoC4/MIDI1_UART.c ****                 /* Suppress compiler warning */
 838:Generated_Source\PSoC4/MIDI1_UART.c ****             }
 839:Generated_Source\PSoC4/MIDI1_UART.c ****         #endif /* End MIDI1_UART_RXHW_ADDRESS_ENABLED */
 840:Generated_Source\PSoC4/MIDI1_UART.c ****     }
 823              		.loc 1 840 0
 824              		@ sp needed
 825 0000 7047     		bx	lr
 826              		.cfi_endproc
 827              	.LFE14:
 828              		.size	MIDI1_UART_SetRxAddressMode, .-MIDI1_UART_SetRxAddressMode
 829 0002 C046     		.section	.text.MIDI1_UART_SetRxAddress1,"ax",%progbits
 830              		.align	2
 831              		.global	MIDI1_UART_SetRxAddress1
 832              		.code	16
 833              		.thumb_func
 834              		.type	MIDI1_UART_SetRxAddress1, %function
 835              	MIDI1_UART_SetRxAddress1:
 836              	.LFB15:
 841:Generated_Source\PSoC4/MIDI1_UART.c **** 
 842:Generated_Source\PSoC4/MIDI1_UART.c **** 
 843:Generated_Source\PSoC4/MIDI1_UART.c ****     /*******************************************************************************
 844:Generated_Source\PSoC4/MIDI1_UART.c ****     * Function Name: MIDI1_UART_SetRxAddress1
 845:Generated_Source\PSoC4/MIDI1_UART.c ****     ********************************************************************************
 846:Generated_Source\PSoC4/MIDI1_UART.c ****     *
 847:Generated_Source\PSoC4/MIDI1_UART.c ****     * Summary:
 848:Generated_Source\PSoC4/MIDI1_UART.c ****     *  Sets the first of two hardware-detectable receiver addresses.
 849:Generated_Source\PSoC4/MIDI1_UART.c ****     *
 850:Generated_Source\PSoC4/MIDI1_UART.c ****     * Parameters:
 851:Generated_Source\PSoC4/MIDI1_UART.c ****     *  address: Address #1 for hardware address detection.
 852:Generated_Source\PSoC4/MIDI1_UART.c ****     *
 853:Generated_Source\PSoC4/MIDI1_UART.c ****     * Return:
 854:Generated_Source\PSoC4/MIDI1_UART.c ****     *  None.
 855:Generated_Source\PSoC4/MIDI1_UART.c ****     *
 856:Generated_Source\PSoC4/MIDI1_UART.c ****     *******************************************************************************/
 857:Generated_Source\PSoC4/MIDI1_UART.c ****     void MIDI1_UART_SetRxAddress1(uint8 address) 
 858:Generated_Source\PSoC4/MIDI1_UART.c ****     {
 837              		.loc 1 858 0
 838              		.cfi_startproc
 839              		@ args = 0, pretend = 0, frame = 0
 840              		@ frame_needed = 0, uses_anonymous_args = 0
 841              		@ link register save eliminated.
 842              	.LVL77:
 859:Generated_Source\PSoC4/MIDI1_UART.c ****         MIDI1_UART_RXADDRESS1_REG = address;
 843              		.loc 1 859 0
ARM GAS  C:\Users\psmus\AppData\Local\Temp\ccyQO4JR.s 			page 31


 844 0000 014B     		ldr	r3, .L56
 845 0002 1870     		strb	r0, [r3]
 860:Generated_Source\PSoC4/MIDI1_UART.c ****     }
 846              		.loc 1 860 0
 847              		@ sp needed
 848 0004 7047     		bx	lr
 849              	.L57:
 850 0006 C046     		.align	2
 851              	.L56:
 852 0008 22000F40 		.word	1074724898
 853              		.cfi_endproc
 854              	.LFE15:
 855              		.size	MIDI1_UART_SetRxAddress1, .-MIDI1_UART_SetRxAddress1
 856              		.section	.text.MIDI1_UART_SetRxAddress2,"ax",%progbits
 857              		.align	2
 858              		.global	MIDI1_UART_SetRxAddress2
 859              		.code	16
 860              		.thumb_func
 861              		.type	MIDI1_UART_SetRxAddress2, %function
 862              	MIDI1_UART_SetRxAddress2:
 863              	.LFB16:
 861:Generated_Source\PSoC4/MIDI1_UART.c **** 
 862:Generated_Source\PSoC4/MIDI1_UART.c **** 
 863:Generated_Source\PSoC4/MIDI1_UART.c ****     /*******************************************************************************
 864:Generated_Source\PSoC4/MIDI1_UART.c ****     * Function Name: MIDI1_UART_SetRxAddress2
 865:Generated_Source\PSoC4/MIDI1_UART.c ****     ********************************************************************************
 866:Generated_Source\PSoC4/MIDI1_UART.c ****     *
 867:Generated_Source\PSoC4/MIDI1_UART.c ****     * Summary:
 868:Generated_Source\PSoC4/MIDI1_UART.c ****     *  Sets the second of two hardware-detectable receiver addresses.
 869:Generated_Source\PSoC4/MIDI1_UART.c ****     *
 870:Generated_Source\PSoC4/MIDI1_UART.c ****     * Parameters:
 871:Generated_Source\PSoC4/MIDI1_UART.c ****     *  address: Address #2 for hardware address detection.
 872:Generated_Source\PSoC4/MIDI1_UART.c ****     *
 873:Generated_Source\PSoC4/MIDI1_UART.c ****     * Return:
 874:Generated_Source\PSoC4/MIDI1_UART.c ****     *  None.
 875:Generated_Source\PSoC4/MIDI1_UART.c ****     *
 876:Generated_Source\PSoC4/MIDI1_UART.c ****     *******************************************************************************/
 877:Generated_Source\PSoC4/MIDI1_UART.c ****     void MIDI1_UART_SetRxAddress2(uint8 address) 
 878:Generated_Source\PSoC4/MIDI1_UART.c ****     {
 864              		.loc 1 878 0
 865              		.cfi_startproc
 866              		@ args = 0, pretend = 0, frame = 0
 867              		@ frame_needed = 0, uses_anonymous_args = 0
 868              		@ link register save eliminated.
 869              	.LVL78:
 879:Generated_Source\PSoC4/MIDI1_UART.c ****         MIDI1_UART_RXADDRESS2_REG = address;
 870              		.loc 1 879 0
 871 0000 014B     		ldr	r3, .L59
 872 0002 1870     		strb	r0, [r3]
 880:Generated_Source\PSoC4/MIDI1_UART.c ****     }
 873              		.loc 1 880 0
 874              		@ sp needed
 875 0004 7047     		bx	lr
 876              	.L60:
 877 0006 C046     		.align	2
 878              	.L59:
 879 0008 32000F40 		.word	1074724914
ARM GAS  C:\Users\psmus\AppData\Local\Temp\ccyQO4JR.s 			page 32


 880              		.cfi_endproc
 881              	.LFE16:
 882              		.size	MIDI1_UART_SetRxAddress2, .-MIDI1_UART_SetRxAddress2
 883              		.section	.text.MIDI1_UART_SetTxInterruptMode,"ax",%progbits
 884              		.align	2
 885              		.global	MIDI1_UART_SetTxInterruptMode
 886              		.code	16
 887              		.thumb_func
 888              		.type	MIDI1_UART_SetTxInterruptMode, %function
 889              	MIDI1_UART_SetTxInterruptMode:
 890              	.LFB17:
 881:Generated_Source\PSoC4/MIDI1_UART.c **** 
 882:Generated_Source\PSoC4/MIDI1_UART.c **** #endif  /* MIDI1_UART_RX_ENABLED || MIDI1_UART_HD_ENABLED*/
 883:Generated_Source\PSoC4/MIDI1_UART.c **** 
 884:Generated_Source\PSoC4/MIDI1_UART.c **** 
 885:Generated_Source\PSoC4/MIDI1_UART.c **** #if( (MIDI1_UART_TX_ENABLED) || (MIDI1_UART_HD_ENABLED) )
 886:Generated_Source\PSoC4/MIDI1_UART.c ****     /*******************************************************************************
 887:Generated_Source\PSoC4/MIDI1_UART.c ****     * Function Name: MIDI1_UART_SetTxInterruptMode
 888:Generated_Source\PSoC4/MIDI1_UART.c ****     ********************************************************************************
 889:Generated_Source\PSoC4/MIDI1_UART.c ****     *
 890:Generated_Source\PSoC4/MIDI1_UART.c ****     * Summary:
 891:Generated_Source\PSoC4/MIDI1_UART.c ****     *  Configures the TX interrupt sources to be enabled, but does not enable the
 892:Generated_Source\PSoC4/MIDI1_UART.c ****     *  interrupt.
 893:Generated_Source\PSoC4/MIDI1_UART.c ****     *
 894:Generated_Source\PSoC4/MIDI1_UART.c ****     * Parameters:
 895:Generated_Source\PSoC4/MIDI1_UART.c ****     *  intSrc: Bit field containing the TX interrupt sources to enable
 896:Generated_Source\PSoC4/MIDI1_UART.c ****     *   MIDI1_UART_TX_STS_COMPLETE        Interrupt on TX byte complete
 897:Generated_Source\PSoC4/MIDI1_UART.c ****     *   MIDI1_UART_TX_STS_FIFO_EMPTY      Interrupt when TX FIFO is empty
 898:Generated_Source\PSoC4/MIDI1_UART.c ****     *   MIDI1_UART_TX_STS_FIFO_FULL       Interrupt when TX FIFO is full
 899:Generated_Source\PSoC4/MIDI1_UART.c ****     *   MIDI1_UART_TX_STS_FIFO_NOT_FULL   Interrupt when TX FIFO is not full
 900:Generated_Source\PSoC4/MIDI1_UART.c ****     *
 901:Generated_Source\PSoC4/MIDI1_UART.c ****     * Return:
 902:Generated_Source\PSoC4/MIDI1_UART.c ****     *  None.
 903:Generated_Source\PSoC4/MIDI1_UART.c ****     *
 904:Generated_Source\PSoC4/MIDI1_UART.c ****     * Theory:
 905:Generated_Source\PSoC4/MIDI1_UART.c ****     *  Enables the output of specific status bits to the interrupt controller
 906:Generated_Source\PSoC4/MIDI1_UART.c ****     *
 907:Generated_Source\PSoC4/MIDI1_UART.c ****     *******************************************************************************/
 908:Generated_Source\PSoC4/MIDI1_UART.c ****     void MIDI1_UART_SetTxInterruptMode(uint8 intSrc) 
 909:Generated_Source\PSoC4/MIDI1_UART.c ****     {
 891              		.loc 1 909 0
 892              		.cfi_startproc
 893              		@ args = 0, pretend = 0, frame = 0
 894              		@ frame_needed = 0, uses_anonymous_args = 0
 895              		@ link register save eliminated.
 896              	.LVL79:
 910:Generated_Source\PSoC4/MIDI1_UART.c ****         MIDI1_UART_TXSTATUS_MASK_REG = intSrc;
 897              		.loc 1 910 0
 898 0000 014B     		ldr	r3, .L62
 899 0002 1870     		strb	r0, [r3]
 911:Generated_Source\PSoC4/MIDI1_UART.c ****     }
 900              		.loc 1 911 0
 901              		@ sp needed
 902 0004 7047     		bx	lr
 903              	.L63:
 904 0006 C046     		.align	2
 905              	.L62:
ARM GAS  C:\Users\psmus\AppData\Local\Temp\ccyQO4JR.s 			page 33


 906 0008 84000F40 		.word	1074724996
 907              		.cfi_endproc
 908              	.LFE17:
 909              		.size	MIDI1_UART_SetTxInterruptMode, .-MIDI1_UART_SetTxInterruptMode
 910              		.section	.text.MIDI1_UART_WriteTxData,"ax",%progbits
 911              		.align	2
 912              		.global	MIDI1_UART_WriteTxData
 913              		.code	16
 914              		.thumb_func
 915              		.type	MIDI1_UART_WriteTxData, %function
 916              	MIDI1_UART_WriteTxData:
 917              	.LFB18:
 912:Generated_Source\PSoC4/MIDI1_UART.c **** 
 913:Generated_Source\PSoC4/MIDI1_UART.c **** 
 914:Generated_Source\PSoC4/MIDI1_UART.c ****     /*******************************************************************************
 915:Generated_Source\PSoC4/MIDI1_UART.c ****     * Function Name: MIDI1_UART_WriteTxData
 916:Generated_Source\PSoC4/MIDI1_UART.c ****     ********************************************************************************
 917:Generated_Source\PSoC4/MIDI1_UART.c ****     *
 918:Generated_Source\PSoC4/MIDI1_UART.c ****     * Summary:
 919:Generated_Source\PSoC4/MIDI1_UART.c ****     *  Places a byte of data into the transmit buffer to be sent when the bus is
 920:Generated_Source\PSoC4/MIDI1_UART.c ****     *  available without checking the TX status register. You must check status
 921:Generated_Source\PSoC4/MIDI1_UART.c ****     *  separately.
 922:Generated_Source\PSoC4/MIDI1_UART.c ****     *
 923:Generated_Source\PSoC4/MIDI1_UART.c ****     * Parameters:
 924:Generated_Source\PSoC4/MIDI1_UART.c ****     *  txDataByte: data byte
 925:Generated_Source\PSoC4/MIDI1_UART.c ****     *
 926:Generated_Source\PSoC4/MIDI1_UART.c ****     * Return:
 927:Generated_Source\PSoC4/MIDI1_UART.c ****     * None.
 928:Generated_Source\PSoC4/MIDI1_UART.c ****     *
 929:Generated_Source\PSoC4/MIDI1_UART.c ****     * Global Variables:
 930:Generated_Source\PSoC4/MIDI1_UART.c ****     *  MIDI1_UART_txBuffer - RAM buffer pointer for save data for transmission
 931:Generated_Source\PSoC4/MIDI1_UART.c ****     *  MIDI1_UART_txBufferWrite - cyclic index for write to txBuffer,
 932:Generated_Source\PSoC4/MIDI1_UART.c ****     *    incremented after each byte saved to buffer.
 933:Generated_Source\PSoC4/MIDI1_UART.c ****     *  MIDI1_UART_txBufferRead - cyclic index for read from txBuffer,
 934:Generated_Source\PSoC4/MIDI1_UART.c ****     *    checked to identify the condition to write to FIFO directly or to TX buffer
 935:Generated_Source\PSoC4/MIDI1_UART.c ****     *  MIDI1_UART_initVar - checked to identify that the component has been
 936:Generated_Source\PSoC4/MIDI1_UART.c ****     *    initialized.
 937:Generated_Source\PSoC4/MIDI1_UART.c ****     *
 938:Generated_Source\PSoC4/MIDI1_UART.c ****     * Reentrant:
 939:Generated_Source\PSoC4/MIDI1_UART.c ****     *  No.
 940:Generated_Source\PSoC4/MIDI1_UART.c ****     *
 941:Generated_Source\PSoC4/MIDI1_UART.c ****     *******************************************************************************/
 942:Generated_Source\PSoC4/MIDI1_UART.c ****     void MIDI1_UART_WriteTxData(uint8 txDataByte) 
 943:Generated_Source\PSoC4/MIDI1_UART.c ****     {
 918              		.loc 1 943 0
 919              		.cfi_startproc
 920              		@ args = 0, pretend = 0, frame = 0
 921              		@ frame_needed = 0, uses_anonymous_args = 0
 922              	.LVL80:
 923 0000 10B5     		push	{r4, lr}
 924              		.cfi_def_cfa_offset 8
 925              		.cfi_offset 4, -8
 926              		.cfi_offset 14, -4
 927 0002 0400     		movs	r4, r0
 944:Generated_Source\PSoC4/MIDI1_UART.c ****         /* If not Initialized then skip this function*/
 945:Generated_Source\PSoC4/MIDI1_UART.c ****         if(MIDI1_UART_initVar != 0u)
 928              		.loc 1 945 0
ARM GAS  C:\Users\psmus\AppData\Local\Temp\ccyQO4JR.s 			page 34


 929 0004 114B     		ldr	r3, .L69
 930 0006 5B78     		ldrb	r3, [r3, #1]
 931 0008 002B     		cmp	r3, #0
 932 000a 1DD0     		beq	.L64
 946:Generated_Source\PSoC4/MIDI1_UART.c ****         {
 947:Generated_Source\PSoC4/MIDI1_UART.c ****         #if (MIDI1_UART_TX_INTERRUPT_ENABLED)
 948:Generated_Source\PSoC4/MIDI1_UART.c **** 
 949:Generated_Source\PSoC4/MIDI1_UART.c ****             /* Protect variables that could change on interrupt. */
 950:Generated_Source\PSoC4/MIDI1_UART.c ****             MIDI1_UART_DisableTxInt();
 933              		.loc 1 950 0
 934 000c 0120     		movs	r0, #1
 935              	.LVL81:
 936 000e FFF7FEFF 		bl	CyIntDisable
 937              	.LVL82:
 951:Generated_Source\PSoC4/MIDI1_UART.c **** 
 952:Generated_Source\PSoC4/MIDI1_UART.c ****             if( (MIDI1_UART_txBufferRead == MIDI1_UART_txBufferWrite) &&
 938              		.loc 1 952 0
 939 0012 0E4A     		ldr	r2, .L69
 940 0014 9379     		ldrb	r3, [r2, #6]
 941 0016 DBB2     		uxtb	r3, r3
 942 0018 D279     		ldrb	r2, [r2, #7]
 943 001a 9342     		cmp	r3, r2
 944 001c 06D1     		bne	.L66
 953:Generated_Source\PSoC4/MIDI1_UART.c ****                 ((MIDI1_UART_TXSTATUS_REG & MIDI1_UART_TX_STS_FIFO_FULL) == 0u) )
 945              		.loc 1 953 0 discriminator 1
 946 001e 0C4B     		ldr	r3, .L69+4
 947 0020 1B78     		ldrb	r3, [r3]
 952:Generated_Source\PSoC4/MIDI1_UART.c ****                 ((MIDI1_UART_TXSTATUS_REG & MIDI1_UART_TX_STS_FIFO_FULL) == 0u) )
 948              		.loc 1 952 0 discriminator 1
 949 0022 5B07     		lsls	r3, r3, #29
 950 0024 02D4     		bmi	.L66
 954:Generated_Source\PSoC4/MIDI1_UART.c ****             {
 955:Generated_Source\PSoC4/MIDI1_UART.c ****                 /* Add directly to the FIFO. */
 956:Generated_Source\PSoC4/MIDI1_UART.c ****                 MIDI1_UART_TXDATA_REG = txDataByte;
 951              		.loc 1 956 0
 952 0026 0B4B     		ldr	r3, .L69+8
 953 0028 1C70     		strb	r4, [r3]
 954 002a 0AE0     		b	.L67
 955              	.L66:
 957:Generated_Source\PSoC4/MIDI1_UART.c ****             }
 958:Generated_Source\PSoC4/MIDI1_UART.c ****             else
 959:Generated_Source\PSoC4/MIDI1_UART.c ****             {
 960:Generated_Source\PSoC4/MIDI1_UART.c ****                 if(MIDI1_UART_txBufferWrite >= MIDI1_UART_TX_BUFFER_SIZE)
 956              		.loc 1 960 0
 957 002c 3F2A     		cmp	r2, #63
 958 002e 02D9     		bls	.L68
 961:Generated_Source\PSoC4/MIDI1_UART.c ****                 {
 962:Generated_Source\PSoC4/MIDI1_UART.c ****                     MIDI1_UART_txBufferWrite = 0u;
 959              		.loc 1 962 0
 960 0030 0022     		movs	r2, #0
 961 0032 064B     		ldr	r3, .L69
 962 0034 DA71     		strb	r2, [r3, #7]
 963              	.L68:
 963:Generated_Source\PSoC4/MIDI1_UART.c ****                 }
 964:Generated_Source\PSoC4/MIDI1_UART.c **** 
 965:Generated_Source\PSoC4/MIDI1_UART.c ****                 MIDI1_UART_txBuffer[MIDI1_UART_txBufferWrite] = txDataByte;
 964              		.loc 1 965 0
ARM GAS  C:\Users\psmus\AppData\Local\Temp\ccyQO4JR.s 			page 35


 965 0036 054A     		ldr	r2, .L69
 966 0038 D379     		ldrb	r3, [r2, #7]
 967 003a 0749     		ldr	r1, .L69+12
 968 003c CC54     		strb	r4, [r1, r3]
 966:Generated_Source\PSoC4/MIDI1_UART.c **** 
 967:Generated_Source\PSoC4/MIDI1_UART.c ****                 /* Add to the software buffer. */
 968:Generated_Source\PSoC4/MIDI1_UART.c ****                 MIDI1_UART_txBufferWrite++;
 969              		.loc 1 968 0
 970 003e 0133     		adds	r3, r3, #1
 971 0040 D371     		strb	r3, [r2, #7]
 972              	.L67:
 969:Generated_Source\PSoC4/MIDI1_UART.c ****             }
 970:Generated_Source\PSoC4/MIDI1_UART.c **** 
 971:Generated_Source\PSoC4/MIDI1_UART.c ****             MIDI1_UART_EnableTxInt();
 973              		.loc 1 971 0
 974 0042 0120     		movs	r0, #1
 975 0044 FFF7FEFF 		bl	CyIntEnable
 976              	.LVL83:
 977              	.L64:
 972:Generated_Source\PSoC4/MIDI1_UART.c **** 
 973:Generated_Source\PSoC4/MIDI1_UART.c ****         #else
 974:Generated_Source\PSoC4/MIDI1_UART.c **** 
 975:Generated_Source\PSoC4/MIDI1_UART.c ****             /* Add directly to the FIFO. */
 976:Generated_Source\PSoC4/MIDI1_UART.c ****             MIDI1_UART_TXDATA_REG = txDataByte;
 977:Generated_Source\PSoC4/MIDI1_UART.c **** 
 978:Generated_Source\PSoC4/MIDI1_UART.c ****         #endif /*(MIDI1_UART_TX_INTERRUPT_ENABLED) */
 979:Generated_Source\PSoC4/MIDI1_UART.c ****         }
 980:Generated_Source\PSoC4/MIDI1_UART.c ****     }
 978              		.loc 1 980 0
 979              		@ sp needed
 980 0048 10BD     		pop	{r4, pc}
 981              	.L70:
 982 004a C046     		.align	2
 983              	.L69:
 984 004c 00000000 		.word	.LANCHOR0
 985 0050 64000F40 		.word	1074724964
 986 0054 47000F40 		.word	1074724935
 987 0058 00000000 		.word	MIDI1_UART_txBuffer
 988              		.cfi_endproc
 989              	.LFE18:
 990              		.size	MIDI1_UART_WriteTxData, .-MIDI1_UART_WriteTxData
 991              		.section	.text.MIDI1_UART_ReadTxStatus,"ax",%progbits
 992              		.align	2
 993              		.global	MIDI1_UART_ReadTxStatus
 994              		.code	16
 995              		.thumb_func
 996              		.type	MIDI1_UART_ReadTxStatus, %function
 997              	MIDI1_UART_ReadTxStatus:
 998              	.LFB19:
 981:Generated_Source\PSoC4/MIDI1_UART.c **** 
 982:Generated_Source\PSoC4/MIDI1_UART.c **** 
 983:Generated_Source\PSoC4/MIDI1_UART.c ****     /*******************************************************************************
 984:Generated_Source\PSoC4/MIDI1_UART.c ****     * Function Name: MIDI1_UART_ReadTxStatus
 985:Generated_Source\PSoC4/MIDI1_UART.c ****     ********************************************************************************
 986:Generated_Source\PSoC4/MIDI1_UART.c ****     *
 987:Generated_Source\PSoC4/MIDI1_UART.c ****     * Summary:
 988:Generated_Source\PSoC4/MIDI1_UART.c ****     *  Reads the status register for the TX portion of the UART.
ARM GAS  C:\Users\psmus\AppData\Local\Temp\ccyQO4JR.s 			page 36


 989:Generated_Source\PSoC4/MIDI1_UART.c ****     *
 990:Generated_Source\PSoC4/MIDI1_UART.c ****     * Parameters:
 991:Generated_Source\PSoC4/MIDI1_UART.c ****     *  None.
 992:Generated_Source\PSoC4/MIDI1_UART.c ****     *
 993:Generated_Source\PSoC4/MIDI1_UART.c ****     * Return:
 994:Generated_Source\PSoC4/MIDI1_UART.c ****     *  Contents of the status register
 995:Generated_Source\PSoC4/MIDI1_UART.c ****     *
 996:Generated_Source\PSoC4/MIDI1_UART.c ****     * Theory:
 997:Generated_Source\PSoC4/MIDI1_UART.c ****     *  This function reads the TX status register, which is cleared on read.
 998:Generated_Source\PSoC4/MIDI1_UART.c ****     *  It is up to the user to handle all bits in this return value accordingly,
 999:Generated_Source\PSoC4/MIDI1_UART.c ****     *  even if the bit was not enabled as an interrupt source the event happened
1000:Generated_Source\PSoC4/MIDI1_UART.c ****     *  and must be handled accordingly.
1001:Generated_Source\PSoC4/MIDI1_UART.c ****     *
1002:Generated_Source\PSoC4/MIDI1_UART.c ****     *******************************************************************************/
1003:Generated_Source\PSoC4/MIDI1_UART.c ****     uint8 MIDI1_UART_ReadTxStatus(void) 
1004:Generated_Source\PSoC4/MIDI1_UART.c ****     {
 999              		.loc 1 1004 0
 1000              		.cfi_startproc
 1001              		@ args = 0, pretend = 0, frame = 0
 1002              		@ frame_needed = 0, uses_anonymous_args = 0
 1003              		@ link register save eliminated.
1005:Generated_Source\PSoC4/MIDI1_UART.c ****         return(MIDI1_UART_TXSTATUS_REG);
 1004              		.loc 1 1005 0
 1005 0000 014B     		ldr	r3, .L72
 1006 0002 1878     		ldrb	r0, [r3]
 1007 0004 C0B2     		uxtb	r0, r0
1006:Generated_Source\PSoC4/MIDI1_UART.c ****     }
 1008              		.loc 1 1006 0
 1009              		@ sp needed
 1010 0006 7047     		bx	lr
 1011              	.L73:
 1012              		.align	2
 1013              	.L72:
 1014 0008 64000F40 		.word	1074724964
 1015              		.cfi_endproc
 1016              	.LFE19:
 1017              		.size	MIDI1_UART_ReadTxStatus, .-MIDI1_UART_ReadTxStatus
 1018              		.section	.text.MIDI1_UART_PutChar,"ax",%progbits
 1019              		.align	2
 1020              		.global	MIDI1_UART_PutChar
 1021              		.code	16
 1022              		.thumb_func
 1023              		.type	MIDI1_UART_PutChar, %function
 1024              	MIDI1_UART_PutChar:
 1025              	.LFB20:
1007:Generated_Source\PSoC4/MIDI1_UART.c **** 
1008:Generated_Source\PSoC4/MIDI1_UART.c **** 
1009:Generated_Source\PSoC4/MIDI1_UART.c ****     /*******************************************************************************
1010:Generated_Source\PSoC4/MIDI1_UART.c ****     * Function Name: MIDI1_UART_PutChar
1011:Generated_Source\PSoC4/MIDI1_UART.c ****     ********************************************************************************
1012:Generated_Source\PSoC4/MIDI1_UART.c ****     *
1013:Generated_Source\PSoC4/MIDI1_UART.c ****     * Summary:
1014:Generated_Source\PSoC4/MIDI1_UART.c ****     *  Puts a byte of data into the transmit buffer to be sent when the bus is
1015:Generated_Source\PSoC4/MIDI1_UART.c ****     *  available. This is a blocking API that waits until the TX buffer has room to
1016:Generated_Source\PSoC4/MIDI1_UART.c ****     *  hold the data.
1017:Generated_Source\PSoC4/MIDI1_UART.c ****     *
1018:Generated_Source\PSoC4/MIDI1_UART.c ****     * Parameters:
ARM GAS  C:\Users\psmus\AppData\Local\Temp\ccyQO4JR.s 			page 37


1019:Generated_Source\PSoC4/MIDI1_UART.c ****     *  txDataByte: Byte containing the data to transmit
1020:Generated_Source\PSoC4/MIDI1_UART.c ****     *
1021:Generated_Source\PSoC4/MIDI1_UART.c ****     * Return:
1022:Generated_Source\PSoC4/MIDI1_UART.c ****     *  None.
1023:Generated_Source\PSoC4/MIDI1_UART.c ****     *
1024:Generated_Source\PSoC4/MIDI1_UART.c ****     * Global Variables:
1025:Generated_Source\PSoC4/MIDI1_UART.c ****     *  MIDI1_UART_txBuffer - RAM buffer pointer for save data for transmission
1026:Generated_Source\PSoC4/MIDI1_UART.c ****     *  MIDI1_UART_txBufferWrite - cyclic index for write to txBuffer,
1027:Generated_Source\PSoC4/MIDI1_UART.c ****     *     checked to identify free space in txBuffer and incremented after each byte
1028:Generated_Source\PSoC4/MIDI1_UART.c ****     *     saved to buffer.
1029:Generated_Source\PSoC4/MIDI1_UART.c ****     *  MIDI1_UART_txBufferRead - cyclic index for read from txBuffer,
1030:Generated_Source\PSoC4/MIDI1_UART.c ****     *     checked to identify free space in txBuffer.
1031:Generated_Source\PSoC4/MIDI1_UART.c ****     *  MIDI1_UART_initVar - checked to identify that the component has been
1032:Generated_Source\PSoC4/MIDI1_UART.c ****     *     initialized.
1033:Generated_Source\PSoC4/MIDI1_UART.c ****     *
1034:Generated_Source\PSoC4/MIDI1_UART.c ****     * Reentrant:
1035:Generated_Source\PSoC4/MIDI1_UART.c ****     *  No.
1036:Generated_Source\PSoC4/MIDI1_UART.c ****     *
1037:Generated_Source\PSoC4/MIDI1_UART.c ****     * Theory:
1038:Generated_Source\PSoC4/MIDI1_UART.c ****     *  Allows the user to transmit any byte of data in a single transfer
1039:Generated_Source\PSoC4/MIDI1_UART.c ****     *
1040:Generated_Source\PSoC4/MIDI1_UART.c ****     *******************************************************************************/
1041:Generated_Source\PSoC4/MIDI1_UART.c ****     void MIDI1_UART_PutChar(uint8 txDataByte) 
1042:Generated_Source\PSoC4/MIDI1_UART.c ****     {
 1026              		.loc 1 1042 0
 1027              		.cfi_startproc
 1028              		@ args = 0, pretend = 0, frame = 0
 1029              		@ frame_needed = 0, uses_anonymous_args = 0
 1030              	.LVL84:
 1031 0000 10B5     		push	{r4, lr}
 1032              		.cfi_def_cfa_offset 8
 1033              		.cfi_offset 4, -8
 1034              		.cfi_offset 14, -4
 1035              	.L77:
1043:Generated_Source\PSoC4/MIDI1_UART.c ****     #if (MIDI1_UART_TX_INTERRUPT_ENABLED)
1044:Generated_Source\PSoC4/MIDI1_UART.c ****         /* The temporary output pointer is used since it takes two instructions
1045:Generated_Source\PSoC4/MIDI1_UART.c ****         *  to increment with a wrap, and we can't risk doing that with the real
1046:Generated_Source\PSoC4/MIDI1_UART.c ****         *  pointer and getting an interrupt in between instructions.
1047:Generated_Source\PSoC4/MIDI1_UART.c ****         */
1048:Generated_Source\PSoC4/MIDI1_UART.c ****         uint8 locTxBufferWrite;
1049:Generated_Source\PSoC4/MIDI1_UART.c ****         uint8 locTxBufferRead;
1050:Generated_Source\PSoC4/MIDI1_UART.c **** 
1051:Generated_Source\PSoC4/MIDI1_UART.c ****         do
1052:Generated_Source\PSoC4/MIDI1_UART.c ****         { /* Block if software buffer is full, so we don't overwrite. */
1053:Generated_Source\PSoC4/MIDI1_UART.c **** 
1054:Generated_Source\PSoC4/MIDI1_UART.c ****         #if ((MIDI1_UART_TX_BUFFER_SIZE > MIDI1_UART_MAX_BYTE_VALUE) && (CY_PSOC3))
1055:Generated_Source\PSoC4/MIDI1_UART.c ****             /* Disable TX interrupt to protect variables from modification */
1056:Generated_Source\PSoC4/MIDI1_UART.c ****             MIDI1_UART_DisableTxInt();
1057:Generated_Source\PSoC4/MIDI1_UART.c ****         #endif /* (MIDI1_UART_TX_BUFFER_SIZE > MIDI1_UART_MAX_BYTE_VALUE) && (CY_PSOC3) */
1058:Generated_Source\PSoC4/MIDI1_UART.c **** 
1059:Generated_Source\PSoC4/MIDI1_UART.c ****             locTxBufferWrite = MIDI1_UART_txBufferWrite;
 1036              		.loc 1 1059 0
 1037 0002 164B     		ldr	r3, .L82
 1038 0004 D979     		ldrb	r1, [r3, #7]
 1039              	.LVL85:
1060:Generated_Source\PSoC4/MIDI1_UART.c ****             locTxBufferRead  = MIDI1_UART_txBufferRead;
 1040              		.loc 1 1060 0
ARM GAS  C:\Users\psmus\AppData\Local\Temp\ccyQO4JR.s 			page 38


 1041 0006 9A79     		ldrb	r2, [r3, #6]
 1042 0008 D2B2     		uxtb	r2, r2
 1043              	.LVL86:
1061:Generated_Source\PSoC4/MIDI1_UART.c **** 
1062:Generated_Source\PSoC4/MIDI1_UART.c ****         #if ((MIDI1_UART_TX_BUFFER_SIZE > MIDI1_UART_MAX_BYTE_VALUE) && (CY_PSOC3))
1063:Generated_Source\PSoC4/MIDI1_UART.c ****             /* Enable interrupt to continue transmission */
1064:Generated_Source\PSoC4/MIDI1_UART.c ****             MIDI1_UART_EnableTxInt();
1065:Generated_Source\PSoC4/MIDI1_UART.c ****         #endif /* (MIDI1_UART_TX_BUFFER_SIZE > MIDI1_UART_MAX_BYTE_VALUE) && (CY_PSOC3) */
1066:Generated_Source\PSoC4/MIDI1_UART.c ****         }
1067:Generated_Source\PSoC4/MIDI1_UART.c ****         while( (locTxBufferWrite < locTxBufferRead) ? (locTxBufferWrite == (locTxBufferRead - 1u)) 
 1044              		.loc 1 1067 0
 1045 000a 9142     		cmp	r1, r2
 1046 000c 05D2     		bcs	.L75
 1047              		.loc 1 1067 0 is_stmt 0 discriminator 1
 1048 000e 531E     		subs	r3, r2, #1
 1049 0010 CB1A     		subs	r3, r1, r3
 1050 0012 5C42     		rsbs	r4, r3, #0
 1051 0014 6341     		adcs	r3, r3, r4
 1052 0016 DBB2     		uxtb	r3, r3
 1053 0018 04E0     		b	.L76
 1054              	.L75:
1068:Generated_Source\PSoC4/MIDI1_UART.c ****                                 ((locTxBufferWrite - locTxBufferRead) ==
 1055              		.loc 1 1068 0 is_stmt 1 discriminator 2
 1056 001a 8B1A     		subs	r3, r1, r2
1067:Generated_Source\PSoC4/MIDI1_UART.c ****                                 ((locTxBufferWrite - locTxBufferRead) ==
 1057              		.loc 1 1067 0 discriminator 2
 1058 001c 3F3B     		subs	r3, r3, #63
 1059 001e 5C42     		rsbs	r4, r3, #0
 1060 0020 6341     		adcs	r3, r3, r4
 1061 0022 DBB2     		uxtb	r3, r3
 1062              	.L76:
1069:Generated_Source\PSoC4/MIDI1_UART.c ****                                 (uint8)(MIDI1_UART_TX_BUFFER_SIZE - 1u)) );
 1063              		.loc 1 1069 0
 1064 0024 002B     		cmp	r3, #0
 1065 0026 ECD1     		bne	.L77
1070:Generated_Source\PSoC4/MIDI1_UART.c **** 
1071:Generated_Source\PSoC4/MIDI1_UART.c ****         if( (locTxBufferRead == locTxBufferWrite) &&
 1066              		.loc 1 1071 0
 1067 0028 9142     		cmp	r1, r2
 1068 002a 06D1     		bne	.L78
1072:Generated_Source\PSoC4/MIDI1_UART.c ****             ((MIDI1_UART_TXSTATUS_REG & MIDI1_UART_TX_STS_FIFO_FULL) == 0u) )
 1069              		.loc 1 1072 0 discriminator 1
 1070 002c 0C4B     		ldr	r3, .L82+4
 1071 002e 1B78     		ldrb	r3, [r3]
1071:Generated_Source\PSoC4/MIDI1_UART.c ****             ((MIDI1_UART_TXSTATUS_REG & MIDI1_UART_TX_STS_FIFO_FULL) == 0u) )
 1072              		.loc 1 1071 0 discriminator 1
 1073 0030 5B07     		lsls	r3, r3, #29
 1074 0032 02D4     		bmi	.L78
1073:Generated_Source\PSoC4/MIDI1_UART.c ****         {
1074:Generated_Source\PSoC4/MIDI1_UART.c ****             /* Add directly to the FIFO */
1075:Generated_Source\PSoC4/MIDI1_UART.c ****             MIDI1_UART_TXDATA_REG = txDataByte;
 1075              		.loc 1 1075 0
 1076 0034 0B4B     		ldr	r3, .L82+8
 1077 0036 1870     		strb	r0, [r3]
 1078 0038 0EE0     		b	.L74
 1079              	.L78:
1076:Generated_Source\PSoC4/MIDI1_UART.c ****         }
ARM GAS  C:\Users\psmus\AppData\Local\Temp\ccyQO4JR.s 			page 39


1077:Generated_Source\PSoC4/MIDI1_UART.c ****         else
1078:Generated_Source\PSoC4/MIDI1_UART.c ****         {
1079:Generated_Source\PSoC4/MIDI1_UART.c ****             if(locTxBufferWrite >= MIDI1_UART_TX_BUFFER_SIZE)
 1080              		.loc 1 1079 0
 1081 003a 3F29     		cmp	r1, #63
 1082 003c 00D9     		bls	.L80
1080:Generated_Source\PSoC4/MIDI1_UART.c ****             {
1081:Generated_Source\PSoC4/MIDI1_UART.c ****                 locTxBufferWrite = 0u;
 1083              		.loc 1 1081 0
 1084 003e 0021     		movs	r1, #0
 1085              	.LVL87:
 1086              	.L80:
1082:Generated_Source\PSoC4/MIDI1_UART.c ****             }
1083:Generated_Source\PSoC4/MIDI1_UART.c ****             /* Add to the software buffer. */
1084:Generated_Source\PSoC4/MIDI1_UART.c ****             MIDI1_UART_txBuffer[locTxBufferWrite] = txDataByte;
 1087              		.loc 1 1084 0
 1088 0040 094B     		ldr	r3, .L82+12
 1089 0042 5854     		strb	r0, [r3, r1]
1085:Generated_Source\PSoC4/MIDI1_UART.c ****             locTxBufferWrite++;
 1090              		.loc 1 1085 0
 1091 0044 0131     		adds	r1, r1, #1
 1092              	.LVL88:
1086:Generated_Source\PSoC4/MIDI1_UART.c **** 
1087:Generated_Source\PSoC4/MIDI1_UART.c ****             /* Finally, update the real output pointer */
1088:Generated_Source\PSoC4/MIDI1_UART.c ****         #if ((MIDI1_UART_TX_BUFFER_SIZE > MIDI1_UART_MAX_BYTE_VALUE) && (CY_PSOC3))
1089:Generated_Source\PSoC4/MIDI1_UART.c ****             MIDI1_UART_DisableTxInt();
1090:Generated_Source\PSoC4/MIDI1_UART.c ****         #endif /* (MIDI1_UART_TX_BUFFER_SIZE > MIDI1_UART_MAX_BYTE_VALUE) && (CY_PSOC3) */
1091:Generated_Source\PSoC4/MIDI1_UART.c **** 
1092:Generated_Source\PSoC4/MIDI1_UART.c ****             MIDI1_UART_txBufferWrite = locTxBufferWrite;
 1093              		.loc 1 1092 0
 1094 0046 054B     		ldr	r3, .L82
 1095 0048 D971     		strb	r1, [r3, #7]
1093:Generated_Source\PSoC4/MIDI1_UART.c **** 
1094:Generated_Source\PSoC4/MIDI1_UART.c ****         #if ((MIDI1_UART_TX_BUFFER_SIZE > MIDI1_UART_MAX_BYTE_VALUE) && (CY_PSOC3))
1095:Generated_Source\PSoC4/MIDI1_UART.c ****             MIDI1_UART_EnableTxInt();
1096:Generated_Source\PSoC4/MIDI1_UART.c ****         #endif /* (MIDI1_UART_TX_BUFFER_SIZE > MIDI1_UART_MAX_BYTE_VALUE) && (CY_PSOC3) */
1097:Generated_Source\PSoC4/MIDI1_UART.c **** 
1098:Generated_Source\PSoC4/MIDI1_UART.c ****             if(0u != (MIDI1_UART_TXSTATUS_REG & MIDI1_UART_TX_STS_FIFO_EMPTY))
 1096              		.loc 1 1098 0
 1097 004a 054B     		ldr	r3, .L82+4
 1098 004c 1B78     		ldrb	r3, [r3]
 1099 004e 9B07     		lsls	r3, r3, #30
 1100 0050 02D5     		bpl	.L74
1099:Generated_Source\PSoC4/MIDI1_UART.c ****             {
1100:Generated_Source\PSoC4/MIDI1_UART.c ****                 /* Trigger TX interrupt to send software buffer */
1101:Generated_Source\PSoC4/MIDI1_UART.c ****                 MIDI1_UART_SetPendingTxInt();
 1101              		.loc 1 1101 0
 1102 0052 0120     		movs	r0, #1
 1103              	.LVL89:
 1104 0054 FFF7FEFF 		bl	CyIntSetPending
 1105              	.LVL90:
 1106              	.L74:
1102:Generated_Source\PSoC4/MIDI1_UART.c ****             }
1103:Generated_Source\PSoC4/MIDI1_UART.c ****         }
1104:Generated_Source\PSoC4/MIDI1_UART.c **** 
1105:Generated_Source\PSoC4/MIDI1_UART.c ****     #else
1106:Generated_Source\PSoC4/MIDI1_UART.c **** 
ARM GAS  C:\Users\psmus\AppData\Local\Temp\ccyQO4JR.s 			page 40


1107:Generated_Source\PSoC4/MIDI1_UART.c ****         while((MIDI1_UART_TXSTATUS_REG & MIDI1_UART_TX_STS_FIFO_FULL) != 0u)
1108:Generated_Source\PSoC4/MIDI1_UART.c ****         {
1109:Generated_Source\PSoC4/MIDI1_UART.c ****             /* Wait for room in the FIFO */
1110:Generated_Source\PSoC4/MIDI1_UART.c ****         }
1111:Generated_Source\PSoC4/MIDI1_UART.c **** 
1112:Generated_Source\PSoC4/MIDI1_UART.c ****         /* Add directly to the FIFO */
1113:Generated_Source\PSoC4/MIDI1_UART.c ****         MIDI1_UART_TXDATA_REG = txDataByte;
1114:Generated_Source\PSoC4/MIDI1_UART.c **** 
1115:Generated_Source\PSoC4/MIDI1_UART.c ****     #endif /* MIDI1_UART_TX_INTERRUPT_ENABLED */
1116:Generated_Source\PSoC4/MIDI1_UART.c ****     }
 1107              		.loc 1 1116 0
 1108              		@ sp needed
 1109 0058 10BD     		pop	{r4, pc}
 1110              	.L83:
 1111 005a C046     		.align	2
 1112              	.L82:
 1113 005c 00000000 		.word	.LANCHOR0
 1114 0060 64000F40 		.word	1074724964
 1115 0064 47000F40 		.word	1074724935
 1116 0068 00000000 		.word	MIDI1_UART_txBuffer
 1117              		.cfi_endproc
 1118              	.LFE20:
 1119              		.size	MIDI1_UART_PutChar, .-MIDI1_UART_PutChar
 1120              		.section	.text.MIDI1_UART_PutString,"ax",%progbits
 1121              		.align	2
 1122              		.global	MIDI1_UART_PutString
 1123              		.code	16
 1124              		.thumb_func
 1125              		.type	MIDI1_UART_PutString, %function
 1126              	MIDI1_UART_PutString:
 1127              	.LFB21:
1117:Generated_Source\PSoC4/MIDI1_UART.c **** 
1118:Generated_Source\PSoC4/MIDI1_UART.c **** 
1119:Generated_Source\PSoC4/MIDI1_UART.c ****     /*******************************************************************************
1120:Generated_Source\PSoC4/MIDI1_UART.c ****     * Function Name: MIDI1_UART_PutString
1121:Generated_Source\PSoC4/MIDI1_UART.c ****     ********************************************************************************
1122:Generated_Source\PSoC4/MIDI1_UART.c ****     *
1123:Generated_Source\PSoC4/MIDI1_UART.c ****     * Summary:
1124:Generated_Source\PSoC4/MIDI1_UART.c ****     *  Sends a NULL terminated string to the TX buffer for transmission.
1125:Generated_Source\PSoC4/MIDI1_UART.c ****     *
1126:Generated_Source\PSoC4/MIDI1_UART.c ****     * Parameters:
1127:Generated_Source\PSoC4/MIDI1_UART.c ****     *  string[]: Pointer to the null terminated string array residing in RAM or ROM
1128:Generated_Source\PSoC4/MIDI1_UART.c ****     *
1129:Generated_Source\PSoC4/MIDI1_UART.c ****     * Return:
1130:Generated_Source\PSoC4/MIDI1_UART.c ****     *  None.
1131:Generated_Source\PSoC4/MIDI1_UART.c ****     *
1132:Generated_Source\PSoC4/MIDI1_UART.c ****     * Global Variables:
1133:Generated_Source\PSoC4/MIDI1_UART.c ****     *  MIDI1_UART_initVar - checked to identify that the component has been
1134:Generated_Source\PSoC4/MIDI1_UART.c ****     *     initialized.
1135:Generated_Source\PSoC4/MIDI1_UART.c ****     *
1136:Generated_Source\PSoC4/MIDI1_UART.c ****     * Reentrant:
1137:Generated_Source\PSoC4/MIDI1_UART.c ****     *  No.
1138:Generated_Source\PSoC4/MIDI1_UART.c ****     *
1139:Generated_Source\PSoC4/MIDI1_UART.c ****     * Theory:
1140:Generated_Source\PSoC4/MIDI1_UART.c ****     *  If there is not enough memory in the TX buffer for the entire string, this
1141:Generated_Source\PSoC4/MIDI1_UART.c ****     *  function blocks until the last character of the string is loaded into the
1142:Generated_Source\PSoC4/MIDI1_UART.c ****     *  TX buffer.
ARM GAS  C:\Users\psmus\AppData\Local\Temp\ccyQO4JR.s 			page 41


1143:Generated_Source\PSoC4/MIDI1_UART.c ****     *
1144:Generated_Source\PSoC4/MIDI1_UART.c ****     *******************************************************************************/
1145:Generated_Source\PSoC4/MIDI1_UART.c ****     void MIDI1_UART_PutString(const char8 string[]) 
1146:Generated_Source\PSoC4/MIDI1_UART.c ****     {
 1128              		.loc 1 1146 0
 1129              		.cfi_startproc
 1130              		@ args = 0, pretend = 0, frame = 0
 1131              		@ frame_needed = 0, uses_anonymous_args = 0
 1132              	.LVL91:
 1133 0000 70B5     		push	{r4, r5, r6, lr}
 1134              		.cfi_def_cfa_offset 16
 1135              		.cfi_offset 4, -16
 1136              		.cfi_offset 5, -12
 1137              		.cfi_offset 6, -8
 1138              		.cfi_offset 14, -4
 1139 0002 0500     		movs	r5, r0
 1140              	.LVL92:
1147:Generated_Source\PSoC4/MIDI1_UART.c ****         uint16 bufIndex = 0u;
1148:Generated_Source\PSoC4/MIDI1_UART.c **** 
1149:Generated_Source\PSoC4/MIDI1_UART.c ****         /* If not Initialized then skip this function */
1150:Generated_Source\PSoC4/MIDI1_UART.c ****         if(MIDI1_UART_initVar != 0u)
 1141              		.loc 1 1150 0
 1142 0004 074B     		ldr	r3, .L89
 1143 0006 5B78     		ldrb	r3, [r3, #1]
 1144 0008 002B     		cmp	r3, #0
 1145 000a 05D1     		bne	.L88
 1146 000c 08E0     		b	.L84
 1147              	.LVL93:
 1148              	.L87:
1151:Generated_Source\PSoC4/MIDI1_UART.c ****         {
1152:Generated_Source\PSoC4/MIDI1_UART.c ****             /* This is a blocking function, it will not exit until all data is sent */
1153:Generated_Source\PSoC4/MIDI1_UART.c ****             while(string[bufIndex] != (char8) 0)
1154:Generated_Source\PSoC4/MIDI1_UART.c ****             {
1155:Generated_Source\PSoC4/MIDI1_UART.c ****                 MIDI1_UART_PutChar((uint8)string[bufIndex]);
 1149              		.loc 1 1155 0
 1150 000e FFF7FEFF 		bl	MIDI1_UART_PutChar
 1151              	.LVL94:
1156:Generated_Source\PSoC4/MIDI1_UART.c ****                 bufIndex++;
 1152              		.loc 1 1156 0
 1153 0012 0134     		adds	r4, r4, #1
 1154              	.LVL95:
 1155 0014 A4B2     		uxth	r4, r4
 1156              	.LVL96:
 1157 0016 00E0     		b	.L85
 1158              	.LVL97:
 1159              	.L88:
 1160 0018 0024     		movs	r4, #0
 1161              	.LVL98:
 1162              	.L85:
1153:Generated_Source\PSoC4/MIDI1_UART.c ****             {
 1163              		.loc 1 1153 0
 1164 001a 285D     		ldrb	r0, [r5, r4]
 1165 001c 0028     		cmp	r0, #0
 1166 001e F6D1     		bne	.L87
 1167              	.LVL99:
 1168              	.L84:
1157:Generated_Source\PSoC4/MIDI1_UART.c ****             }
ARM GAS  C:\Users\psmus\AppData\Local\Temp\ccyQO4JR.s 			page 42


1158:Generated_Source\PSoC4/MIDI1_UART.c ****         }
1159:Generated_Source\PSoC4/MIDI1_UART.c ****     }
 1169              		.loc 1 1159 0
 1170              		@ sp needed
 1171              	.LVL100:
 1172 0020 70BD     		pop	{r4, r5, r6, pc}
 1173              	.L90:
 1174 0022 C046     		.align	2
 1175              	.L89:
 1176 0024 00000000 		.word	.LANCHOR0
 1177              		.cfi_endproc
 1178              	.LFE21:
 1179              		.size	MIDI1_UART_PutString, .-MIDI1_UART_PutString
 1180              		.section	.text.MIDI1_UART_PutArray,"ax",%progbits
 1181              		.align	2
 1182              		.global	MIDI1_UART_PutArray
 1183              		.code	16
 1184              		.thumb_func
 1185              		.type	MIDI1_UART_PutArray, %function
 1186              	MIDI1_UART_PutArray:
 1187              	.LFB22:
1160:Generated_Source\PSoC4/MIDI1_UART.c **** 
1161:Generated_Source\PSoC4/MIDI1_UART.c **** 
1162:Generated_Source\PSoC4/MIDI1_UART.c ****     /*******************************************************************************
1163:Generated_Source\PSoC4/MIDI1_UART.c ****     * Function Name: MIDI1_UART_PutArray
1164:Generated_Source\PSoC4/MIDI1_UART.c ****     ********************************************************************************
1165:Generated_Source\PSoC4/MIDI1_UART.c ****     *
1166:Generated_Source\PSoC4/MIDI1_UART.c ****     * Summary:
1167:Generated_Source\PSoC4/MIDI1_UART.c ****     *  Places N bytes of data from a memory array into the TX buffer for
1168:Generated_Source\PSoC4/MIDI1_UART.c ****     *  transmission.
1169:Generated_Source\PSoC4/MIDI1_UART.c ****     *
1170:Generated_Source\PSoC4/MIDI1_UART.c ****     * Parameters:
1171:Generated_Source\PSoC4/MIDI1_UART.c ****     *  string[]: Address of the memory array residing in RAM or ROM.
1172:Generated_Source\PSoC4/MIDI1_UART.c ****     *  byteCount: Number of bytes to be transmitted. The type depends on TX Buffer
1173:Generated_Source\PSoC4/MIDI1_UART.c ****     *             Size parameter.
1174:Generated_Source\PSoC4/MIDI1_UART.c ****     *
1175:Generated_Source\PSoC4/MIDI1_UART.c ****     * Return:
1176:Generated_Source\PSoC4/MIDI1_UART.c ****     *  None.
1177:Generated_Source\PSoC4/MIDI1_UART.c ****     *
1178:Generated_Source\PSoC4/MIDI1_UART.c ****     * Global Variables:
1179:Generated_Source\PSoC4/MIDI1_UART.c ****     *  MIDI1_UART_initVar - checked to identify that the component has been
1180:Generated_Source\PSoC4/MIDI1_UART.c ****     *     initialized.
1181:Generated_Source\PSoC4/MIDI1_UART.c ****     *
1182:Generated_Source\PSoC4/MIDI1_UART.c ****     * Reentrant:
1183:Generated_Source\PSoC4/MIDI1_UART.c ****     *  No.
1184:Generated_Source\PSoC4/MIDI1_UART.c ****     *
1185:Generated_Source\PSoC4/MIDI1_UART.c ****     * Theory:
1186:Generated_Source\PSoC4/MIDI1_UART.c ****     *  If there is not enough memory in the TX buffer for the entire string, this
1187:Generated_Source\PSoC4/MIDI1_UART.c ****     *  function blocks until the last character of the string is loaded into the
1188:Generated_Source\PSoC4/MIDI1_UART.c ****     *  TX buffer.
1189:Generated_Source\PSoC4/MIDI1_UART.c ****     *
1190:Generated_Source\PSoC4/MIDI1_UART.c ****     *******************************************************************************/
1191:Generated_Source\PSoC4/MIDI1_UART.c ****     void MIDI1_UART_PutArray(const uint8 string[], uint8 byteCount)
1192:Generated_Source\PSoC4/MIDI1_UART.c ****                                                                     
1193:Generated_Source\PSoC4/MIDI1_UART.c ****     {
 1188              		.loc 1 1193 0
 1189              		.cfi_startproc
ARM GAS  C:\Users\psmus\AppData\Local\Temp\ccyQO4JR.s 			page 43


 1190              		@ args = 0, pretend = 0, frame = 0
 1191              		@ frame_needed = 0, uses_anonymous_args = 0
 1192              	.LVL101:
 1193 0000 70B5     		push	{r4, r5, r6, lr}
 1194              		.cfi_def_cfa_offset 16
 1195              		.cfi_offset 4, -16
 1196              		.cfi_offset 5, -12
 1197              		.cfi_offset 6, -8
 1198              		.cfi_offset 14, -4
 1199 0002 0600     		movs	r6, r0
 1200 0004 0D00     		movs	r5, r1
 1201              	.LVL102:
1194:Generated_Source\PSoC4/MIDI1_UART.c ****         uint8 bufIndex = 0u;
1195:Generated_Source\PSoC4/MIDI1_UART.c **** 
1196:Generated_Source\PSoC4/MIDI1_UART.c ****         /* If not Initialized then skip this function */
1197:Generated_Source\PSoC4/MIDI1_UART.c ****         if(MIDI1_UART_initVar != 0u)
 1202              		.loc 1 1197 0
 1203 0006 074B     		ldr	r3, .L96
 1204 0008 5B78     		ldrb	r3, [r3, #1]
 1205 000a 002B     		cmp	r3, #0
 1206 000c 06D1     		bne	.L95
 1207 000e 08E0     		b	.L91
 1208              	.LVL103:
 1209              	.L94:
1198:Generated_Source\PSoC4/MIDI1_UART.c ****         {
1199:Generated_Source\PSoC4/MIDI1_UART.c ****             while(bufIndex < byteCount)
1200:Generated_Source\PSoC4/MIDI1_UART.c ****             {
1201:Generated_Source\PSoC4/MIDI1_UART.c ****                 MIDI1_UART_PutChar(string[bufIndex]);
 1210              		.loc 1 1201 0
 1211 0010 305D     		ldrb	r0, [r6, r4]
 1212 0012 FFF7FEFF 		bl	MIDI1_UART_PutChar
 1213              	.LVL104:
1202:Generated_Source\PSoC4/MIDI1_UART.c ****                 bufIndex++;
 1214              		.loc 1 1202 0
 1215 0016 0134     		adds	r4, r4, #1
 1216              	.LVL105:
 1217 0018 E4B2     		uxtb	r4, r4
 1218              	.LVL106:
 1219 001a 00E0     		b	.L92
 1220              	.LVL107:
 1221              	.L95:
 1222 001c 0024     		movs	r4, #0
 1223              	.LVL108:
 1224              	.L92:
1199:Generated_Source\PSoC4/MIDI1_UART.c ****             {
 1225              		.loc 1 1199 0
 1226 001e AC42     		cmp	r4, r5
 1227 0020 F6D3     		bcc	.L94
 1228              	.LVL109:
 1229              	.L91:
1203:Generated_Source\PSoC4/MIDI1_UART.c ****             }
1204:Generated_Source\PSoC4/MIDI1_UART.c ****         }
1205:Generated_Source\PSoC4/MIDI1_UART.c ****     }
 1230              		.loc 1 1205 0
 1231              		@ sp needed
 1232              	.LVL110:
 1233 0022 70BD     		pop	{r4, r5, r6, pc}
ARM GAS  C:\Users\psmus\AppData\Local\Temp\ccyQO4JR.s 			page 44


 1234              	.L97:
 1235              		.align	2
 1236              	.L96:
 1237 0024 00000000 		.word	.LANCHOR0
 1238              		.cfi_endproc
 1239              	.LFE22:
 1240              		.size	MIDI1_UART_PutArray, .-MIDI1_UART_PutArray
 1241              		.section	.text.MIDI1_UART_PutCRLF,"ax",%progbits
 1242              		.align	2
 1243              		.global	MIDI1_UART_PutCRLF
 1244              		.code	16
 1245              		.thumb_func
 1246              		.type	MIDI1_UART_PutCRLF, %function
 1247              	MIDI1_UART_PutCRLF:
 1248              	.LFB23:
1206:Generated_Source\PSoC4/MIDI1_UART.c **** 
1207:Generated_Source\PSoC4/MIDI1_UART.c **** 
1208:Generated_Source\PSoC4/MIDI1_UART.c ****     /*******************************************************************************
1209:Generated_Source\PSoC4/MIDI1_UART.c ****     * Function Name: MIDI1_UART_PutCRLF
1210:Generated_Source\PSoC4/MIDI1_UART.c ****     ********************************************************************************
1211:Generated_Source\PSoC4/MIDI1_UART.c ****     *
1212:Generated_Source\PSoC4/MIDI1_UART.c ****     * Summary:
1213:Generated_Source\PSoC4/MIDI1_UART.c ****     *  Writes a byte of data followed by a carriage return (0x0D) and line feed
1214:Generated_Source\PSoC4/MIDI1_UART.c ****     *  (0x0A) to the transmit buffer.
1215:Generated_Source\PSoC4/MIDI1_UART.c ****     *
1216:Generated_Source\PSoC4/MIDI1_UART.c ****     * Parameters:
1217:Generated_Source\PSoC4/MIDI1_UART.c ****     *  txDataByte: Data byte to transmit before the carriage return and line feed.
1218:Generated_Source\PSoC4/MIDI1_UART.c ****     *
1219:Generated_Source\PSoC4/MIDI1_UART.c ****     * Return:
1220:Generated_Source\PSoC4/MIDI1_UART.c ****     *  None.
1221:Generated_Source\PSoC4/MIDI1_UART.c ****     *
1222:Generated_Source\PSoC4/MIDI1_UART.c ****     * Global Variables:
1223:Generated_Source\PSoC4/MIDI1_UART.c ****     *  MIDI1_UART_initVar - checked to identify that the component has been
1224:Generated_Source\PSoC4/MIDI1_UART.c ****     *     initialized.
1225:Generated_Source\PSoC4/MIDI1_UART.c ****     *
1226:Generated_Source\PSoC4/MIDI1_UART.c ****     * Reentrant:
1227:Generated_Source\PSoC4/MIDI1_UART.c ****     *  No.
1228:Generated_Source\PSoC4/MIDI1_UART.c ****     *
1229:Generated_Source\PSoC4/MIDI1_UART.c ****     *******************************************************************************/
1230:Generated_Source\PSoC4/MIDI1_UART.c ****     void MIDI1_UART_PutCRLF(uint8 txDataByte) 
1231:Generated_Source\PSoC4/MIDI1_UART.c ****     {
 1249              		.loc 1 1231 0
 1250              		.cfi_startproc
 1251              		@ args = 0, pretend = 0, frame = 0
 1252              		@ frame_needed = 0, uses_anonymous_args = 0
 1253              	.LVL111:
 1254 0000 10B5     		push	{r4, lr}
 1255              		.cfi_def_cfa_offset 8
 1256              		.cfi_offset 4, -8
 1257              		.cfi_offset 14, -4
1232:Generated_Source\PSoC4/MIDI1_UART.c ****         /* If not Initialized then skip this function */
1233:Generated_Source\PSoC4/MIDI1_UART.c ****         if(MIDI1_UART_initVar != 0u)
 1258              		.loc 1 1233 0
 1259 0002 064B     		ldr	r3, .L100
 1260 0004 5B78     		ldrb	r3, [r3, #1]
 1261 0006 002B     		cmp	r3, #0
 1262 0008 07D0     		beq	.L98
ARM GAS  C:\Users\psmus\AppData\Local\Temp\ccyQO4JR.s 			page 45


1234:Generated_Source\PSoC4/MIDI1_UART.c ****         {
1235:Generated_Source\PSoC4/MIDI1_UART.c ****             MIDI1_UART_PutChar(txDataByte);
 1263              		.loc 1 1235 0
 1264 000a FFF7FEFF 		bl	MIDI1_UART_PutChar
 1265              	.LVL112:
1236:Generated_Source\PSoC4/MIDI1_UART.c ****             MIDI1_UART_PutChar(0x0Du);
 1266              		.loc 1 1236 0
 1267 000e 0D20     		movs	r0, #13
 1268 0010 FFF7FEFF 		bl	MIDI1_UART_PutChar
 1269              	.LVL113:
1237:Generated_Source\PSoC4/MIDI1_UART.c ****             MIDI1_UART_PutChar(0x0Au);
 1270              		.loc 1 1237 0
 1271 0014 0A20     		movs	r0, #10
 1272 0016 FFF7FEFF 		bl	MIDI1_UART_PutChar
 1273              	.LVL114:
 1274              	.L98:
1238:Generated_Source\PSoC4/MIDI1_UART.c ****         }
1239:Generated_Source\PSoC4/MIDI1_UART.c ****     }
 1275              		.loc 1 1239 0
 1276              		@ sp needed
 1277 001a 10BD     		pop	{r4, pc}
 1278              	.L101:
 1279              		.align	2
 1280              	.L100:
 1281 001c 00000000 		.word	.LANCHOR0
 1282              		.cfi_endproc
 1283              	.LFE23:
 1284              		.size	MIDI1_UART_PutCRLF, .-MIDI1_UART_PutCRLF
 1285              		.section	.text.MIDI1_UART_GetTxBufferSize,"ax",%progbits
 1286              		.align	2
 1287              		.global	MIDI1_UART_GetTxBufferSize
 1288              		.code	16
 1289              		.thumb_func
 1290              		.type	MIDI1_UART_GetTxBufferSize, %function
 1291              	MIDI1_UART_GetTxBufferSize:
 1292              	.LFB24:
1240:Generated_Source\PSoC4/MIDI1_UART.c **** 
1241:Generated_Source\PSoC4/MIDI1_UART.c **** 
1242:Generated_Source\PSoC4/MIDI1_UART.c ****     /*******************************************************************************
1243:Generated_Source\PSoC4/MIDI1_UART.c ****     * Function Name: MIDI1_UART_GetTxBufferSize
1244:Generated_Source\PSoC4/MIDI1_UART.c ****     ********************************************************************************
1245:Generated_Source\PSoC4/MIDI1_UART.c ****     *
1246:Generated_Source\PSoC4/MIDI1_UART.c ****     * Summary:
1247:Generated_Source\PSoC4/MIDI1_UART.c ****     *  Returns the number of bytes in the TX buffer which are waiting to be 
1248:Generated_Source\PSoC4/MIDI1_UART.c ****     *  transmitted.
1249:Generated_Source\PSoC4/MIDI1_UART.c ****     *  * TX software buffer is disabled (TX Buffer Size parameter is equal to 4): 
1250:Generated_Source\PSoC4/MIDI1_UART.c ****     *    returns 0 for empty TX FIFO, 1 for not full TX FIFO or 4 for full TX FIFO.
1251:Generated_Source\PSoC4/MIDI1_UART.c ****     *  * TX software buffer is enabled: returns the number of bytes in the TX 
1252:Generated_Source\PSoC4/MIDI1_UART.c ****     *    software buffer which are waiting to be transmitted. Bytes available in the
1253:Generated_Source\PSoC4/MIDI1_UART.c ****     *    TX FIFO do not count.
1254:Generated_Source\PSoC4/MIDI1_UART.c ****     *
1255:Generated_Source\PSoC4/MIDI1_UART.c ****     * Parameters:
1256:Generated_Source\PSoC4/MIDI1_UART.c ****     *  None.
1257:Generated_Source\PSoC4/MIDI1_UART.c ****     *
1258:Generated_Source\PSoC4/MIDI1_UART.c ****     * Return:
1259:Generated_Source\PSoC4/MIDI1_UART.c ****     *  Number of bytes used in the TX buffer. Return value type depends on the TX 
1260:Generated_Source\PSoC4/MIDI1_UART.c ****     *  Buffer Size parameter.
ARM GAS  C:\Users\psmus\AppData\Local\Temp\ccyQO4JR.s 			page 46


1261:Generated_Source\PSoC4/MIDI1_UART.c ****     *
1262:Generated_Source\PSoC4/MIDI1_UART.c ****     * Global Variables:
1263:Generated_Source\PSoC4/MIDI1_UART.c ****     *  MIDI1_UART_txBufferWrite - used to calculate left space.
1264:Generated_Source\PSoC4/MIDI1_UART.c ****     *  MIDI1_UART_txBufferRead - used to calculate left space.
1265:Generated_Source\PSoC4/MIDI1_UART.c ****     *
1266:Generated_Source\PSoC4/MIDI1_UART.c ****     * Reentrant:
1267:Generated_Source\PSoC4/MIDI1_UART.c ****     *  No.
1268:Generated_Source\PSoC4/MIDI1_UART.c ****     *
1269:Generated_Source\PSoC4/MIDI1_UART.c ****     * Theory:
1270:Generated_Source\PSoC4/MIDI1_UART.c ****     *  Allows the user to find out how full the TX Buffer is.
1271:Generated_Source\PSoC4/MIDI1_UART.c ****     *
1272:Generated_Source\PSoC4/MIDI1_UART.c ****     *******************************************************************************/
1273:Generated_Source\PSoC4/MIDI1_UART.c ****     uint8 MIDI1_UART_GetTxBufferSize(void)
1274:Generated_Source\PSoC4/MIDI1_UART.c ****                                                             
1275:Generated_Source\PSoC4/MIDI1_UART.c ****     {
 1293              		.loc 1 1275 0
 1294              		.cfi_startproc
 1295              		@ args = 0, pretend = 0, frame = 0
 1296              		@ frame_needed = 0, uses_anonymous_args = 0
 1297 0000 10B5     		push	{r4, lr}
 1298              		.cfi_def_cfa_offset 8
 1299              		.cfi_offset 4, -8
 1300              		.cfi_offset 14, -4
1276:Generated_Source\PSoC4/MIDI1_UART.c ****         uint8 size;
1277:Generated_Source\PSoC4/MIDI1_UART.c **** 
1278:Generated_Source\PSoC4/MIDI1_UART.c ****     #if (MIDI1_UART_TX_INTERRUPT_ENABLED)
1279:Generated_Source\PSoC4/MIDI1_UART.c **** 
1280:Generated_Source\PSoC4/MIDI1_UART.c ****         /* Protect variables that could change on interrupt. */
1281:Generated_Source\PSoC4/MIDI1_UART.c ****         MIDI1_UART_DisableTxInt();
 1301              		.loc 1 1281 0
 1302 0002 0120     		movs	r0, #1
 1303 0004 FFF7FEFF 		bl	CyIntDisable
 1304              	.LVL115:
1282:Generated_Source\PSoC4/MIDI1_UART.c **** 
1283:Generated_Source\PSoC4/MIDI1_UART.c ****         if(MIDI1_UART_txBufferRead == MIDI1_UART_txBufferWrite)
 1305              		.loc 1 1283 0
 1306 0008 0D4B     		ldr	r3, .L106
 1307 000a 9A79     		ldrb	r2, [r3, #6]
 1308 000c D2B2     		uxtb	r2, r2
 1309 000e DB79     		ldrb	r3, [r3, #7]
 1310 0010 9A42     		cmp	r2, r3
 1311 0012 0FD0     		beq	.L105
1284:Generated_Source\PSoC4/MIDI1_UART.c ****         {
1285:Generated_Source\PSoC4/MIDI1_UART.c ****             size = 0u;
1286:Generated_Source\PSoC4/MIDI1_UART.c ****         }
1287:Generated_Source\PSoC4/MIDI1_UART.c ****         else if(MIDI1_UART_txBufferRead < MIDI1_UART_txBufferWrite)
 1312              		.loc 1 1287 0
 1313 0014 0A4A     		ldr	r2, .L106
 1314 0016 9279     		ldrb	r2, [r2, #6]
 1315 0018 D2B2     		uxtb	r2, r2
 1316 001a 9342     		cmp	r3, r2
 1317 001c 04D9     		bls	.L104
1288:Generated_Source\PSoC4/MIDI1_UART.c ****         {
1289:Generated_Source\PSoC4/MIDI1_UART.c ****             size = (MIDI1_UART_txBufferWrite - MIDI1_UART_txBufferRead);
 1318              		.loc 1 1289 0
 1319 001e 084A     		ldr	r2, .L106
 1320 0020 9479     		ldrb	r4, [r2, #6]
ARM GAS  C:\Users\psmus\AppData\Local\Temp\ccyQO4JR.s 			page 47


 1321 0022 1B1B     		subs	r3, r3, r4
 1322 0024 DCB2     		uxtb	r4, r3
 1323              	.LVL116:
 1324 0026 06E0     		b	.L103
 1325              	.LVL117:
 1326              	.L104:
1290:Generated_Source\PSoC4/MIDI1_UART.c ****         }
1291:Generated_Source\PSoC4/MIDI1_UART.c ****         else
1292:Generated_Source\PSoC4/MIDI1_UART.c ****         {
1293:Generated_Source\PSoC4/MIDI1_UART.c ****             size = (MIDI1_UART_TX_BUFFER_SIZE - MIDI1_UART_txBufferRead) +
 1327              		.loc 1 1293 0
 1328 0028 054A     		ldr	r2, .L106
 1329 002a 9479     		ldrb	r4, [r2, #6]
 1330 002c 1C1B     		subs	r4, r3, r4
 1331 002e 4034     		adds	r4, r4, #64
 1332 0030 E4B2     		uxtb	r4, r4
 1333              	.LVL118:
 1334 0032 00E0     		b	.L103
 1335              	.LVL119:
 1336              	.L105:
1285:Generated_Source\PSoC4/MIDI1_UART.c ****         }
 1337              		.loc 1 1285 0
 1338 0034 0024     		movs	r4, #0
 1339              	.L103:
 1340              	.LVL120:
1294:Generated_Source\PSoC4/MIDI1_UART.c ****                     MIDI1_UART_txBufferWrite;
1295:Generated_Source\PSoC4/MIDI1_UART.c ****         }
1296:Generated_Source\PSoC4/MIDI1_UART.c **** 
1297:Generated_Source\PSoC4/MIDI1_UART.c ****         MIDI1_UART_EnableTxInt();
 1341              		.loc 1 1297 0
 1342 0036 0120     		movs	r0, #1
 1343 0038 FFF7FEFF 		bl	CyIntEnable
 1344              	.LVL121:
1298:Generated_Source\PSoC4/MIDI1_UART.c **** 
1299:Generated_Source\PSoC4/MIDI1_UART.c ****     #else
1300:Generated_Source\PSoC4/MIDI1_UART.c **** 
1301:Generated_Source\PSoC4/MIDI1_UART.c ****         size = MIDI1_UART_TXSTATUS_REG;
1302:Generated_Source\PSoC4/MIDI1_UART.c **** 
1303:Generated_Source\PSoC4/MIDI1_UART.c ****         /* Is the fifo is full. */
1304:Generated_Source\PSoC4/MIDI1_UART.c ****         if((size & MIDI1_UART_TX_STS_FIFO_FULL) != 0u)
1305:Generated_Source\PSoC4/MIDI1_UART.c ****         {
1306:Generated_Source\PSoC4/MIDI1_UART.c ****             size = MIDI1_UART_FIFO_LENGTH;
1307:Generated_Source\PSoC4/MIDI1_UART.c ****         }
1308:Generated_Source\PSoC4/MIDI1_UART.c ****         else if((size & MIDI1_UART_TX_STS_FIFO_EMPTY) != 0u)
1309:Generated_Source\PSoC4/MIDI1_UART.c ****         {
1310:Generated_Source\PSoC4/MIDI1_UART.c ****             size = 0u;
1311:Generated_Source\PSoC4/MIDI1_UART.c ****         }
1312:Generated_Source\PSoC4/MIDI1_UART.c ****         else
1313:Generated_Source\PSoC4/MIDI1_UART.c ****         {
1314:Generated_Source\PSoC4/MIDI1_UART.c ****             /* We only know there is data in the fifo. */
1315:Generated_Source\PSoC4/MIDI1_UART.c ****             size = 1u;
1316:Generated_Source\PSoC4/MIDI1_UART.c ****         }
1317:Generated_Source\PSoC4/MIDI1_UART.c **** 
1318:Generated_Source\PSoC4/MIDI1_UART.c ****     #endif /* (MIDI1_UART_TX_INTERRUPT_ENABLED) */
1319:Generated_Source\PSoC4/MIDI1_UART.c **** 
1320:Generated_Source\PSoC4/MIDI1_UART.c ****     return(size);
1321:Generated_Source\PSoC4/MIDI1_UART.c ****     }
ARM GAS  C:\Users\psmus\AppData\Local\Temp\ccyQO4JR.s 			page 48


 1345              		.loc 1 1321 0
 1346 003c 2000     		movs	r0, r4
 1347              		@ sp needed
 1348              	.LVL122:
 1349 003e 10BD     		pop	{r4, pc}
 1350              	.L107:
 1351              		.align	2
 1352              	.L106:
 1353 0040 00000000 		.word	.LANCHOR0
 1354              		.cfi_endproc
 1355              	.LFE24:
 1356              		.size	MIDI1_UART_GetTxBufferSize, .-MIDI1_UART_GetTxBufferSize
 1357              		.section	.text.MIDI1_UART_ClearTxBuffer,"ax",%progbits
 1358              		.align	2
 1359              		.global	MIDI1_UART_ClearTxBuffer
 1360              		.code	16
 1361              		.thumb_func
 1362              		.type	MIDI1_UART_ClearTxBuffer, %function
 1363              	MIDI1_UART_ClearTxBuffer:
 1364              	.LFB25:
1322:Generated_Source\PSoC4/MIDI1_UART.c **** 
1323:Generated_Source\PSoC4/MIDI1_UART.c **** 
1324:Generated_Source\PSoC4/MIDI1_UART.c ****     /*******************************************************************************
1325:Generated_Source\PSoC4/MIDI1_UART.c ****     * Function Name: MIDI1_UART_ClearTxBuffer
1326:Generated_Source\PSoC4/MIDI1_UART.c ****     ********************************************************************************
1327:Generated_Source\PSoC4/MIDI1_UART.c ****     *
1328:Generated_Source\PSoC4/MIDI1_UART.c ****     * Summary:
1329:Generated_Source\PSoC4/MIDI1_UART.c ****     *  Clears all data from the TX buffer and hardware TX FIFO.
1330:Generated_Source\PSoC4/MIDI1_UART.c ****     *
1331:Generated_Source\PSoC4/MIDI1_UART.c ****     * Parameters:
1332:Generated_Source\PSoC4/MIDI1_UART.c ****     *  None.
1333:Generated_Source\PSoC4/MIDI1_UART.c ****     *
1334:Generated_Source\PSoC4/MIDI1_UART.c ****     * Return:
1335:Generated_Source\PSoC4/MIDI1_UART.c ****     *  None.
1336:Generated_Source\PSoC4/MIDI1_UART.c ****     *
1337:Generated_Source\PSoC4/MIDI1_UART.c ****     * Global Variables:
1338:Generated_Source\PSoC4/MIDI1_UART.c ****     *  MIDI1_UART_txBufferWrite - cleared to zero.
1339:Generated_Source\PSoC4/MIDI1_UART.c ****     *  MIDI1_UART_txBufferRead - cleared to zero.
1340:Generated_Source\PSoC4/MIDI1_UART.c ****     *
1341:Generated_Source\PSoC4/MIDI1_UART.c ****     * Reentrant:
1342:Generated_Source\PSoC4/MIDI1_UART.c ****     *  No.
1343:Generated_Source\PSoC4/MIDI1_UART.c ****     *
1344:Generated_Source\PSoC4/MIDI1_UART.c ****     * Theory:
1345:Generated_Source\PSoC4/MIDI1_UART.c ****     *  Setting the pointers to zero makes the system believe there is no data to
1346:Generated_Source\PSoC4/MIDI1_UART.c ****     *  read and writing will resume at address 0 overwriting any data that may have
1347:Generated_Source\PSoC4/MIDI1_UART.c ****     *  remained in the RAM.
1348:Generated_Source\PSoC4/MIDI1_UART.c ****     *
1349:Generated_Source\PSoC4/MIDI1_UART.c ****     * Side Effects:
1350:Generated_Source\PSoC4/MIDI1_UART.c ****     *  Data waiting in the transmit buffer is not sent; a byte that is currently
1351:Generated_Source\PSoC4/MIDI1_UART.c ****     *  transmitting finishes transmitting.
1352:Generated_Source\PSoC4/MIDI1_UART.c ****     *
1353:Generated_Source\PSoC4/MIDI1_UART.c ****     *******************************************************************************/
1354:Generated_Source\PSoC4/MIDI1_UART.c ****     void MIDI1_UART_ClearTxBuffer(void) 
1355:Generated_Source\PSoC4/MIDI1_UART.c ****     {
 1365              		.loc 1 1355 0
 1366              		.cfi_startproc
 1367              		@ args = 0, pretend = 0, frame = 0
ARM GAS  C:\Users\psmus\AppData\Local\Temp\ccyQO4JR.s 			page 49


 1368              		@ frame_needed = 0, uses_anonymous_args = 0
 1369 0000 10B5     		push	{r4, lr}
 1370              		.cfi_def_cfa_offset 8
 1371              		.cfi_offset 4, -8
 1372              		.cfi_offset 14, -4
1356:Generated_Source\PSoC4/MIDI1_UART.c ****         uint8 enableInterrupts;
1357:Generated_Source\PSoC4/MIDI1_UART.c **** 
1358:Generated_Source\PSoC4/MIDI1_UART.c ****         enableInterrupts = CyEnterCriticalSection();
 1373              		.loc 1 1358 0
 1374 0002 FFF7FEFF 		bl	CyEnterCriticalSection
 1375              	.LVL123:
1359:Generated_Source\PSoC4/MIDI1_UART.c ****         /* Clear the HW FIFO */
1360:Generated_Source\PSoC4/MIDI1_UART.c ****         MIDI1_UART_TXDATA_AUX_CTL_REG |= (uint8)  MIDI1_UART_TX_FIFO_CLR;
 1376              		.loc 1 1360 0
 1377 0006 0B4A     		ldr	r2, .L109
 1378 0008 1178     		ldrb	r1, [r2]
 1379 000a 0123     		movs	r3, #1
 1380 000c 0B43     		orrs	r3, r1
 1381 000e DBB2     		uxtb	r3, r3
 1382 0010 1370     		strb	r3, [r2]
1361:Generated_Source\PSoC4/MIDI1_UART.c ****         MIDI1_UART_TXDATA_AUX_CTL_REG &= (uint8) ~MIDI1_UART_TX_FIFO_CLR;
 1383              		.loc 1 1361 0
 1384 0012 1378     		ldrb	r3, [r2]
 1385 0014 0121     		movs	r1, #1
 1386 0016 8B43     		bics	r3, r1
 1387 0018 1370     		strb	r3, [r2]
1362:Generated_Source\PSoC4/MIDI1_UART.c ****         CyExitCriticalSection(enableInterrupts);
 1388              		.loc 1 1362 0
 1389 001a FFF7FEFF 		bl	CyExitCriticalSection
 1390              	.LVL124:
1363:Generated_Source\PSoC4/MIDI1_UART.c **** 
1364:Generated_Source\PSoC4/MIDI1_UART.c ****     #if (MIDI1_UART_TX_INTERRUPT_ENABLED)
1365:Generated_Source\PSoC4/MIDI1_UART.c **** 
1366:Generated_Source\PSoC4/MIDI1_UART.c ****         /* Protect variables that could change on interrupt. */
1367:Generated_Source\PSoC4/MIDI1_UART.c ****         MIDI1_UART_DisableTxInt();
 1391              		.loc 1 1367 0
 1392 001e 0120     		movs	r0, #1
 1393 0020 FFF7FEFF 		bl	CyIntDisable
 1394              	.LVL125:
1368:Generated_Source\PSoC4/MIDI1_UART.c **** 
1369:Generated_Source\PSoC4/MIDI1_UART.c ****         MIDI1_UART_txBufferRead = 0u;
 1395              		.loc 1 1369 0
 1396 0024 044B     		ldr	r3, .L109+4
 1397 0026 0022     		movs	r2, #0
 1398 0028 9A71     		strb	r2, [r3, #6]
1370:Generated_Source\PSoC4/MIDI1_UART.c ****         MIDI1_UART_txBufferWrite = 0u;
 1399              		.loc 1 1370 0
 1400 002a DA71     		strb	r2, [r3, #7]
1371:Generated_Source\PSoC4/MIDI1_UART.c **** 
1372:Generated_Source\PSoC4/MIDI1_UART.c ****         /* Enable Tx interrupt. */
1373:Generated_Source\PSoC4/MIDI1_UART.c ****         MIDI1_UART_EnableTxInt();
 1401              		.loc 1 1373 0
 1402 002c 0120     		movs	r0, #1
 1403 002e FFF7FEFF 		bl	CyIntEnable
 1404              	.LVL126:
1374:Generated_Source\PSoC4/MIDI1_UART.c **** 
1375:Generated_Source\PSoC4/MIDI1_UART.c ****     #endif /* (MIDI1_UART_TX_INTERRUPT_ENABLED) */
ARM GAS  C:\Users\psmus\AppData\Local\Temp\ccyQO4JR.s 			page 50


1376:Generated_Source\PSoC4/MIDI1_UART.c ****     }
 1405              		.loc 1 1376 0
 1406              		@ sp needed
 1407 0032 10BD     		pop	{r4, pc}
 1408              	.L110:
 1409              		.align	2
 1410              	.L109:
 1411 0034 97000F40 		.word	1074725015
 1412 0038 00000000 		.word	.LANCHOR0
 1413              		.cfi_endproc
 1414              	.LFE25:
 1415              		.size	MIDI1_UART_ClearTxBuffer, .-MIDI1_UART_ClearTxBuffer
 1416              		.section	.text.MIDI1_UART_SendBreak,"ax",%progbits
 1417              		.align	2
 1418              		.global	MIDI1_UART_SendBreak
 1419              		.code	16
 1420              		.thumb_func
 1421              		.type	MIDI1_UART_SendBreak, %function
 1422              	MIDI1_UART_SendBreak:
 1423              	.LFB26:
1377:Generated_Source\PSoC4/MIDI1_UART.c **** 
1378:Generated_Source\PSoC4/MIDI1_UART.c **** 
1379:Generated_Source\PSoC4/MIDI1_UART.c ****     /*******************************************************************************
1380:Generated_Source\PSoC4/MIDI1_UART.c ****     * Function Name: MIDI1_UART_SendBreak
1381:Generated_Source\PSoC4/MIDI1_UART.c ****     ********************************************************************************
1382:Generated_Source\PSoC4/MIDI1_UART.c ****     *
1383:Generated_Source\PSoC4/MIDI1_UART.c ****     * Summary:
1384:Generated_Source\PSoC4/MIDI1_UART.c ****     *  Transmits a break signal on the bus.
1385:Generated_Source\PSoC4/MIDI1_UART.c ****     *
1386:Generated_Source\PSoC4/MIDI1_UART.c ****     * Parameters:
1387:Generated_Source\PSoC4/MIDI1_UART.c ****     *  uint8 retMode:  Send Break return mode. See the following table for options.
1388:Generated_Source\PSoC4/MIDI1_UART.c ****     *   MIDI1_UART_SEND_BREAK - Initialize registers for break, send the Break
1389:Generated_Source\PSoC4/MIDI1_UART.c ****     *       signal and return immediately.
1390:Generated_Source\PSoC4/MIDI1_UART.c ****     *   MIDI1_UART_WAIT_FOR_COMPLETE_REINIT - Wait until break transmission is
1391:Generated_Source\PSoC4/MIDI1_UART.c ****     *       complete, reinitialize registers to normal transmission mode then return
1392:Generated_Source\PSoC4/MIDI1_UART.c ****     *   MIDI1_UART_REINIT - Reinitialize registers to normal transmission mode
1393:Generated_Source\PSoC4/MIDI1_UART.c ****     *       then return.
1394:Generated_Source\PSoC4/MIDI1_UART.c ****     *   MIDI1_UART_SEND_WAIT_REINIT - Performs both options: 
1395:Generated_Source\PSoC4/MIDI1_UART.c ****     *      MIDI1_UART_SEND_BREAK and MIDI1_UART_WAIT_FOR_COMPLETE_REINIT.
1396:Generated_Source\PSoC4/MIDI1_UART.c ****     *      This option is recommended for most cases.
1397:Generated_Source\PSoC4/MIDI1_UART.c ****     *
1398:Generated_Source\PSoC4/MIDI1_UART.c ****     * Return:
1399:Generated_Source\PSoC4/MIDI1_UART.c ****     *  None.
1400:Generated_Source\PSoC4/MIDI1_UART.c ****     *
1401:Generated_Source\PSoC4/MIDI1_UART.c ****     * Global Variables:
1402:Generated_Source\PSoC4/MIDI1_UART.c ****     *  MIDI1_UART_initVar - checked to identify that the component has been
1403:Generated_Source\PSoC4/MIDI1_UART.c ****     *     initialized.
1404:Generated_Source\PSoC4/MIDI1_UART.c ****     *  txPeriod - static variable, used for keeping TX period configuration.
1405:Generated_Source\PSoC4/MIDI1_UART.c ****     *
1406:Generated_Source\PSoC4/MIDI1_UART.c ****     * Reentrant:
1407:Generated_Source\PSoC4/MIDI1_UART.c ****     *  No.
1408:Generated_Source\PSoC4/MIDI1_UART.c ****     *
1409:Generated_Source\PSoC4/MIDI1_UART.c ****     * Theory:
1410:Generated_Source\PSoC4/MIDI1_UART.c ****     *  SendBreak function initializes registers to send 13-bit break signal. It is
1411:Generated_Source\PSoC4/MIDI1_UART.c ****     *  important to return the registers configuration to normal for continue 8-bit
1412:Generated_Source\PSoC4/MIDI1_UART.c ****     *  operation.
1413:Generated_Source\PSoC4/MIDI1_UART.c ****     *  There are 3 variants for this API usage:
ARM GAS  C:\Users\psmus\AppData\Local\Temp\ccyQO4JR.s 			page 51


1414:Generated_Source\PSoC4/MIDI1_UART.c ****     *  1) SendBreak(3) - function will send the Break signal and take care on the
1415:Generated_Source\PSoC4/MIDI1_UART.c ****     *     configuration returning. Function will block CPU until transmission
1416:Generated_Source\PSoC4/MIDI1_UART.c ****     *     complete.
1417:Generated_Source\PSoC4/MIDI1_UART.c ****     *  2) User may want to use blocking time if UART configured to the low speed
1418:Generated_Source\PSoC4/MIDI1_UART.c ****     *     operation
1419:Generated_Source\PSoC4/MIDI1_UART.c ****     *     Example for this case:
1420:Generated_Source\PSoC4/MIDI1_UART.c ****     *     SendBreak(0);     - initialize Break signal transmission
1421:Generated_Source\PSoC4/MIDI1_UART.c ****     *         Add your code here to use CPU time
1422:Generated_Source\PSoC4/MIDI1_UART.c ****     *     SendBreak(1);     - complete Break operation
1423:Generated_Source\PSoC4/MIDI1_UART.c ****     *  3) Same to 2) but user may want to initialize and use the interrupt to
1424:Generated_Source\PSoC4/MIDI1_UART.c ****     *     complete break operation.
1425:Generated_Source\PSoC4/MIDI1_UART.c ****     *     Example for this case:
1426:Generated_Source\PSoC4/MIDI1_UART.c ****     *     Initialize TX interrupt with "TX - On TX Complete" parameter
1427:Generated_Source\PSoC4/MIDI1_UART.c ****     *     SendBreak(0);     - initialize Break signal transmission
1428:Generated_Source\PSoC4/MIDI1_UART.c ****     *         Add your code here to use CPU time
1429:Generated_Source\PSoC4/MIDI1_UART.c ****     *     When interrupt appear with MIDI1_UART_TX_STS_COMPLETE status:
1430:Generated_Source\PSoC4/MIDI1_UART.c ****     *     SendBreak(2);     - complete Break operation
1431:Generated_Source\PSoC4/MIDI1_UART.c ****     *
1432:Generated_Source\PSoC4/MIDI1_UART.c ****     * Side Effects:
1433:Generated_Source\PSoC4/MIDI1_UART.c ****     *  The MIDI1_UART_SendBreak() function initializes registers to send a
1434:Generated_Source\PSoC4/MIDI1_UART.c ****     *  break signal.
1435:Generated_Source\PSoC4/MIDI1_UART.c ****     *  Break signal length depends on the break signal bits configuration.
1436:Generated_Source\PSoC4/MIDI1_UART.c ****     *  The register configuration should be reinitialized before normal 8-bit
1437:Generated_Source\PSoC4/MIDI1_UART.c ****     *  communication can continue.
1438:Generated_Source\PSoC4/MIDI1_UART.c ****     *
1439:Generated_Source\PSoC4/MIDI1_UART.c ****     *******************************************************************************/
1440:Generated_Source\PSoC4/MIDI1_UART.c ****     void MIDI1_UART_SendBreak(uint8 retMode) 
1441:Generated_Source\PSoC4/MIDI1_UART.c ****     {
 1424              		.loc 1 1441 0
 1425              		.cfi_startproc
 1426              		@ args = 0, pretend = 0, frame = 0
 1427              		@ frame_needed = 0, uses_anonymous_args = 0
 1428              		@ link register save eliminated.
 1429              	.LVL127:
1442:Generated_Source\PSoC4/MIDI1_UART.c **** 
1443:Generated_Source\PSoC4/MIDI1_UART.c ****         /* If not Initialized then skip this function*/
1444:Generated_Source\PSoC4/MIDI1_UART.c ****         if(MIDI1_UART_initVar != 0u)
 1430              		.loc 1 1444 0
 1431 0000 134B     		ldr	r3, .L118
 1432 0002 5B78     		ldrb	r3, [r3, #1]
 1433 0004 002B     		cmp	r3, #0
 1434 0006 21D0     		beq	.L111
 1435              	.LBB2:
1445:Generated_Source\PSoC4/MIDI1_UART.c ****         {
1446:Generated_Source\PSoC4/MIDI1_UART.c ****             /* Set the Counter to 13-bits and transmit a 00 byte */
1447:Generated_Source\PSoC4/MIDI1_UART.c ****             /* When that is done then reset the counter value back */
1448:Generated_Source\PSoC4/MIDI1_UART.c ****             uint8 tmpStat;
1449:Generated_Source\PSoC4/MIDI1_UART.c **** 
1450:Generated_Source\PSoC4/MIDI1_UART.c ****         #if(MIDI1_UART_HD_ENABLED) /* Half Duplex mode*/
1451:Generated_Source\PSoC4/MIDI1_UART.c **** 
1452:Generated_Source\PSoC4/MIDI1_UART.c ****             if( (retMode == MIDI1_UART_SEND_BREAK) ||
1453:Generated_Source\PSoC4/MIDI1_UART.c ****                 (retMode == MIDI1_UART_SEND_WAIT_REINIT ) )
1454:Generated_Source\PSoC4/MIDI1_UART.c ****             {
1455:Generated_Source\PSoC4/MIDI1_UART.c ****                 /* CTRL_HD_SEND_BREAK - sends break bits in HD mode */
1456:Generated_Source\PSoC4/MIDI1_UART.c ****                 MIDI1_UART_WriteControlRegister(MIDI1_UART_ReadControlRegister() |
1457:Generated_Source\PSoC4/MIDI1_UART.c ****                                                       MIDI1_UART_CTRL_HD_SEND_BREAK);
1458:Generated_Source\PSoC4/MIDI1_UART.c ****                 /* Send zeros */
ARM GAS  C:\Users\psmus\AppData\Local\Temp\ccyQO4JR.s 			page 52


1459:Generated_Source\PSoC4/MIDI1_UART.c ****                 MIDI1_UART_TXDATA_REG = 0u;
1460:Generated_Source\PSoC4/MIDI1_UART.c **** 
1461:Generated_Source\PSoC4/MIDI1_UART.c ****                 do /* Wait until transmit starts */
1462:Generated_Source\PSoC4/MIDI1_UART.c ****                 {
1463:Generated_Source\PSoC4/MIDI1_UART.c ****                     tmpStat = MIDI1_UART_TXSTATUS_REG;
1464:Generated_Source\PSoC4/MIDI1_UART.c ****                 }
1465:Generated_Source\PSoC4/MIDI1_UART.c ****                 while((tmpStat & MIDI1_UART_TX_STS_FIFO_EMPTY) != 0u);
1466:Generated_Source\PSoC4/MIDI1_UART.c ****             }
1467:Generated_Source\PSoC4/MIDI1_UART.c **** 
1468:Generated_Source\PSoC4/MIDI1_UART.c ****             if( (retMode == MIDI1_UART_WAIT_FOR_COMPLETE_REINIT) ||
1469:Generated_Source\PSoC4/MIDI1_UART.c ****                 (retMode == MIDI1_UART_SEND_WAIT_REINIT) )
1470:Generated_Source\PSoC4/MIDI1_UART.c ****             {
1471:Generated_Source\PSoC4/MIDI1_UART.c ****                 do /* Wait until transmit complete */
1472:Generated_Source\PSoC4/MIDI1_UART.c ****                 {
1473:Generated_Source\PSoC4/MIDI1_UART.c ****                     tmpStat = MIDI1_UART_TXSTATUS_REG;
1474:Generated_Source\PSoC4/MIDI1_UART.c ****                 }
1475:Generated_Source\PSoC4/MIDI1_UART.c ****                 while(((uint8)~tmpStat & MIDI1_UART_TX_STS_COMPLETE) != 0u);
1476:Generated_Source\PSoC4/MIDI1_UART.c ****             }
1477:Generated_Source\PSoC4/MIDI1_UART.c **** 
1478:Generated_Source\PSoC4/MIDI1_UART.c ****             if( (retMode == MIDI1_UART_WAIT_FOR_COMPLETE_REINIT) ||
1479:Generated_Source\PSoC4/MIDI1_UART.c ****                 (retMode == MIDI1_UART_REINIT) ||
1480:Generated_Source\PSoC4/MIDI1_UART.c ****                 (retMode == MIDI1_UART_SEND_WAIT_REINIT) )
1481:Generated_Source\PSoC4/MIDI1_UART.c ****             {
1482:Generated_Source\PSoC4/MIDI1_UART.c ****                 MIDI1_UART_WriteControlRegister(MIDI1_UART_ReadControlRegister() &
1483:Generated_Source\PSoC4/MIDI1_UART.c ****                                               (uint8)~MIDI1_UART_CTRL_HD_SEND_BREAK);
1484:Generated_Source\PSoC4/MIDI1_UART.c ****             }
1485:Generated_Source\PSoC4/MIDI1_UART.c **** 
1486:Generated_Source\PSoC4/MIDI1_UART.c ****         #else /* MIDI1_UART_HD_ENABLED Full Duplex mode */
1487:Generated_Source\PSoC4/MIDI1_UART.c **** 
1488:Generated_Source\PSoC4/MIDI1_UART.c ****             static uint8 txPeriod;
1489:Generated_Source\PSoC4/MIDI1_UART.c **** 
1490:Generated_Source\PSoC4/MIDI1_UART.c ****             if( (retMode == MIDI1_UART_SEND_BREAK) ||
 1436              		.loc 1 1490 0
 1437 0008 0028     		cmp	r0, #0
 1438 000a 01D0     		beq	.L113
 1439              		.loc 1 1490 0 is_stmt 0 discriminator 1
 1440 000c 0328     		cmp	r0, #3
 1441 000e 0CD1     		bne	.L114
 1442              	.L113:
1491:Generated_Source\PSoC4/MIDI1_UART.c ****                 (retMode == MIDI1_UART_SEND_WAIT_REINIT) )
1492:Generated_Source\PSoC4/MIDI1_UART.c ****             {
1493:Generated_Source\PSoC4/MIDI1_UART.c ****                 /* CTRL_HD_SEND_BREAK - skip to send parity bit at Break signal in Full Duplex mode
1494:Generated_Source\PSoC4/MIDI1_UART.c ****                 #if( (MIDI1_UART_PARITY_TYPE != MIDI1_UART__B_UART__NONE_REVB) || \
1495:Generated_Source\PSoC4/MIDI1_UART.c ****                                     (MIDI1_UART_PARITY_TYPE_SW != 0u) )
1496:Generated_Source\PSoC4/MIDI1_UART.c ****                     MIDI1_UART_WriteControlRegister(MIDI1_UART_ReadControlRegister() |
1497:Generated_Source\PSoC4/MIDI1_UART.c ****                                                           MIDI1_UART_CTRL_HD_SEND_BREAK);
1498:Generated_Source\PSoC4/MIDI1_UART.c ****                 #endif /* End MIDI1_UART_PARITY_TYPE != MIDI1_UART__B_UART__NONE_REVB  */
1499:Generated_Source\PSoC4/MIDI1_UART.c **** 
1500:Generated_Source\PSoC4/MIDI1_UART.c ****                 #if(MIDI1_UART_TXCLKGEN_DP)
1501:Generated_Source\PSoC4/MIDI1_UART.c ****                     txPeriod = MIDI1_UART_TXBITCLKTX_COMPLETE_REG;
 1443              		.loc 1 1501 0 is_stmt 1
 1444 0010 104B     		ldr	r3, .L118+4
 1445 0012 1978     		ldrb	r1, [r3]
 1446 0014 0E4A     		ldr	r2, .L118
 1447 0016 1172     		strb	r1, [r2, #8]
1502:Generated_Source\PSoC4/MIDI1_UART.c ****                     MIDI1_UART_TXBITCLKTX_COMPLETE_REG = MIDI1_UART_TXBITCTR_BREAKBITS;
 1448              		.loc 1 1502 0
ARM GAS  C:\Users\psmus\AppData\Local\Temp\ccyQO4JR.s 			page 53


 1449 0018 6722     		movs	r2, #103
 1450 001a 1A70     		strb	r2, [r3]
1503:Generated_Source\PSoC4/MIDI1_UART.c ****                 #else
1504:Generated_Source\PSoC4/MIDI1_UART.c ****                     txPeriod = MIDI1_UART_TXBITCTR_PERIOD_REG;
1505:Generated_Source\PSoC4/MIDI1_UART.c ****                     MIDI1_UART_TXBITCTR_PERIOD_REG = MIDI1_UART_TXBITCTR_BREAKBITS8X;
1506:Generated_Source\PSoC4/MIDI1_UART.c ****                 #endif /* End MIDI1_UART_TXCLKGEN_DP */
1507:Generated_Source\PSoC4/MIDI1_UART.c **** 
1508:Generated_Source\PSoC4/MIDI1_UART.c ****                 /* Send zeros */
1509:Generated_Source\PSoC4/MIDI1_UART.c ****                 MIDI1_UART_TXDATA_REG = 0u;
 1451              		.loc 1 1509 0
 1452 001c 0022     		movs	r2, #0
 1453 001e 0E4B     		ldr	r3, .L118+8
 1454 0020 1A70     		strb	r2, [r3]
 1455              	.L115:
1510:Generated_Source\PSoC4/MIDI1_UART.c **** 
1511:Generated_Source\PSoC4/MIDI1_UART.c ****                 do /* Wait until transmit starts */
1512:Generated_Source\PSoC4/MIDI1_UART.c ****                 {
1513:Generated_Source\PSoC4/MIDI1_UART.c ****                     tmpStat = MIDI1_UART_TXSTATUS_REG;
 1456              		.loc 1 1513 0 discriminator 1
 1457 0022 0E4B     		ldr	r3, .L118+12
 1458 0024 1B78     		ldrb	r3, [r3]
 1459              	.LVL128:
1514:Generated_Source\PSoC4/MIDI1_UART.c ****                 }
1515:Generated_Source\PSoC4/MIDI1_UART.c ****                 while((tmpStat & MIDI1_UART_TX_STS_FIFO_EMPTY) != 0u);
 1460              		.loc 1 1515 0 discriminator 1
 1461 0026 9B07     		lsls	r3, r3, #30
 1462 0028 FBD4     		bmi	.L115
 1463              	.LVL129:
 1464              	.L114:
1516:Generated_Source\PSoC4/MIDI1_UART.c ****             }
1517:Generated_Source\PSoC4/MIDI1_UART.c **** 
1518:Generated_Source\PSoC4/MIDI1_UART.c ****             if( (retMode == MIDI1_UART_WAIT_FOR_COMPLETE_REINIT) ||
 1465              		.loc 1 1518 0
 1466 002a 0128     		cmp	r0, #1
 1467 002c 01D0     		beq	.L116
 1468              		.loc 1 1518 0 is_stmt 0 discriminator 1
 1469 002e 0328     		cmp	r0, #3
 1470 0030 04D1     		bne	.L117
 1471              	.L116:
1519:Generated_Source\PSoC4/MIDI1_UART.c ****                 (retMode == MIDI1_UART_SEND_WAIT_REINIT) )
1520:Generated_Source\PSoC4/MIDI1_UART.c ****             {
1521:Generated_Source\PSoC4/MIDI1_UART.c ****                 do /* Wait until transmit complete */
1522:Generated_Source\PSoC4/MIDI1_UART.c ****                 {
1523:Generated_Source\PSoC4/MIDI1_UART.c ****                     tmpStat = MIDI1_UART_TXSTATUS_REG;
 1472              		.loc 1 1523 0 is_stmt 1 discriminator 1
 1473 0032 0A4B     		ldr	r3, .L118+12
 1474 0034 1A78     		ldrb	r2, [r3]
 1475              	.LVL130:
1524:Generated_Source\PSoC4/MIDI1_UART.c ****                 }
1525:Generated_Source\PSoC4/MIDI1_UART.c ****                 while(((uint8)~tmpStat & MIDI1_UART_TX_STS_COMPLETE) != 0u);
 1476              		.loc 1 1525 0 discriminator 1
 1477 0036 0123     		movs	r3, #1
 1478 0038 9343     		bics	r3, r2
 1479 003a FAD1     		bne	.L116
 1480              	.LVL131:
 1481              	.L117:
1526:Generated_Source\PSoC4/MIDI1_UART.c ****             }
ARM GAS  C:\Users\psmus\AppData\Local\Temp\ccyQO4JR.s 			page 54


1527:Generated_Source\PSoC4/MIDI1_UART.c **** 
1528:Generated_Source\PSoC4/MIDI1_UART.c ****             if( (retMode == MIDI1_UART_WAIT_FOR_COMPLETE_REINIT) ||
1529:Generated_Source\PSoC4/MIDI1_UART.c ****                 (retMode == MIDI1_UART_REINIT) ||
 1482              		.loc 1 1529 0
 1483 003c 0138     		subs	r0, r0, #1
 1484              	.LVL132:
 1485 003e C0B2     		uxtb	r0, r0
1528:Generated_Source\PSoC4/MIDI1_UART.c ****                 (retMode == MIDI1_UART_REINIT) ||
 1486              		.loc 1 1528 0
 1487 0040 0228     		cmp	r0, #2
 1488 0042 03D8     		bhi	.L111
1530:Generated_Source\PSoC4/MIDI1_UART.c ****                 (retMode == MIDI1_UART_SEND_WAIT_REINIT) )
1531:Generated_Source\PSoC4/MIDI1_UART.c ****             {
1532:Generated_Source\PSoC4/MIDI1_UART.c **** 
1533:Generated_Source\PSoC4/MIDI1_UART.c ****             #if(MIDI1_UART_TXCLKGEN_DP)
1534:Generated_Source\PSoC4/MIDI1_UART.c ****                 MIDI1_UART_TXBITCLKTX_COMPLETE_REG = txPeriod;
 1489              		.loc 1 1534 0
 1490 0044 024B     		ldr	r3, .L118
 1491 0046 1A7A     		ldrb	r2, [r3, #8]
 1492 0048 024B     		ldr	r3, .L118+4
 1493 004a 1A70     		strb	r2, [r3]
 1494              	.L111:
 1495              	.LBE2:
1535:Generated_Source\PSoC4/MIDI1_UART.c ****             #else
1536:Generated_Source\PSoC4/MIDI1_UART.c ****                 MIDI1_UART_TXBITCTR_PERIOD_REG = txPeriod;
1537:Generated_Source\PSoC4/MIDI1_UART.c ****             #endif /* End MIDI1_UART_TXCLKGEN_DP */
1538:Generated_Source\PSoC4/MIDI1_UART.c **** 
1539:Generated_Source\PSoC4/MIDI1_UART.c ****             #if( (MIDI1_UART_PARITY_TYPE != MIDI1_UART__B_UART__NONE_REVB) || \
1540:Generated_Source\PSoC4/MIDI1_UART.c ****                  (MIDI1_UART_PARITY_TYPE_SW != 0u) )
1541:Generated_Source\PSoC4/MIDI1_UART.c ****                 MIDI1_UART_WriteControlRegister(MIDI1_UART_ReadControlRegister() &
1542:Generated_Source\PSoC4/MIDI1_UART.c ****                                                       (uint8) ~MIDI1_UART_CTRL_HD_SEND_BREAK);
1543:Generated_Source\PSoC4/MIDI1_UART.c ****             #endif /* End MIDI1_UART_PARITY_TYPE != NONE */
1544:Generated_Source\PSoC4/MIDI1_UART.c ****             }
1545:Generated_Source\PSoC4/MIDI1_UART.c ****         #endif    /* End MIDI1_UART_HD_ENABLED */
1546:Generated_Source\PSoC4/MIDI1_UART.c ****         }
1547:Generated_Source\PSoC4/MIDI1_UART.c ****     }
 1496              		.loc 1 1547 0
 1497              		@ sp needed
 1498 004c 7047     		bx	lr
 1499              	.L119:
 1500 004e C046     		.align	2
 1501              	.L118:
 1502 0050 00000000 		.word	.LANCHOR0
 1503 0054 34000F40 		.word	1074724916
 1504 0058 47000F40 		.word	1074724935
 1505 005c 64000F40 		.word	1074724964
 1506              		.cfi_endproc
 1507              	.LFE26:
 1508              		.size	MIDI1_UART_SendBreak, .-MIDI1_UART_SendBreak
 1509              		.section	.text.MIDI1_UART_SetTxAddressMode,"ax",%progbits
 1510              		.align	2
 1511              		.global	MIDI1_UART_SetTxAddressMode
 1512              		.code	16
 1513              		.thumb_func
 1514              		.type	MIDI1_UART_SetTxAddressMode, %function
 1515              	MIDI1_UART_SetTxAddressMode:
 1516              	.LFB27:
ARM GAS  C:\Users\psmus\AppData\Local\Temp\ccyQO4JR.s 			page 55


1548:Generated_Source\PSoC4/MIDI1_UART.c **** 
1549:Generated_Source\PSoC4/MIDI1_UART.c **** 
1550:Generated_Source\PSoC4/MIDI1_UART.c ****     /*******************************************************************************
1551:Generated_Source\PSoC4/MIDI1_UART.c ****     * Function Name: MIDI1_UART_SetTxAddressMode
1552:Generated_Source\PSoC4/MIDI1_UART.c ****     ********************************************************************************
1553:Generated_Source\PSoC4/MIDI1_UART.c ****     *
1554:Generated_Source\PSoC4/MIDI1_UART.c ****     * Summary:
1555:Generated_Source\PSoC4/MIDI1_UART.c ****     *  Configures the transmitter to signal the next bytes is address or data.
1556:Generated_Source\PSoC4/MIDI1_UART.c ****     *
1557:Generated_Source\PSoC4/MIDI1_UART.c ****     * Parameters:
1558:Generated_Source\PSoC4/MIDI1_UART.c ****     *  addressMode: 
1559:Generated_Source\PSoC4/MIDI1_UART.c ****     *       MIDI1_UART_SET_SPACE - Configure the transmitter to send the next
1560:Generated_Source\PSoC4/MIDI1_UART.c ****     *                                    byte as a data.
1561:Generated_Source\PSoC4/MIDI1_UART.c ****     *       MIDI1_UART_SET_MARK  - Configure the transmitter to send the next
1562:Generated_Source\PSoC4/MIDI1_UART.c ****     *                                    byte as an address.
1563:Generated_Source\PSoC4/MIDI1_UART.c ****     *
1564:Generated_Source\PSoC4/MIDI1_UART.c ****     * Return:
1565:Generated_Source\PSoC4/MIDI1_UART.c ****     *  None.
1566:Generated_Source\PSoC4/MIDI1_UART.c ****     *
1567:Generated_Source\PSoC4/MIDI1_UART.c ****     * Side Effects:
1568:Generated_Source\PSoC4/MIDI1_UART.c ****     *  This function sets and clears MIDI1_UART_CTRL_MARK bit in the Control
1569:Generated_Source\PSoC4/MIDI1_UART.c ****     *  register.
1570:Generated_Source\PSoC4/MIDI1_UART.c ****     *
1571:Generated_Source\PSoC4/MIDI1_UART.c ****     *******************************************************************************/
1572:Generated_Source\PSoC4/MIDI1_UART.c ****     void MIDI1_UART_SetTxAddressMode(uint8 addressMode) 
1573:Generated_Source\PSoC4/MIDI1_UART.c ****     {
 1517              		.loc 1 1573 0
 1518              		.cfi_startproc
 1519              		@ args = 0, pretend = 0, frame = 0
 1520              		@ frame_needed = 0, uses_anonymous_args = 0
 1521              		@ link register save eliminated.
 1522              	.LVL133:
1574:Generated_Source\PSoC4/MIDI1_UART.c ****         /* Mark/Space sending enable */
1575:Generated_Source\PSoC4/MIDI1_UART.c ****         if(addressMode != 0u)
1576:Generated_Source\PSoC4/MIDI1_UART.c ****         {
1577:Generated_Source\PSoC4/MIDI1_UART.c ****         #if( MIDI1_UART_CONTROL_REG_REMOVED == 0u )
1578:Generated_Source\PSoC4/MIDI1_UART.c ****             MIDI1_UART_WriteControlRegister(MIDI1_UART_ReadControlRegister() |
1579:Generated_Source\PSoC4/MIDI1_UART.c ****                                                   MIDI1_UART_CTRL_MARK);
1580:Generated_Source\PSoC4/MIDI1_UART.c ****         #endif /* End MIDI1_UART_CONTROL_REG_REMOVED == 0u */
1581:Generated_Source\PSoC4/MIDI1_UART.c ****         }
1582:Generated_Source\PSoC4/MIDI1_UART.c ****         else
1583:Generated_Source\PSoC4/MIDI1_UART.c ****         {
1584:Generated_Source\PSoC4/MIDI1_UART.c ****         #if( MIDI1_UART_CONTROL_REG_REMOVED == 0u )
1585:Generated_Source\PSoC4/MIDI1_UART.c ****             MIDI1_UART_WriteControlRegister(MIDI1_UART_ReadControlRegister() &
1586:Generated_Source\PSoC4/MIDI1_UART.c ****                                                   (uint8) ~MIDI1_UART_CTRL_MARK);
1587:Generated_Source\PSoC4/MIDI1_UART.c ****         #endif /* End MIDI1_UART_CONTROL_REG_REMOVED == 0u */
1588:Generated_Source\PSoC4/MIDI1_UART.c ****         }
1589:Generated_Source\PSoC4/MIDI1_UART.c ****     }
 1523              		.loc 1 1589 0
 1524              		@ sp needed
 1525 0000 7047     		bx	lr
 1526              		.cfi_endproc
 1527              	.LFE27:
 1528              		.size	MIDI1_UART_SetTxAddressMode, .-MIDI1_UART_SetTxAddressMode
 1529              		.global	MIDI1_UART_rxBufferOverflow
 1530              		.global	MIDI1_UART_rxBufferLoopDetect
 1531              		.global	MIDI1_UART_rxBufferWrite
ARM GAS  C:\Users\psmus\AppData\Local\Temp\ccyQO4JR.s 			page 56


 1532              		.global	MIDI1_UART_rxBufferRead
 1533              		.comm	MIDI1_UART_rxBuffer,64,4
 1534              		.global	MIDI1_UART_errorStatus
 1535              		.global	MIDI1_UART_txBufferWrite
 1536              		.global	MIDI1_UART_txBufferRead
 1537              		.comm	MIDI1_UART_txBuffer,64,4
 1538              		.global	MIDI1_UART_initVar
 1539 0002 C046     		.bss
 1540              		.set	.LANCHOR0,. + 0
 1541              		.type	MIDI1_UART_errorStatus, %object
 1542              		.size	MIDI1_UART_errorStatus, 1
 1543              	MIDI1_UART_errorStatus:
 1544 0000 00       		.space	1
 1545              		.type	MIDI1_UART_initVar, %object
 1546              		.size	MIDI1_UART_initVar, 1
 1547              	MIDI1_UART_initVar:
 1548 0001 00       		.space	1
 1549              		.type	MIDI1_UART_rxBufferRead, %object
 1550              		.size	MIDI1_UART_rxBufferRead, 1
 1551              	MIDI1_UART_rxBufferRead:
 1552 0002 00       		.space	1
 1553              		.type	MIDI1_UART_rxBufferWrite, %object
 1554              		.size	MIDI1_UART_rxBufferWrite, 1
 1555              	MIDI1_UART_rxBufferWrite:
 1556 0003 00       		.space	1
 1557              		.type	MIDI1_UART_rxBufferLoopDetect, %object
 1558              		.size	MIDI1_UART_rxBufferLoopDetect, 1
 1559              	MIDI1_UART_rxBufferLoopDetect:
 1560 0004 00       		.space	1
 1561              		.type	MIDI1_UART_rxBufferOverflow, %object
 1562              		.size	MIDI1_UART_rxBufferOverflow, 1
 1563              	MIDI1_UART_rxBufferOverflow:
 1564 0005 00       		.space	1
 1565              		.type	MIDI1_UART_txBufferRead, %object
 1566              		.size	MIDI1_UART_txBufferRead, 1
 1567              	MIDI1_UART_txBufferRead:
 1568 0006 00       		.space	1
 1569              		.type	MIDI1_UART_txBufferWrite, %object
 1570              		.size	MIDI1_UART_txBufferWrite, 1
 1571              	MIDI1_UART_txBufferWrite:
 1572 0007 00       		.space	1
 1573              		.type	txPeriod.5112, %object
 1574              		.size	txPeriod.5112, 1
 1575              	txPeriod.5112:
 1576 0008 00       		.space	1
 1577              		.text
 1578              	.Letext0:
 1579              		.file 2 "Generated_Source\\PSoC4\\cytypes.h"
 1580              		.file 3 "Generated_Source\\PSoC4\\CyLib.h"
 1581              		.file 4 "Generated_Source\\PSoC4\\MIDI1_UART_IntClock.h"