ARM GAS  C:\Users\psmus\AppData\Local\Temp\ccyQO4JR.s 			page 1


   1              		.syntax unified
   2              		.cpu cortex-m0
   3              		.fpu softvfp
   4              		.eabi_attribute 20, 1
   5              		.eabi_attribute 21, 1
   6              		.eabi_attribute 23, 3
   7              		.eabi_attribute 24, 1
   8              		.eabi_attribute 25, 1
   9              		.eabi_attribute 26, 1
  10              		.eabi_attribute 30, 1
  11              		.eabi_attribute 34, 0
  12              		.eabi_attribute 18, 4
  13              		.thumb
  14              		.syntax unified
  15              		.file	"MIDI1_UART.c"
  16              		.text
  17              	.Ltext0:
  18              		.cfi_sections	.debug_frame
  19              		.section	.text.MIDI1_UART_Init,"ax",%progbits
  20              		.align	2
  21              		.global	MIDI1_UART_Init
  22              		.code	16
  23              		.thumb_func
  24              		.type	MIDI1_UART_Init, %function
  25              	MIDI1_UART_Init:
  26              	.LFB2:
  27              		.file 1 "Generated_Source\\PSoC4\\MIDI1_UART.c"
   1:Generated_Source\PSoC4/MIDI1_UART.c **** /*******************************************************************************
   2:Generated_Source\PSoC4/MIDI1_UART.c **** * File Name: MIDI1_UART.c
   3:Generated_Source\PSoC4/MIDI1_UART.c **** * Version 2.50
   4:Generated_Source\PSoC4/MIDI1_UART.c **** *
   5:Generated_Source\PSoC4/MIDI1_UART.c **** * Description:
   6:Generated_Source\PSoC4/MIDI1_UART.c **** *  This file provides all API functionality of the UART component
   7:Generated_Source\PSoC4/MIDI1_UART.c **** *
   8:Generated_Source\PSoC4/MIDI1_UART.c **** * Note:
   9:Generated_Source\PSoC4/MIDI1_UART.c **** *
  10:Generated_Source\PSoC4/MIDI1_UART.c **** ********************************************************************************
  11:Generated_Source\PSoC4/MIDI1_UART.c **** * Copyright 2008-2015, Cypress Semiconductor Corporation.  All rights reserved.
  12:Generated_Source\PSoC4/MIDI1_UART.c **** * You may use this file only in accordance with the license, terms, conditions,
  13:Generated_Source\PSoC4/MIDI1_UART.c **** * disclaimers, and limitations in the end user license agreement accompanying
  14:Generated_Source\PSoC4/MIDI1_UART.c **** * the software package with which this file was provided.
  15:Generated_Source\PSoC4/MIDI1_UART.c **** *******************************************************************************/
  16:Generated_Source\PSoC4/MIDI1_UART.c **** 
  17:Generated_Source\PSoC4/MIDI1_UART.c **** #include "MIDI1_UART.h"
  18:Generated_Source\PSoC4/MIDI1_UART.c **** #if (MIDI1_UART_INTERNAL_CLOCK_USED)
  19:Generated_Source\PSoC4/MIDI1_UART.c ****     #include "MIDI1_UART_IntClock.h"
  20:Generated_Source\PSoC4/MIDI1_UART.c **** #endif /* End MIDI1_UART_INTERNAL_CLOCK_USED */
  21:Generated_Source\PSoC4/MIDI1_UART.c **** 
  22:Generated_Source\PSoC4/MIDI1_UART.c **** 
  23:Generated_Source\PSoC4/MIDI1_UART.c **** /***************************************
  24:Generated_Source\PSoC4/MIDI1_UART.c **** * Global data allocation
  25:Generated_Source\PSoC4/MIDI1_UART.c **** ***************************************/
  26:Generated_Source\PSoC4/MIDI1_UART.c **** 
  27:Generated_Source\PSoC4/MIDI1_UART.c **** uint8 MIDI1_UART_initVar = 0u;
  28:Generated_Source\PSoC4/MIDI1_UART.c **** 
  29:Generated_Source\PSoC4/MIDI1_UART.c **** #if (MIDI1_UART_TX_INTERRUPT_ENABLED && MIDI1_UART_TX_ENABLED)
  30:Generated_Source\PSoC4/MIDI1_UART.c ****     volatile uint8 MIDI1_UART_txBuffer[MIDI1_UART_TX_BUFFER_SIZE];
ARM GAS  C:\Users\psmus\AppData\Local\Temp\ccyQO4JR.s 			page 2


  31:Generated_Source\PSoC4/MIDI1_UART.c ****     volatile uint8 MIDI1_UART_txBufferRead = 0u;
  32:Generated_Source\PSoC4/MIDI1_UART.c ****     uint8 MIDI1_UART_txBufferWrite = 0u;
  33:Generated_Source\PSoC4/MIDI1_UART.c **** #endif /* (MIDI1_UART_TX_INTERRUPT_ENABLED && MIDI1_UART_TX_ENABLED) */
  34:Generated_Source\PSoC4/MIDI1_UART.c **** 
  35:Generated_Source\PSoC4/MIDI1_UART.c **** #if (MIDI1_UART_RX_INTERRUPT_ENABLED && (MIDI1_UART_RX_ENABLED || MIDI1_UART_HD_ENABLED))
  36:Generated_Source\PSoC4/MIDI1_UART.c ****     uint8 MIDI1_UART_errorStatus = 0u;
  37:Generated_Source\PSoC4/MIDI1_UART.c ****     volatile uint8 MIDI1_UART_rxBuffer[MIDI1_UART_RX_BUFFER_SIZE];
  38:Generated_Source\PSoC4/MIDI1_UART.c ****     volatile uint8 MIDI1_UART_rxBufferRead  = 0u;
  39:Generated_Source\PSoC4/MIDI1_UART.c ****     volatile uint8 MIDI1_UART_rxBufferWrite = 0u;
  40:Generated_Source\PSoC4/MIDI1_UART.c ****     volatile uint8 MIDI1_UART_rxBufferLoopDetect = 0u;
  41:Generated_Source\PSoC4/MIDI1_UART.c ****     volatile uint8 MIDI1_UART_rxBufferOverflow   = 0u;
  42:Generated_Source\PSoC4/MIDI1_UART.c ****     #if (MIDI1_UART_RXHW_ADDRESS_ENABLED)
  43:Generated_Source\PSoC4/MIDI1_UART.c ****         volatile uint8 MIDI1_UART_rxAddressMode = MIDI1_UART_RX_ADDRESS_MODE;
  44:Generated_Source\PSoC4/MIDI1_UART.c ****         volatile uint8 MIDI1_UART_rxAddressDetected = 0u;
  45:Generated_Source\PSoC4/MIDI1_UART.c ****     #endif /* (MIDI1_UART_RXHW_ADDRESS_ENABLED) */
  46:Generated_Source\PSoC4/MIDI1_UART.c **** #endif /* (MIDI1_UART_RX_INTERRUPT_ENABLED && (MIDI1_UART_RX_ENABLED || MIDI1_UART_HD_ENABLED)) */
  47:Generated_Source\PSoC4/MIDI1_UART.c **** 
  48:Generated_Source\PSoC4/MIDI1_UART.c **** 
  49:Generated_Source\PSoC4/MIDI1_UART.c **** /*******************************************************************************
  50:Generated_Source\PSoC4/MIDI1_UART.c **** * Function Name: MIDI1_UART_Start
  51:Generated_Source\PSoC4/MIDI1_UART.c **** ********************************************************************************
  52:Generated_Source\PSoC4/MIDI1_UART.c **** *
  53:Generated_Source\PSoC4/MIDI1_UART.c **** * Summary:
  54:Generated_Source\PSoC4/MIDI1_UART.c **** *  This is the preferred method to begin component operation.
  55:Generated_Source\PSoC4/MIDI1_UART.c **** *  MIDI1_UART_Start() sets the initVar variable, calls the
  56:Generated_Source\PSoC4/MIDI1_UART.c **** *  MIDI1_UART_Init() function, and then calls the
  57:Generated_Source\PSoC4/MIDI1_UART.c **** *  MIDI1_UART_Enable() function.
  58:Generated_Source\PSoC4/MIDI1_UART.c **** *
  59:Generated_Source\PSoC4/MIDI1_UART.c **** * Parameters:
  60:Generated_Source\PSoC4/MIDI1_UART.c **** *  None.
  61:Generated_Source\PSoC4/MIDI1_UART.c **** *
  62:Generated_Source\PSoC4/MIDI1_UART.c **** * Return:
  63:Generated_Source\PSoC4/MIDI1_UART.c **** *  None.
  64:Generated_Source\PSoC4/MIDI1_UART.c **** *
  65:Generated_Source\PSoC4/MIDI1_UART.c **** * Global variables:
  66:Generated_Source\PSoC4/MIDI1_UART.c **** *  The MIDI1_UART_intiVar variable is used to indicate initial
  67:Generated_Source\PSoC4/MIDI1_UART.c **** *  configuration of this component. The variable is initialized to zero (0u)
  68:Generated_Source\PSoC4/MIDI1_UART.c **** *  and set to one (1u) the first time MIDI1_UART_Start() is called. This
  69:Generated_Source\PSoC4/MIDI1_UART.c **** *  allows for component initialization without re-initialization in all
  70:Generated_Source\PSoC4/MIDI1_UART.c **** *  subsequent calls to the MIDI1_UART_Start() routine.
  71:Generated_Source\PSoC4/MIDI1_UART.c **** *
  72:Generated_Source\PSoC4/MIDI1_UART.c **** * Reentrant:
  73:Generated_Source\PSoC4/MIDI1_UART.c **** *  No.
  74:Generated_Source\PSoC4/MIDI1_UART.c **** *
  75:Generated_Source\PSoC4/MIDI1_UART.c **** *******************************************************************************/
  76:Generated_Source\PSoC4/MIDI1_UART.c **** void MIDI1_UART_Start(void) 
  77:Generated_Source\PSoC4/MIDI1_UART.c **** {
  78:Generated_Source\PSoC4/MIDI1_UART.c ****     /* If not initialized then initialize all required hardware and software */
  79:Generated_Source\PSoC4/MIDI1_UART.c ****     if(MIDI1_UART_initVar == 0u)
  80:Generated_Source\PSoC4/MIDI1_UART.c ****     {
  81:Generated_Source\PSoC4/MIDI1_UART.c ****         MIDI1_UART_Init();
  82:Generated_Source\PSoC4/MIDI1_UART.c ****         MIDI1_UART_initVar = 1u;
  83:Generated_Source\PSoC4/MIDI1_UART.c ****     }
  84:Generated_Source\PSoC4/MIDI1_UART.c **** 
  85:Generated_Source\PSoC4/MIDI1_UART.c ****     MIDI1_UART_Enable();
  86:Generated_Source\PSoC4/MIDI1_UART.c **** }
  87:Generated_Source\PSoC4/MIDI1_UART.c **** 
ARM GAS  C:\Users\psmus\AppData\Local\Temp\ccyQO4JR.s 			page 3


  88:Generated_Source\PSoC4/MIDI1_UART.c **** 
  89:Generated_Source\PSoC4/MIDI1_UART.c **** /*******************************************************************************
  90:Generated_Source\PSoC4/MIDI1_UART.c **** * Function Name: MIDI1_UART_Init
  91:Generated_Source\PSoC4/MIDI1_UART.c **** ********************************************************************************
  92:Generated_Source\PSoC4/MIDI1_UART.c **** *
  93:Generated_Source\PSoC4/MIDI1_UART.c **** * Summary:
  94:Generated_Source\PSoC4/MIDI1_UART.c **** *  Initializes or restores the component according to the customizer Configure
  95:Generated_Source\PSoC4/MIDI1_UART.c **** *  dialog settings. It is not necessary to call MIDI1_UART_Init() because
  96:Generated_Source\PSoC4/MIDI1_UART.c **** *  the MIDI1_UART_Start() API calls this function and is the preferred
  97:Generated_Source\PSoC4/MIDI1_UART.c **** *  method to begin component operation.
  98:Generated_Source\PSoC4/MIDI1_UART.c **** *
  99:Generated_Source\PSoC4/MIDI1_UART.c **** * Parameters:
 100:Generated_Source\PSoC4/MIDI1_UART.c **** *  None.
 101:Generated_Source\PSoC4/MIDI1_UART.c **** *
 102:Generated_Source\PSoC4/MIDI1_UART.c **** * Return:
 103:Generated_Source\PSoC4/MIDI1_UART.c **** *  None.
 104:Generated_Source\PSoC4/MIDI1_UART.c **** *
 105:Generated_Source\PSoC4/MIDI1_UART.c **** *******************************************************************************/
 106:Generated_Source\PSoC4/MIDI1_UART.c **** void MIDI1_UART_Init(void) 
 107:Generated_Source\PSoC4/MIDI1_UART.c **** {
  28              		.loc 1 107 0
  29              		.cfi_startproc
  30              		@ args = 0, pretend = 0, frame = 0
  31              		@ frame_needed = 0, uses_anonymous_args = 0
  32 0000 10B5     		push	{r4, lr}
  33              		.cfi_def_cfa_offset 8
  34              		.cfi_offset 4, -8
  35              		.cfi_offset 14, -4
 108:Generated_Source\PSoC4/MIDI1_UART.c ****     #if(MIDI1_UART_RX_ENABLED || MIDI1_UART_HD_ENABLED)
 109:Generated_Source\PSoC4/MIDI1_UART.c **** 
 110:Generated_Source\PSoC4/MIDI1_UART.c ****         #if (MIDI1_UART_RX_INTERRUPT_ENABLED)
 111:Generated_Source\PSoC4/MIDI1_UART.c ****             /* Set RX interrupt vector and priority */
 112:Generated_Source\PSoC4/MIDI1_UART.c ****             (void) CyIntSetVector(MIDI1_UART_RX_VECT_NUM, &MIDI1_UART_RXISR);
  36              		.loc 1 112 0
  37 0002 1149     		ldr	r1, .L2
  38 0004 0020     		movs	r0, #0
  39 0006 FFF7FEFF 		bl	CyIntSetVector
  40              	.LVL0:
 113:Generated_Source\PSoC4/MIDI1_UART.c ****             CyIntSetPriority(MIDI1_UART_RX_VECT_NUM, MIDI1_UART_RX_PRIOR_NUM);
  41              		.loc 1 113 0
  42 000a 0321     		movs	r1, #3
  43 000c 0020     		movs	r0, #0
  44 000e FFF7FEFF 		bl	CyIntSetPriority
  45              	.LVL1:
 114:Generated_Source\PSoC4/MIDI1_UART.c ****             MIDI1_UART_errorStatus = 0u;
  46              		.loc 1 114 0
  47 0012 0022     		movs	r2, #0
  48 0014 0D4B     		ldr	r3, .L2+4
  49 0016 1A70     		strb	r2, [r3]
 115:Generated_Source\PSoC4/MIDI1_UART.c ****         #endif /* (MIDI1_UART_RX_INTERRUPT_ENABLED) */
 116:Generated_Source\PSoC4/MIDI1_UART.c **** 
 117:Generated_Source\PSoC4/MIDI1_UART.c ****         #if (MIDI1_UART_RXHW_ADDRESS_ENABLED)
 118:Generated_Source\PSoC4/MIDI1_UART.c ****             MIDI1_UART_SetRxAddressMode(MIDI1_UART_RX_ADDRESS_MODE);
 119:Generated_Source\PSoC4/MIDI1_UART.c ****             MIDI1_UART_SetRxAddress1(MIDI1_UART_RX_HW_ADDRESS1);
 120:Generated_Source\PSoC4/MIDI1_UART.c ****             MIDI1_UART_SetRxAddress2(MIDI1_UART_RX_HW_ADDRESS2);
 121:Generated_Source\PSoC4/MIDI1_UART.c ****         #endif /* End MIDI1_UART_RXHW_ADDRESS_ENABLED */
 122:Generated_Source\PSoC4/MIDI1_UART.c **** 
ARM GAS  C:\Users\psmus\AppData\Local\Temp\ccyQO4JR.s 			page 4


 123:Generated_Source\PSoC4/MIDI1_UART.c ****         /* Init Count7 period */
 124:Generated_Source\PSoC4/MIDI1_UART.c ****         MIDI1_UART_RXBITCTR_PERIOD_REG = MIDI1_UART_RXBITCTR_INIT;
  50              		.loc 1 124 0
  51 0018 7232     		adds	r2, r2, #114
  52 001a 0D4B     		ldr	r3, .L2+8
  53 001c 1A70     		strb	r2, [r3]
 125:Generated_Source\PSoC4/MIDI1_UART.c ****         /* Configure the Initial RX interrupt mask */
 126:Generated_Source\PSoC4/MIDI1_UART.c ****         MIDI1_UART_RXSTATUS_MASK_REG  = MIDI1_UART_INIT_RX_INTERRUPTS_MASK;
  54              		.loc 1 126 0
  55 001e 523A     		subs	r2, r2, #82
  56 0020 0C4B     		ldr	r3, .L2+12
  57 0022 1A70     		strb	r2, [r3]
 127:Generated_Source\PSoC4/MIDI1_UART.c ****     #endif /* End MIDI1_UART_RX_ENABLED || MIDI1_UART_HD_ENABLED*/
 128:Generated_Source\PSoC4/MIDI1_UART.c **** 
 129:Generated_Source\PSoC4/MIDI1_UART.c ****     #if(MIDI1_UART_TX_ENABLED)
 130:Generated_Source\PSoC4/MIDI1_UART.c ****         #if (MIDI1_UART_TX_INTERRUPT_ENABLED)
 131:Generated_Source\PSoC4/MIDI1_UART.c ****             /* Set TX interrupt vector and priority */
 132:Generated_Source\PSoC4/MIDI1_UART.c ****             (void) CyIntSetVector(MIDI1_UART_TX_VECT_NUM, &MIDI1_UART_TXISR);
  58              		.loc 1 132 0
  59 0024 0C49     		ldr	r1, .L2+16
  60 0026 0120     		movs	r0, #1
  61 0028 FFF7FEFF 		bl	CyIntSetVector
  62              	.LVL2:
 133:Generated_Source\PSoC4/MIDI1_UART.c ****             CyIntSetPriority(MIDI1_UART_TX_VECT_NUM, MIDI1_UART_TX_PRIOR_NUM);
  63              		.loc 1 133 0
  64 002c 0321     		movs	r1, #3
  65 002e 0120     		movs	r0, #1
  66 0030 FFF7FEFF 		bl	CyIntSetPriority
  67              	.LVL3:
 134:Generated_Source\PSoC4/MIDI1_UART.c ****         #endif /* (MIDI1_UART_TX_INTERRUPT_ENABLED) */
 135:Generated_Source\PSoC4/MIDI1_UART.c **** 
 136:Generated_Source\PSoC4/MIDI1_UART.c ****         /* Write Counter Value for TX Bit Clk Generator*/
 137:Generated_Source\PSoC4/MIDI1_UART.c ****         #if (MIDI1_UART_TXCLKGEN_DP)
 138:Generated_Source\PSoC4/MIDI1_UART.c ****             MIDI1_UART_TXBITCLKGEN_CTR_REG = MIDI1_UART_BIT_CENTER;
  68              		.loc 1 138 0
  69 0034 0622     		movs	r2, #6
  70 0036 094B     		ldr	r3, .L2+20
  71 0038 1A70     		strb	r2, [r3]
 139:Generated_Source\PSoC4/MIDI1_UART.c ****             MIDI1_UART_TXBITCLKTX_COMPLETE_REG = ((MIDI1_UART_NUMBER_OF_DATA_BITS +
  72              		.loc 1 139 0
  73 003a 4132     		adds	r2, r2, #65
  74 003c 084B     		ldr	r3, .L2+24
  75 003e 1A70     		strb	r2, [r3]
 140:Generated_Source\PSoC4/MIDI1_UART.c ****                         MIDI1_UART_NUMBER_OF_START_BIT) * MIDI1_UART_OVER_SAMPLE_COUNT) - 1u;
 141:Generated_Source\PSoC4/MIDI1_UART.c ****         #else
 142:Generated_Source\PSoC4/MIDI1_UART.c ****             MIDI1_UART_TXBITCTR_PERIOD_REG = ((MIDI1_UART_NUMBER_OF_DATA_BITS +
 143:Generated_Source\PSoC4/MIDI1_UART.c ****                         MIDI1_UART_NUMBER_OF_START_BIT) * MIDI1_UART_OVER_SAMPLE_8) - 1u;
 144:Generated_Source\PSoC4/MIDI1_UART.c ****         #endif /* End MIDI1_UART_TXCLKGEN_DP */
 145:Generated_Source\PSoC4/MIDI1_UART.c **** 
 146:Generated_Source\PSoC4/MIDI1_UART.c ****         /* Configure the Initial TX interrupt mask */
 147:Generated_Source\PSoC4/MIDI1_UART.c ****         #if (MIDI1_UART_TX_INTERRUPT_ENABLED)
 148:Generated_Source\PSoC4/MIDI1_UART.c ****             MIDI1_UART_TXSTATUS_MASK_REG = MIDI1_UART_TX_STS_FIFO_EMPTY;
  76              		.loc 1 148 0
  77 0040 453A     		subs	r2, r2, #69
  78 0042 084B     		ldr	r3, .L2+28
  79 0044 1A70     		strb	r2, [r3]
 149:Generated_Source\PSoC4/MIDI1_UART.c ****         #else
ARM GAS  C:\Users\psmus\AppData\Local\Temp\ccyQO4JR.s 			page 5


 150:Generated_Source\PSoC4/MIDI1_UART.c ****             MIDI1_UART_TXSTATUS_MASK_REG = MIDI1_UART_INIT_TX_INTERRUPTS_MASK;
 151:Generated_Source\PSoC4/MIDI1_UART.c ****         #endif /*End MIDI1_UART_TX_INTERRUPT_ENABLED*/
 152:Generated_Source\PSoC4/MIDI1_UART.c **** 
 153:Generated_Source\PSoC4/MIDI1_UART.c ****     #endif /* End MIDI1_UART_TX_ENABLED */
 154:Generated_Source\PSoC4/MIDI1_UART.c **** 
 155:Generated_Source\PSoC4/MIDI1_UART.c ****     #if(MIDI1_UART_PARITY_TYPE_SW)  /* Write Parity to Control Register */
 156:Generated_Source\PSoC4/MIDI1_UART.c ****         MIDI1_UART_WriteControlRegister( \
 157:Generated_Source\PSoC4/MIDI1_UART.c ****             (MIDI1_UART_ReadControlRegister() & (uint8)~MIDI1_UART_CTRL_PARITY_TYPE_MASK) | \
 158:Generated_Source\PSoC4/MIDI1_UART.c ****             (uint8)(MIDI1_UART_PARITY_TYPE << MIDI1_UART_CTRL_PARITY_TYPE0_SHIFT) );
 159:Generated_Source\PSoC4/MIDI1_UART.c ****     #endif /* End MIDI1_UART_PARITY_TYPE_SW */
 160:Generated_Source\PSoC4/MIDI1_UART.c **** }
  80              		.loc 1 160 0
  81              		@ sp needed
  82 0046 10BD     		pop	{r4, pc}
  83              	.L3:
  84              		.align	2
  85              	.L2:
  86 0048 00000000 		.word	MIDI1_UART_RXISR
  87 004c 00000000 		.word	.LANCHOR0
  88 0050 81000F40 		.word	1074724993
  89 0054 83000F40 		.word	1074724995
  90 0058 00000000 		.word	MIDI1_UART_TXISR
  91 005c 24000F40 		.word	1074724900
  92 0060 34000F40 		.word	1074724916
  93 0064 84000F40 		.word	1074724996
  94              		.cfi_endproc
  95              	.LFE2:
  96              		.size	MIDI1_UART_Init, .-MIDI1_UART_Init
  97              		.section	.text.MIDI1_UART_Enable,"ax",%progbits
  98              		.align	2
  99              		.global	MIDI1_UART_Enable
 100              		.code	16
 101              		.thumb_func
 102              		.type	MIDI1_UART_Enable, %function
 103              	MIDI1_UART_Enable:
 104              	.LFB3:
 161:Generated_Source\PSoC4/MIDI1_UART.c **** 
 162:Generated_Source\PSoC4/MIDI1_UART.c **** 
 163:Generated_Source\PSoC4/MIDI1_UART.c **** /*******************************************************************************
 164:Generated_Source\PSoC4/MIDI1_UART.c **** * Function Name: MIDI1_UART_Enable
 165:Generated_Source\PSoC4/MIDI1_UART.c **** ********************************************************************************
 166:Generated_Source\PSoC4/MIDI1_UART.c **** *
 167:Generated_Source\PSoC4/MIDI1_UART.c **** * Summary:
 168:Generated_Source\PSoC4/MIDI1_UART.c **** *  Activates the hardware and begins component operation. It is not necessary
 169:Generated_Source\PSoC4/MIDI1_UART.c **** *  to call MIDI1_UART_Enable() because the MIDI1_UART_Start() API
 170:Generated_Source\PSoC4/MIDI1_UART.c **** *  calls this function, which is the preferred method to begin component
 171:Generated_Source\PSoC4/MIDI1_UART.c **** *  operation.
 172:Generated_Source\PSoC4/MIDI1_UART.c **** 
 173:Generated_Source\PSoC4/MIDI1_UART.c **** * Parameters:
 174:Generated_Source\PSoC4/MIDI1_UART.c **** *  None.
 175:Generated_Source\PSoC4/MIDI1_UART.c **** *
 176:Generated_Source\PSoC4/MIDI1_UART.c **** * Return:
 177:Generated_Source\PSoC4/MIDI1_UART.c **** *  None.
 178:Generated_Source\PSoC4/MIDI1_UART.c **** *
 179:Generated_Source\PSoC4/MIDI1_UART.c **** * Global Variables:
 180:Generated_Source\PSoC4/MIDI1_UART.c **** *  MIDI1_UART_rxAddressDetected - set to initial state (0).
 181:Generated_Source\PSoC4/MIDI1_UART.c **** *
ARM GAS  C:\Users\psmus\AppData\Local\Temp\ccyQO4JR.s 			page 6


 182:Generated_Source\PSoC4/MIDI1_UART.c **** *******************************************************************************/
 183:Generated_Source\PSoC4/MIDI1_UART.c **** void MIDI1_UART_Enable(void) 
 184:Generated_Source\PSoC4/MIDI1_UART.c **** {
 105              		.loc 1 184 0
 106              		.cfi_startproc
 107              		@ args = 0, pretend = 0, frame = 0
 108              		@ frame_needed = 0, uses_anonymous_args = 0
 109 0000 70B5     		push	{r4, r5, r6, lr}
 110              		.cfi_def_cfa_offset 16
 111              		.cfi_offset 4, -16
 112              		.cfi_offset 5, -12
 113              		.cfi_offset 6, -8
 114              		.cfi_offset 14, -4
 185:Generated_Source\PSoC4/MIDI1_UART.c ****     uint8 enableInterrupts;
 186:Generated_Source\PSoC4/MIDI1_UART.c ****     enableInterrupts = CyEnterCriticalSection();
 115              		.loc 1 186 0
 116 0002 FFF7FEFF 		bl	CyEnterCriticalSection
 117              	.LVL4:
 118 0006 0500     		movs	r5, r0
 119              	.LVL5:
 187:Generated_Source\PSoC4/MIDI1_UART.c **** 
 188:Generated_Source\PSoC4/MIDI1_UART.c ****     #if (MIDI1_UART_RX_ENABLED || MIDI1_UART_HD_ENABLED)
 189:Generated_Source\PSoC4/MIDI1_UART.c ****         /* RX Counter (Count7) Enable */
 190:Generated_Source\PSoC4/MIDI1_UART.c ****         MIDI1_UART_RXBITCTR_CONTROL_REG |= MIDI1_UART_CNTR_ENABLE;
 120              		.loc 1 190 0
 121 0008 104A     		ldr	r2, .L5
 122 000a 1178     		ldrb	r1, [r2]
 123 000c 2023     		movs	r3, #32
 124 000e 0B43     		orrs	r3, r1
 125 0010 DBB2     		uxtb	r3, r3
 126 0012 1370     		strb	r3, [r2]
 191:Generated_Source\PSoC4/MIDI1_UART.c **** 
 192:Generated_Source\PSoC4/MIDI1_UART.c ****         /* Enable the RX Interrupt */
 193:Generated_Source\PSoC4/MIDI1_UART.c ****         MIDI1_UART_RXSTATUS_ACTL_REG  |= MIDI1_UART_INT_ENABLE;
 127              		.loc 1 193 0
 128 0014 0E4A     		ldr	r2, .L5+4
 129 0016 1378     		ldrb	r3, [r2]
 130 0018 1024     		movs	r4, #16
 131 001a 2343     		orrs	r3, r4
 132 001c DBB2     		uxtb	r3, r3
 133 001e 1370     		strb	r3, [r2]
 194:Generated_Source\PSoC4/MIDI1_UART.c **** 
 195:Generated_Source\PSoC4/MIDI1_UART.c ****         #if (MIDI1_UART_RX_INTERRUPT_ENABLED)
 196:Generated_Source\PSoC4/MIDI1_UART.c ****             MIDI1_UART_EnableRxInt();
 134              		.loc 1 196 0
 135 0020 0020     		movs	r0, #0
 136 0022 FFF7FEFF 		bl	CyIntEnable
 137              	.LVL6:
 197:Generated_Source\PSoC4/MIDI1_UART.c **** 
 198:Generated_Source\PSoC4/MIDI1_UART.c ****             #if (MIDI1_UART_RXHW_ADDRESS_ENABLED)
 199:Generated_Source\PSoC4/MIDI1_UART.c ****                 MIDI1_UART_rxAddressDetected = 0u;
 200:Generated_Source\PSoC4/MIDI1_UART.c ****             #endif /* (MIDI1_UART_RXHW_ADDRESS_ENABLED) */
 201:Generated_Source\PSoC4/MIDI1_UART.c ****         #endif /* (MIDI1_UART_RX_INTERRUPT_ENABLED) */
 202:Generated_Source\PSoC4/MIDI1_UART.c ****     #endif /* (MIDI1_UART_RX_ENABLED || MIDI1_UART_HD_ENABLED) */
 203:Generated_Source\PSoC4/MIDI1_UART.c **** 
 204:Generated_Source\PSoC4/MIDI1_UART.c ****     #if(MIDI1_UART_TX_ENABLED)
 205:Generated_Source\PSoC4/MIDI1_UART.c ****         /* TX Counter (DP/Count7) Enable */
ARM GAS  C:\Users\psmus\AppData\Local\Temp\ccyQO4JR.s 			page 7


 206:Generated_Source\PSoC4/MIDI1_UART.c ****         #if(!MIDI1_UART_TXCLKGEN_DP)
 207:Generated_Source\PSoC4/MIDI1_UART.c ****             MIDI1_UART_TXBITCTR_CONTROL_REG |= MIDI1_UART_CNTR_ENABLE;
 208:Generated_Source\PSoC4/MIDI1_UART.c ****         #endif /* End MIDI1_UART_TXCLKGEN_DP */
 209:Generated_Source\PSoC4/MIDI1_UART.c **** 
 210:Generated_Source\PSoC4/MIDI1_UART.c ****         /* Enable the TX Interrupt */
 211:Generated_Source\PSoC4/MIDI1_UART.c ****         MIDI1_UART_TXSTATUS_ACTL_REG |= MIDI1_UART_INT_ENABLE;
 138              		.loc 1 211 0
 139 0026 0B4B     		ldr	r3, .L5+8
 140 0028 1A78     		ldrb	r2, [r3]
 141 002a 1443     		orrs	r4, r2
 142 002c E4B2     		uxtb	r4, r4
 143 002e 1C70     		strb	r4, [r3]
 212:Generated_Source\PSoC4/MIDI1_UART.c ****         #if (MIDI1_UART_TX_INTERRUPT_ENABLED)
 213:Generated_Source\PSoC4/MIDI1_UART.c ****             MIDI1_UART_ClearPendingTxInt(); /* Clear history of TX_NOT_EMPTY */
 144              		.loc 1 213 0
 145 0030 0120     		movs	r0, #1
 146 0032 FFF7FEFF 		bl	CyIntClearPending
 147              	.LVL7:
 214:Generated_Source\PSoC4/MIDI1_UART.c ****             MIDI1_UART_EnableTxInt();
 148              		.loc 1 214 0
 149 0036 0120     		movs	r0, #1
 150 0038 FFF7FEFF 		bl	CyIntEnable
 151              	.LVL8:
 215:Generated_Source\PSoC4/MIDI1_UART.c ****         #endif /* (MIDI1_UART_TX_INTERRUPT_ENABLED) */
 216:Generated_Source\PSoC4/MIDI1_UART.c ****      #endif /* (MIDI1_UART_TX_INTERRUPT_ENABLED) */
 217:Generated_Source\PSoC4/MIDI1_UART.c **** 
 218:Generated_Source\PSoC4/MIDI1_UART.c ****     #if (MIDI1_UART_INTERNAL_CLOCK_USED)
 219:Generated_Source\PSoC4/MIDI1_UART.c ****         MIDI1_UART_IntClock_Start();  /* Enable the clock */
 152              		.loc 1 219 0
 153 003c FF20     		movs	r0, #255
 154 003e FFF7FEFF 		bl	MIDI1_UART_IntClock_StartEx
 155              	.LVL9:
 220:Generated_Source\PSoC4/MIDI1_UART.c ****     #endif /* (MIDI1_UART_INTERNAL_CLOCK_USED) */
 221:Generated_Source\PSoC4/MIDI1_UART.c **** 
 222:Generated_Source\PSoC4/MIDI1_UART.c ****     CyExitCriticalSection(enableInterrupts);
 156              		.loc 1 222 0
 157 0042 2800     		movs	r0, r5
 158 0044 FFF7FEFF 		bl	CyExitCriticalSection
 159              	.LVL10:
 223:Generated_Source\PSoC4/MIDI1_UART.c **** }
 160              		.loc 1 223 0
 161              		@ sp needed
 162              	.LVL11:
 163 0048 70BD     		pop	{r4, r5, r6, pc}
 164              	.L6:
 165 004a C046     		.align	2
 166              	.L5:
 167 004c 91000F40 		.word	1074725009
 168 0050 93000F40 		.word	1074725011
 169 0054 94000F40 		.word	1074725012
 170              		.cfi_endproc
 171              	.LFE3:
 172              		.size	MIDI1_UART_Enable, .-MIDI1_UART_Enable
 173              		.section	.text.MIDI1_UART_Start,"ax",%progbits
 174              		.align	2
 175              		.global	MIDI1_UART_Start
 176              		.code	16
ARM GAS  C:\Users\psmus\AppData\Local\Temp\ccyQO4JR.s 			page 8


 177              		.thumb_func
 178              		.type	MIDI1_UART_Start, %function
 179              	MIDI1_UART_Start:
 180              	.LFB1:
  77:Generated_Source\PSoC4/MIDI1_UART.c ****     /* If not initialized then initialize all required hardware and software */
 181              		.loc 1 77 0
 182              		.cfi_startproc
 183              		@ args = 0, pretend = 0, frame = 0
 184              		@ frame_needed = 0, uses_anonymous_args = 0
 185 0000 10B5     		push	{r4, lr}
 186              		.cfi_def_cfa_offset 8
 187              		.cfi_offset 4, -8
 188              		.cfi_offset 14, -4
  79:Generated_Source\PSoC4/MIDI1_UART.c ****     {
 189              		.loc 1 79 0
 190 0002 064B     		ldr	r3, .L9
 191 0004 5B78     		ldrb	r3, [r3, #1]
 192 0006 002B     		cmp	r3, #0
 193 0008 04D1     		bne	.L8
  81:Generated_Source\PSoC4/MIDI1_UART.c ****         MIDI1_UART_initVar = 1u;
 194              		.loc 1 81 0
 195 000a FFF7FEFF 		bl	MIDI1_UART_Init
 196              	.LVL12:
  82:Generated_Source\PSoC4/MIDI1_UART.c ****     }
 197              		.loc 1 82 0
 198 000e 0122     		movs	r2, #1
 199 0010 024B     		ldr	r3, .L9
 200 0012 5A70     		strb	r2, [r3, #1]
 201              	.L8:
  85:Generated_Source\PSoC4/MIDI1_UART.c **** }
 202              		.loc 1 85 0
 203 0014 FFF7FEFF 		bl	MIDI1_UART_Enable
 204              	.LVL13:
  86:Generated_Source\PSoC4/MIDI1_UART.c **** 
 205              		.loc 1 86 0
 206              		@ sp needed
 207 0018 10BD     		pop	{r4, pc}
 208              	.L10:
 209 001a C046     		.align	2
 210              	.L9:
 211 001c 00000000 		.word	.LANCHOR0
 212              		.cfi_endproc
 213              	.LFE1:
 214              		.size	MIDI1_UART_Start, .-MIDI1_UART_Start
 215              		.section	.text.MIDI1_UART_Stop,"ax",%progbits
 216              		.align	2
 217              		.global	MIDI1_UART_Stop
 218              		.code	16
 219              		.thumb_func
 220              		.type	MIDI1_UART_Stop, %function
 221              	MIDI1_UART_Stop:
 222              	.LFB4:
 224:Generated_Source\PSoC4/MIDI1_UART.c **** 
 225:Generated_Source\PSoC4/MIDI1_UART.c **** 
 226:Generated_Source\PSoC4/MIDI1_UART.c **** /*******************************************************************************
 227:Generated_Source\PSoC4/MIDI1_UART.c **** * Function Name: MIDI1_UART_Stop
 228:Generated_Source\PSoC4/MIDI1_UART.c **** ********************************************************************************
ARM GAS  C:\Users\psmus\AppData\Local\Temp\ccyQO4JR.s 			page 9


 229:Generated_Source\PSoC4/MIDI1_UART.c **** *
 230:Generated_Source\PSoC4/MIDI1_UART.c **** * Summary:
 231:Generated_Source\PSoC4/MIDI1_UART.c **** *  Disables the UART operation.
 232:Generated_Source\PSoC4/MIDI1_UART.c **** *
 233:Generated_Source\PSoC4/MIDI1_UART.c **** * Parameters:
 234:Generated_Source\PSoC4/MIDI1_UART.c **** *  None.
 235:Generated_Source\PSoC4/MIDI1_UART.c **** *
 236:Generated_Source\PSoC4/MIDI1_UART.c **** * Return:
 237:Generated_Source\PSoC4/MIDI1_UART.c **** *  None.
 238:Generated_Source\PSoC4/MIDI1_UART.c **** *
 239:Generated_Source\PSoC4/MIDI1_UART.c **** *******************************************************************************/
 240:Generated_Source\PSoC4/MIDI1_UART.c **** void MIDI1_UART_Stop(void) 
 241:Generated_Source\PSoC4/MIDI1_UART.c **** {
 223              		.loc 1 241 0
 224              		.cfi_startproc
 225              		@ args = 0, pretend = 0, frame = 0
 226              		@ frame_needed = 0, uses_anonymous_args = 0
 227 0000 70B5     		push	{r4, r5, r6, lr}
 228              		.cfi_def_cfa_offset 16
 229              		.cfi_offset 4, -16
 230              		.cfi_offset 5, -12
 231              		.cfi_offset 6, -8
 232              		.cfi_offset 14, -4
 242:Generated_Source\PSoC4/MIDI1_UART.c ****     uint8 enableInterrupts;
 243:Generated_Source\PSoC4/MIDI1_UART.c ****     enableInterrupts = CyEnterCriticalSection();
 233              		.loc 1 243 0
 234 0002 FFF7FEFF 		bl	CyEnterCriticalSection
 235              	.LVL14:
 236 0006 0400     		movs	r4, r0
 237              	.LVL15:
 244:Generated_Source\PSoC4/MIDI1_UART.c **** 
 245:Generated_Source\PSoC4/MIDI1_UART.c ****     /* Write Bit Counter Disable */
 246:Generated_Source\PSoC4/MIDI1_UART.c ****     #if (MIDI1_UART_RX_ENABLED || MIDI1_UART_HD_ENABLED)
 247:Generated_Source\PSoC4/MIDI1_UART.c ****         MIDI1_UART_RXBITCTR_CONTROL_REG &= (uint8) ~MIDI1_UART_CNTR_ENABLE;
 238              		.loc 1 247 0
 239 0008 0C4A     		ldr	r2, .L12
 240 000a 1378     		ldrb	r3, [r2]
 241 000c 2021     		movs	r1, #32
 242 000e 8B43     		bics	r3, r1
 243 0010 1370     		strb	r3, [r2]
 248:Generated_Source\PSoC4/MIDI1_UART.c ****     #endif /* (MIDI1_UART_RX_ENABLED || MIDI1_UART_HD_ENABLED) */
 249:Generated_Source\PSoC4/MIDI1_UART.c **** 
 250:Generated_Source\PSoC4/MIDI1_UART.c ****     #if (MIDI1_UART_TX_ENABLED)
 251:Generated_Source\PSoC4/MIDI1_UART.c ****         #if(!MIDI1_UART_TXCLKGEN_DP)
 252:Generated_Source\PSoC4/MIDI1_UART.c ****             MIDI1_UART_TXBITCTR_CONTROL_REG &= (uint8) ~MIDI1_UART_CNTR_ENABLE;
 253:Generated_Source\PSoC4/MIDI1_UART.c ****         #endif /* (!MIDI1_UART_TXCLKGEN_DP) */
 254:Generated_Source\PSoC4/MIDI1_UART.c ****     #endif /* (MIDI1_UART_TX_ENABLED) */
 255:Generated_Source\PSoC4/MIDI1_UART.c **** 
 256:Generated_Source\PSoC4/MIDI1_UART.c ****     #if (MIDI1_UART_INTERNAL_CLOCK_USED)
 257:Generated_Source\PSoC4/MIDI1_UART.c ****         MIDI1_UART_IntClock_Stop();   /* Disable the clock */
 244              		.loc 1 257 0
 245 0012 FFF7FEFF 		bl	MIDI1_UART_IntClock_Stop
 246              	.LVL16:
 258:Generated_Source\PSoC4/MIDI1_UART.c ****     #endif /* (MIDI1_UART_INTERNAL_CLOCK_USED) */
 259:Generated_Source\PSoC4/MIDI1_UART.c **** 
 260:Generated_Source\PSoC4/MIDI1_UART.c ****     /* Disable internal interrupt component */
 261:Generated_Source\PSoC4/MIDI1_UART.c ****     #if (MIDI1_UART_RX_ENABLED || MIDI1_UART_HD_ENABLED)
ARM GAS  C:\Users\psmus\AppData\Local\Temp\ccyQO4JR.s 			page 10


 262:Generated_Source\PSoC4/MIDI1_UART.c ****         MIDI1_UART_RXSTATUS_ACTL_REG  &= (uint8) ~MIDI1_UART_INT_ENABLE;
 247              		.loc 1 262 0
 248 0016 0A4A     		ldr	r2, .L12+4
 249 0018 1378     		ldrb	r3, [r2]
 250 001a 1025     		movs	r5, #16
 251 001c AB43     		bics	r3, r5
 252 001e 1370     		strb	r3, [r2]
 263:Generated_Source\PSoC4/MIDI1_UART.c **** 
 264:Generated_Source\PSoC4/MIDI1_UART.c ****         #if (MIDI1_UART_RX_INTERRUPT_ENABLED)
 265:Generated_Source\PSoC4/MIDI1_UART.c ****             MIDI1_UART_DisableRxInt();
 253              		.loc 1 265 0
 254 0020 0020     		movs	r0, #0
 255 0022 FFF7FEFF 		bl	CyIntDisable
 256              	.LVL17:
 266:Generated_Source\PSoC4/MIDI1_UART.c ****         #endif /* (MIDI1_UART_RX_INTERRUPT_ENABLED) */
 267:Generated_Source\PSoC4/MIDI1_UART.c ****     #endif /* (MIDI1_UART_RX_ENABLED || MIDI1_UART_HD_ENABLED) */
 268:Generated_Source\PSoC4/MIDI1_UART.c **** 
 269:Generated_Source\PSoC4/MIDI1_UART.c ****     #if (MIDI1_UART_TX_ENABLED)
 270:Generated_Source\PSoC4/MIDI1_UART.c ****         MIDI1_UART_TXSTATUS_ACTL_REG &= (uint8) ~MIDI1_UART_INT_ENABLE;
 257              		.loc 1 270 0
 258 0026 074A     		ldr	r2, .L12+8
 259 0028 1378     		ldrb	r3, [r2]
 260 002a AB43     		bics	r3, r5
 261 002c 1370     		strb	r3, [r2]
 271:Generated_Source\PSoC4/MIDI1_UART.c **** 
 272:Generated_Source\PSoC4/MIDI1_UART.c ****         #if (MIDI1_UART_TX_INTERRUPT_ENABLED)
 273:Generated_Source\PSoC4/MIDI1_UART.c ****             MIDI1_UART_DisableTxInt();
 262              		.loc 1 273 0
 263 002e 0120     		movs	r0, #1
 264 0030 FFF7FEFF 		bl	CyIntDisable
 265              	.LVL18:
 274:Generated_Source\PSoC4/MIDI1_UART.c ****         #endif /* (MIDI1_UART_TX_INTERRUPT_ENABLED) */
 275:Generated_Source\PSoC4/MIDI1_UART.c ****     #endif /* (MIDI1_UART_TX_ENABLED) */
 276:Generated_Source\PSoC4/MIDI1_UART.c **** 
 277:Generated_Source\PSoC4/MIDI1_UART.c ****     CyExitCriticalSection(enableInterrupts);
 266              		.loc 1 277 0
 267 0034 2000     		movs	r0, r4
 268 0036 FFF7FEFF 		bl	CyExitCriticalSection
 269              	.LVL19:
 278:Generated_Source\PSoC4/MIDI1_UART.c **** }
 270              		.loc 1 278 0
 271              		@ sp needed
 272              	.LVL20:
 273 003a 70BD     		pop	{r4, r5, r6, pc}
 274              	.L13:
 275              		.align	2
 276              	.L12:
 277 003c 91000F40 		.word	1074725009
 278 0040 93000F40 		.word	1074725011
 279 0044 94000F40 		.word	1074725012
 280              		.cfi_endproc
 281              	.LFE4:
 282              		.size	MIDI1_UART_Stop, .-MIDI1_UART_Stop
 283              		.section	.text.MIDI1_UART_ReadControlRegister,"ax",%progbits
 284              		.align	2
 285              		.global	MIDI1_UART_ReadControlRegister
 286              		.code	16
ARM GAS  C:\Users\psmus\AppData\Local\Temp\ccyQO4JR.s 			page 11


 287              		.thumb_func
 288              		.type	MIDI1_UART_ReadControlRegister, %function
 289              	MIDI1_UART_ReadControlRegister:
 290              	.LFB5:
 279:Generated_Source\PSoC4/MIDI1_UART.c **** 
 280:Generated_Source\PSoC4/MIDI1_UART.c **** 
 281:Generated_Source\PSoC4/MIDI1_UART.c **** /*******************************************************************************
 282:Generated_Source\PSoC4/MIDI1_UART.c **** * Function Name: MIDI1_UART_ReadControlRegister
 283:Generated_Source\PSoC4/MIDI1_UART.c **** ********************************************************************************
 284:Generated_Source\PSoC4/MIDI1_UART.c **** *
 285:Generated_Source\PSoC4/MIDI1_UART.c **** * Summary:
 286:Generated_Source\PSoC4/MIDI1_UART.c **** *  Returns the current value of the control register.
 287:Generated_Source\PSoC4/MIDI1_UART.c **** *
 288:Generated_Source\PSoC4/MIDI1_UART.c **** * Parameters:
 289:Generated_Source\PSoC4/MIDI1_UART.c **** *  None.
 290:Generated_Source\PSoC4/MIDI1_UART.c **** *
 291:Generated_Source\PSoC4/MIDI1_UART.c **** * Return:
 292:Generated_Source\PSoC4/MIDI1_UART.c **** *  Contents of the control register.
 293:Generated_Source\PSoC4/MIDI1_UART.c **** *
 294:Generated_Source\PSoC4/MIDI1_UART.c **** *******************************************************************************/
 295:Generated_Source\PSoC4/MIDI1_UART.c **** uint8 MIDI1_UART_ReadControlRegister(void) 
 296:Generated_Source\PSoC4/MIDI1_UART.c **** {
 291              		.loc 1 296 0
 292              		.cfi_startproc
 293              		@ args = 0, pretend = 0, frame = 0
 294              		@ frame_needed = 0, uses_anonymous_args = 0
 295              		@ link register save eliminated.
 297:Generated_Source\PSoC4/MIDI1_UART.c ****     #if (MIDI1_UART_CONTROL_REG_REMOVED)
 298:Generated_Source\PSoC4/MIDI1_UART.c ****         return(0u);
 299:Generated_Source\PSoC4/MIDI1_UART.c ****     #else
 300:Generated_Source\PSoC4/MIDI1_UART.c ****         return(MIDI1_UART_CONTROL_REG);
 301:Generated_Source\PSoC4/MIDI1_UART.c ****     #endif /* (MIDI1_UART_CONTROL_REG_REMOVED) */
 302:Generated_Source\PSoC4/MIDI1_UART.c **** }
 296              		.loc 1 302 0
 297 0000 0020     		movs	r0, #0
 298              		@ sp needed
 299 0002 7047     		bx	lr
 300              		.cfi_endproc
 301              	.LFE5:
 302              		.size	MIDI1_UART_ReadControlRegister, .-MIDI1_UART_ReadControlRegister
 303              		.section	.text.MIDI1_UART_WriteControlRegister,"ax",%progbits
 304              		.align	2
 305              		.global	MIDI1_UART_WriteControlRegister
 306              		.code	16
 307              		.thumb_func
 308              		.type	MIDI1_UART_WriteControlRegister, %function
 309              	MIDI1_UART_WriteControlRegister:
 310              	.LFB6:
 303:Generated_Source\PSoC4/MIDI1_UART.c **** 
 304:Generated_Source\PSoC4/MIDI1_UART.c **** 
 305:Generated_Source\PSoC4/MIDI1_UART.c **** /*******************************************************************************
 306:Generated_Source\PSoC4/MIDI1_UART.c **** * Function Name: MIDI1_UART_WriteControlRegister
 307:Generated_Source\PSoC4/MIDI1_UART.c **** ********************************************************************************
 308:Generated_Source\PSoC4/MIDI1_UART.c **** *
 309:Generated_Source\PSoC4/MIDI1_UART.c **** * Summary:
 310:Generated_Source\PSoC4/MIDI1_UART.c **** *  Writes an 8-bit value into the control register
 311:Generated_Source\PSoC4/MIDI1_UART.c **** *
ARM GAS  C:\Users\psmus\AppData\Local\Temp\ccyQO4JR.s 			page 12


 312:Generated_Source\PSoC4/MIDI1_UART.c **** * Parameters:
 313:Generated_Source\PSoC4/MIDI1_UART.c **** *  control:  control register value
 314:Generated_Source\PSoC4/MIDI1_UART.c **** *
 315:Generated_Source\PSoC4/MIDI1_UART.c **** * Return:
 316:Generated_Source\PSoC4/MIDI1_UART.c **** *  None.
 317:Generated_Source\PSoC4/MIDI1_UART.c **** *
 318:Generated_Source\PSoC4/MIDI1_UART.c **** *******************************************************************************/
 319:Generated_Source\PSoC4/MIDI1_UART.c **** void  MIDI1_UART_WriteControlRegister(uint8 control) 
 320:Generated_Source\PSoC4/MIDI1_UART.c **** {
 311              		.loc 1 320 0
 312              		.cfi_startproc
 313              		@ args = 0, pretend = 0, frame = 0
 314              		@ frame_needed = 0, uses_anonymous_args = 0
 315              		@ link register save eliminated.
 316              	.LVL21:
 321:Generated_Source\PSoC4/MIDI1_UART.c ****     #if (MIDI1_UART_CONTROL_REG_REMOVED)
 322:Generated_Source\PSoC4/MIDI1_UART.c ****         if(0u != control)
 323:Generated_Source\PSoC4/MIDI1_UART.c ****         {
 324:Generated_Source\PSoC4/MIDI1_UART.c ****             /* Suppress compiler warning */
 325:Generated_Source\PSoC4/MIDI1_UART.c ****         }
 326:Generated_Source\PSoC4/MIDI1_UART.c ****     #else
 327:Generated_Source\PSoC4/MIDI1_UART.c ****        MIDI1_UART_CONTROL_REG = control;
 328:Generated_Source\PSoC4/MIDI1_UART.c ****     #endif /* (MIDI1_UART_CONTROL_REG_REMOVED) */
 329:Generated_Source\PSoC4/MIDI1_UART.c **** }
 317              		.loc 1 329 0
 318              		@ sp needed
 319 0000 7047     		bx	lr
 320              		.cfi_endproc
 321              	.LFE6:
 322              		.size	MIDI1_UART_WriteControlRegister, .-MIDI1_UART_WriteControlRegister
 323 0002 C046     		.section	.text.MIDI1_UART_SetRxInterruptMode,"ax",%progbits
 324              		.align	2
 325              		.global	MIDI1_UART_SetRxInterruptMode
 326              		.code	16
 327              		.thumb_func
 328              		.type	MIDI1_UART_SetRxInterruptMode, %function
 329              	MIDI1_UART_SetRxInterruptMode:
 330              	.LFB7:
 330:Generated_Source\PSoC4/MIDI1_UART.c **** 
 331:Generated_Source\PSoC4/MIDI1_UART.c **** 
 332:Generated_Source\PSoC4/MIDI1_UART.c **** #if(MIDI1_UART_RX_ENABLED || MIDI1_UART_HD_ENABLED)
 333:Generated_Source\PSoC4/MIDI1_UART.c ****     /*******************************************************************************
 334:Generated_Source\PSoC4/MIDI1_UART.c ****     * Function Name: MIDI1_UART_SetRxInterruptMode
 335:Generated_Source\PSoC4/MIDI1_UART.c ****     ********************************************************************************
 336:Generated_Source\PSoC4/MIDI1_UART.c ****     *
 337:Generated_Source\PSoC4/MIDI1_UART.c ****     * Summary:
 338:Generated_Source\PSoC4/MIDI1_UART.c ****     *  Configures the RX interrupt sources enabled.
 339:Generated_Source\PSoC4/MIDI1_UART.c ****     *
 340:Generated_Source\PSoC4/MIDI1_UART.c ****     * Parameters:
 341:Generated_Source\PSoC4/MIDI1_UART.c ****     *  IntSrc:  Bit field containing the RX interrupts to enable. Based on the 
 342:Generated_Source\PSoC4/MIDI1_UART.c ****     *  bit-field arrangement of the status register. This value must be a 
 343:Generated_Source\PSoC4/MIDI1_UART.c ****     *  combination of status register bit-masks shown below:
 344:Generated_Source\PSoC4/MIDI1_UART.c ****     *      MIDI1_UART_RX_STS_FIFO_NOTEMPTY    Interrupt on byte received.
 345:Generated_Source\PSoC4/MIDI1_UART.c ****     *      MIDI1_UART_RX_STS_PAR_ERROR        Interrupt on parity error.
 346:Generated_Source\PSoC4/MIDI1_UART.c ****     *      MIDI1_UART_RX_STS_STOP_ERROR       Interrupt on stop error.
 347:Generated_Source\PSoC4/MIDI1_UART.c ****     *      MIDI1_UART_RX_STS_BREAK            Interrupt on break.
 348:Generated_Source\PSoC4/MIDI1_UART.c ****     *      MIDI1_UART_RX_STS_OVERRUN          Interrupt on overrun error.
ARM GAS  C:\Users\psmus\AppData\Local\Temp\ccyQO4JR.s 			page 13


 349:Generated_Source\PSoC4/MIDI1_UART.c ****     *      MIDI1_UART_RX_STS_ADDR_MATCH       Interrupt on address match.
 350:Generated_Source\PSoC4/MIDI1_UART.c ****     *      MIDI1_UART_RX_STS_MRKSPC           Interrupt on address detect.
 351:Generated_Source\PSoC4/MIDI1_UART.c ****     *
 352:Generated_Source\PSoC4/MIDI1_UART.c ****     * Return:
 353:Generated_Source\PSoC4/MIDI1_UART.c ****     *  None.
 354:Generated_Source\PSoC4/MIDI1_UART.c ****     *
 355:Generated_Source\PSoC4/MIDI1_UART.c ****     * Theory:
 356:Generated_Source\PSoC4/MIDI1_UART.c ****     *  Enables the output of specific status bits to the interrupt controller
 357:Generated_Source\PSoC4/MIDI1_UART.c ****     *
 358:Generated_Source\PSoC4/MIDI1_UART.c ****     *******************************************************************************/
 359:Generated_Source\PSoC4/MIDI1_UART.c ****     void MIDI1_UART_SetRxInterruptMode(uint8 intSrc) 
 360:Generated_Source\PSoC4/MIDI1_UART.c ****     {
 331              		.loc 1 360 0
 332              		.cfi_startproc
 333              		@ args = 0, pretend = 0, frame = 0
 334              		@ frame_needed = 0, uses_anonymous_args = 0
 335              		@ link register save eliminated.
 336              	.LVL22:
 361:Generated_Source\PSoC4/MIDI1_UART.c ****         MIDI1_UART_RXSTATUS_MASK_REG  = intSrc;
 337              		.loc 1 361 0
 338 0000 014B     		ldr	r3, .L17
 339 0002 1870     		strb	r0, [r3]
 362:Generated_Source\PSoC4/MIDI1_UART.c ****     }
 340              		.loc 1 362 0
 341              		@ sp needed
 342 0004 7047     		bx	lr
 343              	.L18:
 344 0006 C046     		.align	2
 345              	.L17:
 346 0008 83000F40 		.word	1074724995
 347              		.cfi_endproc
 348              	.LFE7:
 349              		.size	MIDI1_UART_SetRxInterruptMode, .-MIDI1_UART_SetRxInterruptMode
 350              		.section	.text.MIDI1_UART_ReadRxData,"ax",%progbits
 351              		.align	2
 352              		.global	MIDI1_UART_ReadRxData
 353              		.code	16
 354              		.thumb_func
 355              		.type	MIDI1_UART_ReadRxData, %function
 356              	MIDI1_UART_ReadRxData:
 357              	.LFB8:
 363:Generated_Source\PSoC4/MIDI1_UART.c **** 
 364:Generated_Source\PSoC4/MIDI1_UART.c **** 
 365:Generated_Source\PSoC4/MIDI1_UART.c ****     /*******************************************************************************
 366:Generated_Source\PSoC4/MIDI1_UART.c ****     * Function Name: MIDI1_UART_ReadRxData
 367:Generated_Source\PSoC4/MIDI1_UART.c ****     ********************************************************************************
 368:Generated_Source\PSoC4/MIDI1_UART.c ****     *
 369:Generated_Source\PSoC4/MIDI1_UART.c ****     * Summary:
 370:Generated_Source\PSoC4/MIDI1_UART.c ****     *  Returns the next byte of received data. This function returns data without
 371:Generated_Source\PSoC4/MIDI1_UART.c ****     *  checking the status. You must check the status separately.
 372:Generated_Source\PSoC4/MIDI1_UART.c ****     *
 373:Generated_Source\PSoC4/MIDI1_UART.c ****     * Parameters:
 374:Generated_Source\PSoC4/MIDI1_UART.c ****     *  None.
 375:Generated_Source\PSoC4/MIDI1_UART.c ****     *
 376:Generated_Source\PSoC4/MIDI1_UART.c ****     * Return:
 377:Generated_Source\PSoC4/MIDI1_UART.c ****     *  Received data from RX register
 378:Generated_Source\PSoC4/MIDI1_UART.c ****     *
ARM GAS  C:\Users\psmus\AppData\Local\Temp\ccyQO4JR.s 			page 14


 379:Generated_Source\PSoC4/MIDI1_UART.c ****     * Global Variables:
 380:Generated_Source\PSoC4/MIDI1_UART.c ****     *  MIDI1_UART_rxBuffer - RAM buffer pointer for save received data.
 381:Generated_Source\PSoC4/MIDI1_UART.c ****     *  MIDI1_UART_rxBufferWrite - cyclic index for write to rxBuffer,
 382:Generated_Source\PSoC4/MIDI1_UART.c ****     *     checked to identify new data.
 383:Generated_Source\PSoC4/MIDI1_UART.c ****     *  MIDI1_UART_rxBufferRead - cyclic index for read from rxBuffer,
 384:Generated_Source\PSoC4/MIDI1_UART.c ****     *     incremented after each byte has been read from buffer.
 385:Generated_Source\PSoC4/MIDI1_UART.c ****     *  MIDI1_UART_rxBufferLoopDetect - cleared if loop condition was detected
 386:Generated_Source\PSoC4/MIDI1_UART.c ****     *     in RX ISR.
 387:Generated_Source\PSoC4/MIDI1_UART.c ****     *
 388:Generated_Source\PSoC4/MIDI1_UART.c ****     * Reentrant:
 389:Generated_Source\PSoC4/MIDI1_UART.c ****     *  No.
 390:Generated_Source\PSoC4/MIDI1_UART.c ****     *
 391:Generated_Source\PSoC4/MIDI1_UART.c ****     *******************************************************************************/
 392:Generated_Source\PSoC4/MIDI1_UART.c ****     uint8 MIDI1_UART_ReadRxData(void) 
 393:Generated_Source\PSoC4/MIDI1_UART.c ****     {
 358              		.loc 1 393 0
 359              		.cfi_startproc
 360              		@ args = 0, pretend = 0, frame = 0
 361              		@ frame_needed = 0, uses_anonymous_args = 0
 362 0000 10B5     		push	{r4, lr}
 363              		.cfi_def_cfa_offset 8
 364              		.cfi_offset 4, -8
 365              		.cfi_offset 14, -4
 394:Generated_Source\PSoC4/MIDI1_UART.c ****         uint8 rxData;
 395:Generated_Source\PSoC4/MIDI1_UART.c **** 
 396:Generated_Source\PSoC4/MIDI1_UART.c ****     #if (MIDI1_UART_RX_INTERRUPT_ENABLED)
 397:Generated_Source\PSoC4/MIDI1_UART.c **** 
 398:Generated_Source\PSoC4/MIDI1_UART.c ****         uint8 locRxBufferRead;
 399:Generated_Source\PSoC4/MIDI1_UART.c ****         uint8 locRxBufferWrite;
 400:Generated_Source\PSoC4/MIDI1_UART.c **** 
 401:Generated_Source\PSoC4/MIDI1_UART.c ****         /* Protect variables that could change on interrupt */
 402:Generated_Source\PSoC4/MIDI1_UART.c ****         MIDI1_UART_DisableRxInt();
 366              		.loc 1 402 0
 367 0002 0020     		movs	r0, #0
 368 0004 FFF7FEFF 		bl	CyIntDisable
 369              	.LVL23:
 403:Generated_Source\PSoC4/MIDI1_UART.c **** 
 404:Generated_Source\PSoC4/MIDI1_UART.c ****         locRxBufferRead  = MIDI1_UART_rxBufferRead;
 370              		.loc 1 404 0
 371 0008 114A     		ldr	r2, .L25
 372 000a 9378     		ldrb	r3, [r2, #2]
 373 000c DBB2     		uxtb	r3, r3
 374              	.LVL24:
 405:Generated_Source\PSoC4/MIDI1_UART.c ****         locRxBufferWrite = MIDI1_UART_rxBufferWrite;
 375              		.loc 1 405 0
 376 000e D178     		ldrb	r1, [r2, #3]
 377 0010 C9B2     		uxtb	r1, r1
 378              	.LVL25:
 406:Generated_Source\PSoC4/MIDI1_UART.c **** 
 407:Generated_Source\PSoC4/MIDI1_UART.c ****         if( (MIDI1_UART_rxBufferLoopDetect != 0u) || (locRxBufferRead != locRxBufferWrite) )
 379              		.loc 1 407 0
 380 0012 1279     		ldrb	r2, [r2, #4]
 381 0014 002A     		cmp	r2, #0
 382 0016 01D1     		bne	.L20
 383              		.loc 1 407 0 is_stmt 0 discriminator 1
 384 0018 8B42     		cmp	r3, r1
 385 001a 10D0     		beq	.L21
ARM GAS  C:\Users\psmus\AppData\Local\Temp\ccyQO4JR.s 			page 15


 386              	.L20:
 408:Generated_Source\PSoC4/MIDI1_UART.c ****         {
 409:Generated_Source\PSoC4/MIDI1_UART.c ****             rxData = MIDI1_UART_rxBuffer[locRxBufferRead];
 387              		.loc 1 409 0 is_stmt 1
 388 001c 0D4A     		ldr	r2, .L25+4
 389 001e D45C     		ldrb	r4, [r2, r3]
 390 0020 E4B2     		uxtb	r4, r4
 391              	.LVL26:
 410:Generated_Source\PSoC4/MIDI1_UART.c ****             locRxBufferRead++;
 392              		.loc 1 410 0
 393 0022 0133     		adds	r3, r3, #1
 394              	.LVL27:
 395 0024 DBB2     		uxtb	r3, r3
 396              	.LVL28:
 411:Generated_Source\PSoC4/MIDI1_UART.c **** 
 412:Generated_Source\PSoC4/MIDI1_UART.c ****             if(locRxBufferRead >= MIDI1_UART_RX_BUFFER_SIZE)
 397              		.loc 1 412 0
 398 0026 3F2B     		cmp	r3, #63
 399 0028 00D9     		bls	.L22
 413:Generated_Source\PSoC4/MIDI1_UART.c ****             {
 414:Generated_Source\PSoC4/MIDI1_UART.c ****                 locRxBufferRead = 0u;
 400              		.loc 1 414 0
 401 002a 0023     		movs	r3, #0
 402              	.LVL29:
 403              	.L22:
 415:Generated_Source\PSoC4/MIDI1_UART.c ****             }
 416:Generated_Source\PSoC4/MIDI1_UART.c ****             /* Update the real pointer */
 417:Generated_Source\PSoC4/MIDI1_UART.c ****             MIDI1_UART_rxBufferRead = locRxBufferRead;
 404              		.loc 1 417 0
 405 002c 084A     		ldr	r2, .L25
 406 002e 9370     		strb	r3, [r2, #2]
 418:Generated_Source\PSoC4/MIDI1_UART.c **** 
 419:Generated_Source\PSoC4/MIDI1_UART.c ****             if(MIDI1_UART_rxBufferLoopDetect != 0u)
 407              		.loc 1 419 0
 408 0030 1379     		ldrb	r3, [r2, #4]
 409              	.LVL30:
 410 0032 002B     		cmp	r3, #0
 411 0034 06D0     		beq	.L23
 420:Generated_Source\PSoC4/MIDI1_UART.c ****             {
 421:Generated_Source\PSoC4/MIDI1_UART.c ****                 MIDI1_UART_rxBufferLoopDetect = 0u;
 412              		.loc 1 421 0
 413 0036 0022     		movs	r2, #0
 414 0038 054B     		ldr	r3, .L25
 415 003a 1A71     		strb	r2, [r3, #4]
 416              	.LVL31:
 417 003c 02E0     		b	.L23
 418              	.LVL32:
 419              	.L21:
 422:Generated_Source\PSoC4/MIDI1_UART.c ****                 #if ((MIDI1_UART_RX_INTERRUPT_ENABLED) && (MIDI1_UART_FLOW_CONTROL != 0u))
 423:Generated_Source\PSoC4/MIDI1_UART.c ****                     /* When Hardware Flow Control selected - return RX mask */
 424:Generated_Source\PSoC4/MIDI1_UART.c ****                     #if( MIDI1_UART_HD_ENABLED )
 425:Generated_Source\PSoC4/MIDI1_UART.c ****                         if((MIDI1_UART_CONTROL_REG & MIDI1_UART_CTRL_HD_SEND) == 0u)
 426:Generated_Source\PSoC4/MIDI1_UART.c ****                         {   /* In Half duplex mode return RX mask only in RX
 427:Generated_Source\PSoC4/MIDI1_UART.c ****                             *  configuration set, otherwise
 428:Generated_Source\PSoC4/MIDI1_UART.c ****                             *  mask will be returned in LoadRxConfig() API.
 429:Generated_Source\PSoC4/MIDI1_UART.c ****                             */
 430:Generated_Source\PSoC4/MIDI1_UART.c ****                             MIDI1_UART_RXSTATUS_MASK_REG  |= MIDI1_UART_RX_STS_FIFO_NOTEMPTY;
ARM GAS  C:\Users\psmus\AppData\Local\Temp\ccyQO4JR.s 			page 16


 431:Generated_Source\PSoC4/MIDI1_UART.c ****                         }
 432:Generated_Source\PSoC4/MIDI1_UART.c ****                     #else
 433:Generated_Source\PSoC4/MIDI1_UART.c ****                         MIDI1_UART_RXSTATUS_MASK_REG  |= MIDI1_UART_RX_STS_FIFO_NOTEMPTY;
 434:Generated_Source\PSoC4/MIDI1_UART.c ****                     #endif /* end MIDI1_UART_HD_ENABLED */
 435:Generated_Source\PSoC4/MIDI1_UART.c ****                 #endif /* ((MIDI1_UART_RX_INTERRUPT_ENABLED) && (MIDI1_UART_FLOW_CONTROL != 0u)) */
 436:Generated_Source\PSoC4/MIDI1_UART.c ****             }
 437:Generated_Source\PSoC4/MIDI1_UART.c ****         }
 438:Generated_Source\PSoC4/MIDI1_UART.c ****         else
 439:Generated_Source\PSoC4/MIDI1_UART.c ****         {   /* Needs to check status for RX_STS_FIFO_NOTEMPTY bit */
 440:Generated_Source\PSoC4/MIDI1_UART.c ****             rxData = MIDI1_UART_RXDATA_REG;
 420              		.loc 1 440 0
 421 003e 064B     		ldr	r3, .L25+8
 422              	.LVL33:
 423 0040 1C78     		ldrb	r4, [r3]
 424 0042 E4B2     		uxtb	r4, r4
 425              	.LVL34:
 426              	.L23:
 441:Generated_Source\PSoC4/MIDI1_UART.c ****         }
 442:Generated_Source\PSoC4/MIDI1_UART.c **** 
 443:Generated_Source\PSoC4/MIDI1_UART.c ****         MIDI1_UART_EnableRxInt();
 427              		.loc 1 443 0
 428 0044 0020     		movs	r0, #0
 429 0046 FFF7FEFF 		bl	CyIntEnable
 430              	.LVL35:
 444:Generated_Source\PSoC4/MIDI1_UART.c **** 
 445:Generated_Source\PSoC4/MIDI1_UART.c ****     #else
 446:Generated_Source\PSoC4/MIDI1_UART.c **** 
 447:Generated_Source\PSoC4/MIDI1_UART.c ****         /* Needs to check status for RX_STS_FIFO_NOTEMPTY bit */
 448:Generated_Source\PSoC4/MIDI1_UART.c ****         rxData = MIDI1_UART_RXDATA_REG;
 449:Generated_Source\PSoC4/MIDI1_UART.c **** 
 450:Generated_Source\PSoC4/MIDI1_UART.c ****     #endif /* (MIDI1_UART_RX_INTERRUPT_ENABLED) */
 451:Generated_Source\PSoC4/MIDI1_UART.c **** 
 452:Generated_Source\PSoC4/MIDI1_UART.c ****         return(rxData);
 453:Generated_Source\PSoC4/MIDI1_UART.c ****     }
 431              		.loc 1 453 0
 432 004a 2000     		movs	r0, r4
 433              		@ sp needed
 434              	.LVL36:
 435 004c 10BD     		pop	{r4, pc}
 436              	.L26:
 437 004e C046     		.align	2
 438              	.L25:
 439 0050 00000000 		.word	.LANCHOR0
 440 0054 00000000 		.word	MIDI1_UART_rxBuffer
 441 0058 42000F40 		.word	1074724930
 442              		.cfi_endproc
 443              	.LFE8:
 444              		.size	MIDI1_UART_ReadRxData, .-MIDI1_UART_ReadRxData
 445              		.section	.text.MIDI1_UART_ReadRxStatus,"ax",%progbits
 446              		.align	2
 447              		.global	MIDI1_UART_ReadRxStatus
 448              		.code	16
 449              		.thumb_func
 450              		.type	MIDI1_UART_ReadRxStatus, %function
 451              	MIDI1_UART_ReadRxStatus:
 452              	.LFB9:
 454:Generated_Source\PSoC4/MIDI1_UART.c **** 
ARM GAS  C:\Users\psmus\AppData\Local\Temp\ccyQO4JR.s 			page 17


 455:Generated_Source\PSoC4/MIDI1_UART.c **** 
 456:Generated_Source\PSoC4/MIDI1_UART.c ****     /*******************************************************************************
 457:Generated_Source\PSoC4/MIDI1_UART.c ****     * Function Name: MIDI1_UART_ReadRxStatus
 458:Generated_Source\PSoC4/MIDI1_UART.c ****     ********************************************************************************
 459:Generated_Source\PSoC4/MIDI1_UART.c ****     *
 460:Generated_Source\PSoC4/MIDI1_UART.c ****     * Summary:
 461:Generated_Source\PSoC4/MIDI1_UART.c ****     *  Returns the current state of the receiver status register and the software
 462:Generated_Source\PSoC4/MIDI1_UART.c ****     *  buffer overflow status.
 463:Generated_Source\PSoC4/MIDI1_UART.c ****     *
 464:Generated_Source\PSoC4/MIDI1_UART.c ****     * Parameters:
 465:Generated_Source\PSoC4/MIDI1_UART.c ****     *  None.
 466:Generated_Source\PSoC4/MIDI1_UART.c ****     *
 467:Generated_Source\PSoC4/MIDI1_UART.c ****     * Return:
 468:Generated_Source\PSoC4/MIDI1_UART.c ****     *  Current state of the status register.
 469:Generated_Source\PSoC4/MIDI1_UART.c ****     *
 470:Generated_Source\PSoC4/MIDI1_UART.c ****     * Side Effect:
 471:Generated_Source\PSoC4/MIDI1_UART.c ****     *  All status register bits are clear-on-read except
 472:Generated_Source\PSoC4/MIDI1_UART.c ****     *  MIDI1_UART_RX_STS_FIFO_NOTEMPTY.
 473:Generated_Source\PSoC4/MIDI1_UART.c ****     *  MIDI1_UART_RX_STS_FIFO_NOTEMPTY clears immediately after RX data
 474:Generated_Source\PSoC4/MIDI1_UART.c ****     *  register read.
 475:Generated_Source\PSoC4/MIDI1_UART.c ****     *
 476:Generated_Source\PSoC4/MIDI1_UART.c ****     * Global Variables:
 477:Generated_Source\PSoC4/MIDI1_UART.c ****     *  MIDI1_UART_rxBufferOverflow - used to indicate overload condition.
 478:Generated_Source\PSoC4/MIDI1_UART.c ****     *   It set to one in RX interrupt when there isn't free space in
 479:Generated_Source\PSoC4/MIDI1_UART.c ****     *   MIDI1_UART_rxBufferRead to write new data. This condition returned
 480:Generated_Source\PSoC4/MIDI1_UART.c ****     *   and cleared to zero by this API as an
 481:Generated_Source\PSoC4/MIDI1_UART.c ****     *   MIDI1_UART_RX_STS_SOFT_BUFF_OVER bit along with RX Status register
 482:Generated_Source\PSoC4/MIDI1_UART.c ****     *   bits.
 483:Generated_Source\PSoC4/MIDI1_UART.c ****     *
 484:Generated_Source\PSoC4/MIDI1_UART.c ****     *******************************************************************************/
 485:Generated_Source\PSoC4/MIDI1_UART.c ****     uint8 MIDI1_UART_ReadRxStatus(void) 
 486:Generated_Source\PSoC4/MIDI1_UART.c ****     {
 453              		.loc 1 486 0
 454              		.cfi_startproc
 455              		@ args = 0, pretend = 0, frame = 0
 456              		@ frame_needed = 0, uses_anonymous_args = 0
 457              		@ link register save eliminated.
 487:Generated_Source\PSoC4/MIDI1_UART.c ****         uint8 status;
 488:Generated_Source\PSoC4/MIDI1_UART.c **** 
 489:Generated_Source\PSoC4/MIDI1_UART.c ****         status = MIDI1_UART_RXSTATUS_REG & MIDI1_UART_RX_HW_MASK;
 458              		.loc 1 489 0
 459 0000 074B     		ldr	r3, .L29
 460 0002 1878     		ldrb	r0, [r3]
 461 0004 7F23     		movs	r3, #127
 462 0006 1840     		ands	r0, r3
 463              	.LVL37:
 490:Generated_Source\PSoC4/MIDI1_UART.c **** 
 491:Generated_Source\PSoC4/MIDI1_UART.c ****     #if (MIDI1_UART_RX_INTERRUPT_ENABLED)
 492:Generated_Source\PSoC4/MIDI1_UART.c ****         if(MIDI1_UART_rxBufferOverflow != 0u)
 464              		.loc 1 492 0
 465 0008 064B     		ldr	r3, .L29+4
 466 000a 5B79     		ldrb	r3, [r3, #5]
 467 000c 002B     		cmp	r3, #0
 468 000e 06D0     		beq	.L28
 493:Generated_Source\PSoC4/MIDI1_UART.c ****         {
 494:Generated_Source\PSoC4/MIDI1_UART.c ****             status |= MIDI1_UART_RX_STS_SOFT_BUFF_OVER;
 469              		.loc 1 494 0
ARM GAS  C:\Users\psmus\AppData\Local\Temp\ccyQO4JR.s 			page 18


 470 0010 8023     		movs	r3, #128
 471 0012 5B42     		rsbs	r3, r3, #0
 472 0014 1843     		orrs	r0, r3
 473              	.LVL38:
 474 0016 C0B2     		uxtb	r0, r0
 475              	.LVL39:
 495:Generated_Source\PSoC4/MIDI1_UART.c ****             MIDI1_UART_rxBufferOverflow = 0u;
 476              		.loc 1 495 0
 477 0018 0022     		movs	r2, #0
 478 001a 024B     		ldr	r3, .L29+4
 479 001c 5A71     		strb	r2, [r3, #5]
 480              	.L28:
 496:Generated_Source\PSoC4/MIDI1_UART.c ****         }
 497:Generated_Source\PSoC4/MIDI1_UART.c ****     #endif /* (MIDI1_UART_RX_INTERRUPT_ENABLED) */
 498:Generated_Source\PSoC4/MIDI1_UART.c **** 
 499:Generated_Source\PSoC4/MIDI1_UART.c ****         return(status);
 500:Generated_Source\PSoC4/MIDI1_UART.c ****     }
 481              		.loc 1 500 0
 482              		@ sp needed
 483 001e 7047     		bx	lr
 484              	.L30:
 485              		.align	2
 486              	.L29:
 487 0020 63000F40 		.word	1074724963
 488 0024 00000000 		.word	.LANCHOR0
 489              		.cfi_endproc
 490              	.LFE9:
 491              		.size	MIDI1_UART_ReadRxStatus, .-MIDI1_UART_ReadRxStatus
 492              		.section	.text.MIDI1_UART_GetChar,"ax",%progbits
 493              		.align	2
 494              		.global	MIDI1_UART_GetChar
 495              		.code	16
 496              		.thumb_func
 497              		.type	MIDI1_UART_GetChar, %function
 498              	MIDI1_UART_GetChar:
 499              	.LFB10:
 501:Generated_Source\PSoC4/MIDI1_UART.c **** 
 502:Generated_Source\PSoC4/MIDI1_UART.c **** 
 503:Generated_Source\PSoC4/MIDI1_UART.c ****     /*******************************************************************************
 504:Generated_Source\PSoC4/MIDI1_UART.c ****     * Function Name: MIDI1_UART_GetChar
 505:Generated_Source\PSoC4/MIDI1_UART.c ****     ********************************************************************************
 506:Generated_Source\PSoC4/MIDI1_UART.c ****     *
 507:Generated_Source\PSoC4/MIDI1_UART.c ****     * Summary:
 508:Generated_Source\PSoC4/MIDI1_UART.c ****     *  Returns the last received byte of data. MIDI1_UART_GetChar() is
 509:Generated_Source\PSoC4/MIDI1_UART.c ****     *  designed for ASCII characters and returns a uint8 where 1 to 255 are values
 510:Generated_Source\PSoC4/MIDI1_UART.c ****     *  for valid characters and 0 indicates an error occurred or no data is present.
 511:Generated_Source\PSoC4/MIDI1_UART.c ****     *
 512:Generated_Source\PSoC4/MIDI1_UART.c ****     * Parameters:
 513:Generated_Source\PSoC4/MIDI1_UART.c ****     *  None.
 514:Generated_Source\PSoC4/MIDI1_UART.c ****     *
 515:Generated_Source\PSoC4/MIDI1_UART.c ****     * Return:
 516:Generated_Source\PSoC4/MIDI1_UART.c ****     *  Character read from UART RX buffer. ASCII characters from 1 to 255 are valid.
 517:Generated_Source\PSoC4/MIDI1_UART.c ****     *  A returned zero signifies an error condition or no data available.
 518:Generated_Source\PSoC4/MIDI1_UART.c ****     *
 519:Generated_Source\PSoC4/MIDI1_UART.c ****     * Global Variables:
 520:Generated_Source\PSoC4/MIDI1_UART.c ****     *  MIDI1_UART_rxBuffer - RAM buffer pointer for save received data.
 521:Generated_Source\PSoC4/MIDI1_UART.c ****     *  MIDI1_UART_rxBufferWrite - cyclic index for write to rxBuffer,
ARM GAS  C:\Users\psmus\AppData\Local\Temp\ccyQO4JR.s 			page 19


 522:Generated_Source\PSoC4/MIDI1_UART.c ****     *     checked to identify new data.
 523:Generated_Source\PSoC4/MIDI1_UART.c ****     *  MIDI1_UART_rxBufferRead - cyclic index for read from rxBuffer,
 524:Generated_Source\PSoC4/MIDI1_UART.c ****     *     incremented after each byte has been read from buffer.
 525:Generated_Source\PSoC4/MIDI1_UART.c ****     *  MIDI1_UART_rxBufferLoopDetect - cleared if loop condition was detected
 526:Generated_Source\PSoC4/MIDI1_UART.c ****     *     in RX ISR.
 527:Generated_Source\PSoC4/MIDI1_UART.c ****     *
 528:Generated_Source\PSoC4/MIDI1_UART.c ****     * Reentrant:
 529:Generated_Source\PSoC4/MIDI1_UART.c ****     *  No.
 530:Generated_Source\PSoC4/MIDI1_UART.c ****     *
 531:Generated_Source\PSoC4/MIDI1_UART.c ****     *******************************************************************************/
 532:Generated_Source\PSoC4/MIDI1_UART.c ****     uint8 MIDI1_UART_GetChar(void) 
 533:Generated_Source\PSoC4/MIDI1_UART.c ****     {
 500              		.loc 1 533 0
 501              		.cfi_startproc
 502              		@ args = 0, pretend = 0, frame = 0
 503              		@ frame_needed = 0, uses_anonymous_args = 0
 504 0000 10B5     		push	{r4, lr}
 505              		.cfi_def_cfa_offset 8
 506              		.cfi_offset 4, -8
 507              		.cfi_offset 14, -4
 508              	.LVL40:
 534:Generated_Source\PSoC4/MIDI1_UART.c ****         uint8 rxData = 0u;
 535:Generated_Source\PSoC4/MIDI1_UART.c ****         uint8 rxStatus;
 536:Generated_Source\PSoC4/MIDI1_UART.c **** 
 537:Generated_Source\PSoC4/MIDI1_UART.c ****     #if (MIDI1_UART_RX_INTERRUPT_ENABLED)
 538:Generated_Source\PSoC4/MIDI1_UART.c ****         uint8 locRxBufferRead;
 539:Generated_Source\PSoC4/MIDI1_UART.c ****         uint8 locRxBufferWrite;
 540:Generated_Source\PSoC4/MIDI1_UART.c **** 
 541:Generated_Source\PSoC4/MIDI1_UART.c ****         /* Protect variables that could change on interrupt */
 542:Generated_Source\PSoC4/MIDI1_UART.c ****         MIDI1_UART_DisableRxInt();
 509              		.loc 1 542 0
 510 0002 0020     		movs	r0, #0
 511 0004 FFF7FEFF 		bl	CyIntDisable
 512              	.LVL41:
 543:Generated_Source\PSoC4/MIDI1_UART.c **** 
 544:Generated_Source\PSoC4/MIDI1_UART.c ****         locRxBufferRead  = MIDI1_UART_rxBufferRead;
 513              		.loc 1 544 0
 514 0008 174A     		ldr	r2, .L39
 515 000a 9378     		ldrb	r3, [r2, #2]
 516 000c DBB2     		uxtb	r3, r3
 517              	.LVL42:
 545:Generated_Source\PSoC4/MIDI1_UART.c ****         locRxBufferWrite = MIDI1_UART_rxBufferWrite;
 518              		.loc 1 545 0
 519 000e D178     		ldrb	r1, [r2, #3]
 520 0010 C9B2     		uxtb	r1, r1
 521              	.LVL43:
 546:Generated_Source\PSoC4/MIDI1_UART.c **** 
 547:Generated_Source\PSoC4/MIDI1_UART.c ****         if( (MIDI1_UART_rxBufferLoopDetect != 0u) || (locRxBufferRead != locRxBufferWrite) )
 522              		.loc 1 547 0
 523 0012 1279     		ldrb	r2, [r2, #4]
 524 0014 002A     		cmp	r2, #0
 525 0016 01D1     		bne	.L32
 526              		.loc 1 547 0 is_stmt 0 discriminator 1
 527 0018 8B42     		cmp	r3, r1
 528 001a 10D0     		beq	.L33
 529              	.L32:
 548:Generated_Source\PSoC4/MIDI1_UART.c ****         {
ARM GAS  C:\Users\psmus\AppData\Local\Temp\ccyQO4JR.s 			page 20


 549:Generated_Source\PSoC4/MIDI1_UART.c ****             rxData = MIDI1_UART_rxBuffer[locRxBufferRead];
 530              		.loc 1 549 0 is_stmt 1
 531 001c 134A     		ldr	r2, .L39+4
 532 001e D45C     		ldrb	r4, [r2, r3]
 533 0020 E4B2     		uxtb	r4, r4
 534              	.LVL44:
 550:Generated_Source\PSoC4/MIDI1_UART.c ****             locRxBufferRead++;
 535              		.loc 1 550 0
 536 0022 0133     		adds	r3, r3, #1
 537              	.LVL45:
 538 0024 DBB2     		uxtb	r3, r3
 539              	.LVL46:
 551:Generated_Source\PSoC4/MIDI1_UART.c ****             if(locRxBufferRead >= MIDI1_UART_RX_BUFFER_SIZE)
 540              		.loc 1 551 0
 541 0026 3F2B     		cmp	r3, #63
 542 0028 00D9     		bls	.L34
 552:Generated_Source\PSoC4/MIDI1_UART.c ****             {
 553:Generated_Source\PSoC4/MIDI1_UART.c ****                 locRxBufferRead = 0u;
 543              		.loc 1 553 0
 544 002a 0023     		movs	r3, #0
 545              	.LVL47:
 546              	.L34:
 554:Generated_Source\PSoC4/MIDI1_UART.c ****             }
 555:Generated_Source\PSoC4/MIDI1_UART.c ****             /* Update the real pointer */
 556:Generated_Source\PSoC4/MIDI1_UART.c ****             MIDI1_UART_rxBufferRead = locRxBufferRead;
 547              		.loc 1 556 0
 548 002c 0E4A     		ldr	r2, .L39
 549 002e 9370     		strb	r3, [r2, #2]
 557:Generated_Source\PSoC4/MIDI1_UART.c **** 
 558:Generated_Source\PSoC4/MIDI1_UART.c ****             if(MIDI1_UART_rxBufferLoopDetect != 0u)
 550              		.loc 1 558 0
 551 0030 1379     		ldrb	r3, [r2, #4]
 552              	.LVL48:
 553 0032 002B     		cmp	r3, #0
 554 0034 12D0     		beq	.L35
 559:Generated_Source\PSoC4/MIDI1_UART.c ****             {
 560:Generated_Source\PSoC4/MIDI1_UART.c ****                 MIDI1_UART_rxBufferLoopDetect = 0u;
 555              		.loc 1 560 0
 556 0036 0022     		movs	r2, #0
 557 0038 0B4B     		ldr	r3, .L39
 558 003a 1A71     		strb	r2, [r3, #4]
 559              	.LVL49:
 560 003c 0EE0     		b	.L35
 561              	.LVL50:
 562              	.L33:
 561:Generated_Source\PSoC4/MIDI1_UART.c ****                 #if( (MIDI1_UART_RX_INTERRUPT_ENABLED) && (MIDI1_UART_FLOW_CONTROL != 0u) )
 562:Generated_Source\PSoC4/MIDI1_UART.c ****                     /* When Hardware Flow Control selected - return RX mask */
 563:Generated_Source\PSoC4/MIDI1_UART.c ****                     #if( MIDI1_UART_HD_ENABLED )
 564:Generated_Source\PSoC4/MIDI1_UART.c ****                         if((MIDI1_UART_CONTROL_REG & MIDI1_UART_CTRL_HD_SEND) == 0u)
 565:Generated_Source\PSoC4/MIDI1_UART.c ****                         {   /* In Half duplex mode return RX mask only if
 566:Generated_Source\PSoC4/MIDI1_UART.c ****                             *  RX configuration set, otherwise
 567:Generated_Source\PSoC4/MIDI1_UART.c ****                             *  mask will be returned in LoadRxConfig() API.
 568:Generated_Source\PSoC4/MIDI1_UART.c ****                             */
 569:Generated_Source\PSoC4/MIDI1_UART.c ****                             MIDI1_UART_RXSTATUS_MASK_REG |= MIDI1_UART_RX_STS_FIFO_NOTEMPTY;
 570:Generated_Source\PSoC4/MIDI1_UART.c ****                         }
 571:Generated_Source\PSoC4/MIDI1_UART.c ****                     #else
 572:Generated_Source\PSoC4/MIDI1_UART.c ****                         MIDI1_UART_RXSTATUS_MASK_REG |= MIDI1_UART_RX_STS_FIFO_NOTEMPTY;
ARM GAS  C:\Users\psmus\AppData\Local\Temp\ccyQO4JR.s 			page 21


 573:Generated_Source\PSoC4/MIDI1_UART.c ****                     #endif /* end MIDI1_UART_HD_ENABLED */
 574:Generated_Source\PSoC4/MIDI1_UART.c ****                 #endif /* MIDI1_UART_RX_INTERRUPT_ENABLED and Hardware flow control*/
 575:Generated_Source\PSoC4/MIDI1_UART.c ****             }
 576:Generated_Source\PSoC4/MIDI1_UART.c **** 
 577:Generated_Source\PSoC4/MIDI1_UART.c ****         }
 578:Generated_Source\PSoC4/MIDI1_UART.c ****         else
 579:Generated_Source\PSoC4/MIDI1_UART.c ****         {   rxStatus = MIDI1_UART_RXSTATUS_REG;
 563              		.loc 1 579 0
 564 003e 0C4B     		ldr	r3, .L39+8
 565              	.LVL51:
 566 0040 1B78     		ldrb	r3, [r3]
 567 0042 DBB2     		uxtb	r3, r3
 568              	.LVL52:
 580:Generated_Source\PSoC4/MIDI1_UART.c ****             if((rxStatus & MIDI1_UART_RX_STS_FIFO_NOTEMPTY) != 0u)
 569              		.loc 1 580 0
 570 0044 9A06     		lsls	r2, r3, #26
 571 0046 06D5     		bpl	.L37
 581:Generated_Source\PSoC4/MIDI1_UART.c ****             {   /* Read received data from FIFO */
 582:Generated_Source\PSoC4/MIDI1_UART.c ****                 rxData = MIDI1_UART_RXDATA_REG;
 572              		.loc 1 582 0
 573 0048 0A4A     		ldr	r2, .L39+12
 574 004a 1478     		ldrb	r4, [r2]
 575 004c E4B2     		uxtb	r4, r4
 576              	.LVL53:
 583:Generated_Source\PSoC4/MIDI1_UART.c ****                 /*Check status on error*/
 584:Generated_Source\PSoC4/MIDI1_UART.c ****                 if((rxStatus & (MIDI1_UART_RX_STS_BREAK | MIDI1_UART_RX_STS_PAR_ERROR |
 577              		.loc 1 584 0
 578 004e 1E22     		movs	r2, #30
 579 0050 1A42     		tst	r2, r3
 580 0052 02D1     		bne	.L38
 581 0054 02E0     		b	.L35
 582              	.LVL54:
 583              	.L37:
 534:Generated_Source\PSoC4/MIDI1_UART.c ****         uint8 rxStatus;
 584              		.loc 1 534 0
 585 0056 0024     		movs	r4, #0
 586 0058 00E0     		b	.L35
 587              	.LVL55:
 588              	.L38:
 585:Generated_Source\PSoC4/MIDI1_UART.c ****                                 MIDI1_UART_RX_STS_STOP_ERROR | MIDI1_UART_RX_STS_OVERRUN)) != 0u)
 586:Generated_Source\PSoC4/MIDI1_UART.c ****                 {
 587:Generated_Source\PSoC4/MIDI1_UART.c ****                     rxData = 0u;
 589              		.loc 1 587 0
 590 005a 0024     		movs	r4, #0
 591              	.LVL56:
 592              	.L35:
 588:Generated_Source\PSoC4/MIDI1_UART.c ****                 }
 589:Generated_Source\PSoC4/MIDI1_UART.c ****             }
 590:Generated_Source\PSoC4/MIDI1_UART.c ****         }
 591:Generated_Source\PSoC4/MIDI1_UART.c **** 
 592:Generated_Source\PSoC4/MIDI1_UART.c ****         MIDI1_UART_EnableRxInt();
 593              		.loc 1 592 0
 594 005c 0020     		movs	r0, #0
 595 005e FFF7FEFF 		bl	CyIntEnable
 596              	.LVL57:
 593:Generated_Source\PSoC4/MIDI1_UART.c **** 
 594:Generated_Source\PSoC4/MIDI1_UART.c ****     #else
ARM GAS  C:\Users\psmus\AppData\Local\Temp\ccyQO4JR.s 			page 22


 595:Generated_Source\PSoC4/MIDI1_UART.c **** 
 596:Generated_Source\PSoC4/MIDI1_UART.c ****         rxStatus =MIDI1_UART_RXSTATUS_REG;
 597:Generated_Source\PSoC4/MIDI1_UART.c ****         if((rxStatus & MIDI1_UART_RX_STS_FIFO_NOTEMPTY) != 0u)
 598:Generated_Source\PSoC4/MIDI1_UART.c ****         {
 599:Generated_Source\PSoC4/MIDI1_UART.c ****             /* Read received data from FIFO */
 600:Generated_Source\PSoC4/MIDI1_UART.c ****             rxData = MIDI1_UART_RXDATA_REG;
 601:Generated_Source\PSoC4/MIDI1_UART.c **** 
 602:Generated_Source\PSoC4/MIDI1_UART.c ****             /*Check status on error*/
 603:Generated_Source\PSoC4/MIDI1_UART.c ****             if((rxStatus & (MIDI1_UART_RX_STS_BREAK | MIDI1_UART_RX_STS_PAR_ERROR |
 604:Generated_Source\PSoC4/MIDI1_UART.c ****                             MIDI1_UART_RX_STS_STOP_ERROR | MIDI1_UART_RX_STS_OVERRUN)) != 0u)
 605:Generated_Source\PSoC4/MIDI1_UART.c ****             {
 606:Generated_Source\PSoC4/MIDI1_UART.c ****                 rxData = 0u;
 607:Generated_Source\PSoC4/MIDI1_UART.c ****             }
 608:Generated_Source\PSoC4/MIDI1_UART.c ****         }
 609:Generated_Source\PSoC4/MIDI1_UART.c ****     #endif /* (MIDI1_UART_RX_INTERRUPT_ENABLED) */
 610:Generated_Source\PSoC4/MIDI1_UART.c **** 
 611:Generated_Source\PSoC4/MIDI1_UART.c ****         return(rxData);
 612:Generated_Source\PSoC4/MIDI1_UART.c ****     }
 597              		.loc 1 612 0
 598 0062 2000     		movs	r0, r4
 599              		@ sp needed
 600              	.LVL58:
 601 0064 10BD     		pop	{r4, pc}
 602              	.L40:
 603 0066 C046     		.align	2
 604              	.L39:
 605 0068 00000000 		.word	.LANCHOR0
 606 006c 00000000 		.word	MIDI1_UART_rxBuffer
 607 0070 63000F40 		.word	1074724963
 608 0074 42000F40 		.word	1074724930
 609              		.cfi_endproc
 610              	.LFE10:
 611              		.size	MIDI1_UART_GetChar, .-MIDI1_UART_GetChar
 612              		.section	.text.MIDI1_UART_GetByte,"ax",%progbits
 613              		.align	2
 614              		.global	MIDI1_UART_GetByte
 615              		.code	16
 616              		.thumb_func
 617              		.type	MIDI1_UART_GetByte, %function
 618              	MIDI1_UART_GetByte:
 619              	.LFB11:
 613:Generated_Source\PSoC4/MIDI1_UART.c **** 
 614:Generated_Source\PSoC4/MIDI1_UART.c **** 
 615:Generated_Source\PSoC4/MIDI1_UART.c ****     /*******************************************************************************
 616:Generated_Source\PSoC4/MIDI1_UART.c ****     * Function Name: MIDI1_UART_GetByte
 617:Generated_Source\PSoC4/MIDI1_UART.c ****     ********************************************************************************
 618:Generated_Source\PSoC4/MIDI1_UART.c ****     *
 619:Generated_Source\PSoC4/MIDI1_UART.c ****     * Summary:
 620:Generated_Source\PSoC4/MIDI1_UART.c ****     *  Reads UART RX buffer immediately, returns received character and error
 621:Generated_Source\PSoC4/MIDI1_UART.c ****     *  condition.
 622:Generated_Source\PSoC4/MIDI1_UART.c ****     *
 623:Generated_Source\PSoC4/MIDI1_UART.c ****     * Parameters:
 624:Generated_Source\PSoC4/MIDI1_UART.c ****     *  None.
 625:Generated_Source\PSoC4/MIDI1_UART.c ****     *
 626:Generated_Source\PSoC4/MIDI1_UART.c ****     * Return:
 627:Generated_Source\PSoC4/MIDI1_UART.c ****     *  MSB contains status and LSB contains UART RX data. If the MSB is nonzero,
 628:Generated_Source\PSoC4/MIDI1_UART.c ****     *  an error has occurred.
ARM GAS  C:\Users\psmus\AppData\Local\Temp\ccyQO4JR.s 			page 23


 629:Generated_Source\PSoC4/MIDI1_UART.c ****     *
 630:Generated_Source\PSoC4/MIDI1_UART.c ****     * Reentrant:
 631:Generated_Source\PSoC4/MIDI1_UART.c ****     *  No.
 632:Generated_Source\PSoC4/MIDI1_UART.c ****     *
 633:Generated_Source\PSoC4/MIDI1_UART.c ****     *******************************************************************************/
 634:Generated_Source\PSoC4/MIDI1_UART.c ****     uint16 MIDI1_UART_GetByte(void) 
 635:Generated_Source\PSoC4/MIDI1_UART.c ****     {
 620              		.loc 1 635 0
 621              		.cfi_startproc
 622              		@ args = 0, pretend = 0, frame = 0
 623              		@ frame_needed = 0, uses_anonymous_args = 0
 624 0000 10B5     		push	{r4, lr}
 625              		.cfi_def_cfa_offset 8
 626              		.cfi_offset 4, -8
 627              		.cfi_offset 14, -4
 636:Generated_Source\PSoC4/MIDI1_UART.c ****         
 637:Generated_Source\PSoC4/MIDI1_UART.c ****     #if (MIDI1_UART_RX_INTERRUPT_ENABLED)
 638:Generated_Source\PSoC4/MIDI1_UART.c ****         uint16 locErrorStatus;
 639:Generated_Source\PSoC4/MIDI1_UART.c ****         /* Protect variables that could change on interrupt */
 640:Generated_Source\PSoC4/MIDI1_UART.c ****         MIDI1_UART_DisableRxInt();
 628              		.loc 1 640 0
 629 0002 0020     		movs	r0, #0
 630 0004 FFF7FEFF 		bl	CyIntDisable
 631              	.LVL59:
 641:Generated_Source\PSoC4/MIDI1_UART.c ****         locErrorStatus = (uint16)MIDI1_UART_errorStatus;
 632              		.loc 1 641 0
 633 0008 064B     		ldr	r3, .L42
 634 000a 1C78     		ldrb	r4, [r3]
 635              	.LVL60:
 642:Generated_Source\PSoC4/MIDI1_UART.c ****         MIDI1_UART_errorStatus = 0u;
 636              		.loc 1 642 0
 637 000c 0022     		movs	r2, #0
 638 000e 1A70     		strb	r2, [r3]
 643:Generated_Source\PSoC4/MIDI1_UART.c ****         MIDI1_UART_EnableRxInt();
 639              		.loc 1 643 0
 640 0010 0020     		movs	r0, #0
 641 0012 FFF7FEFF 		bl	CyIntEnable
 642              	.LVL61:
 644:Generated_Source\PSoC4/MIDI1_UART.c ****         return ( (uint16)(locErrorStatus << 8u) | MIDI1_UART_ReadRxData() );
 643              		.loc 1 644 0
 644 0016 2402     		lsls	r4, r4, #8
 645              	.LVL62:
 646 0018 FFF7FEFF 		bl	MIDI1_UART_ReadRxData
 647              	.LVL63:
 648 001c 2043     		orrs	r0, r4
 649 001e 80B2     		uxth	r0, r0
 645:Generated_Source\PSoC4/MIDI1_UART.c ****     #else
 646:Generated_Source\PSoC4/MIDI1_UART.c ****         return ( ((uint16)MIDI1_UART_ReadRxStatus() << 8u) | MIDI1_UART_ReadRxData() );
 647:Generated_Source\PSoC4/MIDI1_UART.c ****     #endif /* MIDI1_UART_RX_INTERRUPT_ENABLED */
 648:Generated_Source\PSoC4/MIDI1_UART.c ****         
 649:Generated_Source\PSoC4/MIDI1_UART.c ****     }
 650              		.loc 1 649 0
 651              		@ sp needed
 652 0020 10BD     		pop	{r4, pc}
 653              	.L43:
 654 0022 C046     		.align	2
 655              	.L42:
ARM GAS  C:\Users\psmus\AppData\Local\Temp\ccyQO4JR.s 			page 24


 656 0024 00000000 		.word	.LANCHOR0
 657              		.cfi_endproc
 658              	.LFE11:
 659              		.size	MIDI1_UART_GetByte, .-MIDI1_UART_GetByte
 660              		.section	.text.MIDI1_UART_GetRxBufferSize,"ax",%progbits
 661              		.align	2
 662              		.global	MIDI1_UART_GetRxBufferSize
 663              		.code	16
 664              		.thumb_func
 665              		.type	MIDI1_UART_GetRxBufferSize, %function
 666              	MIDI1_UART_GetRxBufferSize:
 667              	.LFB12:
 650:Generated_Source\PSoC4/MIDI1_UART.c **** 
 651:Generated_Source\PSoC4/MIDI1_UART.c **** 
 652:Generated_Source\PSoC4/MIDI1_UART.c ****     /*******************************************************************************
 653:Generated_Source\PSoC4/MIDI1_UART.c ****     * Function Name: MIDI1_UART_GetRxBufferSize
 654:Generated_Source\PSoC4/MIDI1_UART.c ****     ********************************************************************************
 655:Generated_Source\PSoC4/MIDI1_UART.c ****     *
 656:Generated_Source\PSoC4/MIDI1_UART.c ****     * Summary:
 657:Generated_Source\PSoC4/MIDI1_UART.c ****     *  Returns the number of received bytes available in the RX buffer.
 658:Generated_Source\PSoC4/MIDI1_UART.c ****     *  * RX software buffer is disabled (RX Buffer Size parameter is equal to 4): 
 659:Generated_Source\PSoC4/MIDI1_UART.c ****     *    returns 0 for empty RX FIFO or 1 for not empty RX FIFO.
 660:Generated_Source\PSoC4/MIDI1_UART.c ****     *  * RX software buffer is enabled: returns the number of bytes available in 
 661:Generated_Source\PSoC4/MIDI1_UART.c ****     *    the RX software buffer. Bytes available in the RX FIFO do not take to 
 662:Generated_Source\PSoC4/MIDI1_UART.c ****     *    account.
 663:Generated_Source\PSoC4/MIDI1_UART.c ****     *
 664:Generated_Source\PSoC4/MIDI1_UART.c ****     * Parameters:
 665:Generated_Source\PSoC4/MIDI1_UART.c ****     *  None.
 666:Generated_Source\PSoC4/MIDI1_UART.c ****     *
 667:Generated_Source\PSoC4/MIDI1_UART.c ****     * Return:
 668:Generated_Source\PSoC4/MIDI1_UART.c ****     *  uint8: Number of bytes in the RX buffer. 
 669:Generated_Source\PSoC4/MIDI1_UART.c ****     *    Return value type depends on RX Buffer Size parameter.
 670:Generated_Source\PSoC4/MIDI1_UART.c ****     *
 671:Generated_Source\PSoC4/MIDI1_UART.c ****     * Global Variables:
 672:Generated_Source\PSoC4/MIDI1_UART.c ****     *  MIDI1_UART_rxBufferWrite - used to calculate left bytes.
 673:Generated_Source\PSoC4/MIDI1_UART.c ****     *  MIDI1_UART_rxBufferRead - used to calculate left bytes.
 674:Generated_Source\PSoC4/MIDI1_UART.c ****     *  MIDI1_UART_rxBufferLoopDetect - checked to decide left bytes amount.
 675:Generated_Source\PSoC4/MIDI1_UART.c ****     *
 676:Generated_Source\PSoC4/MIDI1_UART.c ****     * Reentrant:
 677:Generated_Source\PSoC4/MIDI1_UART.c ****     *  No.
 678:Generated_Source\PSoC4/MIDI1_UART.c ****     *
 679:Generated_Source\PSoC4/MIDI1_UART.c ****     * Theory:
 680:Generated_Source\PSoC4/MIDI1_UART.c ****     *  Allows the user to find out how full the RX Buffer is.
 681:Generated_Source\PSoC4/MIDI1_UART.c ****     *
 682:Generated_Source\PSoC4/MIDI1_UART.c ****     *******************************************************************************/
 683:Generated_Source\PSoC4/MIDI1_UART.c ****     uint8 MIDI1_UART_GetRxBufferSize(void)
 684:Generated_Source\PSoC4/MIDI1_UART.c ****                                                             
 685:Generated_Source\PSoC4/MIDI1_UART.c ****     {
 668              		.loc 1 685 0
 669              		.cfi_startproc
 670              		@ args = 0, pretend = 0, frame = 0
 671              		@ frame_needed = 0, uses_anonymous_args = 0
 672 0000 10B5     		push	{r4, lr}
 673              		.cfi_def_cfa_offset 8
 674              		.cfi_offset 4, -8
 675              		.cfi_offset 14, -4
 686:Generated_Source\PSoC4/MIDI1_UART.c ****         uint8 size;
ARM GAS  C:\Users\psmus\AppData\Local\Temp\ccyQO4JR.s 			page 25


 687:Generated_Source\PSoC4/MIDI1_UART.c **** 
 688:Generated_Source\PSoC4/MIDI1_UART.c ****     #if (MIDI1_UART_RX_INTERRUPT_ENABLED)
 689:Generated_Source\PSoC4/MIDI1_UART.c **** 
 690:Generated_Source\PSoC4/MIDI1_UART.c ****         /* Protect variables that could change on interrupt */
 691:Generated_Source\PSoC4/MIDI1_UART.c ****         MIDI1_UART_DisableRxInt();
 676              		.loc 1 691 0
 677 0002 0020     		movs	r0, #0
 678 0004 FFF7FEFF 		bl	CyIntDisable
 679              	.LVL64:
 692:Generated_Source\PSoC4/MIDI1_UART.c **** 
 693:Generated_Source\PSoC4/MIDI1_UART.c ****         if(MIDI1_UART_rxBufferRead == MIDI1_UART_rxBufferWrite)
 680              		.loc 1 693 0
 681 0008 134B     		ldr	r3, .L49
 682 000a 9A78     		ldrb	r2, [r3, #2]
 683 000c D2B2     		uxtb	r2, r2
 684 000e DB78     		ldrb	r3, [r3, #3]
 685 0010 DBB2     		uxtb	r3, r3
 686 0012 9A42     		cmp	r2, r3
 687 0014 05D1     		bne	.L45
 694:Generated_Source\PSoC4/MIDI1_UART.c ****         {
 695:Generated_Source\PSoC4/MIDI1_UART.c ****             if(MIDI1_UART_rxBufferLoopDetect != 0u)
 688              		.loc 1 695 0
 689 0016 104B     		ldr	r3, .L49
 690 0018 1B79     		ldrb	r3, [r3, #4]
 691 001a 002B     		cmp	r3, #0
 692 001c 15D0     		beq	.L48
 696:Generated_Source\PSoC4/MIDI1_UART.c ****             {
 697:Generated_Source\PSoC4/MIDI1_UART.c ****                 size = MIDI1_UART_RX_BUFFER_SIZE;
 693              		.loc 1 697 0
 694 001e 4024     		movs	r4, #64
 695 0020 14E0     		b	.L46
 696              	.L45:
 698:Generated_Source\PSoC4/MIDI1_UART.c ****             }
 699:Generated_Source\PSoC4/MIDI1_UART.c ****             else
 700:Generated_Source\PSoC4/MIDI1_UART.c ****             {
 701:Generated_Source\PSoC4/MIDI1_UART.c ****                 size = 0u;
 702:Generated_Source\PSoC4/MIDI1_UART.c ****             }
 703:Generated_Source\PSoC4/MIDI1_UART.c ****         }
 704:Generated_Source\PSoC4/MIDI1_UART.c ****         else if(MIDI1_UART_rxBufferRead < MIDI1_UART_rxBufferWrite)
 697              		.loc 1 704 0
 698 0022 0D4B     		ldr	r3, .L49
 699 0024 9A78     		ldrb	r2, [r3, #2]
 700 0026 D2B2     		uxtb	r2, r2
 701 0028 DB78     		ldrb	r3, [r3, #3]
 702 002a DBB2     		uxtb	r3, r3
 703 002c 9A42     		cmp	r2, r3
 704 002e 05D2     		bcs	.L47
 705:Generated_Source\PSoC4/MIDI1_UART.c ****         {
 706:Generated_Source\PSoC4/MIDI1_UART.c ****             size = (MIDI1_UART_rxBufferWrite - MIDI1_UART_rxBufferRead);
 705              		.loc 1 706 0
 706 0030 094A     		ldr	r2, .L49
 707 0032 D378     		ldrb	r3, [r2, #3]
 708 0034 9478     		ldrb	r4, [r2, #2]
 709 0036 1C1B     		subs	r4, r3, r4
 710 0038 E4B2     		uxtb	r4, r4
 711              	.LVL65:
 712 003a 07E0     		b	.L46
ARM GAS  C:\Users\psmus\AppData\Local\Temp\ccyQO4JR.s 			page 26


 713              	.LVL66:
 714              	.L47:
 707:Generated_Source\PSoC4/MIDI1_UART.c ****         }
 708:Generated_Source\PSoC4/MIDI1_UART.c ****         else
 709:Generated_Source\PSoC4/MIDI1_UART.c ****         {
 710:Generated_Source\PSoC4/MIDI1_UART.c ****             size = (MIDI1_UART_RX_BUFFER_SIZE - MIDI1_UART_rxBufferRead) + MIDI1_UART_rxBufferWrite
 715              		.loc 1 710 0
 716 003c 064A     		ldr	r2, .L49
 717 003e D378     		ldrb	r3, [r2, #3]
 718 0040 9478     		ldrb	r4, [r2, #2]
 719 0042 1C1B     		subs	r4, r3, r4
 720 0044 4034     		adds	r4, r4, #64
 721 0046 E4B2     		uxtb	r4, r4
 722              	.LVL67:
 723 0048 00E0     		b	.L46
 724              	.LVL68:
 725              	.L48:
 701:Generated_Source\PSoC4/MIDI1_UART.c ****             }
 726              		.loc 1 701 0
 727 004a 0024     		movs	r4, #0
 728              	.L46:
 729              	.LVL69:
 711:Generated_Source\PSoC4/MIDI1_UART.c ****         }
 712:Generated_Source\PSoC4/MIDI1_UART.c **** 
 713:Generated_Source\PSoC4/MIDI1_UART.c ****         MIDI1_UART_EnableRxInt();
 730              		.loc 1 713 0
 731 004c 0020     		movs	r0, #0
 732 004e FFF7FEFF 		bl	CyIntEnable
 733              	.LVL70:
 714:Generated_Source\PSoC4/MIDI1_UART.c **** 
 715:Generated_Source\PSoC4/MIDI1_UART.c ****     #else
 716:Generated_Source\PSoC4/MIDI1_UART.c **** 
 717:Generated_Source\PSoC4/MIDI1_UART.c ****         /* We can only know if there is data in the fifo. */
 718:Generated_Source\PSoC4/MIDI1_UART.c ****         size = ((MIDI1_UART_RXSTATUS_REG & MIDI1_UART_RX_STS_FIFO_NOTEMPTY) != 0u) ? 1u : 0u;
 719:Generated_Source\PSoC4/MIDI1_UART.c **** 
 720:Generated_Source\PSoC4/MIDI1_UART.c ****     #endif /* (MIDI1_UART_RX_INTERRUPT_ENABLED) */
 721:Generated_Source\PSoC4/MIDI1_UART.c **** 
 722:Generated_Source\PSoC4/MIDI1_UART.c ****         return(size);
 723:Generated_Source\PSoC4/MIDI1_UART.c ****     }
 734              		.loc 1 723 0
 735 0052 2000     		movs	r0, r4
 736              		@ sp needed
 737              	.LVL71:
 738 0054 10BD     		pop	{r4, pc}
 739              	.L50:
 740 0056 C046     		.align	2
 741              	.L49:
 742 0058 00000000 		.word	.LANCHOR0
 743              		.cfi_endproc
 744              	.LFE12:
 745              		.size	MIDI1_UART_GetRxBufferSize, .-MIDI1_UART_GetRxBufferSize
 746              		.section	.text.MIDI1_UART_ClearRxBuffer,"ax",%progbits
 747              		.align	2
 748              		.global	MIDI1_UART_ClearRxBuffer
 749              		.code	16
 750              		.thumb_func
 751              		.type	MIDI1_UART_ClearRxBuffer, %function
ARM GAS  C:\Users\psmus\AppData\Local\Temp\ccyQO4JR.s 			page 27


 752              	MIDI1_UART_ClearRxBuffer:
 753              	.LFB13:
 724:Generated_Source\PSoC4/MIDI1_UART.c **** 
 725:Generated_Source\PSoC4/MIDI1_UART.c **** 
 726:Generated_Source\PSoC4/MIDI1_UART.c ****     /*******************************************************************************
 727:Generated_Source\PSoC4/MIDI1_UART.c ****     * Function Name: MIDI1_UART_ClearRxBuffer
 728:Generated_Source\PSoC4/MIDI1_UART.c ****     ********************************************************************************
 729:Generated_Source\PSoC4/MIDI1_UART.c ****     *
 730:Generated_Source\PSoC4/MIDI1_UART.c ****     * Summary:
 731:Generated_Source\PSoC4/MIDI1_UART.c ****     *  Clears the receiver memory buffer and hardware RX FIFO of all received data.
 732:Generated_Source\PSoC4/MIDI1_UART.c ****     *
 733:Generated_Source\PSoC4/MIDI1_UART.c ****     * Parameters:
 734:Generated_Source\PSoC4/MIDI1_UART.c ****     *  None.
 735:Generated_Source\PSoC4/MIDI1_UART.c ****     *
 736:Generated_Source\PSoC4/MIDI1_UART.c ****     * Return:
 737:Generated_Source\PSoC4/MIDI1_UART.c ****     *  None.
 738:Generated_Source\PSoC4/MIDI1_UART.c ****     *
 739:Generated_Source\PSoC4/MIDI1_UART.c ****     * Global Variables:
 740:Generated_Source\PSoC4/MIDI1_UART.c ****     *  MIDI1_UART_rxBufferWrite - cleared to zero.
 741:Generated_Source\PSoC4/MIDI1_UART.c ****     *  MIDI1_UART_rxBufferRead - cleared to zero.
 742:Generated_Source\PSoC4/MIDI1_UART.c ****     *  MIDI1_UART_rxBufferLoopDetect - cleared to zero.
 743:Generated_Source\PSoC4/MIDI1_UART.c ****     *  MIDI1_UART_rxBufferOverflow - cleared to zero.
 744:Generated_Source\PSoC4/MIDI1_UART.c ****     *
 745:Generated_Source\PSoC4/MIDI1_UART.c ****     * Reentrant:
 746:Generated_Source\PSoC4/MIDI1_UART.c ****     *  No.
 747:Generated_Source\PSoC4/MIDI1_UART.c ****     *
 748:Generated_Source\PSoC4/MIDI1_UART.c ****     * Theory:
 749:Generated_Source\PSoC4/MIDI1_UART.c ****     *  Setting the pointers to zero makes the system believe there is no data to
 750:Generated_Source\PSoC4/MIDI1_UART.c ****     *  read and writing will resume at address 0 overwriting any data that may
 751:Generated_Source\PSoC4/MIDI1_UART.c ****     *  have remained in the RAM.
 752:Generated_Source\PSoC4/MIDI1_UART.c ****     *
 753:Generated_Source\PSoC4/MIDI1_UART.c ****     * Side Effects:
 754:Generated_Source\PSoC4/MIDI1_UART.c ****     *  Any received data not read from the RAM or FIFO buffer will be lost.
 755:Generated_Source\PSoC4/MIDI1_UART.c ****     *
 756:Generated_Source\PSoC4/MIDI1_UART.c ****     *******************************************************************************/
 757:Generated_Source\PSoC4/MIDI1_UART.c ****     void MIDI1_UART_ClearRxBuffer(void) 
 758:Generated_Source\PSoC4/MIDI1_UART.c ****     {
 754              		.loc 1 758 0
 755              		.cfi_startproc
 756              		@ args = 0, pretend = 0, frame = 0
 757              		@ frame_needed = 0, uses_anonymous_args = 0
 758 0000 10B5     		push	{r4, lr}
 759              		.cfi_def_cfa_offset 8
 760              		.cfi_offset 4, -8
 761              		.cfi_offset 14, -4
 759:Generated_Source\PSoC4/MIDI1_UART.c ****         uint8 enableInterrupts;
 760:Generated_Source\PSoC4/MIDI1_UART.c **** 
 761:Generated_Source\PSoC4/MIDI1_UART.c ****         /* Clear the HW FIFO */
 762:Generated_Source\PSoC4/MIDI1_UART.c ****         enableInterrupts = CyEnterCriticalSection();
 762              		.loc 1 762 0
 763 0002 FFF7FEFF 		bl	CyEnterCriticalSection
 764              	.LVL72:
 763:Generated_Source\PSoC4/MIDI1_UART.c ****         MIDI1_UART_RXDATA_AUX_CTL_REG |= (uint8)  MIDI1_UART_RX_FIFO_CLR;
 765              		.loc 1 763 0
 766 0006 0C4A     		ldr	r2, .L52
 767 0008 1178     		ldrb	r1, [r2]
 768 000a 0123     		movs	r3, #1
ARM GAS  C:\Users\psmus\AppData\Local\Temp\ccyQO4JR.s 			page 28


 769 000c 0B43     		orrs	r3, r1
 770 000e DBB2     		uxtb	r3, r3
 771 0010 1370     		strb	r3, [r2]
 764:Generated_Source\PSoC4/MIDI1_UART.c ****         MIDI1_UART_RXDATA_AUX_CTL_REG &= (uint8) ~MIDI1_UART_RX_FIFO_CLR;
 772              		.loc 1 764 0
 773 0012 1378     		ldrb	r3, [r2]
 774 0014 0121     		movs	r1, #1
 775 0016 8B43     		bics	r3, r1
 776 0018 1370     		strb	r3, [r2]
 765:Generated_Source\PSoC4/MIDI1_UART.c ****         CyExitCriticalSection(enableInterrupts);
 777              		.loc 1 765 0
 778 001a FFF7FEFF 		bl	CyExitCriticalSection
 779              	.LVL73:
 766:Generated_Source\PSoC4/MIDI1_UART.c **** 
 767:Generated_Source\PSoC4/MIDI1_UART.c ****     #if (MIDI1_UART_RX_INTERRUPT_ENABLED)
 768:Generated_Source\PSoC4/MIDI1_UART.c **** 
 769:Generated_Source\PSoC4/MIDI1_UART.c ****         /* Protect variables that could change on interrupt. */
 770:Generated_Source\PSoC4/MIDI1_UART.c ****         MIDI1_UART_DisableRxInt();
 780              		.loc 1 770 0
 781 001e 0020     		movs	r0, #0
 782 0020 FFF7FEFF 		bl	CyIntDisable
 783              	.LVL74:
 771:Generated_Source\PSoC4/MIDI1_UART.c **** 
 772:Generated_Source\PSoC4/MIDI1_UART.c ****         MIDI1_UART_rxBufferRead = 0u;
 784              		.loc 1 772 0
 785 0024 054B     		ldr	r3, .L52+4
 786 0026 0022     		movs	r2, #0
 787 0028 9A70     		strb	r2, [r3, #2]
 773:Generated_Source\PSoC4/MIDI1_UART.c ****         MIDI1_UART_rxBufferWrite = 0u;
 788              		.loc 1 773 0
 789 002a DA70     		strb	r2, [r3, #3]
 774:Generated_Source\PSoC4/MIDI1_UART.c ****         MIDI1_UART_rxBufferLoopDetect = 0u;
 790              		.loc 1 774 0
 791 002c 1A71     		strb	r2, [r3, #4]
 775:Generated_Source\PSoC4/MIDI1_UART.c ****         MIDI1_UART_rxBufferOverflow = 0u;
 792              		.loc 1 775 0
 793 002e 5A71     		strb	r2, [r3, #5]
 776:Generated_Source\PSoC4/MIDI1_UART.c **** 
 777:Generated_Source\PSoC4/MIDI1_UART.c ****         MIDI1_UART_EnableRxInt();
 794              		.loc 1 777 0
 795 0030 0020     		movs	r0, #0
 796 0032 FFF7FEFF 		bl	CyIntEnable
 797              	.LVL75:
 778:Generated_Source\PSoC4/MIDI1_UART.c **** 
 779:Generated_Source\PSoC4/MIDI1_UART.c ****     #endif /* (MIDI1_UART_RX_INTERRUPT_ENABLED) */
 780:Generated_Source\PSoC4/MIDI1_UART.c **** 
 781:Generated_Source\PSoC4/MIDI1_UART.c ****     }
 798              		.loc 1 781 0
 799              		@ sp needed
 800 0036 10BD     		pop	{r4, pc}
 801              	.L53:
 802              		.align	2
 803              	.L52:
 804 0038 92000F40 		.word	1074725010
 805 003c 00000000 		.word	.LANCHOR0
 806              		.cfi_endproc
 807              	.LFE13:
ARM GAS  C:\Users\psmus\AppData\Local\Temp\ccyQO4JR.s 			page 29


 808              		.size	MIDI1_UART_ClearRxBuffer, .-MIDI1_UART_ClearRxBuffer
 809              		.section	.text.MIDI1_UART_SetRxAddressMode,"ax",%progbits
 810              		.align	2
 811              		.global	MIDI1_UART_SetRxAddressMode
 812              		.code	16
 813              		.thumb_func
 814              		.type	MIDI1_UART_SetRxAddressMode, %function
 815              	MIDI1_UART_SetRxAddressMode:
 816              	.LFB14:
 782:Generated_Source\PSoC4/MIDI1_UART.c **** 
 783:Generated_Source\PSoC4/MIDI1_UART.c **** 
 784:Generated_Source\PSoC4/MIDI1_UART.c ****     /*******************************************************************************
 785:Generated_Source\PSoC4/MIDI1_UART.c ****     * Function Name: MIDI1_UART_SetRxAddressMode
 786:Generated_Source\PSoC4/MIDI1_UART.c ****     ********************************************************************************
 787:Generated_Source\PSoC4/MIDI1_UART.c ****     *
 788:Generated_Source\PSoC4/MIDI1_UART.c ****     * Summary:
 789:Generated_Source\PSoC4/MIDI1_UART.c ****     *  Sets the software controlled Addressing mode used by the RX portion of the
 790:Generated_Source\PSoC4/MIDI1_UART.c ****     *  UART.
 791:Generated_Source\PSoC4/MIDI1_UART.c ****     *
 792:Generated_Source\PSoC4/MIDI1_UART.c ****     * Parameters:
 793:Generated_Source\PSoC4/MIDI1_UART.c ****     *  addressMode: Enumerated value indicating the mode of RX addressing
 794:Generated_Source\PSoC4/MIDI1_UART.c ****     *  MIDI1_UART__B_UART__AM_SW_BYTE_BYTE -  Software Byte-by-Byte address
 795:Generated_Source\PSoC4/MIDI1_UART.c ****     *                                               detection
 796:Generated_Source\PSoC4/MIDI1_UART.c ****     *  MIDI1_UART__B_UART__AM_SW_DETECT_TO_BUFFER - Software Detect to Buffer
 797:Generated_Source\PSoC4/MIDI1_UART.c ****     *                                               address detection
 798:Generated_Source\PSoC4/MIDI1_UART.c ****     *  MIDI1_UART__B_UART__AM_HW_BYTE_BY_BYTE - Hardware Byte-by-Byte address
 799:Generated_Source\PSoC4/MIDI1_UART.c ****     *                                               detection
 800:Generated_Source\PSoC4/MIDI1_UART.c ****     *  MIDI1_UART__B_UART__AM_HW_DETECT_TO_BUFFER - Hardware Detect to Buffer
 801:Generated_Source\PSoC4/MIDI1_UART.c ****     *                                               address detection
 802:Generated_Source\PSoC4/MIDI1_UART.c ****     *  MIDI1_UART__B_UART__AM_NONE - No address detection
 803:Generated_Source\PSoC4/MIDI1_UART.c ****     *
 804:Generated_Source\PSoC4/MIDI1_UART.c ****     * Return:
 805:Generated_Source\PSoC4/MIDI1_UART.c ****     *  None.
 806:Generated_Source\PSoC4/MIDI1_UART.c ****     *
 807:Generated_Source\PSoC4/MIDI1_UART.c ****     * Global Variables:
 808:Generated_Source\PSoC4/MIDI1_UART.c ****     *  MIDI1_UART_rxAddressMode - the parameter stored in this variable for
 809:Generated_Source\PSoC4/MIDI1_UART.c ****     *   the farther usage in RX ISR.
 810:Generated_Source\PSoC4/MIDI1_UART.c ****     *  MIDI1_UART_rxAddressDetected - set to initial state (0).
 811:Generated_Source\PSoC4/MIDI1_UART.c ****     *
 812:Generated_Source\PSoC4/MIDI1_UART.c ****     *******************************************************************************/
 813:Generated_Source\PSoC4/MIDI1_UART.c ****     void MIDI1_UART_SetRxAddressMode(uint8 addressMode)
 814:Generated_Source\PSoC4/MIDI1_UART.c ****                                                         
 815:Generated_Source\PSoC4/MIDI1_UART.c ****     {
 817              		.loc 1 815 0
 818              		.cfi_startproc
 819              		@ args = 0, pretend = 0, frame = 0
 820              		@ frame_needed = 0, uses_anonymous_args = 0
 821              		@ link register save eliminated.
 822              	.LVL76:
 816:Generated_Source\PSoC4/MIDI1_UART.c ****         #if(MIDI1_UART_RXHW_ADDRESS_ENABLED)
 817:Generated_Source\PSoC4/MIDI1_UART.c ****             #if(MIDI1_UART_CONTROL_REG_REMOVED)
 818:Generated_Source\PSoC4/MIDI1_UART.c ****                 if(0u != addressMode)
 819:Generated_Source\PSoC4/MIDI1_UART.c ****                 {
 820:Generated_Source\PSoC4/MIDI1_UART.c ****                     /* Suppress compiler warning */
 821:Generated_Source\PSoC4/MIDI1_UART.c ****                 }
 822:Generated_Source\PSoC4/MIDI1_UART.c ****             #else /* MIDI1_UART_CONTROL_REG_REMOVED */
 823:Generated_Source\PSoC4/MIDI1_UART.c ****                 uint8 tmpCtrl;
ARM GAS  C:\Users\psmus\AppData\Local\Temp\ccyQO4JR.s 			page 30


 824:Generated_Source\PSoC4/MIDI1_UART.c ****                 tmpCtrl = MIDI1_UART_CONTROL_REG & (uint8)~MIDI1_UART_CTRL_RXADDR_MODE_MASK;
 825:Generated_Source\PSoC4/MIDI1_UART.c ****                 tmpCtrl |= (uint8)(addressMode << MIDI1_UART_CTRL_RXADDR_MODE0_SHIFT);
 826:Generated_Source\PSoC4/MIDI1_UART.c ****                 MIDI1_UART_CONTROL_REG = tmpCtrl;
 827:Generated_Source\PSoC4/MIDI1_UART.c **** 
 828:Generated_Source\PSoC4/MIDI1_UART.c ****                 #if(MIDI1_UART_RX_INTERRUPT_ENABLED && \
 829:Generated_Source\PSoC4/MIDI1_UART.c ****                    (MIDI1_UART_RXBUFFERSIZE > MIDI1_UART_FIFO_LENGTH) )
 830:Generated_Source\PSoC4/MIDI1_UART.c ****                     MIDI1_UART_rxAddressMode = addressMode;
 831:Generated_Source\PSoC4/MIDI1_UART.c ****                     MIDI1_UART_rxAddressDetected = 0u;
 832:Generated_Source\PSoC4/MIDI1_UART.c ****                 #endif /* End MIDI1_UART_RXBUFFERSIZE > MIDI1_UART_FIFO_LENGTH*/
 833:Generated_Source\PSoC4/MIDI1_UART.c ****             #endif /* End MIDI1_UART_CONTROL_REG_REMOVED */
 834:Generated_Source\PSoC4/MIDI1_UART.c ****         #else /* MIDI1_UART_RXHW_ADDRESS_ENABLED */
 835:Generated_Source\PSoC4/MIDI1_UART.c ****             if(0u != addressMode)
 836:Generated_Source\PSoC4/MIDI1_UART.c ****             {
 837:Generated_Source\PSoC4/MIDI1_UART.c ****                 /* Suppress compiler warning */
 838:Generated_Source\PSoC4/MIDI1_UART.c ****             }
 839:Generated_Source\PSoC4/MIDI1_UART.c ****         #endif /* End MIDI1_UART_RXHW_ADDRESS_ENABLED */
 840:Generated_Source\PSoC4/MIDI1_UART.c ****     }
 823              		.loc 1 840 0
 824              		@ sp needed
 825 0000 7047     		bx	lr
 826              		.cfi_endproc
 827              	.LFE14:
 828              		.size	MIDI1_UART_SetRxAddressMode, .-MIDI1_UART_SetRxAddressMode
 829 0002 C046     		.section	.text.MIDI1_UART_SetRxAddress1,"ax",%progbits
 830              		.align	2
 831              		.global	MIDI1_UART_SetRxAddress1
 832              		.code	16
 833              		.thumb_func
 834              		.type	MIDI1_UART_SetRxAddress1, %function
 835              	MIDI1_UART_SetRxAddress1:
 836              	.LFB15:
 841:Generated_Source\PSoC4/MIDI1_UART.c **** 
 842:Generated_Source\PSoC4/MIDI1_UART.c **** 
 843:Generated_Source\PSoC4/MIDI1_UART.c ****     /*******************************************************************************
 844:Generated_Source\PSoC4/MIDI1_UART.c ****     * Function Name: MIDI1_UART_SetRxAddress1
 845:Generated_Source\PSoC4/MIDI1_UART.c ****     ********************************************************************************
 846:Generated_Source\PSoC4/MIDI1_UART.c ****     *
 847:Generated_Source\PSoC4/MIDI1_UART.c ****     * Summary:
 848:Generated_Source\PSoC4/MIDI1_UART.c ****     *  Sets the first of two hardware-detectable receiver addresses.
 849:Generated_Source\PSoC4/MIDI1_UART.c ****     *
 850:Generated_Source\PSoC4/MIDI1_UART.c ****     * Parameters:
 851:Generated_Source\PSoC4/MIDI1_UART.c ****     *  address: Address #1 for hardware address detection.
 852:Generated_Source\PSoC4/MIDI1_UART.c ****     *
 853:Generated_Source\PSoC4/MIDI1_UART.c ****     * Return:
 854:Generated_Source\PSoC4/MIDI1_UART.c ****     *  None.
 855:Generated_Source\PSoC4/MIDI1_UART.c ****     *
 856:Generated_Source\PSoC4/MIDI1_UART.c ****     *******************************************************************************/
 857:Generated_Source\PSoC4/MIDI1_UART.c ****     void MIDI1_UART_SetRxAddress1(uint8 address) 
 858:Generated_Source\PSoC4/MIDI1_UART.c ****     {
 837              		.loc 1 858 0
 838              		.cfi_startproc
 839              		@ args = 0, pretend = 0, frame = 0
 840              		@ frame_needed = 0, uses_anonymous_args = 0
 841              		@ link register save eliminated.
 842              	.LVL77:
 859:Generated_Source\PSoC4/MIDI1_UART.c ****         MIDI1_UART_RXADDRESS1_REG = address;
 843              		.loc 1 859 0
ARM GAS  C:\Users\psmus\AppData\Local\Temp\ccyQO4JR.s 			page 31


 844 0000 014B     		ldr	r3, .L56
 845 0002 1870     		strb	r0, [r3]
 860:Generated_Source\PSoC4/MIDI1_UART.c ****     }
 846              		.loc 1 860 0
 847              		@ sp needed
 848 0004 7047     		bx	lr
 849              	.L57:
 850 0006 C046     		.align	2
 851              	.L56:
 852 0008 22000F40 		.word	1074724898
 853              		.cfi_endproc
 854              	.LFE15:
 855              		.size	MIDI1_UART_SetRxAddress1, .-MIDI1_UART_SetRxAddress1
 856              		.section	.text.MIDI1_UART_SetRxAddress2,"ax",%progbits
 857              		.align	2
 858              		.global	MIDI1_UART_SetRxAddress2
 859              		.code	16
 860              		.thumb_func
 861              		.type	MIDI1_UART_SetRxAddress2, %function
 862              	MIDI1_UART_SetRxAddress2:
 863              	.LFB16:
 861:Generated_Source\PSoC4/MIDI1_UART.c **** 
 862:Generated_Source\PSoC4/MIDI1_UART.c **** 
 863:Generated_Source\PSoC4/MIDI1_UART.c ****     /*******************************************************************************
 864:Generated_Source\PSoC4/MIDI1_UART.c ****     * Function Name: MIDI1_UART_SetRxAddress2
 865:Generated_Source\PSoC4/MIDI1_UART.c ****     ********************************************************************************
 866:Generated_Source\PSoC4/MIDI1_UART.c ****     *
 867:Generated_Source\PSoC4/MIDI1_UART.c ****     * Summary:
 868:Generated_Source\PSoC4/MIDI1_UART.c ****     *  Sets the second of two hardware-detectable receiver addresses.
 869:Generated_Source\PSoC4/MIDI1_UART.c ****     *
 870:Generated_Source\PSoC4/MIDI1_UART.c ****     * Parameters:
 871:Generated_Source\PSoC4/MIDI1_UART.c ****     *  address: Address #2 for hardware address detection.
 872:Generated_Source\PSoC4/MIDI1_UART.c ****     *
 873:Generated_Source\PSoC4/MIDI1_UART.c ****     * Return:
 874:Generated_Source\PSoC4/MIDI1_UART.c ****     *  None.
 875:Generated_Source\PSoC4/MIDI1_UART.c ****     *
 876:Generated_Source\PSoC4/MIDI1_UART.c ****     *******************************************************************************/
 877:Generated_Source\PSoC4/MIDI1_UART.c ****     void MIDI1_UART_SetRxAddress2(uint8 address) 
 878:Generated_Source\PSoC4/MIDI1_UART.c ****     {
 864              		.loc 1 878 0
 865              		.cfi_startproc
 866              		@ args = 0, pretend = 0, frame = 0
 867              		@ frame_needed = 0, uses_anonymous_args = 0
 868              		@ link register save eliminated.
 869              	.LVL78:
 879:Generated_Source\PSoC4/MIDI1_UART.c ****         MIDI1_UART_RXADDRESS2_REG = address;
 870              		.loc 1 879 0
 871 0000 014B     		ldr	r3, .L59
 872 0002 1870     		strb	r0, [r3]
 880:Generated_Source\PSoC4/MIDI1_UART.c ****     }
 873              		.loc 1 880 0
 874              		@ sp needed
 875 0004 7047     		bx	lr
 876              	.L60:
 877 0006 C046     		.align	2
 878              	.L59:
 879 0008 32000F40 		.word	1074724914
ARM GAS  C:\Users\psmus\AppData\Local\Temp\ccyQO4JR.s 			page 32


 880              		.cfi_endproc
 881              	.LFE16:
 882              		.size	MIDI1_UART_SetRxAddress2, .-MIDI1_UART_SetRxAddress2
 883              		.section	.text.MIDI1_UART_SetTxInterruptMode,"ax",%progbits
 884              		.align	2
 885              		.global	MIDI1_UART_SetTxInterruptMode
 886              		.code	16
 887              		.thumb_func
 888              		.type	MIDI1_UART_SetTxInterruptMode, %function
 889              	MIDI1_UART_SetTxInterruptMode:
 890              	.LFB17:
 881:Generated_Source\PSoC4/MIDI1_UART.c **** 
 882:Generated_Source\PSoC4/MIDI1_UART.c **** #endif  /* MIDI1_UART_RX_ENABLED || MIDI1_UART_HD_ENABLED*/
 883:Generated_Source\PSoC4/MIDI1_UART.c **** 
 884:Generated_Source\PSoC4/MIDI1_UART.c **** 
 885:Generated_Source\PSoC4/MIDI1_UART.c **** #if( (MIDI1_UART_TX_ENABLED) || (MIDI1_UART_HD_ENABLED) )
 886:Generated_Source\PSoC4/MIDI1_UART.c ****     /*******************************************************************************
 887:Generated_Source\PSoC4/MIDI1_UART.c ****     * Function Name: MIDI1_UART_SetTxInterruptMode
 888:Generated_Source\PSoC4/MIDI1_UART.c ****     ********************************************************************************
 889:Generated_Source\PSoC4/MIDI1_UART.c ****     *
 890:Generated_Source\PSoC4/MIDI1_UART.c ****     * Summary:
 891:Generated_Source\PSoC4/MIDI1_UART.c ****     *  Configures the TX interrupt sources to be enabled, but does not enable the
 892:Generated_Source\PSoC4/MIDI1_UART.c ****     *  interrupt.
 893:Generated_Source\PSoC4/MIDI1_UART.c ****     *
 894:Generated_Source\PSoC4/MIDI1_UART.c ****     * Parameters:
 895:Generated_Source\PSoC4/MIDI1_UART.c ****     *  intSrc: Bit field containing the TX interrupt sources to enable
 896:Generated_Source\PSoC4/MIDI1_UART.c ****     *   MIDI1_UART_TX_STS_COMPLETE        Interrupt on TX byte complete
 897:Generated_Source\PSoC4/MIDI1_UART.c ****     *   MIDI1_UART_TX_STS_FIFO_EMPTY      Interrupt when TX FIFO is empty
 898:Generated_Source\PSoC4/MIDI1_UART.c ****     *   MIDI1_UART_TX_STS_FIFO_FULL       Interrupt when TX FIFO is full
 899:Generated_Source\PSoC4/MIDI1_UART.c ****     *   MIDI1_UART_TX_STS_FIFO_NOT_FULL   Interrupt when TX FIFO is not full
 900:Generated_Source\PSoC4/MIDI1_UART.c ****     *
 901:Generated_Source\PSoC4/MIDI1_UART.c ****     * Return:
 902:Generated_Source\PSoC4/MIDI1_UART.c ****     *  None.
 903:Generated_Source\PSoC4/MIDI1_UART.c ****     *
 904:Generated_Source\PSoC4/MIDI1_UART.c ****     * Theory:
 905:Generated_Source\PSoC4/MIDI1_UART.c ****     *  Enables the output of specific status bits to the interrupt controller
 906:Generated_Source\PSoC4/MIDI1_UART.c ****     *
 907:Generated_Source\PSoC4/MIDI1_UART.c ****     *******************************************************************************/
 908:Generated_Source\PSoC4/MIDI1_UART.c ****     void MIDI1_UART_SetTxInterruptMode(uint8 intSrc) 
 909:Generated_Source\PSoC4/MIDI1_UART.c ****     {
 891              		.loc 1 909 0
 892              		.cfi_startproc
 893              		@ args = 0, pretend = 0, frame = 0
 894              		@ frame_needed = 0, uses_anonymous_args = 0
 895              		@ link register save eliminated.
 896              	.LVL79:
 910:Generated_Source\PSoC4/MIDI1_UART.c ****         MIDI1_UART_TXSTATUS_MASK_REG = intSrc;
 897              		.loc 1 910 0
 898 0000 014B     		ldr	r3, .L62
 899 0002 1870     		strb	r0, [r3]
 911:Generated_Source\PSoC4/MIDI1_UART.c ****     }
 900              		.loc 1 911 0
 901              		@ sp needed
 902 0004 7047     		bx	lr
 903              	.L63:
 904 0006 C046     		.align	2
 905              	.L62:
ARM GAS  C:\Users\psmus\AppData\Local\Temp\ccyQO4JR.s 			page 33


 906 0008 84000F40 		.word	1074724996
 907              		.cfi_endproc
 908              	.LFE17:
 909              		.size	MIDI1_UART_SetTxInterruptMode, .-MIDI1_UART_SetTxInterruptMode
 910              		.section	.text.MIDI1_UART_WriteTxData,"ax",%progbits
 911              		.align	2
 912              		.global	MIDI1_UART_WriteTxData
 913              		.code	16
 914              		.thumb_func
 915              		.type	MIDI1_UART_WriteTxData, %function
 916              	MIDI1_UART_WriteTxData:
 917              	.LFB18:
 912:Generated_Source\PSoC4/MIDI1_UART.c **** 
 913:Generated_Source\PSoC4/MIDI1_UART.c **** 
 914:Generated_Source\PSoC4/MIDI1_UART.c ****     /*******************************************************************************
 915:Generated_Source\PSoC4/MIDI1_UART.c ****     * Function Name: MIDI1_UART_WriteTxData
 916:Generated_Source\PSoC4/MIDI1_UART.c ****     ********************************************************************************
 917:Generated_Source\PSoC4/MIDI1_UART.c ****     *
 918:Generated_Source\PSoC4/MIDI1_UART.c ****     * Summary:
 919:Generated_Source\PSoC4/MIDI1_UART.c ****     *  Places a byte of data into the transmit buffer to be sent when the bus is
 920:Generated_Source\PSoC4/MIDI1_UART.c ****     *  available without checking the TX status register. You must check status
 921:Generated_Source\PSoC4/MIDI1_UART.c ****     *  separately.
 922:Generated_Source\PSoC4/MIDI1_UART.c ****     *
 923:Generated_Source\PSoC4/MIDI1_UART.c ****     * Parameters:
 924:Generated_Source\PSoC4/MIDI1_UART.c ****     *  txDataByte: data byte
 925:Generated_Source\PSoC4/MIDI1_UART.c ****     *
 926:Generated_Source\PSoC4/MIDI1_UART.c ****     * Return:
 927:Generated_Source\PSoC4/MIDI1_UART.c ****     * None.
 928:Generated_Source\PSoC4/MIDI1_UART.c ****     *
 929:Generated_Source\PSoC4/MIDI1_UART.c ****     * Global Variables:
 930:Generated_Source\PSoC4/MIDI1_UART.c ****     *  MIDI1_UART_txBuffer - RAM buffer pointer for save data for transmission
 931:Generated_Source\PSoC4/MIDI1_UART.c ****     *  MIDI1_UART_txBufferWrite - cyclic index for write to txBuffer,
 932:Generated_Source\PSoC4/MIDI1_UART.c ****     *    incremented after each byte saved to buffer.
 933:Generated_Source\PSoC4/MIDI1_UART.c ****     *  MIDI1_UART_txBufferRead - cyclic index for read from txBuffer,
 934:Generated_Source\PSoC4/MIDI1_UART.c ****     *    checked to identify the condition to write to FIFO directly or to TX buffer
 935:Generated_Source\PSoC4/MIDI1_UART.c ****     *  MIDI1_UART_initVar - checked to identify that the component has been
 936:Generated_Source\PSoC4/MIDI1_UART.c ****     *    initialized.
 937:Generated_Source\PSoC4/MIDI1_UART.c ****     *
 938:Generated_Source\PSoC4/MIDI1_UART.c ****     * Reentrant:
 939:Generated_Source\PSoC4/MIDI1_UART.c ****     *  No.
 940:Generated_Source\PSoC4/MIDI1_UART.c ****     *
 941:Generated_Source\PSoC4/MIDI1_UART.c ****     *******************************************************************************/
 942:Generated_Source\PSoC4/MIDI1_UART.c ****     void MIDI1_UART_WriteTxData(uint8 txDataByte) 
 943:Generated_Source\PSoC4/MIDI1_UART.c ****     {
 918              		.loc 1 943 0
 919              		.cfi_startproc
 920              		@ args = 0, pretend = 0, frame = 0
 921              		@ frame_needed = 0, uses_anonymous_args = 0
 922              	.LVL80:
 923 0000 10B5     		push	{r4, lr}
 924              		.cfi_def_cfa_offset 8
 925              		.cfi_offset 4, -8
 926              		.cfi_offset 14, -4
 927 0002 0400     		movs	r4, r0
 944:Generated_Source\PSoC4/MIDI1_UART.c ****         /* If not Initialized then skip this function*/
 945:Generated_Source\PSoC4/MIDI1_UART.c ****         if(MIDI1_UART_initVar != 0u)
 928              		.loc 1 945 0
ARM GAS  C:\Users\psmus\AppData\Local\Temp\ccyQO4JR.s 			page 34


 929 0004 114B     		ldr	r3, .L69
 930 0006 5B78     		ldrb	r3, [r3, #1]
 931 0008 002B     		cmp	r3, #0
 932 000a 1DD0     		beq	.L64
 946:Generated_Source\PSoC4/MIDI1_UART.c ****         {
 947:Generated_Source\PSoC4/MIDI1_UART.c ****         #if (MIDI1_UART_TX_INTERRUPT_ENABLED)
 948:Generated_Source\PSoC4/MIDI1_UART.c **** 
 949:Generated_Source\PSoC4/MIDI1_UART.c ****             /* Protect variables that could change on interrupt. */
 950:Generated_Source\PSoC4/MIDI1_UART.c ****             MIDI1_UART_DisableTxInt();
 933              		.loc 1 950 0
 934 000c 0120     		movs	r0, #1
 935              	.LVL81:
 936 000e FFF7FEFF 		bl	CyIntDisable
 937              	.LVL82:
 951:Generated_Source\PSoC4/MIDI1_UART.c **** 
 952:Generated_Source\PSoC4/MIDI1_UART.c ****             if( (MIDI1_UART_txBufferRead == MIDI1_UART_txBufferWrite) &&
 938              		.loc 1 952 0
 939 0012 0E4A     		ldr	r2, .L69
 940 0014 9379     		ldrb	r3, [r2, #6]
 941 0016 DBB2     		uxtb	r3, r3
 942 0018 D279     		ldrb	r2, [r2, #7]
 943 001a 9342     		cmp	r3, r2
 944 001c 06D1     		bne	.L66
 953:Generated_Source\PSoC4/MIDI1_UART.c ****                 ((MIDI1_UART_TXSTATUS_REG & MIDI1_UART_TX_STS_FIFO_FULL) == 0u) )
 945              		.loc 1 953 0 discriminator 1
 946 001e 0C4B     		ldr	r3, .L69+4
 947 0020 1B78     		ldrb	r3, [r3]
 952:Generated_Source\PSoC4/MIDI1_UART.c ****                 ((MIDI1_UART_TXSTATUS_REG & MIDI1_UART_TX_STS_FIFO_FULL) == 0u) )
 948              		.loc 1 952 0 discriminator 1
 949 0022 5B07     		lsls	r3, r3, #29
 950 0024 02D4     		bmi	.L66
 954:Generated_Source\PSoC4/MIDI1_UART.c ****             {
 955:Generated_Source\PSoC4/MIDI1_UART.c ****                 /* Add directly to the FIFO. */
 956:Generated_Source\PSoC4/MIDI1_UART.c ****                 MIDI1_UART_TXDATA_REG = txDataByte;
 951              		.loc 1 956 0
 952 0026 0B4B     		ldr	r3, .L69+8
 953 0028 1C70     		strb	r4, [r3]
 954 002a 0AE0     		b	.L67
 955              	.L66:
 957:Generated_Source\PSoC4/MIDI1_UART.c ****             }
 958:Generated_Source\PSoC4/MIDI1_UART.c ****             else
 959:Generated_Source\PSoC4/MIDI1_UART.c ****             {
 960:Generated_Source\PSoC4/MIDI1_UART.c ****                 if(MIDI1_UART_txBufferWrite >= MIDI1_UART_TX_BUFFER_SIZE)
 956              		.loc 1 960 0
 957 002c 3F2A     		cmp	r2, #63
 958 002e 02D9     		bls	.L68
 961:Generated_Source\PSoC4/MIDI1_UART.c ****                 {
 962:Generated_Source\PSoC4/MIDI1_UART.c ****                     MIDI1_UART_txBufferWrite = 0u;
 959              		.loc 1 962 0
 960 0030 0022     		movs	r2, #0
 961 0032 064B     		ldr	r3, .L69
 962 0034 DA71     		strb	r2, [r3, #7]
 963              	.L68:
 963:Generated_Source\PSoC4/MIDI1_UART.c ****                 }
 964:Generated_Source\PSoC4/MIDI1_UART.c **** 
 965:Generated_Source\PSoC4/MIDI1_UART.c ****                 MIDI1_UART_txBuffer[MIDI1_UART_txBufferWrite] = txDataByte;
 964              		.loc 1 965 0
ARM GAS  C:\Users\psmus\AppData\Local\Temp\ccyQO4JR.s 			page 35


 965 0036 054A     		ldr	r2, .L69
 966 0038 D379     		ldrb	r3, [r2, #7]
 967 003a 0749     		ldr	r1, .L69+12
 968 003c CC54     		strb	r4, [r1, r3]
 966:Generated_Source\PSoC4/MIDI1_UART.c **** 
 967:Generated_Source\PSoC4/MIDI1_UART.c ****                 /* Add to the software buffer. */
 968:Generated_Source\PSoC4/MIDI1_UART.c ****                 MIDI1_UART_txBufferWrite++;
 969              		.loc 1 968 0
 970 003e 0133     		adds	r3, r3, #1
 971 0040 D371     		strb	r3, [r2, #7]
 972              	.L67:
 969:Generated_Source\PSoC4/MIDI1_UART.c ****             }
 970:Generated_Source\PSoC4/MIDI1_UART.c **** 
 971:Generated_Source\PSoC4/MIDI1_UART.c ****             MIDI1_UART_EnableTxInt();
 973              		.loc 1 971 0
 974 0042 0120     		movs	r0, #1
 975 0044 FFF7FEFF 		bl	CyIntEnable
 976              	.LVL83:
 977              	.L64:
 972:Generated_Source\PSoC4/MIDI1_UART.c **** 
 973:Generated_Source\PSoC4/MIDI1_UART.c ****         #else
 974:Generated_Source\PSoC4/MIDI1_UART.c **** 
 975:Generated_Source\PSoC4/MIDI1_UART.c ****             /* Add directly to the FIFO. */
 976:Generated_Source\PSoC4/MIDI1_UART.c ****             MIDI1_UART_TXDATA_REG = txDataByte;
 977:Generated_Source\PSoC4/MIDI1_UART.c **** 
 978:Generated_Source\PSoC4/MIDI1_UART.c ****         #endif /*(MIDI1_UART_TX_INTERRUPT_ENABLED) */
 979:Generated_Source\PSoC4/MIDI1_UART.c ****         }
 980:Generated_Source\PSoC4/MIDI1_UART.c ****     }
 978              		.loc 1 980 0
 979              		@ sp needed
 980 0048 10BD     		pop	{r4, pc}
 981              	.L70:
 982 004a C046     		.align	2
 983              	.L69:
 984 004c 00000000 		.word	.LANCHOR0
 985 0050 64000F40 		.word	1074724964
 986 0054 47000F40 		.word	1074724935
 987 0058 00000000 		.word	MIDI1_UART_txBuffer
 988              		.cfi_endproc
 989              	.LFE18:
 990              		.size	MIDI1_UART_WriteTxData, .-MIDI1_UART_WriteTxData
 991              		.section	.text.MIDI1_UART_ReadTxStatus,"ax",%progbits
 992              		.align	2
 993              		.global	MIDI1_UART_ReadTxStatus
 994              		.code	16
 995              		.thumb_func
 996              		.type	MIDI1_UART_ReadTxStatus, %function
 997              	MIDI1_UART_ReadTxStatus:
 998              	.LFB19:
 981:Generated_Source\PSoC4/MIDI1_UART.c **** 
 982:Generated_Source\PSoC4/MIDI1_UART.c **** 
 983:Generated_Source\PSoC4/MIDI1_UART.c ****     /*******************************************************************************
 984:Generated_Source\PSoC4/MIDI1_UART.c ****     * Function Name: MIDI1_UART_ReadTxStatus
 985:Generated_Source\PSoC4/MIDI1_UART.c ****     ********************************************************************************
 986:Generated_Source\PSoC4/MIDI1_UART.c ****     *
 987:Generated_Source\PSoC4/MIDI1_UART.c ****     * Summary:
 988:Generated_Source\PSoC4/MIDI1_UART.c ****     *  Reads the status register for the TX portion of the UART.
ARM GAS  C:\Users\psmus\AppData\Local\Temp\ccyQO4JR.s 			page 36


 989:Generated_Source\PSoC4/MIDI1_UART.c ****     *
 990:Generated_Source\PSoC4/MIDI1_UART.c ****     * Parameters:
 991:Generated_Source\PSoC4/MIDI1_UART.c ****     *  None.
 992:Generated_Source\PSoC4/MIDI1_UART.c ****     *
 993:Generated_Source\PSoC4/MIDI1_UART.c ****     * Return:
 994:Generated_Source\PSoC4/MIDI1_UART.c ****     *  Contents of the status register
 995:Generated_Source\PSoC4/MIDI1_UART.c ****     *
 996:Generated_Source\PSoC4/MIDI1_UART.c ****     * Theory:
 997:Generated_Source\PSoC4/MIDI1_UART.c ****     *  This function reads the TX status register, which is cleared on read.
 998:Generated_Source\PSoC4/MIDI1_UART.c ****     *  It is up to the user to handle all bits in this return value accordingly,
 999:Generated_Source\PSoC4/MIDI1_UART.c ****     *  even if the bit was not enabled as an interrupt source the event happened
1000:Generated_Source\PSoC4/MIDI1_UART.c ****     *  and must be handled accordingly.
1001:Generated_Source\PSoC4/MIDI1_UART.c ****     *
1002:Generated_Source\PSoC4/MIDI1_UART.c ****     *******************************************************************************/
1003:Generated_Source\PSoC4/MIDI1_UART.c ****     uint8 MIDI1_UART_ReadTxStatus(void) 
1004:Generated_Source\PSoC4/MIDI1_UART.c ****     {
 999              		.loc 1 1004 0
 1000              		.cfi_startproc
 1001              		@ args = 0, pretend = 0, frame = 0
 1002              		@ frame_needed = 0, uses_anonymous_args = 0
 1003              		@ link register save eliminated.
1005:Generated_Source\PSoC4/MIDI1_UART.c ****         return(MIDI1_UART_TXSTATUS_REG);
 1004              		.loc 1 1005 0
 1005 0000 014B     		ldr	r3, .L72
 1006 0002 1878     		ldrb	r0, [r3]
 1007 0004 C0B2     		uxtb	r0, r0
1006:Generated_Source\PSoC4/MIDI1_UART.c ****     }
 1008              		.loc 1 1006 0
 1009              		@ sp needed
 1010 0006 7047     		bx	lr
 1011              	.L73:
 1012              		.align	2
 1013              	.L72:
 1014 0008 64000F40 		.word	1074724964
 1015              		.cfi_endproc
 1016              	.LFE19:
 1017              		.size	MIDI1_UART_ReadTxStatus, .-MIDI1_UART_ReadTxStatus
 1018              		.section	.text.MIDI1_UART_PutChar,"ax",%progbits
 1019              		.align	2
 1020              		.global	MIDI1_UART_PutChar
 1021              		.code	16
 1022              		.thumb_func
 1023              		.type	MIDI1_UART_PutChar, %function
 1024              	MIDI1_UART_PutChar:
 1025              	.LFB20:
1007:Generated_Source\PSoC4/MIDI1_UART.c **** 
1008:Generated_Source\PSoC4/MIDI1_UART.c **** 
1009:Generated_Source\PSoC4/MIDI1_UART.c ****     /*******************************************************************************
1010:Generated_Source\PSoC4/MIDI1_UART.c ****     * Function Name: MIDI1_UART_PutChar
1011:Generated_Source\PSoC4/MIDI1_UART.c ****     ********************************************************************************
1012:Generated_Source\PSoC4/MIDI1_UART.c ****     *
1013:Generated_Source\PSoC4/MIDI1_UART.c ****     * Summary:
1014:Generated_Source\PSoC4/MIDI1_UART.c ****     *  Puts a byte of data into the transmit buffer to be sent when the bus is
1015:Generated_Source\PSoC4/MIDI1_UART.c ****     *  available. This is a blocking API that waits until the TX buffer has room to
1016:Generated_Source\PSoC4/MIDI1_UART.c ****     *  hold the data.
1017:Generated_Source\PSoC4/MIDI1_UART.c ****     *
1018:Generated_Source\PSoC4/MIDI1_UART.c ****     * Parameters:
ARM GAS  C:\Users\psmus\AppData\Local\Temp\ccyQO4JR.s 			page 37


1019:Generated_Source\PSoC4/MIDI1_UART.c ****     *  txDataByte: Byte containing the data to transmit
1020:Generated_Source\PSoC4/MIDI1_UART.c ****     *
1021:Generated_Source\PSoC4/MIDI1_UART.c ****     * Return:
1022:Generated_Source\PSoC4/MIDI1_UART.c ****     *  None.
1023:Generated_Source\PSoC4/MIDI1_UART.c ****     *
1024:Generated_Source\PSoC4/MIDI1_UART.c ****     * Global Variables:
1025:Generated_Source\PSoC4/MIDI1_UART.c ****     *  MIDI1_UART_txBuffer - RAM buffer pointer for save data for transmission
1026:Generated_Source\PSoC4/MIDI1_UART.c ****     *  MIDI1_UART_txBufferWrite - cyclic index for write to txBuffer,
1027:Generated_Source\PSoC4/MIDI1_UART.c ****     *     checked to identify free space in txBuffer and incremented after each byte
1028:Generated_Source\PSoC4/MIDI1_UART.c ****     *     saved to buffer.
1029:Generated_Source\PSoC4/MIDI1_UART.c ****     *  MIDI1_UART_txBufferRead - cyclic index for read from txBuffer,
1030:Generated_Source\PSoC4/MIDI1_UART.c ****     *     checked to identify free space in txBuffer.
1031:Generated_Source\PSoC4/MIDI1_UART.c ****     *  MIDI1_UART_initVar - checked to identify that the component has been
1032:Generated_Source\PSoC4/MIDI1_UART.c ****     *     initialized.
1033:Generated_Source\PSoC4/MIDI1_UART.c ****     *
1034:Generated_Source\PSoC4/MIDI1_UART.c ****     * Reentrant:
1035:Generated_Source\PSoC4/MIDI1_UART.c ****     *  No.
1036:Generated_Source\PSoC4/MIDI1_UART.c ****     *
1037:Generated_Source\PSoC4/MIDI1_UART.c ****     * Theory:
1038:Generated_Source\PSoC4/MIDI1_UART.c ****     *  Allows the user to transmit any byte of data in a single transfer
1039:Generated_Source\PSoC4/MIDI1_UART.c ****     *
1040:Generated_Source\PSoC4/MIDI1_UART.c ****     *******************************************************************************/
1041:Generated_Source\PSoC4/MIDI1_UART.c ****     void MIDI1_UART_PutChar(uint8 txDataByte) 
1042:Generated_Source\PSoC4/MIDI1_UART.c ****     {
 1026              		.loc 1 1042 0
 1027              		.cfi_startproc
 1028              		@ args = 0, pretend = 0, frame = 0
 1029              		@ frame_needed = 0, uses_anonymous_args = 0
 1030              	.LVL84:
 1031 0000 10B5     		push	{r4, lr}
 1032              		.cfi_def_cfa_offset 8
 1033              		.cfi_offset 4, -8
 1034              		.cfi_offset 14, -4
 1035              	.L77:
1043:Generated_Source\PSoC4/MIDI1_UART.c ****     #if (MIDI1_UART_TX_INTERRUPT_ENABLED)
1044:Generated_Source\PSoC4/MIDI1_UART.c ****         /* The temporary output pointer is used since it takes two instructions
1045:Generated_Source\PSoC4/MIDI1_UART.c ****         *  to increment with a wrap, and we can't risk doing that with the real
1046:Generated_Source\PSoC4/MIDI1_UART.c ****         *  pointer and getting an interrupt in between instructions.
1047:Generated_Source\PSoC4/MIDI1_UART.c ****         */
1048:Generated_Source\PSoC4/MIDI1_UART.c ****         uint8 locTxBufferWrite;
1049:Generated_Source\PSoC4/MIDI1_UART.c ****         uint8 locTxBufferRead;
1050:Generated_Source\PSoC4/MIDI1_UART.c **** 
1051:Generated_Source\PSoC4/MIDI1_UART.c ****         do
1052:Generated_Source\PSoC4/MIDI1_UART.c ****         { /* Block if software buffer is full, so we don't overwrite. */
1053:Generated_Source\PSoC4/MIDI1_UART.c **** 
1054:Generated_Source\PSoC4/MIDI1_UART.c ****         #if ((MIDI1_UART_TX_BUFFER_SIZE > MIDI1_UART_MAX_BYTE_VALUE) && (CY_PSOC3))
1055:Generated_Source\PSoC4/MIDI1_UART.c ****             /* Disable TX interrupt to protect variables from modification */
1056:Generated_Source\PSoC4/MIDI1_UART.c ****             MIDI1_UART_DisableTxInt();
1057:Generated_Source\PSoC4/MIDI1_UART.c ****         #endif /* (MIDI1_UART_TX_BUFFER_SIZE > MIDI1_UART_MAX_BYTE_VALUE) && (CY_PSOC3) */
1058:Generated_Source\PSoC4/MIDI1_UART.c **** 
1059:Generated_Source\PSoC4/MIDI1_UART.c ****             locTxBufferWrite = MIDI1_UART_txBufferWrite;
 1036              		.loc 1 1059 0
 1037 0002 164B     		ldr	r3, .L82
 1038 0004 D979     		ldrb	r1, [r3, #7]
 1039              	.LVL85:
1060:Generated_Source\PSoC4/MIDI1_UART.c ****             locTxBufferRead  = MIDI1_UART_txBufferRead;
 1040              		.loc 1 1060 0
ARM GAS  C:\Users\psmus\AppData\Local\Temp\ccyQO4JR.s 			page 38


 1041 0006 9A79     		ldrb	r2, [r3, #6]
 1042 0008 D2B2     		uxtb	r2, r2
 1043              	.LVL86:
1061:Generated_Source\PSoC4/MIDI1_UART.c **** 
1062:Generated_Source\PSoC4/MIDI1_UART.c ****         #if ((MIDI1_UART_TX_BUFFER_SIZE > MIDI1_UART_MAX_BYTE_VALUE) && (CY_PSOC3))
1063:Generated_Source\PSoC4/MIDI1_UART.c ****             /* Enable interrupt to continue transmission */
1064:Generated_Source\PSoC4/MIDI1_UART.c ****             MIDI1_UART_EnableTxInt();
1065:Generated_Source\PSoC4/MIDI1_UART.c ****         #endif /* (MIDI1_UART_TX_BUFFER_SIZE > MIDI1_UART_MAX_BYTE_VALUE) && (CY_PSOC3) */
1066:Generated_Source\PSoC4/MIDI1_UART.c ****         }
1067:Generated_Source\PSoC4/MIDI1_UART.c ****         while( (locTxBufferWrite < locTxBufferRead) ? (locTxBufferWrite == (locTxBufferRead - 1u)) 
 1044              		.loc 1 1067 0
 1045 000a 9142     		cmp	r1, r2
 1046 000c 05D2     		bcs	.L75
 1047              		.loc 1 1067 0 is_stmt 0 discriminator 1
 1048 000e 531E     		subs	r3, r2, #1
 1049 0010 CB1A     		subs	r3, r1, r3
 1050 0012 5C42     		rsbs	r4, r3, #0
 1051 0014 6341     		adcs	r3, r3, r4
 1052 0016 DBB2     		uxtb	r3, r3
 1053 0018 04E0     		b	.L76
 1054              	.L75:
1068:Generated_Source\PSoC4/MIDI1_UART.c ****                                 ((locTxBufferWrite - locTxBufferRead) ==
 1055              		.loc 1 1068 0 is_stmt 1 discriminator 2
 1056 001a 8B1A     		subs	r3, r1, r2
1067:Generated_Source\PSoC4/MIDI1_UART.c ****                                 ((locTxBufferWrite - locTxBufferRead) ==
 1057              		.loc 1 1067 0 discriminator 2
 1058 001c 3F3B     		subs	r3, r3, #63
 1059 001e 5C42     		rsbs	r4, r3, #0
 1060 0020 6341     		adcs	r3, r3, r4
 1061 0022 DBB2     		uxtb	r3, r3
 1062              	.L76:
1069:Generated_Source\PSoC4/MIDI1_UART.c ****                                 (uint8)(MIDI1_UART_TX_BUFFER_SIZE - 1u)) );
 1063              		.loc 1 1069 0
 1064 0024 002B     		cmp	r3, #0
 1065 0026 ECD1     		bne	.L77
1070:Generated_Source\PSoC4/MIDI1_UART.c **** 
1071:Generated_Source\PSoC4/MIDI1_UART.c ****         if( (locTxBufferRead == locTxBufferWrite) &&
 1066              		.loc 1 1071 0
 1067 0028 9142     		cmp	r1, r2
 1068 002a 06D1     		bne	.L78
1072:Generated_Source\PSoC4/MIDI1_UART.c ****             ((MIDI1_UART_TXSTATUS_REG & MIDI1_UART_TX_STS_FIFO_FULL) == 0u) )
 1069              		.loc 1 1072 0 discriminator 1
 1070 002c 0C4B     		ldr	r3, .L82+4
 1071 002e 1B78     		ldrb	r3, [r3]
1071:Generated_Source\PSoC4/MIDI1_UART.c ****             ((MIDI1_UART_TXSTATUS_REG & MIDI1_UART_TX_STS_FIFO_FULL) == 0u) )
 1072              		.loc 1 1071 0 discriminator 1
 1073 0030 5B07     		lsls	r3, r3, #29
 1074 0032 02D4     		bmi	.L78
1073:Generated_Source\PSoC4/MIDI1_UART.c ****         {
1074:Generated_Source\PSoC4/MIDI1_UART.c ****             /* Add directly to the FIFO */
1075:Generated_Source\PSoC4/MIDI1_UART.c ****             MIDI1_UART_TXDATA_REG = txDataByte;
 1075              		.loc 1 1075 0
 1076 0034 0B4B     		ldr	r3, .L82+8
 1077 0036 1870     		strb	r0, [r3]
 1078 0038 0EE0     		b	.L74
 1079              	.L78:
1076:Generated_Source\PSoC4/MIDI1_UART.c ****         }
ARM GAS  C:\Users\psmus\AppData\Local\Temp\ccyQO4JR.s 			page 39


1077:Generated_Source\PSoC4/MIDI1_UART.c ****         else
1078:Generated_Source\PSoC4/MIDI1_UART.c ****         {
1079:Generated_Source\PSoC4/MIDI1_UART.c ****             if(locTxBufferWrite >= MIDI1_UART_TX_BUFFER_SIZE)
 1080              		.loc 1 1079 0
 1081 003a 3F29     		cmp	r1, #63
 1082 003c 00D9     		bls	.L80
1080:Generated_Source\PSoC4/MIDI1_UART.c ****             {
1081:Generated_Source\PSoC4/MIDI1_UART.c ****                 locTxBufferWrite = 0u;
 1083              		.loc 1 1081 0
 1084 003e 0021     		movs	r1, #0
 1085              	.LVL87:
 1086              	.L80:
1082:Generated_Source\PSoC4/MIDI1_UART.c ****             }
1083:Generated_Source\PSoC4/MIDI1_UART.c ****             /* Add to the software buffer. */
1084:Generated_Source\PSoC4/MIDI1_UART.c ****             MIDI1_UART_txBuffer[locTxBufferWrite] = txDataByte;
 1087              		.loc 1 1084 0
 1088 0040 094B     		ldr	r3, .L82+12
 1089 0042 5854     		strb	r0, [r3, r1]
1085:Generated_Source\PSoC4/MIDI1_UART.c ****             locTxBufferWrite++;
 1090              		.loc 1 1085 0
 1091 0044 0131     		adds	r1, r1, #1
 1092              	.LVL88:
1086:Generated_Source\PSoC4/MIDI1_UART.c **** 
1087:Generated_Source\PSoC4/MIDI1_UART.c ****             /* Finally, update the real output pointer */
1088:Generated_Source\PSoC4/MIDI1_UART.c ****         #if ((MIDI1_UART_TX_BUFFER_SIZE > MIDI1_UART_MAX_BYTE_VALUE) && (CY_PSOC3))
1089:Generated_Source\PSoC4/MIDI1_UART.c ****             MIDI1_UART_DisableTxInt();
1090:Generated_Source\PSoC4/MIDI1_UART.c ****         #endif /* (MIDI1_UART_TX_BUFFER_SIZE > MIDI1_UART_MAX_BYTE_VALUE) && (CY_PSOC3) */
1091:Generated_Source\PSoC4/MIDI1_UART.c **** 
1092:Generated_Source\PSoC4/MIDI1_UART.c ****             MIDI1_UART_txBufferWrite = locTxBufferWrite;
 1093              		.loc 1 1092 0
 1094 0046 054B     		ldr	r3, .L82
 1095 0048 D971     		strb	r1, [r3, #7]
1093:Generated_Source\PSoC4/MIDI1_UART.c **** 
1094:Generated_Source\PSoC4/MIDI1_UART.c ****         #if ((MIDI1_UART_TX_BUFFER_SIZE > MIDI1_UART_MAX_BYTE_VALUE) && (CY_PSOC3))
1095:Generated_Source\PSoC4/MIDI1_UART.c ****             MIDI1_UART_EnableTxInt();
1096:Generated_Source\PSoC4/MIDI1_UART.c ****         #endif /* (MIDI1_UART_TX_BUFFER_SIZE > MIDI1_UART_MAX_BYTE_VALUE) && (CY_PSOC3) */
1097:Generated_Source\PSoC4/MIDI1_UART.c **** 
1098:Generated_Source\PSoC4/MIDI1_UART.c ****             if(0u != (MIDI1_UART_TXSTATUS_REG & MIDI1_UART_TX_STS_FIFO_EMPTY))
 1096              		.loc 1 1098 0
 1097 004a 054B     		ldr	r3, .L82+4
 1098 004c 1B78     		ldrb	r3, [r3]
 1099 004e 9B07     		lsls	r3, r3, #30
 1100 0050 02D5     		bpl	.L74
1099:Generated_Source\PSoC4/MIDI1_UART.c ****             {
1100:Generated_Source\PSoC4/MIDI1_UART.c ****                 /* Trigger TX interrupt to send software buffer */
1101:Generated_Source\PSoC4/MIDI1_UART.c ****                 MIDI1_UART_SetPendingTxInt();
 1101              		.loc 1 1101 0
 1102 0052 0120     		movs	r0, #1
 1103              	.LVL89:
 1104 0054 FFF7FEFF 		bl	CyIntSetPending
 1105              	.LVL90:
 1106              	.L74:
1102:Generated_Source\PSoC4/MIDI1_UART.c ****             }
1103:Generated_Source\PSoC4/MIDI1_UART.c ****         }
1104:Generated_Source\PSoC4/MIDI1_UART.c **** 
1105:Generated_Source\PSoC4/MIDI1_UART.c ****     #else
1106:Generated_Source\PSoC4/MIDI1_UART.c **** 
ARM GAS  C:\Users\psmus\AppData\Local\Temp\ccyQO4JR.s 			page 40


1107:Generated_Source\PSoC4/MIDI1_UART.c ****         while((MIDI1_UART_TXSTATUS_REG & MIDI1_UART_TX_STS_FIFO_FULL) != 0u)
1108:Generated_Source\PSoC4/MIDI1_UART.c ****         {
1109:Generated_Source\PSoC4/MIDI1_UART.c ****             /* Wait for room in the FIFO */
1110:Generated_Source\PSoC4/MIDI1_UART.c ****         }
1111:Generated_Source\PSoC4/MIDI1_UART.c **** 
1112:Generated_Source\PSoC4/MIDI1_UART.c ****         /* Add directly to the FIFO */
1113:Generated_Source\PSoC4/MIDI1_UART.c ****         MIDI1_UART_TXDATA_REG = txDataByte;
1114:Generated_Source\PSoC4/MIDI1_UART.c **** 
1115:Generated_Source\PSoC4/MIDI1_UART.c ****     #endif /* MIDI1_UART_TX_INTERRUPT_ENABLED */
1116:Generated_Source\PSoC4/MIDI1_UART.c ****     }
 1107              		.loc 1 1116 0
 1108              		@ sp needed
 1109 0058 10BD     		pop	{r4, pc}
 1110              	.L83:
 1111 005a C046     		.align	2
 1112              	.L82:
 1113 005c 00000000 		.word	.LANCHOR0
 1114 0060 64000F40 		.word	1074724964
 1115 0064 47000F40 		.word	1074724935
 1116 0068 00000000 		.word	MIDI1_UART_txBuffer
 1117              		.cfi_endproc
 1118              	.LFE20:
 1119              		.size	MIDI1_UART_PutChar, .-MIDI1_UART_PutChar
 1120              		.section	.text.MIDI1_UART_PutString,"ax",%progbits
 1121              		.align	2
 1122              		.global	MIDI1_UART_PutString
 1123              		.code	16
 1124              		.thumb_func
 1125              		.type	MIDI1_UART_PutString, %function
 1126              	MIDI1_UART_PutString:
 1127              	.LFB21:
1117:Generated_Source\PSoC4/MIDI1_UART.c **** 
1118:Generated_Source\PSoC4/MIDI1_UART.c **** 
1119:Generated_Source\PSoC4/MIDI1_UART.c ****     /*******************************************************************************
1120:Generated_Source\PSoC4/MIDI1_UART.c ****     * Function Name: MIDI1_UART_PutString
1121:Generated_Source\PSoC4/MIDI1_UART.c ****     ********************************************************************************
1122:Generated_Source\PSoC4/MIDI1_UART.c ****     *
1123:Generated_Source\PSoC4/MIDI1_UART.c ****     * Summary:
1124:Generated_Source\PSoC4/MIDI1_UART.c ****     *  Sends a NULL terminated string to the TX buffer for transmission.
1125:Generated_Source\PSoC4/MIDI1_UART.c ****     *
1126:Generated_Source\PSoC4/MIDI1_UART.c ****     * Parameters:
1127:Generated_Source\PSoC4/MIDI1_UART.c ****     *  string[]: Pointer to the null terminated string array residing in RAM or ROM
1128:Generated_Source\PSoC4/MIDI1_UART.c ****     *
1129:Generated_Source\PSoC4/MIDI1_UART.c ****     * Return:
1130:Generated_Source\PSoC4/MIDI1_UART.c ****     *  None.
1131:Generated_Source\PSoC4/MIDI1_UART.c ****     *
1132:Generated_Source\PSoC4/MIDI1_UART.c ****     * Global Variables:
1133:Generated_Source\PSoC4/MIDI1_UART.c ****     *  MIDI1_UART_initVar - checked to identify that the component has been
1134:Generated_Source\PSoC4/MIDI1_UART.c ****     *     initialized.
1135:Generated_Source\PSoC4/MIDI1_UART.c ****     *
1136:Generated_Source\PSoC4/MIDI1_UART.c ****     * Reentrant:
1137:Generated_Source\PSoC4/MIDI1_UART.c ****     *  No.
1138:Generated_Source\PSoC4/MIDI1_UART.c ****     *
1139:Generated_Source\PSoC4/MIDI1_UART.c ****     * Theory:
1140:Generated_Source\PSoC4/MIDI1_UART.c ****     *  If there is not enough memory in the TX buffer for the entire string, this
1141:Generated_Source\PSoC4/MIDI1_UART.c ****     *  function blocks until the last character of the string is loaded into the
1142:Generated_Source\PSoC4/MIDI1_UART.c ****     *  TX buffer.
ARM GAS  C:\Users\psmus\AppData\Local\Temp\ccyQO4JR.s 			page 41


1143:Generated_Source\PSoC4/MIDI1_UART.c ****     *
1144:Generated_Source\PSoC4/MIDI1_UART.c ****     *******************************************************************************/
1145:Generated_Source\PSoC4/MIDI1_UART.c ****     void MIDI1_UART_PutString(const char8 string[]) 
1146:Generated_Source\PSoC4/MIDI1_UART.c ****     {
 1128              		.loc 1 1146 0
 1129              		.cfi_startproc
 1130              		@ args = 0, pretend = 0, frame = 0
 1131              		@ frame_needed = 0, uses_anonymous_args = 0
 1132              	.LVL91:
 1133 0000 70B5     		push	{r4, r5, r6, lr}
 1134              		.cfi_def_cfa_offset 16
 1135              		.cfi_offset 4, -16
 1136              		.cfi_offset 5, -12
 1137              		.cfi_offset 6, -8
 1138              		.cfi_offset 14, -4
 1139 0002 0500     		movs	r5, r0
 1140              	.LVL92:
1147:Generated_Source\PSoC4/MIDI1_UART.c ****         uint16 bufIndex = 0u;
1148:Generated_Source\PSoC4/MIDI1_UART.c **** 
1149:Generated_Source\PSoC4/MIDI1_UART.c ****         /* If not Initialized then skip this function */
1150:Generated_Source\PSoC4/MIDI1_UART.c ****         if(MIDI1_UART_initVar != 0u)
 1141              		.loc 1 1150 0
 1142 0004 074B     		ldr	r3, .L89
 1143 0006 5B78     		ldrb	r3, [r3, #1]
 1144 0008 002B     		cmp	r3, #0
 1145 000a 05D1     		bne	.L88
 1146 000c 08E0     		b	.L84
 1147              	.LVL93:
 1148              	.L87:
1151:Generated_Source\PSoC4/MIDI1_UART.c ****         {
1152:Generated_Source\PSoC4/MIDI1_UART.c ****             /* This is a blocking function, it will not exit until all data is sent */
1153:Generated_Source\PSoC4/MIDI1_UART.c ****             while(string[bufIndex] != (char8) 0)
1154:Generated_Source\PSoC4/MIDI1_UART.c ****             {
1155:Generated_Source\PSoC4/MIDI1_UART.c ****                 MIDI1_UART_PutChar((uint8)string[bufIndex]);
 1149              		.loc 1 1155 0
 1150 000e FFF7FEFF 		bl	MIDI1_UART_PutChar
 1151              	.LVL94:
1156:Generated_Source\PSoC4/MIDI1_UART.c ****                 bufIndex++;
 1152              		.loc 1 1156 0
 1153 0012 0134     		adds	r4, r4, #1
 1154              	.LVL95:
 1155 0014 A4B2     		uxth	r4, r4
 1156              	.LVL96:
 1157 0016 00E0     		b	.L85
 1158              	.LVL97:
 1159              	.L88:
 1160 0018 0024     		movs	r4, #0
 1161              	.LVL98:
 1162              	.L85:
1153:Generated_Source\PSoC4/MIDI1_UART.c ****             {
 1163              		.loc 1 1153 0
 1164 001a 285D     		ldrb	r0, [r5, r4]
 1165 001c 0028     		cmp	r0, #0
 1166 001e F6D1     		bne	.L87
 1167              	.LVL99:
 1168              	.L84:
1157:Generated_Source\PSoC4/MIDI1_UART.c ****             }
ARM GAS  C:\Users\psmus\AppData\Local\Temp\ccyQO4JR.s 			page 42


1158:Generated_Source\PSoC4/MIDI1_UART.c ****         }
1159:Generated_Source\PSoC4/MIDI1_UART.c ****     }
 1169              		.loc 1 1159 0
 1170              		@ sp needed
 1171              	.LVL100:
 1172 0020 70BD     		pop	{r4, r5, r6, pc}
 1173              	.L90:
 1174 0022 C046     		.align	2
 1175              	.L89:
 1176 0024 00000000 		.word	.LANCHOR0
 1177              		.cfi_endproc
 1178              	.LFE21:
 1179              		.size	MIDI1_UART_PutString, .-MIDI1_UART_PutString
 1180              		.section	.text.MIDI1_UART_PutArray,"ax",%progbits
 1181              		.align	2
 1182              		.global	MIDI1_UART_PutArray
 1183              		.code	16
 1184              		.thumb_func
 1185              		.type	MIDI1_UART_PutArray, %function
 1186              	MIDI1_UART_PutArray:
 1187              	.LFB22:
1160:Generated_Source\PSoC4/MIDI1_UART.c **** 
1161:Generated_Source\PSoC4/MIDI1_UART.c **** 
1162:Generated_Source\PSoC4/MIDI1_UART.c ****     /*******************************************************************************
1163:Generated_Source\PSoC4/MIDI1_UART.c ****     * Function Name: MIDI1_UART_PutArray
1164:Generated_Source\PSoC4/MIDI1_UART.c ****     ********************************************************************************
1165:Generated_Source\PSoC4/MIDI1_UART.c ****     *
1166:Generated_Source\PSoC4/MIDI1_UART.c ****     * Summary:
1167:Generated_Source\PSoC4/MIDI1_UART.c ****     *  Places N bytes of data from a memory array into the TX buffer for
1168:Generated_Source\PSoC4/MIDI1_UART.c ****     *  transmission.
1169:Generated_Source\PSoC4/MIDI1_UART.c ****     *
1170:Generated_Source\PSoC4/MIDI1_UART.c ****     * Parameters:
1171:Generated_Source\PSoC4/MIDI1_UART.c ****     *  string[]: Address of the memory array residing in RAM or ROM.
1172:Generated_Source\PSoC4/MIDI1_UART.c ****     *  byteCount: Number of bytes to be transmitted. The type depends on TX Buffer
1173:Generated_Source\PSoC4/MIDI1_UART.c ****     *             Size parameter.
1174:Generated_Source\PSoC4/MIDI1_UART.c ****     *
1175:Generated_Source\PSoC4/MIDI1_UART.c ****     * Return:
1176:Generated_Source\PSoC4/MIDI1_UART.c ****     *  None.
1177:Generated_Source\PSoC4/MIDI1_UART.c ****     *
1178:Generated_Source\PSoC4/MIDI1_UART.c ****     * Global Variables:
1179:Generated_Source\PSoC4/MIDI1_UART.c ****     *  MIDI1_UART_initVar - checked to identify that the component has been
1180:Generated_Source\PSoC4/MIDI1_UART.c ****     *     initialized.
1181:Generated_Source\PSoC4/MIDI1_UART.c ****     *
1182:Generated_Source\PSoC4/MIDI1_UART.c ****     * Reentrant:
1183:Generated_Source\PSoC4/MIDI1_UART.c ****     *  No.
1184:Generated_Source\PSoC4/MIDI1_UART.c ****     *
1185:Generated_Source\PSoC4/MIDI1_UART.c ****     * Theory:
1186:Generated_Source\PSoC4/MIDI1_UART.c ****     *  If there is not enough memory in the TX buffer for the entire string, this
1187:Generated_Source\PSoC4/MIDI1_UART.c ****     *  function blocks until the last character of the string is loaded into the
1188:Generated_Source\PSoC4/MIDI1_UART.c ****     *  TX buffer.
1189:Generated_Source\PSoC4/MIDI1_UART.c ****     *
1190:Generated_Source\PSoC4/MIDI1_UART.c ****     *******************************************************************************/
1191:Generated_Source\PSoC4/MIDI1_UART.c ****     void MIDI1_UART_PutArray(const uint8 string[], uint8 byteCount)
1192:Generated_Source\PSoC4/MIDI1_UART.c ****                                                                     
1193:Generated_Source\PSoC4/MIDI1_UART.c ****     {
 1188              		.loc 1 1193 0
 1189              		.cfi_startproc
ARM GAS  C:\Users\psmus\AppData\Local\Temp\ccyQO4JR.s 			page 43


 1190              		@ args = 0, pretend = 0, frame = 0
 1191              		@ frame_needed = 0, uses_anonymous_args = 0
 1192              	.LVL101:
 1193 0000 70B5     		push	{r4, r5, r6, lr}
 1194              		.cfi_def_cfa_offset 16
 1195              		.cfi_offset 4, -16
 1196              		.cfi_offset 5, -12
 1197              		.cfi_offset 6, -8
 1198              		.cfi_offset 14, -4
 1199 0002 0600     		movs	r6, r0
 1200 0004 0D00     		movs	r5, r1
 1201              	.LVL102:
1194:Generated_Source\PSoC4/MIDI1_UART.c ****         uint8 bufIndex = 0u;
1195:Generated_Source\PSoC4/MIDI1_UART.c **** 
1196:Generated_Source\PSoC4/MIDI1_UART.c ****         /* If not Initialized then skip this function */
1197:Generated_Source\PSoC4/MIDI1_UART.c ****         if(MIDI1_UART_initVar != 0u)
 1202              		.loc 1 1197 0
 1203 0006 074B     		ldr	r3, .L96
 1204 0008 5B78     		ldrb	r3, [r3, #1]
 1205 000a 002B     		cmp	r3, #0
 1206 000c 06D1     		bne	.L95
 1207 000e 08E0     		b	.L91
 1208              	.LVL103:
 1209              	.L94:
1198:Generated_Source\PSoC4/MIDI1_UART.c ****         {
1199:Generated_Source\PSoC4/MIDI1_UART.c ****             while(bufIndex < byteCount)
1200:Generated_Source\PSoC4/MIDI1_UART.c ****             {
1201:Generated_Source\PSoC4/MIDI1_UART.c ****                 MIDI1_UART_PutChar(string[bufIndex]);
 1210              		.loc 1 1201 0
 1211 0010 305D     		ldrb	r0, [r6, r4]
 1212 0012 FFF7FEFF 		bl	MIDI1_UART_PutChar
 1213              	.LVL104:
1202:Generated_Source\PSoC4/MIDI1_UART.c ****                 bufIndex++;
 1214              		.loc 1 1202 0
 1215 0016 0134     		adds	r4, r4, #1
 1216              	.LVL105:
 1217 0018 E4B2     		uxtb	r4, r4
 1218              	.LVL106:
 1219 001a 00E0     		b	.L92
 1220              	.LVL107:
 1221              	.L95:
 1222 001c 0024     		movs	r4, #0
 1223              	.LVL108:
 1224              	.L92:
1199:Generated_Source\PSoC4/MIDI1_UART.c ****             {
 1225              		.loc 1 1199 0
 1226 001e AC42     		cmp	r4, r5
 1227 0020 F6D3     		bcc	.L94
 1228              	.LVL109:
 1229              	.L91:
1203:Generated_Source\PSoC4/MIDI1_UART.c ****             }
1204:Generated_Source\PSoC4/MIDI1_UART.c ****         }
1205:Generated_Source\PSoC4/MIDI1_UART.c ****     }
 1230              		.loc 1 1205 0
 1231              		@ sp needed
 1232              	.LVL110:
 1233 0022 70BD     		pop	{r4, r5, r6, pc}
ARM GAS  C:\Users\psmus\AppData\Local\Temp\ccyQO4JR.s 			page 44


 1234              	.L97:
 1235              		.align	2
 1236              	.L96:
 1237 0024 00000000 		.word	.LANCHOR0
 1238              		.cfi_endproc
 1239              	.LFE22:
 1240              		.size	MIDI1_UART_PutArray, .-MIDI1_UART_PutArray
 1241              		.section	.text.MIDI1_UART_PutCRLF,"ax",%progbits
 1242              		.align	2
 1243              		.global	MIDI1_UART_PutCRLF
 1244              		.code	16
 1245              		.thumb_func
 1246              		.type	MIDI1_UART_PutCRLF, %function
 1247              	MIDI1_UART_PutCRLF:
 1248              	.LFB23:
1206:Generated_Source\PSoC4/MIDI1_UART.c **** 
1207:Generated_Source\PSoC4/MIDI1_UART.c **** 
1208:Generated_Source\PSoC4/MIDI1_UART.c ****     /*******************************************************************************
1209:Generated_Source\PSoC4/MIDI1_UART.c ****     * Function Name: MIDI1_UART_PutCRLF
1210:Generated_Source\PSoC4/MIDI1_UART.c ****     ********************************************************************************
1211:Generated_Source\PSoC4/MIDI1_UART.c ****     *
1212:Generated_Source\PSoC4/MIDI1_UART.c ****     * Summary:
1213:Generated_Source\PSoC4/MIDI1_UART.c ****     *  Writes a byte of data followed by a carriage return (0x0D) and line feed
1214:Generated_Source\PSoC4/MIDI1_UART.c ****     *  (0x0A) to the transmit buffer.
1215:Generated_Source\PSoC4/MIDI1_UART.c ****     *
1216:Generated_Source\PSoC4/MIDI1_UART.c ****     * Parameters:
1217:Generated_Source\PSoC4/MIDI1_UART.c ****     *  txDataByte: Data byte to transmit before the carriage return and line feed.
1218:Generated_Source\PSoC4/MIDI1_UART.c ****     *
1219:Generated_Source\PSoC4/MIDI1_UART.c ****     * Return:
1220:Generated_Source\PSoC4/MIDI1_UART.c ****     *  None.
1221:Generated_Source\PSoC4/MIDI1_UART.c ****     *
1222:Generated_Source\PSoC4/MIDI1_UART.c ****     * Global Variables:
1223:Generated_Source\PSoC4/MIDI1_UART.c ****     *  MIDI1_UART_initVar - checked to identify that the component has been
1224:Generated_Source\PSoC4/MIDI1_UART.c ****     *     initialized.
1225:Generated_Source\PSoC4/MIDI1_UART.c ****     *
1226:Generated_Source\PSoC4/MIDI1_UART.c ****     * Reentrant:
1227:Generated_Source\PSoC4/MIDI1_UART.c ****     *  No.
1228:Generated_Source\PSoC4/MIDI1_UART.c ****     *
1229:Generated_Source\PSoC4/MIDI1_UART.c ****     *******************************************************************************/
1230:Generated_Source\PSoC4/MIDI1_UART.c ****     void MIDI1_UART_PutCRLF(uint8 txDataByte) 
1231:Generated_Source\PSoC4/MIDI1_UART.c ****     {
 1249              		.loc 1 1231 0
 1250              		.cfi_startproc
 1251              		@ args = 0, pretend = 0, frame = 0
 1252              		@ frame_needed = 0, uses_anonymous_args = 0
 1253              	.LVL111:
 1254 0000 10B5     		push	{r4, lr}
 1255              		.cfi_def_cfa_offset 8
 1256              		.cfi_offset 4, -8
 1257              		.cfi_offset 14, -4
1232:Generated_Source\PSoC4/MIDI1_UART.c ****         /* If not Initialized then skip this function */
1233:Generated_Source\PSoC4/MIDI1_UART.c ****         if(MIDI1_UART_initVar != 0u)
 1258              		.loc 1 1233 0
 1259 0002 064B     		ldr	r3, .L100
 1260 0004 5B78     		ldrb	r3, [r3, #1]
 1261 0006 002B     		cmp	r3, #0
 1262 0008 07D0     		beq	.L98
ARM GAS  C:\Users\psmus\AppData\Local\Temp\ccyQO4JR.s 			page 45


1234:Generated_Source\PSoC4/MIDI1_UART.c ****         {
1235:Generated_Source\PSoC4/MIDI1_UART.c ****             MIDI1_UART_PutChar(txDataByte);
 1263              		.loc 1 1235 0
 1264 000a FFF7FEFF 		bl	MIDI1_UART_PutChar
 1265              	.LVL112:
1236:Generated_Source\PSoC4/MIDI1_UART.c ****             MIDI1_UART_PutChar(0x0Du);
 1266              		.loc 1 1236 0
 1267 000e 0D20     		movs	r0, #13
 1268 0010 FFF7FEFF 		bl	MIDI1_UART_PutChar
 1269              	.LVL113:
1237:Generated_Source\PSoC4/MIDI1_UART.c ****             MIDI1_UART_PutChar(0x0Au);
 1270              		.loc 1 1237 0
 1271 0014 0A20     		movs	r0, #10
 1272 0016 FFF7FEFF 		bl	MIDI1_UART_PutChar
 1273              	.LVL114:
 1274              	.L98:
1238:Generated_Source\PSoC4/MIDI1_UART.c ****         }
1239:Generated_Source\PSoC4/MIDI1_UART.c ****     }
 1275              		.loc 1 1239 0
 1276              		@ sp needed
 1277 001a 10BD     		pop	{r4, pc}
 1278              	.L101:
 1279              		.align	2
 1280              	.L100:
 1281 001c 00000000 		.word	.LANCHOR0
 1282              		.cfi_endproc
 1283              	.LFE23:
 1284              		.size	MIDI1_UART_PutCRLF, .-MIDI1_UART_PutCRLF
 1285              		.section	.text.MIDI1_UART_GetTxBufferSize,"ax",%progbits
 1286              		.align	2
 1287              		.global	MIDI1_UART_GetTxBufferSize
 1288              		.code	16
 1289              		.thumb_func
 1290              		.type	MIDI1_UART_GetTxBufferSize, %function
 1291              	MIDI1_UART_GetTxBufferSize:
 1292              	.LFB24:
1240:Generated_Source\PSoC4/MIDI1_UART.c **** 
1241:Generated_Source\PSoC4/MIDI1_UART.c **** 
1242:Generated_Source\PSoC4/MIDI1_UART.c ****     /*******************************************************************************
1243:Generated_Source\PSoC4/MIDI1_UART.c ****     * Function Name: MIDI1_UART_GetTxBufferSize
1244:Generated_Source\PSoC4/MIDI1_UART.c ****     ********************************************************************************
1245:Generated_Source\PSoC4/MIDI1_UART.c ****     *
1246:Generated_Source\PSoC4/MIDI1_UART.c ****     * Summary:
1247:Generated_Source\PSoC4/MIDI1_UART.c ****     *  Returns the number of bytes in the TX buffer which are waiting to be 
1248:Generated_Source\PSoC4/MIDI1_UART.c ****     *  transmitted.
1249:Generated_Source\PSoC4/MIDI1_UART.c ****     *  * TX software buffer is disabled (TX Buffer Size parameter is equal to 4): 
1250:Generated_Source\PSoC4/MIDI1_UART.c ****     *    returns 0 for empty TX FIFO, 1 for not full TX FIFO or 4 for full TX FIFO.
1251:Generated_Source\PSoC4/MIDI1_UART.c ****     *  * TX software buffer is enabled: returns the number of bytes in the TX 
1252:Generated_Source\PSoC4/MIDI1_UART.c ****     *    software buffer which are waiting to be transmitted. Bytes available in the
1253:Generated_Source\PSoC4/MIDI1_UART.c ****     *    TX FIFO do not count.
1254:Generated_Source\PSoC4/MIDI1_UART.c ****     *
1255:Generated_Source\PSoC4/MIDI1_UART.c ****     * Parameters:
1256:Generated_Source\PSoC4/MIDI1_UART.c ****     *  None.
1257:Generated_Source\PSoC4/MIDI1_UART.c ****     *
1258:Generated_Source\PSoC4/MIDI1_UART.c ****     * Return:
1259:Generated_Source\PSoC4/MIDI1_UART.c ****     *  Number of bytes used in the TX buffer. Return value type depends on the TX 
1260:Generated_Source\PSoC4/MIDI1_UART.c ****     *  Buffer Size parameter.
ARM GAS  C:\Users\psmus\AppData\Local\Temp\ccyQO4JR.s 			page 46


1261:Generated_Source\PSoC4/MIDI1_UART.c ****     *
1262:Generated_Source\PSoC4/MIDI1_UART.c ****     * Global Variables:
1263:Generated_Source\PSoC4/MIDI1_UART.c ****     *  MIDI1_UART_txBufferWrite - used to calculate left space.
1264:Generated_Source\PSoC4/MIDI1_UART.c ****     *  MIDI1_UART_txBufferRead - used to calculate left space.
1265:Generated_Source\PSoC4/MIDI1_UART.c ****     *
1266:Generated_Source\PSoC4/MIDI1_UART.c ****     * Reentrant:
1267:Generated_Source\PSoC4/MIDI1_UART.c ****     *  No.
1268:Generated_Source\PSoC4/MIDI1_UART.c ****     *
1269:Generated_Source\PSoC4/MIDI1_UART.c ****     * Theory:
1270:Generated_Source\PSoC4/MIDI1_UART.c ****     *  Allows the user to find out how full the TX Buffer is.
1271:Generated_Source\PSoC4/MIDI1_UART.c ****     *
1272:Generated_Source\PSoC4/MIDI1_UART.c ****     *******************************************************************************/
1273:Generated_Source\PSoC4/MIDI1_UART.c ****     uint8 MIDI1_UART_GetTxBufferSize(void)
1274:Generated_Source\PSoC4/MIDI1_UART.c ****                                                             
1275:Generated_Source\PSoC4/MIDI1_UART.c ****     {
 1293              		.loc 1 1275 0
 1294              		.cfi_startproc
 1295              		@ args = 0, pretend = 0, frame = 0
 1296              		@ frame_needed = 0, uses_anonymous_args = 0
 1297 0000 10B5     		push	{r4, lr}
 1298              		.cfi_def_cfa_offset 8
 1299              		.cfi_offset 4, -8
 1300              		.cfi_offset 14, -4
1276:Generated_Source\PSoC4/MIDI1_UART.c ****         uint8 size;
1277:Generated_Source\PSoC4/MIDI1_UART.c **** 
1278:Generated_Source\PSoC4/MIDI1_UART.c ****     #if (MIDI1_UART_TX_INTERRUPT_ENABLED)
1279:Generated_Source\PSoC4/MIDI1_UART.c **** 
1280:Generated_Source\PSoC4/MIDI1_UART.c ****         /* Protect variables that could change on interrupt. */
1281:Generated_Source\PSoC4/MIDI1_UART.c ****         MIDI1_UART_DisableTxInt();
 1301              		.loc 1 1281 0
 1302 0002 0120     		movs	r0, #1
 1303 0004 FFF7FEFF 		bl	CyIntDisable
 1304              	.LVL115:
1282:Generated_Source\PSoC4/MIDI1_UART.c **** 
1283:Generated_Source\PSoC4/MIDI1_UART.c ****         if(MIDI1_UART_txBufferRead == MIDI1_UART_txBufferWrite)
 1305              		.loc 1 1283 0
 1306 0008 0D4B     		ldr	r3, .L106
 1307 000a 9A79     		ldrb	r2, [r3, #6]
 1308 000c D2B2     		uxtb	r2, r2
 1309 000e DB79     		ldrb	r3, [r3, #7]
 1310 0010 9A42     		cmp	r2, r3
 1311 0012 0FD0     		beq	.L105
1284:Generated_Source\PSoC4/MIDI1_UART.c ****         {
1285:Generated_Source\PSoC4/MIDI1_UART.c ****             size = 0u;
1286:Generated_Source\PSoC4/MIDI1_UART.c ****         }
1287:Generated_Source\PSoC4/MIDI1_UART.c ****         else if(MIDI1_UART_txBufferRead < MIDI1_UART_txBufferWrite)
 1312              		.loc 1 1287 0
 1313 0014 0A4A     		ldr	r2, .L106
 1314 0016 9279     		ldrb	r2, [r2, #6]
 1315 0018 D2B2     		uxtb	r2, r2
 1316 001a 9342     		cmp	r3, r2
 1317 001c 04D9     		bls	.L104
1288:Generated_Source\PSoC4/MIDI1_UART.c ****         {
1289:Generated_Source\PSoC4/MIDI1_UART.c ****             size = (MIDI1_UART_txBufferWrite - MIDI1_UART_txBufferRead);
 1318              		.loc 1 1289 0
 1319 001e 084A     		ldr	r2, .L106
 1320 0020 9479     		ldrb	r4, [r2, #6]
ARM GAS  C:\Users\psmus\AppData\Local\Temp\ccyQO4JR.s 			page 47


 1321 0022 1B1B     		subs	r3, r3, r4
 1322 0024 DCB2     		uxtb	r4, r3
 1323              	.LVL116:
 1324 0026 06E0     		b	.L103
 1325              	.LVL117:
 1326              	.L104:
1290:Generated_Source\PSoC4/MIDI1_UART.c ****         }
1291:Generated_Source\PSoC4/MIDI1_UART.c ****         else
1292:Generated_Source\PSoC4/MIDI1_UART.c ****         {
1293:Generated_Source\PSoC4/MIDI1_UART.c ****             size = (MIDI1_UART_TX_BUFFER_SIZE - MIDI1_UART_txBufferRead) +
 1327              		.loc 1 1293 0
 1328 0028 054A     		ldr	r2, .L106
 1329 002a 9479     		ldrb	r4, [r2, #6]
 1330 002c 1C1B     		subs	r4, r3, r4
 1331 002e 4034     		adds	r4, r4, #64
 1332 0030 E4B2     		uxtb	r4, r4
 1333              	.LVL118:
 1334 0032 00E0     		b	.L103
 1335              	.LVL119:
 1336              	.L105:
1285:Generated_Source\PSoC4/MIDI1_UART.c ****         }
 1337              		.loc 1 1285 0
 1338 0034 0024     		movs	r4, #0
 1339              	.L103:
 1340              	.LVL120:
1294:Generated_Source\PSoC4/MIDI1_UART.c ****                     MIDI1_UART_txBufferWrite;
1295:Generated_Source\PSoC4/MIDI1_UART.c ****         }
1296:Generated_Source\PSoC4/MIDI1_UART.c **** 
1297:Generated_Source\PSoC4/MIDI1_UART.c ****         MIDI1_UART_EnableTxInt();
 1341              		.loc 1 1297 0
 1342 0036 0120     		movs	r0, #1
 1343 0038 FFF7FEFF 		bl	CyIntEnable
 1344              	.LVL121:
1298:Generated_Source\PSoC4/MIDI1_UART.c **** 
1299:Generated_Source\PSoC4/MIDI1_UART.c ****     #else
1300:Generated_Source\PSoC4/MIDI1_UART.c **** 
1301:Generated_Source\PSoC4/MIDI1_UART.c ****         size = MIDI1_UART_TXSTATUS_REG;
1302:Generated_Source\PSoC4/MIDI1_UART.c **** 
1303:Generated_Source\PSoC4/MIDI1_UART.c ****         /* Is the fifo is full. */
1304:Generated_Source\PSoC4/MIDI1_UART.c ****         if((size & MIDI1_UART_TX_STS_FIFO_FULL) != 0u)
1305:Generated_Source\PSoC4/MIDI1_UART.c ****         {
1306:Generated_Source\PSoC4/MIDI1_UART.c ****             size = MIDI1_UART_FIFO_LENGTH;
1307:Generated_Source\PSoC4/MIDI1_UART.c ****         }
1308:Generated_Source\PSoC4/MIDI1_UART.c ****         else if((size & MIDI1_UART_TX_STS_FIFO_EMPTY) != 0u)
1309:Generated_Source\PSoC4/MIDI1_UART.c ****         {
1310:Generated_Source\PSoC4/MIDI1_UART.c ****             size = 0u;
1311:Generated_Source\PSoC4/MIDI1_UART.c ****         }
1312:Generated_Source\PSoC4/MIDI1_UART.c ****         else
1313:Generated_Source\PSoC4/MIDI1_UART.c ****         {
1314:Generated_Source\PSoC4/MIDI1_UART.c ****             /* We only know there is data in the fifo. */
1315:Generated_Source\PSoC4/MIDI1_UART.c ****             size = 1u;
1316:Generated_Source\PSoC4/MIDI1_UART.c ****         }
1317:Generated_Source\PSoC4/MIDI1_UART.c **** 
1318:Generated_Source\PSoC4/MIDI1_UART.c ****     #endif /* (MIDI1_UART_TX_INTERRUPT_ENABLED) */
1319:Generated_Source\PSoC4/MIDI1_UART.c **** 
1320:Generated_Source\PSoC4/MIDI1_UART.c ****     return(size);
1321:Generated_Source\PSoC4/MIDI1_UART.c ****     }
ARM GAS  C:\Users\psmus\AppData\Local\Temp\ccyQO4JR.s 			page 48


 1345              		.loc 1 1321 0
 1346 003c 2000     		movs	r0, r4
 1347              		@ sp needed
 1348              	.LVL122:
 1349 003e 10BD     		pop	{r4, pc}
 1350              	.L107:
 1351              		.align	2
 1352              	.L106:
 1353 0040 00000000 		.word	.LANCHOR0
 1354              		.cfi_endproc
 1355              	.LFE24:
 1356              		.size	MIDI1_UART_GetTxBufferSize, .-MIDI1_UART_GetTxBufferSize
 1357              		.section	.text.MIDI1_UART_ClearTxBuffer,"ax",%progbits
 1358              		.align	2
 1359              		.global	MIDI1_UART_ClearTxBuffer
 1360              		.code	16
 1361              		.thumb_func
 1362              		.type	MIDI1_UART_ClearTxBuffer, %function
 1363              	MIDI1_UART_ClearTxBuffer:
 1364              	.LFB25:
1322:Generated_Source\PSoC4/MIDI1_UART.c **** 
1323:Generated_Source\PSoC4/MIDI1_UART.c **** 
1324:Generated_Source\PSoC4/MIDI1_UART.c ****     /*******************************************************************************
1325:Generated_Source\PSoC4/MIDI1_UART.c ****     * Function Name: MIDI1_UART_ClearTxBuffer
1326:Generated_Source\PSoC4/MIDI1_UART.c ****     ********************************************************************************
1327:Generated_Source\PSoC4/MIDI1_UART.c ****     *
1328:Generated_Source\PSoC4/MIDI1_UART.c ****     * Summary:
1329:Generated_Source\PSoC4/MIDI1_UART.c ****     *  Clears all data from the TX buffer and hardware TX FIFO.
1330:Generated_Source\PSoC4/MIDI1_UART.c ****     *
1331:Generated_Source\PSoC4/MIDI1_UART.c ****     * Parameters:
1332:Generated_Source\PSoC4/MIDI1_UART.c ****     *  None.
1333:Generated_Source\PSoC4/MIDI1_UART.c ****     *
1334:Generated_Source\PSoC4/MIDI1_UART.c ****     * Return:
1335:Generated_Source\PSoC4/MIDI1_UART.c ****     *  None.
1336:Generated_Source\PSoC4/MIDI1_UART.c ****     *
1337:Generated_Source\PSoC4/MIDI1_UART.c ****     * Global Variables:
1338:Generated_Source\PSoC4/MIDI1_UART.c ****     *  MIDI1_UART_txBufferWrite - cleared to zero.
1339:Generated_Source\PSoC4/MIDI1_UART.c ****     *  MIDI1_UART_txBufferRead - cleared to zero.
1340:Generated_Source\PSoC4/MIDI1_UART.c ****     *
1341:Generated_Source\PSoC4/MIDI1_UART.c ****     * Reentrant:
1342:Generated_Source\PSoC4/MIDI1_UART.c ****     *  No.
1343:Generated_Source\PSoC4/MIDI1_UART.c ****     *
1344:Generated_Source\PSoC4/MIDI1_UART.c ****     * Theory:
1345:Generated_Source\PSoC4/MIDI1_UART.c ****     *  Setting the pointers to zero makes the system believe there is no data to
1346:Generated_Source\PSoC4/MIDI1_UART.c ****     *  read and writing will resume at address 0 overwriting any data that may have
1347:Generated_Source\PSoC4/MIDI1_UART.c ****     *  remained in the RAM.
1348:Generated_Source\PSoC4/MIDI1_UART.c ****     *
1349:Generated_Source\PSoC4/MIDI1_UART.c ****     * Side Effects:
1350:Generated_Source\PSoC4/MIDI1_UART.c ****     *  Data waiting in the transmit buffer is not sent; a byte that is currently
1351:Generated_Source\PSoC4/MIDI1_UART.c ****     *  transmitting finishes transmitting.
1352:Generated_Source\PSoC4/MIDI1_UART.c ****     *
1353:Generated_Source\PSoC4/MIDI1_UART.c ****     *******************************************************************************/
1354:Generated_Source\PSoC4/MIDI1_UART.c ****     void MIDI1_UART_ClearTxBuffer(void) 
1355:Generated_Source\PSoC4/MIDI1_UART.c ****     {
 1365              		.loc 1 1355 0
 1366              		.cfi_startproc
 1367              		@ args = 0, pretend = 0, frame = 0
ARM GAS  C:\Users\psmus\AppData\Local\Temp\ccyQO4JR.s 			page 49


 1368              		@ frame_needed = 0, uses_anonymous_args = 0
 1369 0000 10B5     		push	{r4, lr}
 1370              		.cfi_def_cfa_offset 8
 1371              		.cfi_offset 4, -8
 1372              		.cfi_offset 14, -4
1356:Generated_Source\PSoC4/MIDI1_UART.c ****         uint8 enableInterrupts;
1357:Generated_Source\PSoC4/MIDI1_UART.c **** 
1358:Generated_Source\PSoC4/MIDI1_UART.c ****         enableInterrupts = CyEnterCriticalSection();
 1373              		.loc 1 1358 0
 1374 0002 FFF7FEFF 		bl	CyEnterCriticalSection
 1375              	.LVL123:
1359:Generated_Source\PSoC4/MIDI1_UART.c ****         /* Clear the HW FIFO */
1360:Generated_Source\PSoC4/MIDI1_UART.c ****         MIDI1_UART_TXDATA_AUX_CTL_REG |= (uint8)  MIDI1_UART_TX_FIFO_CLR;
 1376              		.loc 1 1360 0
 1377 0006 0B4A     		ldr	r2, .L109
 1378 0008 1178     		ldrb	r1, [r2]
 1379 000a 0123     		movs	r3, #1
 1380 000c 0B43     		orrs	r3, r1
 1381 000e DBB2     		uxtb	r3, r3
 1382 0010 1370     		strb	r3, [r2]
1361:Generated_Source\PSoC4/MIDI1_UART.c ****         MIDI1_UART_TXDATA_AUX_CTL_REG &= (uint8) ~MIDI1_UART_TX_FIFO_CLR;
 1383              		.loc 1 1361 0
 1384 0012 1378     		ldrb	r3, [r2]
 1385 0014 0121     		movs	r1, #1
 1386 0016 8B43     		bics	r3, r1
 1387 0018 1370     		strb	r3, [r2]
1362:Generated_Source\PSoC4/MIDI1_UART.c ****         CyExitCriticalSection(enableInterrupts);
 1388              		.loc 1 1362 0
 1389 001a FFF7FEFF 		bl	CyExitCriticalSection
 1390              	.LVL124:
1363:Generated_Source\PSoC4/MIDI1_UART.c **** 
1364:Generated_Source\PSoC4/MIDI1_UART.c ****     #if (MIDI1_UART_TX_INTERRUPT_ENABLED)
1365:Generated_Source\PSoC4/MIDI1_UART.c **** 
1366:Generated_Source\PSoC4/MIDI1_UART.c ****         /* Protect variables that could change on interrupt. */
1367:Generated_Source\PSoC4/MIDI1_UART.c ****         MIDI1_UART_DisableTxInt();
 1391              		.loc 1 1367 0
 1392 001e 0120     		movs	r0, #1
 1393 0020 FFF7FEFF 		bl	CyIntDisable
 1394              	.LVL125:
1368:Generated_Source\PSoC4/MIDI1_UART.c **** 
1369:Generated_Source\PSoC4/MIDI1_UART.c ****         MIDI1_UART_txBufferRead = 0u;
 1395              		.loc 1 1369 0
 1396 0024 044B     		ldr	r3, .L109+4
 1397 0026 0022     		movs	r2, #0
 1398 0028 9A71     		strb	r2, [r3, #6]
1370:Generated_Source\PSoC4/MIDI1_UART.c ****         MIDI1_UART_txBufferWrite = 0u;
 1399              		.loc 1 1370 0
 1400 002a DA71     		strb	r2, [r3, #7]
1371:Generated_Source\PSoC4/MIDI1_UART.c **** 
1372:Generated_Source\PSoC4/MIDI1_UART.c ****         /* Enable Tx interrupt. */
1373:Generated_Source\PSoC4/MIDI1_UART.c ****         MIDI1_UART_EnableTxInt();
 1401              		.loc 1 1373 0
 1402 002c 0120     		movs	r0, #1
 1403 002e FFF7FEFF 		bl	CyIntEnable
 1404              	.LVL126:
1374:Generated_Source\PSoC4/MIDI1_UART.c **** 
1375:Generated_Source\PSoC4/MIDI1_UART.c ****     #endif /* (MIDI1_UART_TX_INTERRUPT_ENABLED) */
ARM GAS  C:\Users\psmus\AppData\Local\Temp\ccyQO4JR.s 			page 50


1376:Generated_Source\PSoC4/MIDI1_UART.c ****     }
 1405              		.loc 1 1376 0
 1406              		@ sp needed
 1407 0032 10BD     		pop	{r4, pc}
 1408              	.L110:
 1409              		.align	2
 1410              	.L109:
 1411 0034 97000F40 		.word	1074725015
 1412 0038 00000000 		.word	.LANCHOR0
 1413              		.cfi_endproc
 1414              	.LFE25:
 1415              		.size	MIDI1_UART_ClearTxBuffer, .-MIDI1_UART_ClearTxBuffer
 1416              		.section	.text.MIDI1_UART_SendBreak,"ax",%progbits
 1417              		.align	2
 1418              		.global	MIDI1_UART_SendBreak
 1419              		.code	16
 1420              		.thumb_func
 1421              		.type	MIDI1_UART_SendBreak, %function
 1422              	MIDI1_UART_SendBreak:
 1423              	.LFB26:
1377:Generated_Source\PSoC4/MIDI1_UART.c **** 
1378:Generated_Source\PSoC4/MIDI1_UART.c **** 
1379:Generated_Source\PSoC4/MIDI1_UART.c ****     /*******************************************************************************
1380:Generated_Source\PSoC4/MIDI1_UART.c ****     * Function Name: MIDI1_UART_SendBreak
1381:Generated_Source\PSoC4/MIDI1_UART.c ****     ********************************************************************************
1382:Generated_Source\PSoC4/MIDI1_UART.c ****     *
1383:Generated_Source\PSoC4/MIDI1_UART.c ****     * Summary:
1384:Generated_Source\PSoC4/MIDI1_UART.c ****     *  Transmits a break signal on the bus.
1385:Generated_Source\PSoC4/MIDI1_UART.c ****     *
1386:Generated_Source\PSoC4/MIDI1_UART.c ****     * Parameters:
1387:Generated_Source\PSoC4/MIDI1_UART.c ****     *  uint8 retMode:  Send Break return mode. See the following table for options.
1388:Generated_Source\PSoC4/MIDI1_UART.c ****     *   MIDI1_UART_SEND_BREAK - Initialize registers for break, send the Break
1389:Generated_Source\PSoC4/MIDI1_UART.c ****     *       signal and return immediately.
1390:Generated_Source\PSoC4/MIDI1_UART.c ****     *   MIDI1_UART_WAIT_FOR_COMPLETE_REINIT - Wait until break transmission is
1391:Generated_Source\PSoC4/MIDI1_UART.c ****     *       complete, reinitialize registers to normal transmission mode then return
1392:Generated_Source\PSoC4/MIDI1_UART.c ****     *   MIDI1_UART_REINIT - Reinitialize registers to normal transmission mode
1393:Generated_Source\PSoC4/MIDI1_UART.c ****     *       then return.
1394:Generated_Source\PSoC4/MIDI1_UART.c ****     *   MIDI1_UART_SEND_WAIT_REINIT - Performs both options: 
1395:Generated_Source\PSoC4/MIDI1_UART.c ****     *      MIDI1_UART_SEND_BREAK and MIDI1_UART_WAIT_FOR_COMPLETE_REINIT.
1396:Generated_Source\PSoC4/MIDI1_UART.c ****     *      This option is recommended for most cases.
1397:Generated_Source\PSoC4/MIDI1_UART.c ****     *
1398:Generated_Source\PSoC4/MIDI1_UART.c ****     * Return:
1399:Generated_Source\PSoC4/MIDI1_UART.c ****     *  None.
1400:Generated_Source\PSoC4/MIDI1_UART.c ****     *
1401:Generated_Source\PSoC4/MIDI1_UART.c ****     * Global Variables:
1402:Generated_Source\PSoC4/MIDI1_UART.c ****     *  MIDI1_UART_initVar - checked to identify that the component has been
1403:Generated_Source\PSoC4/MIDI1_UART.c ****     *     initialized.
1404:Generated_Source\PSoC4/MIDI1_UART.c ****     *  txPeriod - static variable, used for keeping TX period configuration.
1405:Generated_Source\PSoC4/MIDI1_UART.c ****     *
1406:Generated_Source\PSoC4/MIDI1_UART.c ****     * Reentrant:
1407:Generated_Source\PSoC4/MIDI1_UART.c ****     *  No.
1408:Generated_Source\PSoC4/MIDI1_UART.c ****     *
1409:Generated_Source\PSoC4/MIDI1_UART.c ****     * Theory:
1410:Generated_Source\PSoC4/MIDI1_UART.c ****     *  SendBreak function initializes registers to send 13-bit break signal. It is
1411:Generated_Source\PSoC4/MIDI1_UART.c ****     *  important to return the registers configuration to normal for continue 8-bit
1412:Generated_Source\PSoC4/MIDI1_UART.c ****     *  operation.
1413:Generated_Source\PSoC4/MIDI1_UART.c ****     *  There are 3 variants for this API usage:
ARM GAS  C:\Users\psmus\AppData\Local\Temp\ccyQO4JR.s 			page 51


1414:Generated_Source\PSoC4/MIDI1_UART.c ****     *  1) SendBreak(3) - function will send the Break signal and take care on the
1415:Generated_Source\PSoC4/MIDI1_UART.c ****     *     configuration returning. Function will block CPU until transmission
1416:Generated_Source\PSoC4/MIDI1_UART.c ****     *     complete.
1417:Generated_Source\PSoC4/MIDI1_UART.c ****     *  2) User may want to use blocking time if UART configured to the low speed
1418:Generated_Source\PSoC4/MIDI1_UART.c ****     *     operation
1419:Generated_Source\PSoC4/MIDI1_UART.c ****     *     Example for this case:
1420:Generated_Source\PSoC4/MIDI1_UART.c ****     *     SendBreak(0);     - initialize Break signal transmission
1421:Generated_Source\PSoC4/MIDI1_UART.c ****     *         Add your code here to use CPU time
1422:Generated_Source\PSoC4/MIDI1_UART.c ****     *     SendBreak(1);     - complete Break operation
1423:Generated_Source\PSoC4/MIDI1_UART.c ****     *  3) Same to 2) but user may want to initialize and use the interrupt to
1424:Generated_Source\PSoC4/MIDI1_UART.c ****     *     complete break operation.
1425:Generated_Source\PSoC4/MIDI1_UART.c ****     *     Example for this case:
1426:Generated_Source\PSoC4/MIDI1_UART.c ****     *     Initialize TX interrupt with "TX - On TX Complete" parameter
1427:Generated_Source\PSoC4/MIDI1_UART.c ****     *     SendBreak(0);     - initialize Break signal transmission
1428:Generated_Source\PSoC4/MIDI1_UART.c ****     *         Add your code here to use CPU time
1429:Generated_Source\PSoC4/MIDI1_UART.c ****     *     When interrupt appear with MIDI1_UART_TX_STS_COMPLETE status:
1430:Generated_Source\PSoC4/MIDI1_UART.c ****     *     SendBreak(2);     - complete Break operation
1431:Generated_Source\PSoC4/MIDI1_UART.c ****     *
1432:Generated_Source\PSoC4/MIDI1_UART.c ****     * Side Effects:
1433:Generated_Source\PSoC4/MIDI1_UART.c ****     *  The MIDI1_UART_SendBreak() function initializes registers to send a
1434:Generated_Source\PSoC4/MIDI1_UART.c ****     *  break signal.
1435:Generated_Source\PSoC4/MIDI1_UART.c ****     *  Break signal length depends on the break signal bits configuration.
1436:Generated_Source\PSoC4/MIDI1_UART.c ****     *  The register configuration should be reinitialized before normal 8-bit
1437:Generated_Source\PSoC4/MIDI1_UART.c ****     *  communication can continue.
1438:Generated_Source\PSoC4/MIDI1_UART.c ****     *
1439:Generated_Source\PSoC4/MIDI1_UART.c ****     *******************************************************************************/
1440:Generated_Source\PSoC4/MIDI1_UART.c ****     void MIDI1_UART_SendBreak(uint8 retMode) 
1441:Generated_Source\PSoC4/MIDI1_UART.c ****     {
 1424              		.loc 1 1441 0
 1425              		.cfi_startproc
 1426              		@ args = 0, pretend = 0, frame = 0
 1427              		@ frame_needed = 0, uses_anonymous_args = 0
 1428              		@ link register save eliminated.
 1429              	.LVL127:
1442:Generated_Source\PSoC4/MIDI1_UART.c **** 
1443:Generated_Source\PSoC4/MIDI1_UART.c ****         /* If not Initialized then skip this function*/
1444:Generated_Source\PSoC4/MIDI1_UART.c ****         if(MIDI1_UART_initVar != 0u)
 1430              		.loc 1 1444 0
 1431 0000 134B     		ldr	r3, .L118
 1432 0002 5B78     		ldrb	r3, [r3, #1]
 1433 0004 002B     		cmp	r3, #0
 1434 0006 21D0     		beq	.L111
 1435              	.LBB2:
1445:Generated_Source\PSoC4/MIDI1_UART.c ****         {
1446:Generated_Source\PSoC4/MIDI1_UART.c ****             /* Set the Counter to 13-bits and transmit a 00 byte */
1447:Generated_Source\PSoC4/MIDI1_UART.c ****             /* When that is done then reset the counter value back */
1448:Generated_Source\PSoC4/MIDI1_UART.c ****             uint8 tmpStat;
1449:Generated_Source\PSoC4/MIDI1_UART.c **** 
1450:Generated_Source\PSoC4/MIDI1_UART.c ****         #if(MIDI1_UART_HD_ENABLED) /* Half Duplex mode*/
1451:Generated_Source\PSoC4/MIDI1_UART.c **** 
1452:Generated_Source\PSoC4/MIDI1_UART.c ****             if( (retMode == MIDI1_UART_SEND_BREAK) ||
1453:Generated_Source\PSoC4/MIDI1_UART.c ****                 (retMode == MIDI1_UART_SEND_WAIT_REINIT ) )
1454:Generated_Source\PSoC4/MIDI1_UART.c ****             {
1455:Generated_Source\PSoC4/MIDI1_UART.c ****                 /* CTRL_HD_SEND_BREAK - sends break bits in HD mode */
1456:Generated_Source\PSoC4/MIDI1_UART.c ****                 MIDI1_UART_WriteControlRegister(MIDI1_UART_ReadControlRegister() |
1457:Generated_Source\PSoC4/MIDI1_UART.c ****                                                       MIDI1_UART_CTRL_HD_SEND_BREAK);
1458:Generated_Source\PSoC4/MIDI1_UART.c ****                 /* Send zeros */
ARM GAS  C:\Users\psmus\AppData\Local\Temp\ccyQO4JR.s 			page 52


1459:Generated_Source\PSoC4/MIDI1_UART.c ****                 MIDI1_UART_TXDATA_REG = 0u;
1460:Generated_Source\PSoC4/MIDI1_UART.c **** 
1461:Generated_Source\PSoC4/MIDI1_UART.c ****                 do /* Wait until transmit starts */
1462:Generated_Source\PSoC4/MIDI1_UART.c ****                 {
1463:Generated_Source\PSoC4/MIDI1_UART.c ****                     tmpStat = MIDI1_UART_TXSTATUS_REG;
1464:Generated_Source\PSoC4/MIDI1_UART.c ****                 }
1465:Generated_Source\PSoC4/MIDI1_UART.c ****                 while((tmpStat & MIDI1_UART_TX_STS_FIFO_EMPTY) != 0u);
1466:Generated_Source\PSoC4/MIDI1_UART.c ****             }
1467:Generated_Source\PSoC4/MIDI1_UART.c **** 
1468:Generated_Source\PSoC4/MIDI1_UART.c ****             if( (retMode == MIDI1_UART_WAIT_FOR_COMPLETE_REINIT) ||
1469:Generated_Source\PSoC4/MIDI1_UART.c ****                 (retMode == MIDI1_UART_SEND_WAIT_REINIT) )
1470:Generated_Source\PSoC4/MIDI1_UART.c ****             {
1471:Generated_Source\PSoC4/MIDI1_UART.c ****                 do /* Wait until transmit complete */
1472:Generated_Source\PSoC4/MIDI1_UART.c ****                 {
1473:Generated_Source\PSoC4/MIDI1_UART.c ****                     tmpStat = MIDI1_UART_TXSTATUS_REG;
1474:Generated_Source\PSoC4/MIDI1_UART.c ****                 }
1475:Generated_Source\PSoC4/MIDI1_UART.c ****                 while(((uint8)~tmpStat & MIDI1_UART_TX_STS_COMPLETE) != 0u);
1476:Generated_Source\PSoC4/MIDI1_UART.c ****             }
1477:Generated_Source\PSoC4/MIDI1_UART.c **** 
1478:Generated_Source\PSoC4/MIDI1_UART.c ****             if( (retMode == MIDI1_UART_WAIT_FOR_COMPLETE_REINIT) ||
1479:Generated_Source\PSoC4/MIDI1_UART.c ****                 (retMode == MIDI1_UART_REINIT) ||
1480:Generated_Source\PSoC4/MIDI1_UART.c ****                 (retMode == MIDI1_UART_SEND_WAIT_REINIT) )
1481:Generated_Source\PSoC4/MIDI1_UART.c ****             {
1482:Generated_Source\PSoC4/MIDI1_UART.c ****                 MIDI1_UART_WriteControlRegister(MIDI1_UART_ReadControlRegister() &
1483:Generated_Source\PSoC4/MIDI1_UART.c ****                                               (uint8)~MIDI1_UART_CTRL_HD_SEND_BREAK);
1484:Generated_Source\PSoC4/MIDI1_UART.c ****             }
1485:Generated_Source\PSoC4/MIDI1_UART.c **** 
1486:Generated_Source\PSoC4/MIDI1_UART.c ****         #else /* MIDI1_UART_HD_ENABLED Full Duplex mode */
1487:Generated_Source\PSoC4/MIDI1_UART.c **** 
1488:Generated_Source\PSoC4/MIDI1_UART.c ****             static uint8 txPeriod;
1489:Generated_Source\PSoC4/MIDI1_UART.c **** 
1490:Generated_Source\PSoC4/MIDI1_UART.c ****             if( (retMode == MIDI1_UART_SEND_BREAK) ||
 1436              		.loc 1 1490 0
 1437 0008 0028     		cmp	r0, #0
 1438 000a 01D0     		beq	.L113
 1439              		.loc 1 1490 0 is_stmt 0 discriminator 1
 1440 000c 0328     		cmp	r0, #3
 1441 000e 0CD1     		bne	.L114
 1442              	.L113:
1491:Generated_Source\PSoC4/MIDI1_UART.c ****                 (retMode == MIDI1_UART_SEND_WAIT_REINIT) )
1492:Generated_Source\PSoC4/MIDI1_UART.c ****             {
1493:Generated_Source\PSoC4/MIDI1_UART.c ****                 /* CTRL_HD_SEND_BREAK - skip to send parity bit at Break signal in Full Duplex mode
1494:Generated_Source\PSoC4/MIDI1_UART.c ****                 #if( (MIDI1_UART_PARITY_TYPE != MIDI1_UART__B_UART__NONE_REVB) || \
1495:Generated_Source\PSoC4/MIDI1_UART.c ****                                     (MIDI1_UART_PARITY_TYPE_SW != 0u) )
1496:Generated_Source\PSoC4/MIDI1_UART.c ****                     MIDI1_UART_WriteControlRegister(MIDI1_UART_ReadControlRegister() |
1497:Generated_Source\PSoC4/MIDI1_UART.c ****                                                           MIDI1_UART_CTRL_HD_SEND_BREAK);
1498:Generated_Source\PSoC4/MIDI1_UART.c ****                 #endif /* End MIDI1_UART_PARITY_TYPE != MIDI1_UART__B_UART__NONE_REVB  */
1499:Generated_Source\PSoC4/MIDI1_UART.c **** 
1500:Generated_Source\PSoC4/MIDI1_UART.c ****                 #if(MIDI1_UART_TXCLKGEN_DP)
1501:Generated_Source\PSoC4/MIDI1_UART.c ****                     txPeriod = MIDI1_UART_TXBITCLKTX_COMPLETE_REG;
 1443              		.loc 1 1501 0 is_stmt 1
 1444 0010 104B     		ldr	r3, .L118+4
 1445 0012 1978     		ldrb	r1, [r3]
 1446 0014 0E4A     		ldr	r2, .L118
 1447 0016 1172     		strb	r1, [r2, #8]
1502:Generated_Source\PSoC4/MIDI1_UART.c ****                     MIDI1_UART_TXBITCLKTX_COMPLETE_REG = MIDI1_UART_TXBITCTR_BREAKBITS;
 1448              		.loc 1 1502 0
ARM GAS  C:\Users\psmus\AppData\Local\Temp\ccyQO4JR.s 			page 53


 1449 0018 6722     		movs	r2, #103
 1450 001a 1A70     		strb	r2, [r3]
1503:Generated_Source\PSoC4/MIDI1_UART.c ****                 #else
1504:Generated_Source\PSoC4/MIDI1_UART.c ****                     txPeriod = MIDI1_UART_TXBITCTR_PERIOD_REG;
1505:Generated_Source\PSoC4/MIDI1_UART.c ****                     MIDI1_UART_TXBITCTR_PERIOD_REG = MIDI1_UART_TXBITCTR_BREAKBITS8X;
1506:Generated_Source\PSoC4/MIDI1_UART.c ****                 #endif /* End MIDI1_UART_TXCLKGEN_DP */
1507:Generated_Source\PSoC4/MIDI1_UART.c **** 
1508:Generated_Source\PSoC4/MIDI1_UART.c ****                 /* Send zeros */
1509:Generated_Source\PSoC4/MIDI1_UART.c ****                 MIDI1_UART_TXDATA_REG = 0u;
 1451              		.loc 1 1509 0
 1452 001c 0022     		movs	r2, #0
 1453 001e 0E4B     		ldr	r3, .L118+8
 1454 0020 1A70     		strb	r2, [r3]
 1455              	.L115:
1510:Generated_Source\PSoC4/MIDI1_UART.c **** 
1511:Generated_Source\PSoC4/MIDI1_UART.c ****                 do /* Wait until transmit starts */
1512:Generated_Source\PSoC4/MIDI1_UART.c ****                 {
1513:Generated_Source\PSoC4/MIDI1_UART.c ****                     tmpStat = MIDI1_UART_TXSTATUS_REG;
 1456              		.loc 1 1513 0 discriminator 1
 1457 0022 0E4B     		ldr	r3, .L118+12
 1458 0024 1B78     		ldrb	r3, [r3]
 1459              	.LVL128:
1514:Generated_Source\PSoC4/MIDI1_UART.c ****                 }
1515:Generated_Source\PSoC4/MIDI1_UART.c ****                 while((tmpStat & MIDI1_UART_TX_STS_FIFO_EMPTY) != 0u);
 1460              		.loc 1 1515 0 discriminator 1
 1461 0026 9B07     		lsls	r3, r3, #30
 1462 0028 FBD4     		bmi	.L115
 1463              	.LVL129:
 1464              	.L114:
1516:Generated_Source\PSoC4/MIDI1_UART.c ****             }
1517:Generated_Source\PSoC4/MIDI1_UART.c **** 
1518:Generated_Source\PSoC4/MIDI1_UART.c ****             if( (retMode == MIDI1_UART_WAIT_FOR_COMPLETE_REINIT) ||
 1465              		.loc 1 1518 0
 1466 002a 0128     		cmp	r0, #1
 1467 002c 01D0     		beq	.L116
 1468              		.loc 1 1518 0 is_stmt 0 discriminator 1
 1469 002e 0328     		cmp	r0, #3
 1470 0030 04D1     		bne	.L117
 1471              	.L116:
1519:Generated_Source\PSoC4/MIDI1_UART.c ****                 (retMode == MIDI1_UART_SEND_WAIT_REINIT) )
1520:Generated_Source\PSoC4/MIDI1_UART.c ****             {
1521:Generated_Source\PSoC4/MIDI1_UART.c ****                 do /* Wait until transmit complete */
1522:Generated_Source\PSoC4/MIDI1_UART.c ****                 {
1523:Generated_Source\PSoC4/MIDI1_UART.c ****                     tmpStat = MIDI1_UART_TXSTATUS_REG;
 1472              		.loc 1 1523 0 is_stmt 1 discriminator 1
 1473 0032 0A4B     		ldr	r3, .L118+12
 1474 0034 1A78     		ldrb	r2, [r3]
 1475              	.LVL130:
1524:Generated_Source\PSoC4/MIDI1_UART.c ****                 }
1525:Generated_Source\PSoC4/MIDI1_UART.c ****                 while(((uint8)~tmpStat & MIDI1_UART_TX_STS_COMPLETE) != 0u);
 1476              		.loc 1 1525 0 discriminator 1
 1477 0036 0123     		movs	r3, #1
 1478 0038 9343     		bics	r3, r2
 1479 003a FAD1     		bne	.L116
 1480              	.LVL131:
 1481              	.L117:
1526:Generated_Source\PSoC4/MIDI1_UART.c ****             }
ARM GAS  C:\Users\psmus\AppData\Local\Temp\ccyQO4JR.s 			page 54


1527:Generated_Source\PSoC4/MIDI1_UART.c **** 
1528:Generated_Source\PSoC4/MIDI1_UART.c ****             if( (retMode == MIDI1_UART_WAIT_FOR_COMPLETE_REINIT) ||
1529:Generated_Source\PSoC4/MIDI1_UART.c ****                 (retMode == MIDI1_UART_REINIT) ||
 1482              		.loc 1 1529 0
 1483 003c 0138     		subs	r0, r0, #1
 1484              	.LVL132:
 1485 003e C0B2     		uxtb	r0, r0
1528:Generated_Source\PSoC4/MIDI1_UART.c ****                 (retMode == MIDI1_UART_REINIT) ||
 1486              		.loc 1 1528 0
 1487 0040 0228     		cmp	r0, #2
 1488 0042 03D8     		bhi	.L111
1530:Generated_Source\PSoC4/MIDI1_UART.c ****                 (retMode == MIDI1_UART_SEND_WAIT_REINIT) )
1531:Generated_Source\PSoC4/MIDI1_UART.c ****             {
1532:Generated_Source\PSoC4/MIDI1_UART.c **** 
1533:Generated_Source\PSoC4/MIDI1_UART.c ****             #if(MIDI1_UART_TXCLKGEN_DP)
1534:Generated_Source\PSoC4/MIDI1_UART.c ****                 MIDI1_UART_TXBITCLKTX_COMPLETE_REG = txPeriod;
 1489              		.loc 1 1534 0
 1490 0044 024B     		ldr	r3, .L118
 1491 0046 1A7A     		ldrb	r2, [r3, #8]
 1492 0048 024B     		ldr	r3, .L118+4
 1493 004a 1A70     		strb	r2, [r3]
 1494              	.L111:
 1495              	.LBE2:
1535:Generated_Source\PSoC4/MIDI1_UART.c ****             #else
1536:Generated_Source\PSoC4/MIDI1_UART.c ****                 MIDI1_UART_TXBITCTR_PERIOD_REG = txPeriod;
1537:Generated_Source\PSoC4/MIDI1_UART.c ****             #endif /* End MIDI1_UART_TXCLKGEN_DP */
1538:Generated_Source\PSoC4/MIDI1_UART.c **** 
1539:Generated_Source\PSoC4/MIDI1_UART.c ****             #if( (MIDI1_UART_PARITY_TYPE != MIDI1_UART__B_UART__NONE_REVB) || \
1540:Generated_Source\PSoC4/MIDI1_UART.c ****                  (MIDI1_UART_PARITY_TYPE_SW != 0u) )
1541:Generated_Source\PSoC4/MIDI1_UART.c ****                 MIDI1_UART_WriteControlRegister(MIDI1_UART_ReadControlRegister() &
1542:Generated_Source\PSoC4/MIDI1_UART.c ****                                                       (uint8) ~MIDI1_UART_CTRL_HD_SEND_BREAK);
1543:Generated_Source\PSoC4/MIDI1_UART.c ****             #endif /* End MIDI1_UART_PARITY_TYPE != NONE */
1544:Generated_Source\PSoC4/MIDI1_UART.c ****             }
1545:Generated_Source\PSoC4/MIDI1_UART.c ****         #endif    /* End MIDI1_UART_HD_ENABLED */
1546:Generated_Source\PSoC4/MIDI1_UART.c ****         }
1547:Generated_Source\PSoC4/MIDI1_UART.c ****     }
 1496              		.loc 1 1547 0
 1497              		@ sp needed
 1498 004c 7047     		bx	lr
 1499              	.L119:
 1500 004e C046     		.align	2
 1501              	.L118:
 1502 0050 00000000 		.word	.LANCHOR0
 1503 0054 34000F40 		.word	1074724916
 1504 0058 47000F40 		.word	1074724935
 1505 005c 64000F40 		.word	1074724964
 1506              		.cfi_endproc
 1507              	.LFE26:
 1508              		.size	MIDI1_UART_SendBreak, .-MIDI1_UART_SendBreak
 1509              		.section	.text.MIDI1_UART_SetTxAddressMode,"ax",%progbits
 1510              		.align	2
 1511              		.global	MIDI1_UART_SetTxAddressMode
 1512              		.code	16
 1513              		.thumb_func
 1514              		.type	MIDI1_UART_SetTxAddressMode, %function
 1515              	MIDI1_UART_SetTxAddressMode:
 1516              	.LFB27:
ARM GAS  C:\Users\psmus\AppData\Local\Temp\ccyQO4JR.s 			page 55


1548:Generated_Source\PSoC4/MIDI1_UART.c **** 
1549:Generated_Source\PSoC4/MIDI1_UART.c **** 
1550:Generated_Source\PSoC4/MIDI1_UART.c ****     /*******************************************************************************
1551:Generated_Source\PSoC4/MIDI1_UART.c ****     * Function Name: MIDI1_UART_SetTxAddressMode
1552:Generated_Source\PSoC4/MIDI1_UART.c ****     ********************************************************************************
1553:Generated_Source\PSoC4/MIDI1_UART.c ****     *
1554:Generated_Source\PSoC4/MIDI1_UART.c ****     * Summary:
1555:Generated_Source\PSoC4/MIDI1_UART.c ****     *  Configures the transmitter to signal the next bytes is address or data.
1556:Generated_Source\PSoC4/MIDI1_UART.c ****     *
1557:Generated_Source\PSoC4/MIDI1_UART.c ****     * Parameters:
1558:Generated_Source\PSoC4/MIDI1_UART.c ****     *  addressMode: 
1559:Generated_Source\PSoC4/MIDI1_UART.c ****     *       MIDI1_UART_SET_SPACE - Configure the transmitter to send the next
1560:Generated_Source\PSoC4/MIDI1_UART.c ****     *                                    byte as a data.
1561:Generated_Source\PSoC4/MIDI1_UART.c ****     *       MIDI1_UART_SET_MARK  - Configure the transmitter to send the next
1562:Generated_Source\PSoC4/MIDI1_UART.c ****     *                                    byte as an address.
1563:Generated_Source\PSoC4/MIDI1_UART.c ****     *
1564:Generated_Source\PSoC4/MIDI1_UART.c ****     * Return:
1565:Generated_Source\PSoC4/MIDI1_UART.c ****     *  None.
1566:Generated_Source\PSoC4/MIDI1_UART.c ****     *
1567:Generated_Source\PSoC4/MIDI1_UART.c ****     * Side Effects:
1568:Generated_Source\PSoC4/MIDI1_UART.c ****     *  This function sets and clears MIDI1_UART_CTRL_MARK bit in the Control
1569:Generated_Source\PSoC4/MIDI1_UART.c ****     *  register.
1570:Generated_Source\PSoC4/MIDI1_UART.c ****     *
1571:Generated_Source\PSoC4/MIDI1_UART.c ****     *******************************************************************************/
1572:Generated_Source\PSoC4/MIDI1_UART.c ****     void MIDI1_UART_SetTxAddressMode(uint8 addressMode) 
1573:Generated_Source\PSoC4/MIDI1_UART.c ****     {
 1517              		.loc 1 1573 0
 1518              		.cfi_startproc
 1519              		@ args = 0, pretend = 0, frame = 0
 1520              		@ frame_needed = 0, uses_anonymous_args = 0
 1521              		@ link register save eliminated.
 1522              	.LVL133:
1574:Generated_Source\PSoC4/MIDI1_UART.c ****         /* Mark/Space sending enable */
1575:Generated_Source\PSoC4/MIDI1_UART.c ****         if(addressMode != 0u)
1576:Generated_Source\PSoC4/MIDI1_UART.c ****         {
1577:Generated_Source\PSoC4/MIDI1_UART.c ****         #if( MIDI1_UART_CONTROL_REG_REMOVED == 0u )
1578:Generated_Source\PSoC4/MIDI1_UART.c ****             MIDI1_UART_WriteControlRegister(MIDI1_UART_ReadControlRegister() |
1579:Generated_Source\PSoC4/MIDI1_UART.c ****                                                   MIDI1_UART_CTRL_MARK);
1580:Generated_Source\PSoC4/MIDI1_UART.c ****         #endif /* End MIDI1_UART_CONTROL_REG_REMOVED == 0u */
1581:Generated_Source\PSoC4/MIDI1_UART.c ****         }
1582:Generated_Source\PSoC4/MIDI1_UART.c ****         else
1583:Generated_Source\PSoC4/MIDI1_UART.c ****         {
1584:Generated_Source\PSoC4/MIDI1_UART.c ****         #if( MIDI1_UART_CONTROL_REG_REMOVED == 0u )
1585:Generated_Source\PSoC4/MIDI1_UART.c ****             MIDI1_UART_WriteControlRegister(MIDI1_UART_ReadControlRegister() &
1586:Generated_Source\PSoC4/MIDI1_UART.c ****                                                   (uint8) ~MIDI1_UART_CTRL_MARK);
1587:Generated_Source\PSoC4/MIDI1_UART.c ****         #endif /* End MIDI1_UART_CONTROL_REG_REMOVED == 0u */
1588:Generated_Source\PSoC4/MIDI1_UART.c ****         }
1589:Generated_Source\PSoC4/MIDI1_UART.c ****     }
 1523              		.loc 1 1589 0
 1524              		@ sp needed
 1525 0000 7047     		bx	lr
 1526              		.cfi_endproc
 1527              	.LFE27:
 1528              		.size	MIDI1_UART_SetTxAddressMode, .-MIDI1_UART_SetTxAddressMode
 1529              		.global	MIDI1_UART_rxBufferOverflow
 1530              		.global	MIDI1_UART_rxBufferLoopDetect
 1531              		.global	MIDI1_UART_rxBufferWrite
ARM GAS  C:\Users\psmus\AppData\Local\Temp\ccyQO4JR.s 			page 56


 1532              		.global	MIDI1_UART_rxBufferRead
 1533              		.comm	MIDI1_UART_rxBuffer,64,4
 1534              		.global	MIDI1_UART_errorStatus
 1535              		.global	MIDI1_UART_txBufferWrite
 1536              		.global	MIDI1_UART_txBufferRead
 1537              		.comm	MIDI1_UART_txBuffer,64,4
 1538              		.global	MIDI1_UART_initVar
 1539 0002 C046     		.bss
 1540              		.set	.LANCHOR0,. + 0
 1541              		.type	MIDI1_UART_errorStatus, %object
 1542              		.size	MIDI1_UART_errorStatus, 1
 1543              	MIDI1_UART_errorStatus:
 1544 0000 00       		.space	1
 1545              		.type	MIDI1_UART_initVar, %object
 1546              		.size	MIDI1_UART_initVar, 1
 1547              	MIDI1_UART_initVar:
 1548 0001 00       		.space	1
 1549              		.type	MIDI1_UART_rxBufferRead, %object
 1550              		.size	MIDI1_UART_rxBufferRead, 1
 1551              	MIDI1_UART_rxBufferRead:
 1552 0002 00       		.space	1
 1553              		.type	MIDI1_UART_rxBufferWrite, %object
 1554              		.size	MIDI1_UART_rxBufferWrite, 1
 1555              	MIDI1_UART_rxBufferWrite:
 1556 0003 00       		.space	1
 1557              		.type	MIDI1_UART_rxBufferLoopDetect, %object
 1558              		.size	MIDI1_UART_rxBufferLoopDetect, 1
 1559              	MIDI1_UART_rxBufferLoopDetect:
 1560 0004 00       		.space	1
 1561              		.type	MIDI1_UART_rxBufferOverflow, %object
 1562              		.size	MIDI1_UART_rxBufferOverflow, 1
 1563              	MIDI1_UART_rxBufferOverflow:
 1564 0005 00       		.space	1
 1565              		.type	MIDI1_UART_txBufferRead, %object
 1566              		.size	MIDI1_UART_txBufferRead, 1
 1567              	MIDI1_UART_txBufferRead:
 1568 0006 00       		.space	1
 1569              		.type	MIDI1_UART_txBufferWrite, %object
 1570              		.size	MIDI1_UART_txBufferWrite, 1
 1571              	MIDI1_UART_txBufferWrite:
 1572 0007 00       		.space	1
 1573              		.type	txPeriod.5112, %object
 1574              		.size	txPeriod.5112, 1
 1575              	txPeriod.5112:
 1576 0008 00       		.space	1
 1577              		.text
 1578              	.Letext0:
 1579              		.file 2 "Generated_Source\\PSoC4\\cytypes.h"
 1580              		.file 3 "Generated_Source\\PSoC4\\CyLib.h"
 1581              		.file 4 "Generated_Source\\PSoC4\\MIDI1_UART_IntClock.h"
 1582              		.section	.debug_info,"",%progbits
 1583              	.Ldebug_info0:
 1584 0000 52090000 		.4byte	0x952
 1585 0004 0400     		.2byte	0x4
 1586 0006 00000000 		.4byte	.Ldebug_abbrev0
 1587 000a 04       		.byte	0x4
 1588 000b 01       		.uleb128 0x1
ARM GAS  C:\Users\psmus\AppData\Local\Temp\ccyQO4JR.s 			page 57


 1589 000c 91000000 		.4byte	.LASF86
 1590 0010 0C       		.byte	0xc
 1591 0011 EF010000 		.4byte	.LASF87
 1592 0015 9E010000 		.4byte	.LASF88
 1593 0019 00000000 		.4byte	.Ldebug_ranges0+0
 1594 001d 00000000 		.4byte	0
 1595 0021 00000000 		.4byte	.Ldebug_line0
 1596 0025 02       		.uleb128 0x2
 1597 0026 01       		.byte	0x1
 1598 0027 06       		.byte	0x6
 1599 0028 5A010000 		.4byte	.LASF0
 1600 002c 02       		.uleb128 0x2
 1601 002d 01       		.byte	0x1
 1602 002e 08       		.byte	0x8
 1603 002f D1040000 		.4byte	.LASF1
 1604 0033 02       		.uleb128 0x2
 1605 0034 02       		.byte	0x2
 1606 0035 05       		.byte	0x5
 1607 0036 41050000 		.4byte	.LASF2
 1608 003a 02       		.uleb128 0x2
 1609 003b 02       		.byte	0x2
 1610 003c 07       		.byte	0x7
 1611 003d 2A030000 		.4byte	.LASF3
 1612 0041 02       		.uleb128 0x2
 1613 0042 04       		.byte	0x4
 1614 0043 05       		.byte	0x5
 1615 0044 88000000 		.4byte	.LASF4
 1616 0048 02       		.uleb128 0x2
 1617 0049 04       		.byte	0x4
 1618 004a 07       		.byte	0x7
 1619 004b DB020000 		.4byte	.LASF5
 1620 004f 02       		.uleb128 0x2
 1621 0050 08       		.byte	0x8
 1622 0051 05       		.byte	0x5
 1623 0052 4C010000 		.4byte	.LASF6
 1624 0056 02       		.uleb128 0x2
 1625 0057 08       		.byte	0x8
 1626 0058 07       		.byte	0x7
 1627 0059 1F010000 		.4byte	.LASF7
 1628 005d 03       		.uleb128 0x3
 1629 005e 04       		.byte	0x4
 1630 005f 05       		.byte	0x5
 1631 0060 696E7400 		.ascii	"int\000"
 1632 0064 02       		.uleb128 0x2
 1633 0065 04       		.byte	0x4
 1634 0066 07       		.byte	0x7
 1635 0067 A6020000 		.4byte	.LASF8
 1636 006b 04       		.uleb128 0x4
 1637 006c 13020000 		.4byte	.LASF9
 1638 0070 02       		.byte	0x2
 1639 0071 E401     		.2byte	0x1e4
 1640 0073 2C000000 		.4byte	0x2c
 1641 0077 04       		.uleb128 0x4
 1642 0078 00000000 		.4byte	.LASF10
 1643 007c 02       		.byte	0x2
 1644 007d E501     		.2byte	0x1e5
 1645 007f 3A000000 		.4byte	0x3a
ARM GAS  C:\Users\psmus\AppData\Local\Temp\ccyQO4JR.s 			page 58


 1646 0083 02       		.uleb128 0x2
 1647 0084 04       		.byte	0x4
 1648 0085 04       		.byte	0x4
 1649 0086 5B040000 		.4byte	.LASF11
 1650 008a 02       		.uleb128 0x2
 1651 008b 08       		.byte	0x8
 1652 008c 04       		.byte	0x4
 1653 008d 19020000 		.4byte	.LASF12
 1654 0091 04       		.uleb128 0x4
 1655 0092 09060000 		.4byte	.LASF13
 1656 0096 02       		.byte	0x2
 1657 0097 F501     		.2byte	0x1f5
 1658 0099 9D000000 		.4byte	0x9d
 1659 009d 02       		.uleb128 0x2
 1660 009e 01       		.byte	0x1
 1661 009f 08       		.byte	0x8
 1662 00a0 EC050000 		.4byte	.LASF14
 1663 00a4 04       		.uleb128 0x4
 1664 00a5 BC040000 		.4byte	.LASF15
 1665 00a9 02       		.byte	0x2
 1666 00aa 8E02     		.2byte	0x28e
 1667 00ac B0000000 		.4byte	0xb0
 1668 00b0 05       		.uleb128 0x5
 1669 00b1 6B000000 		.4byte	0x6b
 1670 00b5 02       		.uleb128 0x2
 1671 00b6 08       		.byte	0x8
 1672 00b7 04       		.byte	0x4
 1673 00b8 06040000 		.4byte	.LASF16
 1674 00bc 02       		.uleb128 0x2
 1675 00bd 04       		.byte	0x4
 1676 00be 07       		.byte	0x7
 1677 00bf E1030000 		.4byte	.LASF17
 1678 00c3 06       		.uleb128 0x6
 1679 00c4 5A000000 		.4byte	.LASF18
 1680 00c8 01       		.byte	0x1
 1681 00c9 6A       		.byte	0x6a
 1682 00ca 00000000 		.4byte	.LFB2
 1683 00ce 68000000 		.4byte	.LFE2-.LFB2
 1684 00d2 01       		.uleb128 0x1
 1685 00d3 9C       		.byte	0x9c
 1686 00d4 2B010000 		.4byte	0x12b
 1687 00d8 07       		.uleb128 0x7
 1688 00d9 0A000000 		.4byte	.LVL0
 1689 00dd E7080000 		.4byte	0x8e7
 1690 00e1 EB000000 		.4byte	0xeb
 1691 00e5 08       		.uleb128 0x8
 1692 00e6 01       		.uleb128 0x1
 1693 00e7 50       		.byte	0x50
 1694 00e8 01       		.uleb128 0x1
 1695 00e9 30       		.byte	0x30
 1696 00ea 00       		.byte	0
 1697 00eb 07       		.uleb128 0x7
 1698 00ec 12000000 		.4byte	.LVL1
 1699 00f0 F2080000 		.4byte	0x8f2
 1700 00f4 03010000 		.4byte	0x103
 1701 00f8 08       		.uleb128 0x8
 1702 00f9 01       		.uleb128 0x1
ARM GAS  C:\Users\psmus\AppData\Local\Temp\ccyQO4JR.s 			page 59


 1703 00fa 50       		.byte	0x50
 1704 00fb 01       		.uleb128 0x1
 1705 00fc 30       		.byte	0x30
 1706 00fd 08       		.uleb128 0x8
 1707 00fe 01       		.uleb128 0x1
 1708 00ff 51       		.byte	0x51
 1709 0100 01       		.uleb128 0x1
 1710 0101 33       		.byte	0x33
 1711 0102 00       		.byte	0
 1712 0103 07       		.uleb128 0x7
 1713 0104 2C000000 		.4byte	.LVL2
 1714 0108 E7080000 		.4byte	0x8e7
 1715 010c 16010000 		.4byte	0x116
 1716 0110 08       		.uleb128 0x8
 1717 0111 01       		.uleb128 0x1
 1718 0112 50       		.byte	0x50
 1719 0113 01       		.uleb128 0x1
 1720 0114 31       		.byte	0x31
 1721 0115 00       		.byte	0
 1722 0116 09       		.uleb128 0x9
 1723 0117 34000000 		.4byte	.LVL3
 1724 011b F2080000 		.4byte	0x8f2
 1725 011f 08       		.uleb128 0x8
 1726 0120 01       		.uleb128 0x1
 1727 0121 50       		.byte	0x50
 1728 0122 01       		.uleb128 0x1
 1729 0123 31       		.byte	0x31
 1730 0124 08       		.uleb128 0x8
 1731 0125 01       		.uleb128 0x1
 1732 0126 51       		.byte	0x51
 1733 0127 01       		.uleb128 0x1
 1734 0128 33       		.byte	0x33
 1735 0129 00       		.byte	0
 1736 012a 00       		.byte	0
 1737 012b 06       		.uleb128 0x6
 1738 012c A8060000 		.4byte	.LASF19
 1739 0130 01       		.byte	0x1
 1740 0131 B7       		.byte	0xb7
 1741 0132 00000000 		.4byte	.LFB3
 1742 0136 58000000 		.4byte	.LFE3-.LFB3
 1743 013a 01       		.uleb128 0x1
 1744 013b 9C       		.byte	0x9c
 1745 013c B6010000 		.4byte	0x1b6
 1746 0140 0A       		.uleb128 0xa
 1747 0141 54060000 		.4byte	.LASF22
 1748 0145 01       		.byte	0x1
 1749 0146 B9       		.byte	0xb9
 1750 0147 6B000000 		.4byte	0x6b
 1751 014b 00000000 		.4byte	.LLST0
 1752 014f 0B       		.uleb128 0xb
 1753 0150 06000000 		.4byte	.LVL4
 1754 0154 FD080000 		.4byte	0x8fd
 1755 0158 07       		.uleb128 0x7
 1756 0159 26000000 		.4byte	.LVL6
 1757 015d 08090000 		.4byte	0x908
 1758 0161 6B010000 		.4byte	0x16b
 1759 0165 08       		.uleb128 0x8
ARM GAS  C:\Users\psmus\AppData\Local\Temp\ccyQO4JR.s 			page 60


 1760 0166 01       		.uleb128 0x1
 1761 0167 50       		.byte	0x50
 1762 0168 01       		.uleb128 0x1
 1763 0169 30       		.byte	0x30
 1764 016a 00       		.byte	0
 1765 016b 07       		.uleb128 0x7
 1766 016c 36000000 		.4byte	.LVL7
 1767 0170 13090000 		.4byte	0x913
 1768 0174 7E010000 		.4byte	0x17e
 1769 0178 08       		.uleb128 0x8
 1770 0179 01       		.uleb128 0x1
 1771 017a 50       		.byte	0x50
 1772 017b 01       		.uleb128 0x1
 1773 017c 31       		.byte	0x31
 1774 017d 00       		.byte	0
 1775 017e 07       		.uleb128 0x7
 1776 017f 3C000000 		.4byte	.LVL8
 1777 0183 08090000 		.4byte	0x908
 1778 0187 91010000 		.4byte	0x191
 1779 018b 08       		.uleb128 0x8
 1780 018c 01       		.uleb128 0x1
 1781 018d 50       		.byte	0x50
 1782 018e 01       		.uleb128 0x1
 1783 018f 31       		.byte	0x31
 1784 0190 00       		.byte	0
 1785 0191 07       		.uleb128 0x7
 1786 0192 42000000 		.4byte	.LVL9
 1787 0196 1E090000 		.4byte	0x91e
 1788 019a A5010000 		.4byte	0x1a5
 1789 019e 08       		.uleb128 0x8
 1790 019f 01       		.uleb128 0x1
 1791 01a0 50       		.byte	0x50
 1792 01a1 02       		.uleb128 0x2
 1793 01a2 08       		.byte	0x8
 1794 01a3 FF       		.byte	0xff
 1795 01a4 00       		.byte	0
 1796 01a5 09       		.uleb128 0x9
 1797 01a6 48000000 		.4byte	.LVL10
 1798 01aa 29090000 		.4byte	0x929
 1799 01ae 08       		.uleb128 0x8
 1800 01af 01       		.uleb128 0x1
 1801 01b0 50       		.byte	0x50
 1802 01b1 02       		.uleb128 0x2
 1803 01b2 75       		.byte	0x75
 1804 01b3 00       		.sleb128 0
 1805 01b4 00       		.byte	0
 1806 01b5 00       		.byte	0
 1807 01b6 06       		.uleb128 0x6
 1808 01b7 4C030000 		.4byte	.LASF20
 1809 01bb 01       		.byte	0x1
 1810 01bc 4C       		.byte	0x4c
 1811 01bd 00000000 		.4byte	.LFB1
 1812 01c1 20000000 		.4byte	.LFE1-.LFB1
 1813 01c5 01       		.uleb128 0x1
 1814 01c6 9C       		.byte	0x9c
 1815 01c7 DE010000 		.4byte	0x1de
 1816 01cb 0B       		.uleb128 0xb
ARM GAS  C:\Users\psmus\AppData\Local\Temp\ccyQO4JR.s 			page 61


 1817 01cc 0E000000 		.4byte	.LVL12
 1818 01d0 C3000000 		.4byte	0xc3
 1819 01d4 0B       		.uleb128 0xb
 1820 01d5 18000000 		.4byte	.LVL13
 1821 01d9 2B010000 		.4byte	0x12b
 1822 01dd 00       		.byte	0
 1823 01de 06       		.uleb128 0x6
 1824 01df C1040000 		.4byte	.LASF21
 1825 01e3 01       		.byte	0x1
 1826 01e4 F0       		.byte	0xf0
 1827 01e5 00000000 		.4byte	.LFB4
 1828 01e9 48000000 		.4byte	.LFE4-.LFB4
 1829 01ed 01       		.uleb128 0x1
 1830 01ee 9C       		.byte	0x9c
 1831 01ef 4B020000 		.4byte	0x24b
 1832 01f3 0A       		.uleb128 0xa
 1833 01f4 54060000 		.4byte	.LASF22
 1834 01f8 01       		.byte	0x1
 1835 01f9 F2       		.byte	0xf2
 1836 01fa 6B000000 		.4byte	0x6b
 1837 01fe 13000000 		.4byte	.LLST1
 1838 0202 0B       		.uleb128 0xb
 1839 0203 06000000 		.4byte	.LVL14
 1840 0207 FD080000 		.4byte	0x8fd
 1841 020b 0B       		.uleb128 0xb
 1842 020c 16000000 		.4byte	.LVL16
 1843 0210 34090000 		.4byte	0x934
 1844 0214 07       		.uleb128 0x7
 1845 0215 26000000 		.4byte	.LVL17
 1846 0219 3F090000 		.4byte	0x93f
 1847 021d 27020000 		.4byte	0x227
 1848 0221 08       		.uleb128 0x8
 1849 0222 01       		.uleb128 0x1
 1850 0223 50       		.byte	0x50
 1851 0224 01       		.uleb128 0x1
 1852 0225 30       		.byte	0x30
 1853 0226 00       		.byte	0
 1854 0227 07       		.uleb128 0x7
 1855 0228 34000000 		.4byte	.LVL18
 1856 022c 3F090000 		.4byte	0x93f
 1857 0230 3A020000 		.4byte	0x23a
 1858 0234 08       		.uleb128 0x8
 1859 0235 01       		.uleb128 0x1
 1860 0236 50       		.byte	0x50
 1861 0237 01       		.uleb128 0x1
 1862 0238 31       		.byte	0x31
 1863 0239 00       		.byte	0
 1864 023a 09       		.uleb128 0x9
 1865 023b 3A000000 		.4byte	.LVL19
 1866 023f 29090000 		.4byte	0x929
 1867 0243 08       		.uleb128 0x8
 1868 0244 01       		.uleb128 0x1
 1869 0245 50       		.byte	0x50
 1870 0246 02       		.uleb128 0x2
 1871 0247 74       		.byte	0x74
 1872 0248 00       		.sleb128 0
 1873 0249 00       		.byte	0
ARM GAS  C:\Users\psmus\AppData\Local\Temp\ccyQO4JR.s 			page 62


 1874 024a 00       		.byte	0
 1875 024b 0C       		.uleb128 0xc
 1876 024c 7F050000 		.4byte	.LASF48
 1877 0250 01       		.byte	0x1
 1878 0251 2701     		.2byte	0x127
 1879 0253 6B000000 		.4byte	0x6b
 1880 0257 00000000 		.4byte	.LFB5
 1881 025b 04000000 		.4byte	.LFE5-.LFB5
 1882 025f 01       		.uleb128 0x1
 1883 0260 9C       		.byte	0x9c
 1884 0261 0D       		.uleb128 0xd
 1885 0262 F3040000 		.4byte	.LASF23
 1886 0266 01       		.byte	0x1
 1887 0267 3F01     		.2byte	0x13f
 1888 0269 00000000 		.4byte	.LFB6
 1889 026d 02000000 		.4byte	.LFE6-.LFB6
 1890 0271 01       		.uleb128 0x1
 1891 0272 9C       		.byte	0x9c
 1892 0273 86020000 		.4byte	0x286
 1893 0277 0E       		.uleb128 0xe
 1894 0278 44020000 		.4byte	.LASF25
 1895 027c 01       		.byte	0x1
 1896 027d 3F01     		.2byte	0x13f
 1897 027f 6B000000 		.4byte	0x6b
 1898 0283 01       		.uleb128 0x1
 1899 0284 50       		.byte	0x50
 1900 0285 00       		.byte	0
 1901 0286 0D       		.uleb128 0xd
 1902 0287 57050000 		.4byte	.LASF24
 1903 028b 01       		.byte	0x1
 1904 028c 6701     		.2byte	0x167
 1905 028e 00000000 		.4byte	.LFB7
 1906 0292 0C000000 		.4byte	.LFE7-.LFB7
 1907 0296 01       		.uleb128 0x1
 1908 0297 9C       		.byte	0x9c
 1909 0298 AB020000 		.4byte	0x2ab
 1910 029c 0E       		.uleb128 0xe
 1911 029d 94030000 		.4byte	.LASF26
 1912 02a1 01       		.byte	0x1
 1913 02a2 6701     		.2byte	0x167
 1914 02a4 6B000000 		.4byte	0x6b
 1915 02a8 01       		.uleb128 0x1
 1916 02a9 50       		.byte	0x50
 1917 02aa 00       		.byte	0
 1918 02ab 0F       		.uleb128 0xf
 1919 02ac 36010000 		.4byte	.LASF30
 1920 02b0 01       		.byte	0x1
 1921 02b1 8801     		.2byte	0x188
 1922 02b3 6B000000 		.4byte	0x6b
 1923 02b7 00000000 		.4byte	.LFB8
 1924 02bb 5C000000 		.4byte	.LFE8-.LFB8
 1925 02bf 01       		.uleb128 0x1
 1926 02c0 9C       		.byte	0x9c
 1927 02c1 18030000 		.4byte	0x318
 1928 02c5 10       		.uleb128 0x10
 1929 02c6 BA050000 		.4byte	.LASF27
 1930 02ca 01       		.byte	0x1
ARM GAS  C:\Users\psmus\AppData\Local\Temp\ccyQO4JR.s 			page 63


 1931 02cb 8A01     		.2byte	0x18a
 1932 02cd 6B000000 		.4byte	0x6b
 1933 02d1 26000000 		.4byte	.LLST2
 1934 02d5 10       		.uleb128 0x10
 1935 02d6 44060000 		.4byte	.LASF28
 1936 02da 01       		.byte	0x1
 1937 02db 8E01     		.2byte	0x18e
 1938 02dd 6B000000 		.4byte	0x6b
 1939 02e1 44000000 		.4byte	.LLST3
 1940 02e5 10       		.uleb128 0x10
 1941 02e6 2D040000 		.4byte	.LASF29
 1942 02ea 01       		.byte	0x1
 1943 02eb 8F01     		.2byte	0x18f
 1944 02ed 6B000000 		.4byte	0x6b
 1945 02f1 89000000 		.4byte	.LLST4
 1946 02f5 07       		.uleb128 0x7
 1947 02f6 08000000 		.4byte	.LVL23
 1948 02fa 3F090000 		.4byte	0x93f
 1949 02fe 08030000 		.4byte	0x308
 1950 0302 08       		.uleb128 0x8
 1951 0303 01       		.uleb128 0x1
 1952 0304 50       		.byte	0x50
 1953 0305 01       		.uleb128 0x1
 1954 0306 30       		.byte	0x30
 1955 0307 00       		.byte	0
 1956 0308 09       		.uleb128 0x9
 1957 0309 4A000000 		.4byte	.LVL35
 1958 030d 08090000 		.4byte	0x908
 1959 0311 08       		.uleb128 0x8
 1960 0312 01       		.uleb128 0x1
 1961 0313 50       		.byte	0x50
 1962 0314 01       		.uleb128 0x1
 1963 0315 30       		.byte	0x30
 1964 0316 00       		.byte	0
 1965 0317 00       		.byte	0
 1966 0318 0F       		.uleb128 0xf
 1967 0319 2C020000 		.4byte	.LASF31
 1968 031d 01       		.byte	0x1
 1969 031e E501     		.2byte	0x1e5
 1970 0320 6B000000 		.4byte	0x6b
 1971 0324 00000000 		.4byte	.LFB9
 1972 0328 28000000 		.4byte	.LFE9-.LFB9
 1973 032c 01       		.uleb128 0x1
 1974 032d 9C       		.byte	0x9c
 1975 032e 43030000 		.4byte	0x343
 1976 0332 10       		.uleb128 0x10
 1977 0333 65060000 		.4byte	.LASF32
 1978 0337 01       		.byte	0x1
 1979 0338 E701     		.2byte	0x1e7
 1980 033a 6B000000 		.4byte	0x6b
 1981 033e 9C000000 		.4byte	.LLST5
 1982 0342 00       		.byte	0
 1983 0343 0F       		.uleb128 0xf
 1984 0344 1A040000 		.4byte	.LASF33
 1985 0348 01       		.byte	0x1
 1986 0349 1402     		.2byte	0x214
 1987 034b 6B000000 		.4byte	0x6b
ARM GAS  C:\Users\psmus\AppData\Local\Temp\ccyQO4JR.s 			page 64


 1988 034f 00000000 		.4byte	.LFB10
 1989 0353 78000000 		.4byte	.LFE10-.LFB10
 1990 0357 01       		.uleb128 0x1
 1991 0358 9C       		.byte	0x9c
 1992 0359 C0030000 		.4byte	0x3c0
 1993 035d 10       		.uleb128 0x10
 1994 035e BA050000 		.4byte	.LASF27
 1995 0362 01       		.byte	0x1
 1996 0363 1602     		.2byte	0x216
 1997 0365 6B000000 		.4byte	0x6b
 1998 0369 BA000000 		.4byte	.LLST6
 1999 036d 10       		.uleb128 0x10
 2000 036e 3E040000 		.4byte	.LASF34
 2001 0372 01       		.byte	0x1
 2002 0373 1702     		.2byte	0x217
 2003 0375 6B000000 		.4byte	0x6b
 2004 0379 07010000 		.4byte	.LLST7
 2005 037d 10       		.uleb128 0x10
 2006 037e 44060000 		.4byte	.LASF28
 2007 0382 01       		.byte	0x1
 2008 0383 1A02     		.2byte	0x21a
 2009 0385 6B000000 		.4byte	0x6b
 2010 0389 1A010000 		.4byte	.LLST8
 2011 038d 10       		.uleb128 0x10
 2012 038e 2D040000 		.4byte	.LASF29
 2013 0392 01       		.byte	0x1
 2014 0393 1B02     		.2byte	0x21b
 2015 0395 6B000000 		.4byte	0x6b
 2016 0399 5F010000 		.4byte	.LLST9
 2017 039d 07       		.uleb128 0x7
 2018 039e 08000000 		.4byte	.LVL41
 2019 03a2 3F090000 		.4byte	0x93f
 2020 03a6 B0030000 		.4byte	0x3b0
 2021 03aa 08       		.uleb128 0x8
 2022 03ab 01       		.uleb128 0x1
 2023 03ac 50       		.byte	0x50
 2024 03ad 01       		.uleb128 0x1
 2025 03ae 30       		.byte	0x30
 2026 03af 00       		.byte	0
 2027 03b0 09       		.uleb128 0x9
 2028 03b1 62000000 		.4byte	.LVL57
 2029 03b5 08090000 		.4byte	0x908
 2030 03b9 08       		.uleb128 0x8
 2031 03ba 01       		.uleb128 0x1
 2032 03bb 50       		.byte	0x50
 2033 03bc 01       		.uleb128 0x1
 2034 03bd 30       		.byte	0x30
 2035 03be 00       		.byte	0
 2036 03bf 00       		.byte	0
 2037 03c0 0F       		.uleb128 0xf
 2038 03c1 47000000 		.4byte	.LASF35
 2039 03c5 01       		.byte	0x1
 2040 03c6 7A02     		.2byte	0x27a
 2041 03c8 77000000 		.4byte	0x77
 2042 03cc 00000000 		.4byte	.LFB11
 2043 03d0 28000000 		.4byte	.LFE11-.LFB11
 2044 03d4 01       		.uleb128 0x1
ARM GAS  C:\Users\psmus\AppData\Local\Temp\ccyQO4JR.s 			page 65


 2045 03d5 9C       		.byte	0x9c
 2046 03d6 1A040000 		.4byte	0x41a
 2047 03da 10       		.uleb128 0x10
 2048 03db CC020000 		.4byte	.LASF36
 2049 03df 01       		.byte	0x1
 2050 03e0 7E02     		.2byte	0x27e
 2051 03e2 77000000 		.4byte	0x77
 2052 03e6 72010000 		.4byte	.LLST10
 2053 03ea 07       		.uleb128 0x7
 2054 03eb 08000000 		.4byte	.LVL59
 2055 03ef 3F090000 		.4byte	0x93f
 2056 03f3 FD030000 		.4byte	0x3fd
 2057 03f7 08       		.uleb128 0x8
 2058 03f8 01       		.uleb128 0x1
 2059 03f9 50       		.byte	0x50
 2060 03fa 01       		.uleb128 0x1
 2061 03fb 30       		.byte	0x30
 2062 03fc 00       		.byte	0
 2063 03fd 07       		.uleb128 0x7
 2064 03fe 16000000 		.4byte	.LVL61
 2065 0402 08090000 		.4byte	0x908
 2066 0406 10040000 		.4byte	0x410
 2067 040a 08       		.uleb128 0x8
 2068 040b 01       		.uleb128 0x1
 2069 040c 50       		.byte	0x50
 2070 040d 01       		.uleb128 0x1
 2071 040e 30       		.byte	0x30
 2072 040f 00       		.byte	0
 2073 0410 0B       		.uleb128 0xb
 2074 0411 1C000000 		.4byte	.LVL63
 2075 0415 AB020000 		.4byte	0x2ab
 2076 0419 00       		.byte	0
 2077 041a 0F       		.uleb128 0xf
 2078 041b 9B030000 		.4byte	.LASF37
 2079 041f 01       		.byte	0x1
 2080 0420 AB02     		.2byte	0x2ab
 2081 0422 6B000000 		.4byte	0x6b
 2082 0426 00000000 		.4byte	.LFB12
 2083 042a 5C000000 		.4byte	.LFE12-.LFB12
 2084 042e 01       		.uleb128 0x1
 2085 042f 9C       		.byte	0x9c
 2086 0430 67040000 		.4byte	0x467
 2087 0434 10       		.uleb128 0x10
 2088 0435 25030000 		.4byte	.LASF38
 2089 0439 01       		.byte	0x1
 2090 043a AE02     		.2byte	0x2ae
 2091 043c 6B000000 		.4byte	0x6b
 2092 0440 85010000 		.4byte	.LLST11
 2093 0444 07       		.uleb128 0x7
 2094 0445 08000000 		.4byte	.LVL64
 2095 0449 3F090000 		.4byte	0x93f
 2096 044d 57040000 		.4byte	0x457
 2097 0451 08       		.uleb128 0x8
 2098 0452 01       		.uleb128 0x1
 2099 0453 50       		.byte	0x50
 2100 0454 01       		.uleb128 0x1
 2101 0455 30       		.byte	0x30
ARM GAS  C:\Users\psmus\AppData\Local\Temp\ccyQO4JR.s 			page 66


 2102 0456 00       		.byte	0
 2103 0457 09       		.uleb128 0x9
 2104 0458 52000000 		.4byte	.LVL70
 2105 045c 08090000 		.4byte	0x908
 2106 0460 08       		.uleb128 0x8
 2107 0461 01       		.uleb128 0x1
 2108 0462 50       		.byte	0x50
 2109 0463 01       		.uleb128 0x1
 2110 0464 30       		.byte	0x30
 2111 0465 00       		.byte	0
 2112 0466 00       		.byte	0
 2113 0467 0D       		.uleb128 0xd
 2114 0468 2E000000 		.4byte	.LASF39
 2115 046c 01       		.byte	0x1
 2116 046d F502     		.2byte	0x2f5
 2117 046f 00000000 		.4byte	.LFB13
 2118 0473 40000000 		.4byte	.LFE13-.LFB13
 2119 0477 01       		.uleb128 0x1
 2120 0478 9C       		.byte	0x9c
 2121 0479 C2040000 		.4byte	0x4c2
 2122 047d 10       		.uleb128 0x10
 2123 047e 54060000 		.4byte	.LASF22
 2124 0482 01       		.byte	0x1
 2125 0483 F702     		.2byte	0x2f7
 2126 0485 6B000000 		.4byte	0x6b
 2127 0489 AE010000 		.4byte	.LLST12
 2128 048d 0B       		.uleb128 0xb
 2129 048e 06000000 		.4byte	.LVL72
 2130 0492 FD080000 		.4byte	0x8fd
 2131 0496 0B       		.uleb128 0xb
 2132 0497 1E000000 		.4byte	.LVL73
 2133 049b 29090000 		.4byte	0x929
 2134 049f 07       		.uleb128 0x7
 2135 04a0 24000000 		.4byte	.LVL74
 2136 04a4 3F090000 		.4byte	0x93f
 2137 04a8 B2040000 		.4byte	0x4b2
 2138 04ac 08       		.uleb128 0x8
 2139 04ad 01       		.uleb128 0x1
 2140 04ae 50       		.byte	0x50
 2141 04af 01       		.uleb128 0x1
 2142 04b0 30       		.byte	0x30
 2143 04b1 00       		.byte	0
 2144 04b2 09       		.uleb128 0x9
 2145 04b3 36000000 		.4byte	.LVL75
 2146 04b7 08090000 		.4byte	0x908
 2147 04bb 08       		.uleb128 0x8
 2148 04bc 01       		.uleb128 0x1
 2149 04bd 50       		.byte	0x50
 2150 04be 01       		.uleb128 0x1
 2151 04bf 30       		.byte	0x30
 2152 04c0 00       		.byte	0
 2153 04c1 00       		.byte	0
 2154 04c2 0D       		.uleb128 0xd
 2155 04c3 07000000 		.4byte	.LASF40
 2156 04c7 01       		.byte	0x1
 2157 04c8 2D03     		.2byte	0x32d
 2158 04ca 00000000 		.4byte	.LFB14
ARM GAS  C:\Users\psmus\AppData\Local\Temp\ccyQO4JR.s 			page 67


 2159 04ce 02000000 		.4byte	.LFE14-.LFB14
 2160 04d2 01       		.uleb128 0x1
 2161 04d3 9C       		.byte	0x9c
 2162 04d4 E7040000 		.4byte	0x4e7
 2163 04d8 0E       		.uleb128 0xe
 2164 04d9 20020000 		.4byte	.LASF41
 2165 04dd 01       		.byte	0x1
 2166 04de 2D03     		.2byte	0x32d
 2167 04e0 6B000000 		.4byte	0x6b
 2168 04e4 01       		.uleb128 0x1
 2169 04e5 50       		.byte	0x50
 2170 04e6 00       		.byte	0
 2171 04e7 0D       		.uleb128 0xd
 2172 04e8 77040000 		.4byte	.LASF42
 2173 04ec 01       		.byte	0x1
 2174 04ed 5903     		.2byte	0x359
 2175 04ef 00000000 		.4byte	.LFB15
 2176 04f3 0C000000 		.4byte	.LFE15-.LFB15
 2177 04f7 01       		.uleb128 0x1
 2178 04f8 9C       		.byte	0x9c
 2179 04f9 0C050000 		.4byte	0x50c
 2180 04fd 0E       		.uleb128 0xe
 2181 04fe 12040000 		.4byte	.LASF43
 2182 0502 01       		.byte	0x1
 2183 0503 5903     		.2byte	0x359
 2184 0505 6B000000 		.4byte	0x6b
 2185 0509 01       		.uleb128 0x1
 2186 050a 50       		.byte	0x50
 2187 050b 00       		.byte	0
 2188 050c 0D       		.uleb128 0xd
 2189 050d 90040000 		.4byte	.LASF44
 2190 0511 01       		.byte	0x1
 2191 0512 6D03     		.2byte	0x36d
 2192 0514 00000000 		.4byte	.LFB16
 2193 0518 0C000000 		.4byte	.LFE16-.LFB16
 2194 051c 01       		.uleb128 0x1
 2195 051d 9C       		.byte	0x9c
 2196 051e 31050000 		.4byte	0x531
 2197 0522 0E       		.uleb128 0xe
 2198 0523 12040000 		.4byte	.LASF43
 2199 0527 01       		.byte	0x1
 2200 0528 6D03     		.2byte	0x36d
 2201 052a 6B000000 		.4byte	0x6b
 2202 052e 01       		.uleb128 0x1
 2203 052f 50       		.byte	0x50
 2204 0530 00       		.byte	0
 2205 0531 0D       		.uleb128 0xd
 2206 0532 8A060000 		.4byte	.LASF45
 2207 0536 01       		.byte	0x1
 2208 0537 8C03     		.2byte	0x38c
 2209 0539 00000000 		.4byte	.LFB17
 2210 053d 0C000000 		.4byte	.LFE17-.LFB17
 2211 0541 01       		.uleb128 0x1
 2212 0542 9C       		.byte	0x9c
 2213 0543 56050000 		.4byte	0x556
 2214 0547 0E       		.uleb128 0xe
 2215 0548 94030000 		.4byte	.LASF26
ARM GAS  C:\Users\psmus\AppData\Local\Temp\ccyQO4JR.s 			page 68


 2216 054c 01       		.byte	0x1
 2217 054d 8C03     		.2byte	0x38c
 2218 054f 6B000000 		.4byte	0x6b
 2219 0553 01       		.uleb128 0x1
 2220 0554 50       		.byte	0x50
 2221 0555 00       		.byte	0
 2222 0556 0D       		.uleb128 0xd
 2223 0557 6A000000 		.4byte	.LASF46
 2224 055b 01       		.byte	0x1
 2225 055c AE03     		.2byte	0x3ae
 2226 055e 00000000 		.4byte	.LFB18
 2227 0562 5C000000 		.4byte	.LFE18-.LFB18
 2228 0566 01       		.uleb128 0x1
 2229 0567 9C       		.byte	0x9c
 2230 0568 9F050000 		.4byte	0x59f
 2231 056c 11       		.uleb128 0x11
 2232 056d 23000000 		.4byte	.LASF47
 2233 0571 01       		.byte	0x1
 2234 0572 AE03     		.2byte	0x3ae
 2235 0574 6B000000 		.4byte	0x6b
 2236 0578 C1010000 		.4byte	.LLST13
 2237 057c 07       		.uleb128 0x7
 2238 057d 12000000 		.4byte	.LVL82
 2239 0581 3F090000 		.4byte	0x93f
 2240 0585 8F050000 		.4byte	0x58f
 2241 0589 08       		.uleb128 0x8
 2242 058a 01       		.uleb128 0x1
 2243 058b 50       		.byte	0x50
 2244 058c 01       		.uleb128 0x1
 2245 058d 31       		.byte	0x31
 2246 058e 00       		.byte	0
 2247 058f 09       		.uleb128 0x9
 2248 0590 48000000 		.4byte	.LVL83
 2249 0594 08090000 		.4byte	0x908
 2250 0598 08       		.uleb128 0x8
 2251 0599 01       		.uleb128 0x1
 2252 059a 50       		.byte	0x50
 2253 059b 01       		.uleb128 0x1
 2254 059c 31       		.byte	0x31
 2255 059d 00       		.byte	0
 2256 059e 00       		.byte	0
 2257 059f 0C       		.uleb128 0xc
 2258 05a0 C1050000 		.4byte	.LASF49
 2259 05a4 01       		.byte	0x1
 2260 05a5 EB03     		.2byte	0x3eb
 2261 05a7 6B000000 		.4byte	0x6b
 2262 05ab 00000000 		.4byte	.LFB19
 2263 05af 0C000000 		.4byte	.LFE19-.LFB19
 2264 05b3 01       		.uleb128 0x1
 2265 05b4 9C       		.byte	0x9c
 2266 05b5 0D       		.uleb128 0xd
 2267 05b6 A9040000 		.4byte	.LASF50
 2268 05ba 01       		.byte	0x1
 2269 05bb 1104     		.2byte	0x411
 2270 05bd 00000000 		.4byte	.LFB20
 2271 05c1 6C000000 		.4byte	.LFE20-.LFB20
 2272 05c5 01       		.uleb128 0x1
ARM GAS  C:\Users\psmus\AppData\Local\Temp\ccyQO4JR.s 			page 69


 2273 05c6 9C       		.byte	0x9c
 2274 05c7 0B060000 		.4byte	0x60b
 2275 05cb 11       		.uleb128 0x11
 2276 05cc 23000000 		.4byte	.LASF47
 2277 05d0 01       		.byte	0x1
 2278 05d1 1104     		.2byte	0x411
 2279 05d3 6B000000 		.4byte	0x6b
 2280 05d7 E2010000 		.4byte	.LLST14
 2281 05db 10       		.uleb128 0x10
 2282 05dc ED020000 		.4byte	.LASF51
 2283 05e0 01       		.byte	0x1
 2284 05e1 1804     		.2byte	0x418
 2285 05e3 6B000000 		.4byte	0x6b
 2286 05e7 15020000 		.4byte	.LLST15
 2287 05eb 10       		.uleb128 0x10
 2288 05ec 5F020000 		.4byte	.LASF52
 2289 05f0 01       		.byte	0x1
 2290 05f1 1904     		.2byte	0x419
 2291 05f3 6B000000 		.4byte	0x6b
 2292 05f7 28020000 		.4byte	.LLST16
 2293 05fb 09       		.uleb128 0x9
 2294 05fc 58000000 		.4byte	.LVL90
 2295 0600 4A090000 		.4byte	0x94a
 2296 0604 08       		.uleb128 0x8
 2297 0605 01       		.uleb128 0x1
 2298 0606 50       		.byte	0x50
 2299 0607 01       		.uleb128 0x1
 2300 0608 31       		.byte	0x31
 2301 0609 00       		.byte	0
 2302 060a 00       		.byte	0
 2303 060b 0D       		.uleb128 0xd
 2304 060c 13050000 		.4byte	.LASF53
 2305 0610 01       		.byte	0x1
 2306 0611 7904     		.2byte	0x479
 2307 0613 00000000 		.4byte	.LFB21
 2308 0617 28000000 		.4byte	.LFE21-.LFB21
 2309 061b 01       		.uleb128 0x1
 2310 061c 9C       		.byte	0x9c
 2311 061d 4B060000 		.4byte	0x64b
 2312 0621 11       		.uleb128 0x11
 2313 0622 81000000 		.4byte	.LASF54
 2314 0626 01       		.byte	0x1
 2315 0627 7904     		.2byte	0x479
 2316 0629 4B060000 		.4byte	0x64b
 2317 062d 3B020000 		.4byte	.LLST17
 2318 0631 10       		.uleb128 0x10
 2319 0632 5D030000 		.4byte	.LASF55
 2320 0636 01       		.byte	0x1
 2321 0637 7B04     		.2byte	0x47b
 2322 0639 77000000 		.4byte	0x77
 2323 063d 7D020000 		.4byte	.LLST18
 2324 0641 0B       		.uleb128 0xb
 2325 0642 12000000 		.4byte	.LVL94
 2326 0646 B5050000 		.4byte	0x5b5
 2327 064a 00       		.byte	0
 2328 064b 12       		.uleb128 0x12
 2329 064c 04       		.byte	0x4
ARM GAS  C:\Users\psmus\AppData\Local\Temp\ccyQO4JR.s 			page 70


 2330 064d 51060000 		.4byte	0x651
 2331 0651 13       		.uleb128 0x13
 2332 0652 91000000 		.4byte	0x91
 2333 0656 0D       		.uleb128 0xd
 2334 0657 DF040000 		.4byte	.LASF56
 2335 065b 01       		.byte	0x1
 2336 065c A704     		.2byte	0x4a7
 2337 065e 00000000 		.4byte	.LFB22
 2338 0662 28000000 		.4byte	.LFE22-.LFB22
 2339 0666 01       		.uleb128 0x1
 2340 0667 9C       		.byte	0x9c
 2341 0668 A6060000 		.4byte	0x6a6
 2342 066c 11       		.uleb128 0x11
 2343 066d 81000000 		.4byte	.LASF54
 2344 0671 01       		.byte	0x1
 2345 0672 A704     		.2byte	0x4a7
 2346 0674 A6060000 		.4byte	0x6a6
 2347 0678 BE020000 		.4byte	.LLST19
 2348 067c 11       		.uleb128 0x11
 2349 067d 75050000 		.4byte	.LASF57
 2350 0681 01       		.byte	0x1
 2351 0682 A704     		.2byte	0x4a7
 2352 0684 6B000000 		.4byte	0x6b
 2353 0688 00030000 		.4byte	.LLST20
 2354 068c 10       		.uleb128 0x10
 2355 068d 5D030000 		.4byte	.LASF55
 2356 0691 01       		.byte	0x1
 2357 0692 AA04     		.2byte	0x4aa
 2358 0694 6B000000 		.4byte	0x6b
 2359 0698 3A030000 		.4byte	.LLST21
 2360 069c 0B       		.uleb128 0xb
 2361 069d 16000000 		.4byte	.LVL104
 2362 06a1 B5050000 		.4byte	0x5b5
 2363 06a5 00       		.byte	0
 2364 06a6 12       		.uleb128 0x12
 2365 06a7 04       		.byte	0x4
 2366 06a8 AC060000 		.4byte	0x6ac
 2367 06ac 13       		.uleb128 0x13
 2368 06ad 6B000000 		.4byte	0x6b
 2369 06b1 0D       		.uleb128 0xd
 2370 06b2 D9050000 		.4byte	.LASF58
 2371 06b6 01       		.byte	0x1
 2372 06b7 CE04     		.2byte	0x4ce
 2373 06b9 00000000 		.4byte	.LFB23
 2374 06bd 20000000 		.4byte	.LFE23-.LFB23
 2375 06c1 01       		.uleb128 0x1
 2376 06c2 9C       		.byte	0x9c
 2377 06c3 03070000 		.4byte	0x703
 2378 06c7 11       		.uleb128 0x11
 2379 06c8 23000000 		.4byte	.LASF47
 2380 06cc 01       		.byte	0x1
 2381 06cd CE04     		.2byte	0x4ce
 2382 06cf 6B000000 		.4byte	0x6b
 2383 06d3 7B030000 		.4byte	.LLST22
 2384 06d7 0B       		.uleb128 0xb
 2385 06d8 0E000000 		.4byte	.LVL112
 2386 06dc B5050000 		.4byte	0x5b5
ARM GAS  C:\Users\psmus\AppData\Local\Temp\ccyQO4JR.s 			page 71


 2387 06e0 07       		.uleb128 0x7
 2388 06e1 14000000 		.4byte	.LVL113
 2389 06e5 B5050000 		.4byte	0x5b5
 2390 06e9 F3060000 		.4byte	0x6f3
 2391 06ed 08       		.uleb128 0x8
 2392 06ee 01       		.uleb128 0x1
 2393 06ef 50       		.byte	0x50
 2394 06f0 01       		.uleb128 0x1
 2395 06f1 3D       		.byte	0x3d
 2396 06f2 00       		.byte	0
 2397 06f3 09       		.uleb128 0x9
 2398 06f4 1A000000 		.4byte	.LVL114
 2399 06f8 B5050000 		.4byte	0x5b5
 2400 06fc 08       		.uleb128 0x8
 2401 06fd 01       		.uleb128 0x1
 2402 06fe 50       		.byte	0x50
 2403 06ff 01       		.uleb128 0x1
 2404 0700 3A       		.byte	0x3a
 2405 0701 00       		.byte	0
 2406 0702 00       		.byte	0
 2407 0703 0F       		.uleb128 0xf
 2408 0704 6F010000 		.4byte	.LASF59
 2409 0708 01       		.byte	0x1
 2410 0709 F904     		.2byte	0x4f9
 2411 070b 6B000000 		.4byte	0x6b
 2412 070f 00000000 		.4byte	.LFB24
 2413 0713 44000000 		.4byte	.LFE24-.LFB24
 2414 0717 01       		.uleb128 0x1
 2415 0718 9C       		.byte	0x9c
 2416 0719 50070000 		.4byte	0x750
 2417 071d 10       		.uleb128 0x10
 2418 071e 25030000 		.4byte	.LASF38
 2419 0722 01       		.byte	0x1
 2420 0723 FC04     		.2byte	0x4fc
 2421 0725 6B000000 		.4byte	0x6b
 2422 0729 9C030000 		.4byte	.LLST23
 2423 072d 07       		.uleb128 0x7
 2424 072e 08000000 		.4byte	.LVL115
 2425 0732 3F090000 		.4byte	0x93f
 2426 0736 40070000 		.4byte	0x740
 2427 073a 08       		.uleb128 0x8
 2428 073b 01       		.uleb128 0x1
 2429 073c 50       		.byte	0x50
 2430 073d 01       		.uleb128 0x1
 2431 073e 31       		.byte	0x31
 2432 073f 00       		.byte	0
 2433 0740 09       		.uleb128 0x9
 2434 0741 3C000000 		.4byte	.LVL121
 2435 0745 08090000 		.4byte	0x908
 2436 0749 08       		.uleb128 0x8
 2437 074a 01       		.uleb128 0x1
 2438 074b 50       		.byte	0x50
 2439 074c 01       		.uleb128 0x1
 2440 074d 31       		.byte	0x31
 2441 074e 00       		.byte	0
 2442 074f 00       		.byte	0
 2443 0750 0D       		.uleb128 0xd
ARM GAS  C:\Users\psmus\AppData\Local\Temp\ccyQO4JR.s 			page 72


 2444 0751 7B030000 		.4byte	.LASF60
 2445 0755 01       		.byte	0x1
 2446 0756 4A05     		.2byte	0x54a
 2447 0758 00000000 		.4byte	.LFB25
 2448 075c 3C000000 		.4byte	.LFE25-.LFB25
 2449 0760 01       		.uleb128 0x1
 2450 0761 9C       		.byte	0x9c
 2451 0762 AB070000 		.4byte	0x7ab
 2452 0766 10       		.uleb128 0x10
 2453 0767 54060000 		.4byte	.LASF22
 2454 076b 01       		.byte	0x1
 2455 076c 4C05     		.2byte	0x54c
 2456 076e 6B000000 		.4byte	0x6b
 2457 0772 C5030000 		.4byte	.LLST24
 2458 0776 0B       		.uleb128 0xb
 2459 0777 06000000 		.4byte	.LVL123
 2460 077b FD080000 		.4byte	0x8fd
 2461 077f 0B       		.uleb128 0xb
 2462 0780 1E000000 		.4byte	.LVL124
 2463 0784 29090000 		.4byte	0x929
 2464 0788 07       		.uleb128 0x7
 2465 0789 24000000 		.4byte	.LVL125
 2466 078d 3F090000 		.4byte	0x93f
 2467 0791 9B070000 		.4byte	0x79b
 2468 0795 08       		.uleb128 0x8
 2469 0796 01       		.uleb128 0x1
 2470 0797 50       		.byte	0x50
 2471 0798 01       		.uleb128 0x1
 2472 0799 31       		.byte	0x31
 2473 079a 00       		.byte	0
 2474 079b 09       		.uleb128 0x9
 2475 079c 32000000 		.4byte	.LVL126
 2476 07a0 08090000 		.4byte	0x908
 2477 07a4 08       		.uleb128 0x8
 2478 07a5 01       		.uleb128 0x1
 2479 07a6 50       		.byte	0x50
 2480 07a7 01       		.uleb128 0x1
 2481 07a8 31       		.byte	0x31
 2482 07a9 00       		.byte	0
 2483 07aa 00       		.byte	0
 2484 07ab 0D       		.uleb128 0xd
 2485 07ac 66030000 		.4byte	.LASF61
 2486 07b0 01       		.byte	0x1
 2487 07b1 A005     		.2byte	0x5a0
 2488 07b3 00000000 		.4byte	.LFB26
 2489 07b7 60000000 		.4byte	.LFE26-.LFB26
 2490 07bb 01       		.uleb128 0x1
 2491 07bc 9C       		.byte	0x9c
 2492 07bd FE070000 		.4byte	0x7fe
 2493 07c1 11       		.uleb128 0x11
 2494 07c2 9E020000 		.4byte	.LASF62
 2495 07c6 01       		.byte	0x1
 2496 07c7 A005     		.2byte	0x5a0
 2497 07c9 6B000000 		.4byte	0x6b
 2498 07cd D8030000 		.4byte	.LLST25
 2499 07d1 14       		.uleb128 0x14
 2500 07d2 08000000 		.4byte	.LBB2
ARM GAS  C:\Users\psmus\AppData\Local\Temp\ccyQO4JR.s 			page 73


 2501 07d6 44000000 		.4byte	.LBE2-.LBB2
 2502 07da 10       		.uleb128 0x10
 2503 07db D9030000 		.4byte	.LASF63
 2504 07df 01       		.byte	0x1
 2505 07e0 A805     		.2byte	0x5a8
 2506 07e2 6B000000 		.4byte	0x6b
 2507 07e6 F9030000 		.4byte	.LLST26
 2508 07ea 15       		.uleb128 0x15
 2509 07eb 66010000 		.4byte	.LASF64
 2510 07ef 01       		.byte	0x1
 2511 07f0 D005     		.2byte	0x5d0
 2512 07f2 6B000000 		.4byte	0x6b
 2513 07f6 05       		.uleb128 0x5
 2514 07f7 03       		.byte	0x3
 2515 07f8 08000000 		.4byte	txPeriod.5112
 2516 07fc 00       		.byte	0
 2517 07fd 00       		.byte	0
 2518 07fe 0D       		.uleb128 0xd
 2519 07ff 0F060000 		.4byte	.LASF65
 2520 0803 01       		.byte	0x1
 2521 0804 2406     		.2byte	0x624
 2522 0806 00000000 		.4byte	.LFB27
 2523 080a 02000000 		.4byte	.LFE27-.LFB27
 2524 080e 01       		.uleb128 0x1
 2525 080f 9C       		.byte	0x9c
 2526 0810 23080000 		.4byte	0x823
 2527 0814 0E       		.uleb128 0xe
 2528 0815 20020000 		.4byte	.LASF41
 2529 0819 01       		.byte	0x1
 2530 081a 2406     		.2byte	0x624
 2531 081c 6B000000 		.4byte	0x6b
 2532 0820 01       		.uleb128 0x1
 2533 0821 50       		.byte	0x50
 2534 0822 00       		.byte	0
 2535 0823 16       		.uleb128 0x16
 2536 0824 4C020000 		.4byte	.LASF66
 2537 0828 01       		.byte	0x1
 2538 0829 1B       		.byte	0x1b
 2539 082a 6B000000 		.4byte	0x6b
 2540 082e 05       		.uleb128 0x5
 2541 082f 03       		.byte	0x3
 2542 0830 00000000 		.4byte	MIDI1_UART_initVar
 2543 0834 17       		.uleb128 0x17
 2544 0835 B0000000 		.4byte	0xb0
 2545 0839 44080000 		.4byte	0x844
 2546 083d 18       		.uleb128 0x18
 2547 083e BC000000 		.4byte	0xbc
 2548 0842 3F       		.byte	0x3f
 2549 0843 00       		.byte	0
 2550 0844 16       		.uleb128 0x16
 2551 0845 47040000 		.4byte	.LASF67
 2552 0849 01       		.byte	0x1
 2553 084a 1E       		.byte	0x1e
 2554 084b 55080000 		.4byte	0x855
 2555 084f 05       		.uleb128 0x5
 2556 0850 03       		.byte	0x3
 2557 0851 00000000 		.4byte	MIDI1_UART_txBuffer
ARM GAS  C:\Users\psmus\AppData\Local\Temp\ccyQO4JR.s 			page 74


 2558 0855 05       		.uleb128 0x5
 2559 0856 34080000 		.4byte	0x834
 2560 085a 16       		.uleb128 0x16
 2561 085b F1050000 		.4byte	.LASF68
 2562 085f 01       		.byte	0x1
 2563 0860 1F       		.byte	0x1f
 2564 0861 B0000000 		.4byte	0xb0
 2565 0865 05       		.uleb128 0x5
 2566 0866 03       		.byte	0x3
 2567 0867 00000000 		.4byte	MIDI1_UART_txBufferRead
 2568 086b 16       		.uleb128 0x16
 2569 086c 2B060000 		.4byte	.LASF69
 2570 0870 01       		.byte	0x1
 2571 0871 20       		.byte	0x20
 2572 0872 6B000000 		.4byte	0x6b
 2573 0876 05       		.uleb128 0x5
 2574 0877 03       		.byte	0x3
 2575 0878 00000000 		.4byte	MIDI1_UART_txBufferWrite
 2576 087c 16       		.uleb128 0x16
 2577 087d 6F020000 		.4byte	.LASF70
 2578 0881 01       		.byte	0x1
 2579 0882 24       		.byte	0x24
 2580 0883 6B000000 		.4byte	0x6b
 2581 0887 05       		.uleb128 0x5
 2582 0888 03       		.byte	0x3
 2583 0889 00000000 		.4byte	MIDI1_UART_errorStatus
 2584 088d 16       		.uleb128 0x16
 2585 088e 8A010000 		.4byte	.LASF71
 2586 0892 01       		.byte	0x1
 2587 0893 25       		.byte	0x25
 2588 0894 9E080000 		.4byte	0x89e
 2589 0898 05       		.uleb128 0x5
 2590 0899 03       		.byte	0x3
 2591 089a 00000000 		.4byte	MIDI1_UART_rxBuffer
 2592 089e 05       		.uleb128 0x5
 2593 089f 34080000 		.4byte	0x834
 2594 08a3 16       		.uleb128 0x16
 2595 08a4 86020000 		.4byte	.LASF72
 2596 08a8 01       		.byte	0x1
 2597 08a9 26       		.byte	0x26
 2598 08aa B0000000 		.4byte	0xb0
 2599 08ae 05       		.uleb128 0x5
 2600 08af 03       		.byte	0x3
 2601 08b0 00000000 		.4byte	MIDI1_UART_rxBufferRead
 2602 08b4 16       		.uleb128 0x16
 2603 08b5 B3020000 		.4byte	.LASF73
 2604 08b9 01       		.byte	0x1
 2605 08ba 27       		.byte	0x27
 2606 08bb B0000000 		.4byte	0xb0
 2607 08bf 05       		.uleb128 0x5
 2608 08c0 03       		.byte	0x3
 2609 08c1 00000000 		.4byte	MIDI1_UART_rxBufferWrite
 2610 08c5 16       		.uleb128 0x16
 2611 08c6 6C060000 		.4byte	.LASF74
 2612 08ca 01       		.byte	0x1
 2613 08cb 28       		.byte	0x28
 2614 08cc B0000000 		.4byte	0xb0
ARM GAS  C:\Users\psmus\AppData\Local\Temp\ccyQO4JR.s 			page 75


 2615 08d0 05       		.uleb128 0x5
 2616 08d1 03       		.byte	0x3
 2617 08d2 00000000 		.4byte	MIDI1_UART_rxBufferLoopDetect
 2618 08d6 16       		.uleb128 0x16
 2619 08d7 EA030000 		.4byte	.LASF75
 2620 08db 01       		.byte	0x1
 2621 08dc 29       		.byte	0x29
 2622 08dd B0000000 		.4byte	0xb0
 2623 08e1 05       		.uleb128 0x5
 2624 08e2 03       		.byte	0x3
 2625 08e3 00000000 		.4byte	MIDI1_UART_rxBufferOverflow
 2626 08e7 19       		.uleb128 0x19
 2627 08e8 3D030000 		.4byte	.LASF76
 2628 08ec 3D030000 		.4byte	.LASF76
 2629 08f0 03       		.byte	0x3
 2630 08f1 BD       		.byte	0xbd
 2631 08f2 19       		.uleb128 0x19
 2632 08f3 B6030000 		.4byte	.LASF77
 2633 08f7 B6030000 		.4byte	.LASF77
 2634 08fb 03       		.byte	0x3
 2635 08fc C0       		.byte	0xc0
 2636 08fd 19       		.uleb128 0x19
 2637 08fe FE020000 		.4byte	.LASF78
 2638 0902 FE020000 		.4byte	.LASF78
 2639 0906 03       		.byte	0x3
 2640 0907 E5       		.byte	0xe5
 2641 0908 19       		.uleb128 0x19
 2642 0909 4B050000 		.4byte	.LASF79
 2643 090d 4B050000 		.4byte	.LASF79
 2644 0911 03       		.byte	0x3
 2645 0912 C3       		.byte	0xc3
 2646 0913 19       		.uleb128 0x19
 2647 0914 C7030000 		.4byte	.LASF80
 2648 0918 C7030000 		.4byte	.LASF80
 2649 091c 03       		.byte	0x3
 2650 091d C8       		.byte	0xc8
 2651 091e 19       		.uleb128 0x19
 2652 091f 9E050000 		.4byte	.LASF81
 2653 0923 9E050000 		.4byte	.LASF81
 2654 0927 04       		.byte	0x4
 2655 0928 1D       		.byte	0x1d
 2656 0929 19       		.uleb128 0x19
 2657 092a 61040000 		.4byte	.LASF82
 2658 092e 61040000 		.4byte	.LASF82
 2659 0932 03       		.byte	0x3
 2660 0933 E6       		.byte	0xe6
 2661 0934 19       		.uleb128 0x19
 2662 0935 28050000 		.4byte	.LASF83
 2663 0939 28050000 		.4byte	.LASF83
 2664 093d 04       		.byte	0x4
 2665 093e 27       		.byte	0x27
 2666 093f 19       		.uleb128 0x19
 2667 0940 E2010000 		.4byte	.LASF84
 2668 0944 E2010000 		.4byte	.LASF84
 2669 0948 03       		.byte	0x3
 2670 0949 C5       		.byte	0xc5
 2671 094a 19       		.uleb128 0x19
ARM GAS  C:\Users\psmus\AppData\Local\Temp\ccyQO4JR.s 			page 76


 2672 094b 15030000 		.4byte	.LASF85
 2673 094f 15030000 		.4byte	.LASF85
 2674 0953 03       		.byte	0x3
 2675 0954 C7       		.byte	0xc7
 2676 0955 00       		.byte	0
 2677              		.section	.debug_abbrev,"",%progbits
 2678              	.Ldebug_abbrev0:
 2679 0000 01       		.uleb128 0x1
 2680 0001 11       		.uleb128 0x11
 2681 0002 01       		.byte	0x1
 2682 0003 25       		.uleb128 0x25
 2683 0004 0E       		.uleb128 0xe
 2684 0005 13       		.uleb128 0x13
 2685 0006 0B       		.uleb128 0xb
 2686 0007 03       		.uleb128 0x3
 2687 0008 0E       		.uleb128 0xe
 2688 0009 1B       		.uleb128 0x1b
 2689 000a 0E       		.uleb128 0xe
 2690 000b 55       		.uleb128 0x55
 2691 000c 17       		.uleb128 0x17
 2692 000d 11       		.uleb128 0x11
 2693 000e 01       		.uleb128 0x1
 2694 000f 10       		.uleb128 0x10
 2695 0010 17       		.uleb128 0x17
 2696 0011 00       		.byte	0
 2697 0012 00       		.byte	0
 2698 0013 02       		.uleb128 0x2
 2699 0014 24       		.uleb128 0x24
 2700 0015 00       		.byte	0
 2701 0016 0B       		.uleb128 0xb
 2702 0017 0B       		.uleb128 0xb
 2703 0018 3E       		.uleb128 0x3e
 2704 0019 0B       		.uleb128 0xb
 2705 001a 03       		.uleb128 0x3
 2706 001b 0E       		.uleb128 0xe
 2707 001c 00       		.byte	0
 2708 001d 00       		.byte	0
 2709 001e 03       		.uleb128 0x3
 2710 001f 24       		.uleb128 0x24
 2711 0020 00       		.byte	0
 2712 0021 0B       		.uleb128 0xb
 2713 0022 0B       		.uleb128 0xb
 2714 0023 3E       		.uleb128 0x3e
 2715 0024 0B       		.uleb128 0xb
 2716 0025 03       		.uleb128 0x3
 2717 0026 08       		.uleb128 0x8
 2718 0027 00       		.byte	0
 2719 0028 00       		.byte	0
 2720 0029 04       		.uleb128 0x4
 2721 002a 16       		.uleb128 0x16
 2722 002b 00       		.byte	0
 2723 002c 03       		.uleb128 0x3
 2724 002d 0E       		.uleb128 0xe
 2725 002e 3A       		.uleb128 0x3a
 2726 002f 0B       		.uleb128 0xb
 2727 0030 3B       		.uleb128 0x3b
 2728 0031 05       		.uleb128 0x5
ARM GAS  C:\Users\psmus\AppData\Local\Temp\ccyQO4JR.s 			page 77


 2729 0032 49       		.uleb128 0x49
 2730 0033 13       		.uleb128 0x13
 2731 0034 00       		.byte	0
 2732 0035 00       		.byte	0
 2733 0036 05       		.uleb128 0x5
 2734 0037 35       		.uleb128 0x35
 2735 0038 00       		.byte	0
 2736 0039 49       		.uleb128 0x49
 2737 003a 13       		.uleb128 0x13
 2738 003b 00       		.byte	0
 2739 003c 00       		.byte	0
 2740 003d 06       		.uleb128 0x6
 2741 003e 2E       		.uleb128 0x2e
 2742 003f 01       		.byte	0x1
 2743 0040 3F       		.uleb128 0x3f
 2744 0041 19       		.uleb128 0x19
 2745 0042 03       		.uleb128 0x3
 2746 0043 0E       		.uleb128 0xe
 2747 0044 3A       		.uleb128 0x3a
 2748 0045 0B       		.uleb128 0xb
 2749 0046 3B       		.uleb128 0x3b
 2750 0047 0B       		.uleb128 0xb
 2751 0048 27       		.uleb128 0x27
 2752 0049 19       		.uleb128 0x19
 2753 004a 11       		.uleb128 0x11
 2754 004b 01       		.uleb128 0x1
 2755 004c 12       		.uleb128 0x12
 2756 004d 06       		.uleb128 0x6
 2757 004e 40       		.uleb128 0x40
 2758 004f 18       		.uleb128 0x18
 2759 0050 9742     		.uleb128 0x2117
 2760 0052 19       		.uleb128 0x19
 2761 0053 01       		.uleb128 0x1
 2762 0054 13       		.uleb128 0x13
 2763 0055 00       		.byte	0
 2764 0056 00       		.byte	0
 2765 0057 07       		.uleb128 0x7
 2766 0058 898201   		.uleb128 0x4109
 2767 005b 01       		.byte	0x1
 2768 005c 11       		.uleb128 0x11
 2769 005d 01       		.uleb128 0x1
 2770 005e 31       		.uleb128 0x31
 2771 005f 13       		.uleb128 0x13
 2772 0060 01       		.uleb128 0x1
 2773 0061 13       		.uleb128 0x13
 2774 0062 00       		.byte	0
 2775 0063 00       		.byte	0
 2776 0064 08       		.uleb128 0x8
 2777 0065 8A8201   		.uleb128 0x410a
 2778 0068 00       		.byte	0
 2779 0069 02       		.uleb128 0x2
 2780 006a 18       		.uleb128 0x18
 2781 006b 9142     		.uleb128 0x2111
 2782 006d 18       		.uleb128 0x18
 2783 006e 00       		.byte	0
 2784 006f 00       		.byte	0
 2785 0070 09       		.uleb128 0x9
ARM GAS  C:\Users\psmus\AppData\Local\Temp\ccyQO4JR.s 			page 78


 2786 0071 898201   		.uleb128 0x4109
 2787 0074 01       		.byte	0x1
 2788 0075 11       		.uleb128 0x11
 2789 0076 01       		.uleb128 0x1
 2790 0077 31       		.uleb128 0x31
 2791 0078 13       		.uleb128 0x13
 2792 0079 00       		.byte	0
 2793 007a 00       		.byte	0
 2794 007b 0A       		.uleb128 0xa
 2795 007c 34       		.uleb128 0x34
 2796 007d 00       		.byte	0
 2797 007e 03       		.uleb128 0x3
 2798 007f 0E       		.uleb128 0xe
 2799 0080 3A       		.uleb128 0x3a
 2800 0081 0B       		.uleb128 0xb
 2801 0082 3B       		.uleb128 0x3b
 2802 0083 0B       		.uleb128 0xb
 2803 0084 49       		.uleb128 0x49
 2804 0085 13       		.uleb128 0x13
 2805 0086 02       		.uleb128 0x2
 2806 0087 17       		.uleb128 0x17
 2807 0088 00       		.byte	0
 2808 0089 00       		.byte	0
 2809 008a 0B       		.uleb128 0xb
 2810 008b 898201   		.uleb128 0x4109
 2811 008e 00       		.byte	0
 2812 008f 11       		.uleb128 0x11
 2813 0090 01       		.uleb128 0x1
 2814 0091 31       		.uleb128 0x31
 2815 0092 13       		.uleb128 0x13
 2816 0093 00       		.byte	0
 2817 0094 00       		.byte	0
 2818 0095 0C       		.uleb128 0xc
 2819 0096 2E       		.uleb128 0x2e
 2820 0097 00       		.byte	0
 2821 0098 3F       		.uleb128 0x3f
 2822 0099 19       		.uleb128 0x19
 2823 009a 03       		.uleb128 0x3
 2824 009b 0E       		.uleb128 0xe
 2825 009c 3A       		.uleb128 0x3a
 2826 009d 0B       		.uleb128 0xb
 2827 009e 3B       		.uleb128 0x3b
 2828 009f 05       		.uleb128 0x5
 2829 00a0 27       		.uleb128 0x27
 2830 00a1 19       		.uleb128 0x19
 2831 00a2 49       		.uleb128 0x49
 2832 00a3 13       		.uleb128 0x13
 2833 00a4 11       		.uleb128 0x11
 2834 00a5 01       		.uleb128 0x1
 2835 00a6 12       		.uleb128 0x12
 2836 00a7 06       		.uleb128 0x6
 2837 00a8 40       		.uleb128 0x40
 2838 00a9 18       		.uleb128 0x18
 2839 00aa 9742     		.uleb128 0x2117
 2840 00ac 19       		.uleb128 0x19
 2841 00ad 00       		.byte	0
 2842 00ae 00       		.byte	0
ARM GAS  C:\Users\psmus\AppData\Local\Temp\ccyQO4JR.s 			page 79


 2843 00af 0D       		.uleb128 0xd
 2844 00b0 2E       		.uleb128 0x2e
 2845 00b1 01       		.byte	0x1
 2846 00b2 3F       		.uleb128 0x3f
 2847 00b3 19       		.uleb128 0x19
 2848 00b4 03       		.uleb128 0x3
 2849 00b5 0E       		.uleb128 0xe
 2850 00b6 3A       		.uleb128 0x3a
 2851 00b7 0B       		.uleb128 0xb
 2852 00b8 3B       		.uleb128 0x3b
 2853 00b9 05       		.uleb128 0x5
 2854 00ba 27       		.uleb128 0x27
 2855 00bb 19       		.uleb128 0x19
 2856 00bc 11       		.uleb128 0x11
 2857 00bd 01       		.uleb128 0x1
 2858 00be 12       		.uleb128 0x12
 2859 00bf 06       		.uleb128 0x6
 2860 00c0 40       		.uleb128 0x40
 2861 00c1 18       		.uleb128 0x18
 2862 00c2 9742     		.uleb128 0x2117
 2863 00c4 19       		.uleb128 0x19
 2864 00c5 01       		.uleb128 0x1
 2865 00c6 13       		.uleb128 0x13
 2866 00c7 00       		.byte	0
 2867 00c8 00       		.byte	0
 2868 00c9 0E       		.uleb128 0xe
 2869 00ca 05       		.uleb128 0x5
 2870 00cb 00       		.byte	0
 2871 00cc 03       		.uleb128 0x3
 2872 00cd 0E       		.uleb128 0xe
 2873 00ce 3A       		.uleb128 0x3a
 2874 00cf 0B       		.uleb128 0xb
 2875 00d0 3B       		.uleb128 0x3b
 2876 00d1 05       		.uleb128 0x5
 2877 00d2 49       		.uleb128 0x49
 2878 00d3 13       		.uleb128 0x13
 2879 00d4 02       		.uleb128 0x2
 2880 00d5 18       		.uleb128 0x18
 2881 00d6 00       		.byte	0
 2882 00d7 00       		.byte	0
 2883 00d8 0F       		.uleb128 0xf
 2884 00d9 2E       		.uleb128 0x2e
 2885 00da 01       		.byte	0x1
 2886 00db 3F       		.uleb128 0x3f
 2887 00dc 19       		.uleb128 0x19
 2888 00dd 03       		.uleb128 0x3
 2889 00de 0E       		.uleb128 0xe
 2890 00df 3A       		.uleb128 0x3a
 2891 00e0 0B       		.uleb128 0xb
 2892 00e1 3B       		.uleb128 0x3b
 2893 00e2 05       		.uleb128 0x5
 2894 00e3 27       		.uleb128 0x27
 2895 00e4 19       		.uleb128 0x19
 2896 00e5 49       		.uleb128 0x49
 2897 00e6 13       		.uleb128 0x13
 2898 00e7 11       		.uleb128 0x11
 2899 00e8 01       		.uleb128 0x1
ARM GAS  C:\Users\psmus\AppData\Local\Temp\ccyQO4JR.s 			page 80


 2900 00e9 12       		.uleb128 0x12
 2901 00ea 06       		.uleb128 0x6
 2902 00eb 40       		.uleb128 0x40
 2903 00ec 18       		.uleb128 0x18
 2904 00ed 9742     		.uleb128 0x2117
 2905 00ef 19       		.uleb128 0x19
 2906 00f0 01       		.uleb128 0x1
 2907 00f1 13       		.uleb128 0x13
 2908 00f2 00       		.byte	0
 2909 00f3 00       		.byte	0
 2910 00f4 10       		.uleb128 0x10
 2911 00f5 34       		.uleb128 0x34
 2912 00f6 00       		.byte	0
 2913 00f7 03       		.uleb128 0x3
 2914 00f8 0E       		.uleb128 0xe
 2915 00f9 3A       		.uleb128 0x3a
 2916 00fa 0B       		.uleb128 0xb
 2917 00fb 3B       		.uleb128 0x3b
 2918 00fc 05       		.uleb128 0x5
 2919 00fd 49       		.uleb128 0x49
 2920 00fe 13       		.uleb128 0x13
 2921 00ff 02       		.uleb128 0x2
 2922 0100 17       		.uleb128 0x17
 2923 0101 00       		.byte	0
 2924 0102 00       		.byte	0
 2925 0103 11       		.uleb128 0x11
 2926 0104 05       		.uleb128 0x5
 2927 0105 00       		.byte	0
 2928 0106 03       		.uleb128 0x3
 2929 0107 0E       		.uleb128 0xe
 2930 0108 3A       		.uleb128 0x3a
 2931 0109 0B       		.uleb128 0xb
 2932 010a 3B       		.uleb128 0x3b
 2933 010b 05       		.uleb128 0x5
 2934 010c 49       		.uleb128 0x49
 2935 010d 13       		.uleb128 0x13
 2936 010e 02       		.uleb128 0x2
 2937 010f 17       		.uleb128 0x17
 2938 0110 00       		.byte	0
 2939 0111 00       		.byte	0
 2940 0112 12       		.uleb128 0x12
 2941 0113 0F       		.uleb128 0xf
 2942 0114 00       		.byte	0
 2943 0115 0B       		.uleb128 0xb
 2944 0116 0B       		.uleb128 0xb
 2945 0117 49       		.uleb128 0x49
 2946 0118 13       		.uleb128 0x13
 2947 0119 00       		.byte	0
 2948 011a 00       		.byte	0
 2949 011b 13       		.uleb128 0x13
 2950 011c 26       		.uleb128 0x26
 2951 011d 00       		.byte	0
 2952 011e 49       		.uleb128 0x49
 2953 011f 13       		.uleb128 0x13
 2954 0120 00       		.byte	0
 2955 0121 00       		.byte	0
 2956 0122 14       		.uleb128 0x14
ARM GAS  C:\Users\psmus\AppData\Local\Temp\ccyQO4JR.s 			page 81


 2957 0123 0B       		.uleb128 0xb
 2958 0124 01       		.byte	0x1
 2959 0125 11       		.uleb128 0x11
 2960 0126 01       		.uleb128 0x1
 2961 0127 12       		.uleb128 0x12
 2962 0128 06       		.uleb128 0x6
 2963 0129 00       		.byte	0
 2964 012a 00       		.byte	0
 2965 012b 15       		.uleb128 0x15
 2966 012c 34       		.uleb128 0x34
 2967 012d 00       		.byte	0
 2968 012e 03       		.uleb128 0x3
 2969 012f 0E       		.uleb128 0xe
 2970 0130 3A       		.uleb128 0x3a
 2971 0131 0B       		.uleb128 0xb
 2972 0132 3B       		.uleb128 0x3b
 2973 0133 05       		.uleb128 0x5
 2974 0134 49       		.uleb128 0x49
 2975 0135 13       		.uleb128 0x13
 2976 0136 02       		.uleb128 0x2
 2977 0137 18       		.uleb128 0x18
 2978 0138 00       		.byte	0
 2979 0139 00       		.byte	0
 2980 013a 16       		.uleb128 0x16
 2981 013b 34       		.uleb128 0x34
 2982 013c 00       		.byte	0
 2983 013d 03       		.uleb128 0x3
 2984 013e 0E       		.uleb128 0xe
 2985 013f 3A       		.uleb128 0x3a
 2986 0140 0B       		.uleb128 0xb
 2987 0141 3B       		.uleb128 0x3b
 2988 0142 0B       		.uleb128 0xb
 2989 0143 49       		.uleb128 0x49
 2990 0144 13       		.uleb128 0x13
 2991 0145 3F       		.uleb128 0x3f
 2992 0146 19       		.uleb128 0x19
 2993 0147 02       		.uleb128 0x2
 2994 0148 18       		.uleb128 0x18
 2995 0149 00       		.byte	0
 2996 014a 00       		.byte	0
 2997 014b 17       		.uleb128 0x17
 2998 014c 01       		.uleb128 0x1
 2999 014d 01       		.byte	0x1
 3000 014e 49       		.uleb128 0x49
 3001 014f 13       		.uleb128 0x13
 3002 0150 01       		.uleb128 0x1
 3003 0151 13       		.uleb128 0x13
 3004 0152 00       		.byte	0
 3005 0153 00       		.byte	0
 3006 0154 18       		.uleb128 0x18
 3007 0155 21       		.uleb128 0x21
 3008 0156 00       		.byte	0
 3009 0157 49       		.uleb128 0x49
 3010 0158 13       		.uleb128 0x13
 3011 0159 2F       		.uleb128 0x2f
 3012 015a 0B       		.uleb128 0xb
 3013 015b 00       		.byte	0
ARM GAS  C:\Users\psmus\AppData\Local\Temp\ccyQO4JR.s 			page 82


 3014 015c 00       		.byte	0
 3015 015d 19       		.uleb128 0x19
 3016 015e 2E       		.uleb128 0x2e
 3017 015f 00       		.byte	0
 3018 0160 3F       		.uleb128 0x3f
 3019 0161 19       		.uleb128 0x19
 3020 0162 3C       		.uleb128 0x3c
 3021 0163 19       		.uleb128 0x19
 3022 0164 6E       		.uleb128 0x6e
 3023 0165 0E       		.uleb128 0xe
 3024 0166 03       		.uleb128 0x3
 3025 0167 0E       		.uleb128 0xe
 3026 0168 3A       		.uleb128 0x3a
 3027 0169 0B       		.uleb128 0xb
 3028 016a 3B       		.uleb128 0x3b
 3029 016b 0B       		.uleb128 0xb
 3030 016c 00       		.byte	0
 3031 016d 00       		.byte	0
 3032 016e 00       		.byte	0
 3033              		.section	.debug_loc,"",%progbits
 3034              	.Ldebug_loc0:
 3035              	.LLST0:
 3036 0000 08000000 		.4byte	.LVL5
 3037 0004 48000000 		.4byte	.LVL11
 3038 0008 0100     		.2byte	0x1
 3039 000a 55       		.byte	0x55
 3040 000b 00000000 		.4byte	0
 3041 000f 00000000 		.4byte	0
 3042              	.LLST1:
 3043 0013 08000000 		.4byte	.LVL15
 3044 0017 3A000000 		.4byte	.LVL20
 3045 001b 0100     		.2byte	0x1
 3046 001d 54       		.byte	0x54
 3047 001e 00000000 		.4byte	0
 3048 0022 00000000 		.4byte	0
 3049              	.LLST2:
 3050 0026 22000000 		.4byte	.LVL26
 3051 002a 3E000000 		.4byte	.LVL32
 3052 002e 0100     		.2byte	0x1
 3053 0030 54       		.byte	0x54
 3054 0031 44000000 		.4byte	.LVL34
 3055 0035 4C000000 		.4byte	.LVL36
 3056 0039 0100     		.2byte	0x1
 3057 003b 54       		.byte	0x54
 3058 003c 00000000 		.4byte	0
 3059 0040 00000000 		.4byte	0
 3060              	.LLST3:
 3061 0044 0E000000 		.4byte	.LVL24
 3062 0048 24000000 		.4byte	.LVL27
 3063 004c 0100     		.2byte	0x1
 3064 004e 53       		.byte	0x53
 3065 004f 24000000 		.4byte	.LVL27
 3066 0053 26000000 		.4byte	.LVL28
 3067 0057 0300     		.2byte	0x3
 3068 0059 73       		.byte	0x73
 3069 005a 7F       		.sleb128 -1
 3070 005b 9F       		.byte	0x9f
ARM GAS  C:\Users\psmus\AppData\Local\Temp\ccyQO4JR.s 			page 83


 3071 005c 26000000 		.4byte	.LVL28
 3072 0060 32000000 		.4byte	.LVL30
 3073 0064 0100     		.2byte	0x1
 3074 0066 53       		.byte	0x53
 3075 0067 32000000 		.4byte	.LVL30
 3076 006b 3C000000 		.4byte	.LVL31
 3077 006f 0500     		.2byte	0x5
 3078 0071 03       		.byte	0x3
 3079 0072 00000000 		.4byte	MIDI1_UART_rxBufferRead
 3080 0076 3E000000 		.4byte	.LVL32
 3081 007a 40000000 		.4byte	.LVL33
 3082 007e 0100     		.2byte	0x1
 3083 0080 53       		.byte	0x53
 3084 0081 00000000 		.4byte	0
 3085 0085 00000000 		.4byte	0
 3086              	.LLST4:
 3087 0089 12000000 		.4byte	.LVL25
 3088 008d 49000000 		.4byte	.LVL35-1
 3089 0091 0100     		.2byte	0x1
 3090 0093 51       		.byte	0x51
 3091 0094 00000000 		.4byte	0
 3092 0098 00000000 		.4byte	0
 3093              	.LLST5:
 3094 009c 08000000 		.4byte	.LVL37
 3095 00a0 16000000 		.4byte	.LVL38
 3096 00a4 0100     		.2byte	0x1
 3097 00a6 50       		.byte	0x50
 3098 00a7 18000000 		.4byte	.LVL39
 3099 00ab 28000000 		.4byte	.LFE9
 3100 00af 0100     		.2byte	0x1
 3101 00b1 50       		.byte	0x50
 3102 00b2 00000000 		.4byte	0
 3103 00b6 00000000 		.4byte	0
 3104              	.LLST6:
 3105 00ba 02000000 		.4byte	.LVL40
 3106 00be 22000000 		.4byte	.LVL44
 3107 00c2 0200     		.2byte	0x2
 3108 00c4 30       		.byte	0x30
 3109 00c5 9F       		.byte	0x9f
 3110 00c6 22000000 		.4byte	.LVL44
 3111 00ca 3E000000 		.4byte	.LVL50
 3112 00ce 0100     		.2byte	0x1
 3113 00d0 54       		.byte	0x54
 3114 00d1 3E000000 		.4byte	.LVL50
 3115 00d5 4E000000 		.4byte	.LVL53
 3116 00d9 0200     		.2byte	0x2
 3117 00db 30       		.byte	0x30
 3118 00dc 9F       		.byte	0x9f
 3119 00dd 4E000000 		.4byte	.LVL53
 3120 00e1 56000000 		.4byte	.LVL54
 3121 00e5 0100     		.2byte	0x1
 3122 00e7 54       		.byte	0x54
 3123 00e8 56000000 		.4byte	.LVL54
 3124 00ec 5A000000 		.4byte	.LVL55
 3125 00f0 0200     		.2byte	0x2
 3126 00f2 30       		.byte	0x30
 3127 00f3 9F       		.byte	0x9f
ARM GAS  C:\Users\psmus\AppData\Local\Temp\ccyQO4JR.s 			page 84


 3128 00f4 5A000000 		.4byte	.LVL55
 3129 00f8 64000000 		.4byte	.LVL58
 3130 00fc 0100     		.2byte	0x1
 3131 00fe 54       		.byte	0x54
 3132 00ff 00000000 		.4byte	0
 3133 0103 00000000 		.4byte	0
 3134              	.LLST7:
 3135 0107 44000000 		.4byte	.LVL52
 3136 010b 5C000000 		.4byte	.LVL56
 3137 010f 0100     		.2byte	0x1
 3138 0111 53       		.byte	0x53
 3139 0112 00000000 		.4byte	0
 3140 0116 00000000 		.4byte	0
 3141              	.LLST8:
 3142 011a 0E000000 		.4byte	.LVL42
 3143 011e 24000000 		.4byte	.LVL45
 3144 0122 0100     		.2byte	0x1
 3145 0124 53       		.byte	0x53
 3146 0125 24000000 		.4byte	.LVL45
 3147 0129 26000000 		.4byte	.LVL46
 3148 012d 0300     		.2byte	0x3
 3149 012f 73       		.byte	0x73
 3150 0130 7F       		.sleb128 -1
 3151 0131 9F       		.byte	0x9f
 3152 0132 26000000 		.4byte	.LVL46
 3153 0136 32000000 		.4byte	.LVL48
 3154 013a 0100     		.2byte	0x1
 3155 013c 53       		.byte	0x53
 3156 013d 32000000 		.4byte	.LVL48
 3157 0141 3C000000 		.4byte	.LVL49
 3158 0145 0500     		.2byte	0x5
 3159 0147 03       		.byte	0x3
 3160 0148 00000000 		.4byte	MIDI1_UART_rxBufferRead
 3161 014c 3E000000 		.4byte	.LVL50
 3162 0150 40000000 		.4byte	.LVL51
 3163 0154 0100     		.2byte	0x1
 3164 0156 53       		.byte	0x53
 3165 0157 00000000 		.4byte	0
 3166 015b 00000000 		.4byte	0
 3167              	.LLST9:
 3168 015f 12000000 		.4byte	.LVL43
 3169 0163 61000000 		.4byte	.LVL57-1
 3170 0167 0100     		.2byte	0x1
 3171 0169 51       		.byte	0x51
 3172 016a 00000000 		.4byte	0
 3173 016e 00000000 		.4byte	0
 3174              	.LLST10:
 3175 0172 0C000000 		.4byte	.LVL60
 3176 0176 18000000 		.4byte	.LVL62
 3177 017a 0100     		.2byte	0x1
 3178 017c 54       		.byte	0x54
 3179 017d 00000000 		.4byte	0
 3180 0181 00000000 		.4byte	0
 3181              	.LLST11:
 3182 0185 3A000000 		.4byte	.LVL65
 3183 0189 3C000000 		.4byte	.LVL66
 3184 018d 0100     		.2byte	0x1
ARM GAS  C:\Users\psmus\AppData\Local\Temp\ccyQO4JR.s 			page 85


 3185 018f 54       		.byte	0x54
 3186 0190 48000000 		.4byte	.LVL67
 3187 0194 4A000000 		.4byte	.LVL68
 3188 0198 0100     		.2byte	0x1
 3189 019a 54       		.byte	0x54
 3190 019b 4C000000 		.4byte	.LVL69
 3191 019f 54000000 		.4byte	.LVL71
 3192 01a3 0100     		.2byte	0x1
 3193 01a5 54       		.byte	0x54
 3194 01a6 00000000 		.4byte	0
 3195 01aa 00000000 		.4byte	0
 3196              	.LLST12:
 3197 01ae 06000000 		.4byte	.LVL72
 3198 01b2 1D000000 		.4byte	.LVL73-1
 3199 01b6 0100     		.2byte	0x1
 3200 01b8 50       		.byte	0x50
 3201 01b9 00000000 		.4byte	0
 3202 01bd 00000000 		.4byte	0
 3203              	.LLST13:
 3204 01c1 00000000 		.4byte	.LVL80
 3205 01c5 0E000000 		.4byte	.LVL81
 3206 01c9 0100     		.2byte	0x1
 3207 01cb 50       		.byte	0x50
 3208 01cc 0E000000 		.4byte	.LVL81
 3209 01d0 5C000000 		.4byte	.LFE18
 3210 01d4 0400     		.2byte	0x4
 3211 01d6 F3       		.byte	0xf3
 3212 01d7 01       		.uleb128 0x1
 3213 01d8 50       		.byte	0x50
 3214 01d9 9F       		.byte	0x9f
 3215 01da 00000000 		.4byte	0
 3216 01de 00000000 		.4byte	0
 3217              	.LLST14:
 3218 01e2 00000000 		.4byte	.LVL84
 3219 01e6 54000000 		.4byte	.LVL89
 3220 01ea 0100     		.2byte	0x1
 3221 01ec 50       		.byte	0x50
 3222 01ed 54000000 		.4byte	.LVL89
 3223 01f1 57000000 		.4byte	.LVL90-1
 3224 01f5 0800     		.2byte	0x8
 3225 01f7 71       		.byte	0x71
 3226 01f8 00       		.sleb128 0
 3227 01f9 03       		.byte	0x3
 3228 01fa FFFFFFFF 		.4byte	MIDI1_UART_txBuffer-1
 3229 01fe 22       		.byte	0x22
 3230 01ff 57000000 		.4byte	.LVL90-1
 3231 0203 6C000000 		.4byte	.LFE20
 3232 0207 0400     		.2byte	0x4
 3233 0209 F3       		.byte	0xf3
 3234 020a 01       		.uleb128 0x1
 3235 020b 50       		.byte	0x50
 3236 020c 9F       		.byte	0x9f
 3237 020d 00000000 		.4byte	0
 3238 0211 00000000 		.4byte	0
 3239              	.LLST15:
 3240 0215 06000000 		.4byte	.LVL85
 3241 0219 57000000 		.4byte	.LVL90-1
ARM GAS  C:\Users\psmus\AppData\Local\Temp\ccyQO4JR.s 			page 86


 3242 021d 0100     		.2byte	0x1
 3243 021f 51       		.byte	0x51
 3244 0220 00000000 		.4byte	0
 3245 0224 00000000 		.4byte	0
 3246              	.LLST16:
 3247 0228 0A000000 		.4byte	.LVL86
 3248 022c 57000000 		.4byte	.LVL90-1
 3249 0230 0100     		.2byte	0x1
 3250 0232 52       		.byte	0x52
 3251 0233 00000000 		.4byte	0
 3252 0237 00000000 		.4byte	0
 3253              	.LLST17:
 3254 023b 00000000 		.4byte	.LVL91
 3255 023f 0E000000 		.4byte	.LVL93
 3256 0243 0100     		.2byte	0x1
 3257 0245 50       		.byte	0x50
 3258 0246 0E000000 		.4byte	.LVL93
 3259 024a 18000000 		.4byte	.LVL97
 3260 024e 0100     		.2byte	0x1
 3261 0250 55       		.byte	0x55
 3262 0251 18000000 		.4byte	.LVL97
 3263 0255 1A000000 		.4byte	.LVL98
 3264 0259 0100     		.2byte	0x1
 3265 025b 50       		.byte	0x50
 3266 025c 1A000000 		.4byte	.LVL98
 3267 0260 20000000 		.4byte	.LVL100
 3268 0264 0100     		.2byte	0x1
 3269 0266 55       		.byte	0x55
 3270 0267 20000000 		.4byte	.LVL100
 3271 026b 28000000 		.4byte	.LFE21
 3272 026f 0400     		.2byte	0x4
 3273 0271 F3       		.byte	0xf3
 3274 0272 01       		.uleb128 0x1
 3275 0273 50       		.byte	0x50
 3276 0274 9F       		.byte	0x9f
 3277 0275 00000000 		.4byte	0
 3278 0279 00000000 		.4byte	0
 3279              	.LLST18:
 3280 027d 04000000 		.4byte	.LVL92
 3281 0281 0E000000 		.4byte	.LVL93
 3282 0285 0200     		.2byte	0x2
 3283 0287 30       		.byte	0x30
 3284 0288 9F       		.byte	0x9f
 3285 0289 0E000000 		.4byte	.LVL93
 3286 028d 14000000 		.4byte	.LVL95
 3287 0291 0100     		.2byte	0x1
 3288 0293 54       		.byte	0x54
 3289 0294 16000000 		.4byte	.LVL96
 3290 0298 18000000 		.4byte	.LVL97
 3291 029c 0100     		.2byte	0x1
 3292 029e 54       		.byte	0x54
 3293 029f 18000000 		.4byte	.LVL97
 3294 02a3 1A000000 		.4byte	.LVL98
 3295 02a7 0200     		.2byte	0x2
 3296 02a9 30       		.byte	0x30
 3297 02aa 9F       		.byte	0x9f
 3298 02ab 1A000000 		.4byte	.LVL98
ARM GAS  C:\Users\psmus\AppData\Local\Temp\ccyQO4JR.s 			page 87


 3299 02af 20000000 		.4byte	.LVL99
 3300 02b3 0100     		.2byte	0x1
 3301 02b5 54       		.byte	0x54
 3302 02b6 00000000 		.4byte	0
 3303 02ba 00000000 		.4byte	0
 3304              	.LLST19:
 3305 02be 00000000 		.4byte	.LVL101
 3306 02c2 10000000 		.4byte	.LVL103
 3307 02c6 0100     		.2byte	0x1
 3308 02c8 50       		.byte	0x50
 3309 02c9 10000000 		.4byte	.LVL103
 3310 02cd 1C000000 		.4byte	.LVL107
 3311 02d1 0100     		.2byte	0x1
 3312 02d3 56       		.byte	0x56
 3313 02d4 1C000000 		.4byte	.LVL107
 3314 02d8 1E000000 		.4byte	.LVL108
 3315 02dc 0100     		.2byte	0x1
 3316 02de 50       		.byte	0x50
 3317 02df 1E000000 		.4byte	.LVL108
 3318 02e3 22000000 		.4byte	.LVL110
 3319 02e7 0100     		.2byte	0x1
 3320 02e9 56       		.byte	0x56
 3321 02ea 22000000 		.4byte	.LVL110
 3322 02ee 28000000 		.4byte	.LFE22
 3323 02f2 0400     		.2byte	0x4
 3324 02f4 F3       		.byte	0xf3
 3325 02f5 01       		.uleb128 0x1
 3326 02f6 50       		.byte	0x50
 3327 02f7 9F       		.byte	0x9f
 3328 02f8 00000000 		.4byte	0
 3329 02fc 00000000 		.4byte	0
 3330              	.LLST20:
 3331 0300 00000000 		.4byte	.LVL101
 3332 0304 10000000 		.4byte	.LVL103
 3333 0308 0100     		.2byte	0x1
 3334 030a 51       		.byte	0x51
 3335 030b 10000000 		.4byte	.LVL103
 3336 030f 1C000000 		.4byte	.LVL107
 3337 0313 0400     		.2byte	0x4
 3338 0315 F3       		.byte	0xf3
 3339 0316 01       		.uleb128 0x1
 3340 0317 51       		.byte	0x51
 3341 0318 9F       		.byte	0x9f
 3342 0319 1C000000 		.4byte	.LVL107
 3343 031d 1E000000 		.4byte	.LVL108
 3344 0321 0100     		.2byte	0x1
 3345 0323 51       		.byte	0x51
 3346 0324 1E000000 		.4byte	.LVL108
 3347 0328 28000000 		.4byte	.LFE22
 3348 032c 0400     		.2byte	0x4
 3349 032e F3       		.byte	0xf3
 3350 032f 01       		.uleb128 0x1
 3351 0330 51       		.byte	0x51
 3352 0331 9F       		.byte	0x9f
 3353 0332 00000000 		.4byte	0
 3354 0336 00000000 		.4byte	0
 3355              	.LLST21:
ARM GAS  C:\Users\psmus\AppData\Local\Temp\ccyQO4JR.s 			page 88


 3356 033a 06000000 		.4byte	.LVL102
 3357 033e 10000000 		.4byte	.LVL103
 3358 0342 0200     		.2byte	0x2
 3359 0344 30       		.byte	0x30
 3360 0345 9F       		.byte	0x9f
 3361 0346 10000000 		.4byte	.LVL103
 3362 034a 18000000 		.4byte	.LVL105
 3363 034e 0100     		.2byte	0x1
 3364 0350 54       		.byte	0x54
 3365 0351 1A000000 		.4byte	.LVL106
 3366 0355 1C000000 		.4byte	.LVL107
 3367 0359 0100     		.2byte	0x1
 3368 035b 54       		.byte	0x54
 3369 035c 1C000000 		.4byte	.LVL107
 3370 0360 1E000000 		.4byte	.LVL108
 3371 0364 0200     		.2byte	0x2
 3372 0366 30       		.byte	0x30
 3373 0367 9F       		.byte	0x9f
 3374 0368 1E000000 		.4byte	.LVL108
 3375 036c 22000000 		.4byte	.LVL109
 3376 0370 0100     		.2byte	0x1
 3377 0372 54       		.byte	0x54
 3378 0373 00000000 		.4byte	0
 3379 0377 00000000 		.4byte	0
 3380              	.LLST22:
 3381 037b 00000000 		.4byte	.LVL111
 3382 037f 0D000000 		.4byte	.LVL112-1
 3383 0383 0100     		.2byte	0x1
 3384 0385 50       		.byte	0x50
 3385 0386 0D000000 		.4byte	.LVL112-1
 3386 038a 20000000 		.4byte	.LFE23
 3387 038e 0400     		.2byte	0x4
 3388 0390 F3       		.byte	0xf3
 3389 0391 01       		.uleb128 0x1
 3390 0392 50       		.byte	0x50
 3391 0393 9F       		.byte	0x9f
 3392 0394 00000000 		.4byte	0
 3393 0398 00000000 		.4byte	0
 3394              	.LLST23:
 3395 039c 26000000 		.4byte	.LVL116
 3396 03a0 28000000 		.4byte	.LVL117
 3397 03a4 0100     		.2byte	0x1
 3398 03a6 54       		.byte	0x54
 3399 03a7 32000000 		.4byte	.LVL118
 3400 03ab 34000000 		.4byte	.LVL119
 3401 03af 0100     		.2byte	0x1
 3402 03b1 54       		.byte	0x54
 3403 03b2 36000000 		.4byte	.LVL120
 3404 03b6 3E000000 		.4byte	.LVL122
 3405 03ba 0100     		.2byte	0x1
 3406 03bc 54       		.byte	0x54
 3407 03bd 00000000 		.4byte	0
 3408 03c1 00000000 		.4byte	0
 3409              	.LLST24:
 3410 03c5 06000000 		.4byte	.LVL123
 3411 03c9 1D000000 		.4byte	.LVL124-1
 3412 03cd 0100     		.2byte	0x1
ARM GAS  C:\Users\psmus\AppData\Local\Temp\ccyQO4JR.s 			page 89


 3413 03cf 50       		.byte	0x50
 3414 03d0 00000000 		.4byte	0
 3415 03d4 00000000 		.4byte	0
 3416              	.LLST25:
 3417 03d8 00000000 		.4byte	.LVL127
 3418 03dc 3E000000 		.4byte	.LVL132
 3419 03e0 0100     		.2byte	0x1
 3420 03e2 50       		.byte	0x50
 3421 03e3 3E000000 		.4byte	.LVL132
 3422 03e7 60000000 		.4byte	.LFE26
 3423 03eb 0400     		.2byte	0x4
 3424 03ed F3       		.byte	0xf3
 3425 03ee 01       		.uleb128 0x1
 3426 03ef 50       		.byte	0x50
 3427 03f0 9F       		.byte	0x9f
 3428 03f1 00000000 		.4byte	0
 3429 03f5 00000000 		.4byte	0
 3430              	.LLST26:
 3431 03f9 26000000 		.4byte	.LVL128
 3432 03fd 2A000000 		.4byte	.LVL129
 3433 0401 0100     		.2byte	0x1
 3434 0403 53       		.byte	0x53
 3435 0404 36000000 		.4byte	.LVL130
 3436 0408 3C000000 		.4byte	.LVL131
 3437 040c 0100     		.2byte	0x1
 3438 040e 52       		.byte	0x52
 3439 040f 00000000 		.4byte	0
 3440 0413 00000000 		.4byte	0
 3441              		.section	.debug_aranges,"",%progbits
 3442 0000 EC000000 		.4byte	0xec
 3443 0004 0200     		.2byte	0x2
 3444 0006 00000000 		.4byte	.Ldebug_info0
 3445 000a 04       		.byte	0x4
 3446 000b 00       		.byte	0
 3447 000c 0000     		.2byte	0
 3448 000e 0000     		.2byte	0
 3449 0010 00000000 		.4byte	.LFB2
 3450 0014 68000000 		.4byte	.LFE2-.LFB2
 3451 0018 00000000 		.4byte	.LFB3
 3452 001c 58000000 		.4byte	.LFE3-.LFB3
 3453 0020 00000000 		.4byte	.LFB1
 3454 0024 20000000 		.4byte	.LFE1-.LFB1
 3455 0028 00000000 		.4byte	.LFB4
 3456 002c 48000000 		.4byte	.LFE4-.LFB4
 3457 0030 00000000 		.4byte	.LFB5
 3458 0034 04000000 		.4byte	.LFE5-.LFB5
 3459 0038 00000000 		.4byte	.LFB6
 3460 003c 02000000 		.4byte	.LFE6-.LFB6
 3461 0040 00000000 		.4byte	.LFB7
 3462 0044 0C000000 		.4byte	.LFE7-.LFB7
 3463 0048 00000000 		.4byte	.LFB8
 3464 004c 5C000000 		.4byte	.LFE8-.LFB8
 3465 0050 00000000 		.4byte	.LFB9
 3466 0054 28000000 		.4byte	.LFE9-.LFB9
 3467 0058 00000000 		.4byte	.LFB10
 3468 005c 78000000 		.4byte	.LFE10-.LFB10
 3469 0060 00000000 		.4byte	.LFB11
ARM GAS  C:\Users\psmus\AppData\Local\Temp\ccyQO4JR.s 			page 90


 3470 0064 28000000 		.4byte	.LFE11-.LFB11
 3471 0068 00000000 		.4byte	.LFB12
 3472 006c 5C000000 		.4byte	.LFE12-.LFB12
 3473 0070 00000000 		.4byte	.LFB13
 3474 0074 40000000 		.4byte	.LFE13-.LFB13
 3475 0078 00000000 		.4byte	.LFB14
 3476 007c 02000000 		.4byte	.LFE14-.LFB14
 3477 0080 00000000 		.4byte	.LFB15
 3478 0084 0C000000 		.4byte	.LFE15-.LFB15
 3479 0088 00000000 		.4byte	.LFB16
 3480 008c 0C000000 		.4byte	.LFE16-.LFB16
 3481 0090 00000000 		.4byte	.LFB17
 3482 0094 0C000000 		.4byte	.LFE17-.LFB17
 3483 0098 00000000 		.4byte	.LFB18
 3484 009c 5C000000 		.4byte	.LFE18-.LFB18
 3485 00a0 00000000 		.4byte	.LFB19
 3486 00a4 0C000000 		.4byte	.LFE19-.LFB19
 3487 00a8 00000000 		.4byte	.LFB20
 3488 00ac 6C000000 		.4byte	.LFE20-.LFB20
 3489 00b0 00000000 		.4byte	.LFB21
 3490 00b4 28000000 		.4byte	.LFE21-.LFB21
 3491 00b8 00000000 		.4byte	.LFB22
 3492 00bc 28000000 		.4byte	.LFE22-.LFB22
 3493 00c0 00000000 		.4byte	.LFB23
 3494 00c4 20000000 		.4byte	.LFE23-.LFB23
 3495 00c8 00000000 		.4byte	.LFB24
 3496 00cc 44000000 		.4byte	.LFE24-.LFB24
 3497 00d0 00000000 		.4byte	.LFB25
 3498 00d4 3C000000 		.4byte	.LFE25-.LFB25
 3499 00d8 00000000 		.4byte	.LFB26
 3500 00dc 60000000 		.4byte	.LFE26-.LFB26
 3501 00e0 00000000 		.4byte	.LFB27
 3502 00e4 02000000 		.4byte	.LFE27-.LFB27
 3503 00e8 00000000 		.4byte	0
 3504 00ec 00000000 		.4byte	0
 3505              		.section	.debug_ranges,"",%progbits
 3506              	.Ldebug_ranges0:
 3507 0000 00000000 		.4byte	.LFB2
 3508 0004 68000000 		.4byte	.LFE2
 3509 0008 00000000 		.4byte	.LFB3
 3510 000c 58000000 		.4byte	.LFE3
 3511 0010 00000000 		.4byte	.LFB1
 3512 0014 20000000 		.4byte	.LFE1
 3513 0018 00000000 		.4byte	.LFB4
 3514 001c 48000000 		.4byte	.LFE4
 3515 0020 00000000 		.4byte	.LFB5
 3516 0024 04000000 		.4byte	.LFE5
 3517 0028 00000000 		.4byte	.LFB6
 3518 002c 02000000 		.4byte	.LFE6
 3519 0030 00000000 		.4byte	.LFB7
 3520 0034 0C000000 		.4byte	.LFE7
 3521 0038 00000000 		.4byte	.LFB8
 3522 003c 5C000000 		.4byte	.LFE8
 3523 0040 00000000 		.4byte	.LFB9
 3524 0044 28000000 		.4byte	.LFE9
 3525 0048 00000000 		.4byte	.LFB10
 3526 004c 78000000 		.4byte	.LFE10
ARM GAS  C:\Users\psmus\AppData\Local\Temp\ccyQO4JR.s 			page 91


 3527 0050 00000000 		.4byte	.LFB11
 3528 0054 28000000 		.4byte	.LFE11
 3529 0058 00000000 		.4byte	.LFB12
 3530 005c 5C000000 		.4byte	.LFE12
 3531 0060 00000000 		.4byte	.LFB13
 3532 0064 40000000 		.4byte	.LFE13
 3533 0068 00000000 		.4byte	.LFB14
 3534 006c 02000000 		.4byte	.LFE14
 3535 0070 00000000 		.4byte	.LFB15
 3536 0074 0C000000 		.4byte	.LFE15
 3537 0078 00000000 		.4byte	.LFB16
 3538 007c 0C000000 		.4byte	.LFE16
 3539 0080 00000000 		.4byte	.LFB17
 3540 0084 0C000000 		.4byte	.LFE17
 3541 0088 00000000 		.4byte	.LFB18
 3542 008c 5C000000 		.4byte	.LFE18
 3543 0090 00000000 		.4byte	.LFB19
 3544 0094 0C000000 		.4byte	.LFE19
 3545 0098 00000000 		.4byte	.LFB20
 3546 009c 6C000000 		.4byte	.LFE20
 3547 00a0 00000000 		.4byte	.LFB21
 3548 00a4 28000000 		.4byte	.LFE21
 3549 00a8 00000000 		.4byte	.LFB22
 3550 00ac 28000000 		.4byte	.LFE22
 3551 00b0 00000000 		.4byte	.LFB23
 3552 00b4 20000000 		.4byte	.LFE23
 3553 00b8 00000000 		.4byte	.LFB24
 3554 00bc 44000000 		.4byte	.LFE24
 3555 00c0 00000000 		.4byte	.LFB25
 3556 00c4 3C000000 		.4byte	.LFE25
 3557 00c8 00000000 		.4byte	.LFB26
 3558 00cc 60000000 		.4byte	.LFE26
 3559 00d0 00000000 		.4byte	.LFB27
 3560 00d4 02000000 		.4byte	.LFE27
 3561 00d8 00000000 		.4byte	0
 3562 00dc 00000000 		.4byte	0
 3563              		.section	.debug_line,"",%progbits
 3564              	.Ldebug_line0:
 3565 0000 61030000 		.section	.debug_str,"MS",%progbits,1
 3565      02006B00 
 3565      00000201 
 3565      FB0E0D00 
 3565      01010101 
 3566              	.LASF10:
 3567 0000 75696E74 		.ascii	"uint16\000"
 3567      313600
 3568              	.LASF40:
 3569 0007 4D494449 		.ascii	"MIDI1_UART_SetRxAddressMode\000"
 3569      315F5541 
 3569      52545F53 
 3569      65745278 
 3569      41646472 
 3570              	.LASF47:
 3571 0023 74784461 		.ascii	"txDataByte\000"
 3571      74614279 
 3571      746500
 3572              	.LASF39:
ARM GAS  C:\Users\psmus\AppData\Local\Temp\ccyQO4JR.s 			page 92


 3573 002e 4D494449 		.ascii	"MIDI1_UART_ClearRxBuffer\000"
 3573      315F5541 
 3573      52545F43 
 3573      6C656172 
 3573      52784275 
 3574              	.LASF35:
 3575 0047 4D494449 		.ascii	"MIDI1_UART_GetByte\000"
 3575      315F5541 
 3575      52545F47 
 3575      65744279 
 3575      746500
 3576              	.LASF18:
 3577 005a 4D494449 		.ascii	"MIDI1_UART_Init\000"
 3577      315F5541 
 3577      52545F49 
 3577      6E697400 
 3578              	.LASF46:
 3579 006a 4D494449 		.ascii	"MIDI1_UART_WriteTxData\000"
 3579      315F5541 
 3579      52545F57 
 3579      72697465 
 3579      54784461 
 3580              	.LASF54:
 3581 0081 73747269 		.ascii	"string\000"
 3581      6E6700
 3582              	.LASF4:
 3583 0088 6C6F6E67 		.ascii	"long int\000"
 3583      20696E74 
 3583      00
 3584              	.LASF86:
 3585 0091 474E5520 		.ascii	"GNU C11 5.4.1 20160609 (release) [ARM/embedded-5-br"
 3585      43313120 
 3585      352E342E 
 3585      31203230 
 3585      31363036 
 3586 00c4 616E6368 		.ascii	"anch revision 237715] -mcpu=cortex-m0 -mthumb -g -O"
 3586      20726576 
 3586      6973696F 
 3586      6E203233 
 3586      37373135 
 3587 00f7 67202D66 		.ascii	"g -ffunction-sections -ffat-lto-objects\000"
 3587      66756E63 
 3587      74696F6E 
 3587      2D736563 
 3587      74696F6E 
 3588              	.LASF7:
 3589 011f 6C6F6E67 		.ascii	"long long unsigned int\000"
 3589      206C6F6E 
 3589      6720756E 
 3589      7369676E 
 3589      65642069 
 3590              	.LASF30:
 3591 0136 4D494449 		.ascii	"MIDI1_UART_ReadRxData\000"
 3591      315F5541 
 3591      52545F52 
 3591      65616452 
 3591      78446174 
ARM GAS  C:\Users\psmus\AppData\Local\Temp\ccyQO4JR.s 			page 93


 3592              	.LASF6:
 3593 014c 6C6F6E67 		.ascii	"long long int\000"
 3593      206C6F6E 
 3593      6720696E 
 3593      7400
 3594              	.LASF0:
 3595 015a 7369676E 		.ascii	"signed char\000"
 3595      65642063 
 3595      68617200 
 3596              	.LASF64:
 3597 0166 74785065 		.ascii	"txPeriod\000"
 3597      72696F64 
 3597      00
 3598              	.LASF59:
 3599 016f 4D494449 		.ascii	"MIDI1_UART_GetTxBufferSize\000"
 3599      315F5541 
 3599      52545F47 
 3599      65745478 
 3599      42756666 
 3600              	.LASF71:
 3601 018a 4D494449 		.ascii	"MIDI1_UART_rxBuffer\000"
 3601      315F5541 
 3601      52545F72 
 3601      78427566 
 3601      66657200 
 3602              	.LASF88:
 3603 019e 453A5C44 		.ascii	"E:\\Documents\\Engineering\\Code\\synth-wavetable\\"
 3603      6F63756D 
 3603      656E7473 
 3603      5C456E67 
 3603      696E6565 
 3604 01cc 73796E74 		.ascii	"synth-wavetable.cydsn\000"
 3604      682D7761 
 3604      76657461 
 3604      626C652E 
 3604      63796473 
 3605              	.LASF84:
 3606 01e2 4379496E 		.ascii	"CyIntDisable\000"
 3606      74446973 
 3606      61626C65 
 3606      00
 3607              	.LASF87:
 3608 01ef 47656E65 		.ascii	"Generated_Source\\PSoC4\\MIDI1_UART.c\000"
 3608      72617465 
 3608      645F536F 
 3608      75726365 
 3608      5C50536F 
 3609              	.LASF9:
 3610 0213 75696E74 		.ascii	"uint8\000"
 3610      3800
 3611              	.LASF12:
 3612 0219 646F7562 		.ascii	"double\000"
 3612      6C6500
 3613              	.LASF41:
 3614 0220 61646472 		.ascii	"addressMode\000"
 3614      6573734D 
 3614      6F646500 
ARM GAS  C:\Users\psmus\AppData\Local\Temp\ccyQO4JR.s 			page 94


 3615              	.LASF31:
 3616 022c 4D494449 		.ascii	"MIDI1_UART_ReadRxStatus\000"
 3616      315F5541 
 3616      52545F52 
 3616      65616452 
 3616      78537461 
 3617              	.LASF25:
 3618 0244 636F6E74 		.ascii	"control\000"
 3618      726F6C00 
 3619              	.LASF66:
 3620 024c 4D494449 		.ascii	"MIDI1_UART_initVar\000"
 3620      315F5541 
 3620      52545F69 
 3620      6E697456 
 3620      617200
 3621              	.LASF52:
 3622 025f 6C6F6354 		.ascii	"locTxBufferRead\000"
 3622      78427566 
 3622      66657252 
 3622      65616400 
 3623              	.LASF70:
 3624 026f 4D494449 		.ascii	"MIDI1_UART_errorStatus\000"
 3624      315F5541 
 3624      52545F65 
 3624      72726F72 
 3624      53746174 
 3625              	.LASF72:
 3626 0286 4D494449 		.ascii	"MIDI1_UART_rxBufferRead\000"
 3626      315F5541 
 3626      52545F72 
 3626      78427566 
 3626      66657252 
 3627              	.LASF62:
 3628 029e 7265744D 		.ascii	"retMode\000"
 3628      6F646500 
 3629              	.LASF8:
 3630 02a6 756E7369 		.ascii	"unsigned int\000"
 3630      676E6564 
 3630      20696E74 
 3630      00
 3631              	.LASF73:
 3632 02b3 4D494449 		.ascii	"MIDI1_UART_rxBufferWrite\000"
 3632      315F5541 
 3632      52545F72 
 3632      78427566 
 3632      66657257 
 3633              	.LASF36:
 3634 02cc 6C6F6345 		.ascii	"locErrorStatus\000"
 3634      72726F72 
 3634      53746174 
 3634      757300
 3635              	.LASF5:
 3636 02db 6C6F6E67 		.ascii	"long unsigned int\000"
 3636      20756E73 
 3636      69676E65 
 3636      6420696E 
 3636      7400
ARM GAS  C:\Users\psmus\AppData\Local\Temp\ccyQO4JR.s 			page 95


 3637              	.LASF51:
 3638 02ed 6C6F6354 		.ascii	"locTxBufferWrite\000"
 3638      78427566 
 3638      66657257 
 3638      72697465 
 3638      00
 3639              	.LASF78:
 3640 02fe 4379456E 		.ascii	"CyEnterCriticalSection\000"
 3640      74657243 
 3640      72697469 
 3640      63616C53 
 3640      65637469 
 3641              	.LASF85:
 3642 0315 4379496E 		.ascii	"CyIntSetPending\000"
 3642      74536574 
 3642      50656E64 
 3642      696E6700 
 3643              	.LASF38:
 3644 0325 73697A65 		.ascii	"size\000"
 3644      00
 3645              	.LASF3:
 3646 032a 73686F72 		.ascii	"short unsigned int\000"
 3646      7420756E 
 3646      7369676E 
 3646      65642069 
 3646      6E7400
 3647              	.LASF76:
 3648 033d 4379496E 		.ascii	"CyIntSetVector\000"
 3648      74536574 
 3648      56656374 
 3648      6F7200
 3649              	.LASF20:
 3650 034c 4D494449 		.ascii	"MIDI1_UART_Start\000"
 3650      315F5541 
 3650      52545F53 
 3650      74617274 
 3650      00
 3651              	.LASF55:
 3652 035d 62756649 		.ascii	"bufIndex\000"
 3652      6E646578 
 3652      00
 3653              	.LASF61:
 3654 0366 4D494449 		.ascii	"MIDI1_UART_SendBreak\000"
 3654      315F5541 
 3654      52545F53 
 3654      656E6442 
 3654      7265616B 
 3655              	.LASF60:
 3656 037b 4D494449 		.ascii	"MIDI1_UART_ClearTxBuffer\000"
 3656      315F5541 
 3656      52545F43 
 3656      6C656172 
 3656      54784275 
 3657              	.LASF26:
 3658 0394 696E7453 		.ascii	"intSrc\000"
 3658      726300
 3659              	.LASF37:
ARM GAS  C:\Users\psmus\AppData\Local\Temp\ccyQO4JR.s 			page 96


 3660 039b 4D494449 		.ascii	"MIDI1_UART_GetRxBufferSize\000"
 3660      315F5541 
 3660      52545F47 
 3660      65745278 
 3660      42756666 
 3661              	.LASF77:
 3662 03b6 4379496E 		.ascii	"CyIntSetPriority\000"
 3662      74536574 
 3662      5072696F 
 3662      72697479 
 3662      00
 3663              	.LASF80:
 3664 03c7 4379496E 		.ascii	"CyIntClearPending\000"
 3664      74436C65 
 3664      61725065 
 3664      6E64696E 
 3664      6700
 3665              	.LASF63:
 3666 03d9 746D7053 		.ascii	"tmpStat\000"
 3666      74617400 
 3667              	.LASF17:
 3668 03e1 73697A65 		.ascii	"sizetype\000"
 3668      74797065 
 3668      00
 3669              	.LASF75:
 3670 03ea 4D494449 		.ascii	"MIDI1_UART_rxBufferOverflow\000"
 3670      315F5541 
 3670      52545F72 
 3670      78427566 
 3670      6665724F 
 3671              	.LASF16:
 3672 0406 6C6F6E67 		.ascii	"long double\000"
 3672      20646F75 
 3672      626C6500 
 3673              	.LASF43:
 3674 0412 61646472 		.ascii	"address\000"
 3674      65737300 
 3675              	.LASF33:
 3676 041a 4D494449 		.ascii	"MIDI1_UART_GetChar\000"
 3676      315F5541 
 3676      52545F47 
 3676      65744368 
 3676      617200
 3677              	.LASF29:
 3678 042d 6C6F6352 		.ascii	"locRxBufferWrite\000"
 3678      78427566 
 3678      66657257 
 3678      72697465 
 3678      00
 3679              	.LASF34:
 3680 043e 72785374 		.ascii	"rxStatus\000"
 3680      61747573 
 3680      00
 3681              	.LASF67:
 3682 0447 4D494449 		.ascii	"MIDI1_UART_txBuffer\000"
 3682      315F5541 
 3682      52545F74 
ARM GAS  C:\Users\psmus\AppData\Local\Temp\ccyQO4JR.s 			page 97


 3682      78427566 
 3682      66657200 
 3683              	.LASF11:
 3684 045b 666C6F61 		.ascii	"float\000"
 3684      7400
 3685              	.LASF82:
 3686 0461 43794578 		.ascii	"CyExitCriticalSection\000"
 3686      69744372 
 3686      69746963 
 3686      616C5365 
 3686      6374696F 
 3687              	.LASF42:
 3688 0477 4D494449 		.ascii	"MIDI1_UART_SetRxAddress1\000"
 3688      315F5541 
 3688      52545F53 
 3688      65745278 
 3688      41646472 
 3689              	.LASF44:
 3690 0490 4D494449 		.ascii	"MIDI1_UART_SetRxAddress2\000"
 3690      315F5541 
 3690      52545F53 
 3690      65745278 
 3690      41646472 
 3691              	.LASF50:
 3692 04a9 4D494449 		.ascii	"MIDI1_UART_PutChar\000"
 3692      315F5541 
 3692      52545F50 
 3692      75744368 
 3692      617200
 3693              	.LASF15:
 3694 04bc 72656738 		.ascii	"reg8\000"
 3694      00
 3695              	.LASF21:
 3696 04c1 4D494449 		.ascii	"MIDI1_UART_Stop\000"
 3696      315F5541 
 3696      52545F53 
 3696      746F7000 
 3697              	.LASF1:
 3698 04d1 756E7369 		.ascii	"unsigned char\000"
 3698      676E6564 
 3698      20636861 
 3698      7200
 3699              	.LASF56:
 3700 04df 4D494449 		.ascii	"MIDI1_UART_PutArray\000"
 3700      315F5541 
 3700      52545F50 
 3700      75744172 
 3700      72617900 
 3701              	.LASF23:
 3702 04f3 4D494449 		.ascii	"MIDI1_UART_WriteControlRegister\000"
 3702      315F5541 
 3702      52545F57 
 3702      72697465 
 3702      436F6E74 
 3703              	.LASF53:
 3704 0513 4D494449 		.ascii	"MIDI1_UART_PutString\000"
 3704      315F5541 
ARM GAS  C:\Users\psmus\AppData\Local\Temp\ccyQO4JR.s 			page 98


 3704      52545F50 
 3704      75745374 
 3704      72696E67 
 3705              	.LASF83:
 3706 0528 4D494449 		.ascii	"MIDI1_UART_IntClock_Stop\000"
 3706      315F5541 
 3706      52545F49 
 3706      6E74436C 
 3706      6F636B5F 
 3707              	.LASF2:
 3708 0541 73686F72 		.ascii	"short int\000"
 3708      7420696E 
 3708      7400
 3709              	.LASF79:
 3710 054b 4379496E 		.ascii	"CyIntEnable\000"
 3710      74456E61 
 3710      626C6500 
 3711              	.LASF24:
 3712 0557 4D494449 		.ascii	"MIDI1_UART_SetRxInterruptMode\000"
 3712      315F5541 
 3712      52545F53 
 3712      65745278 
 3712      496E7465 
 3713              	.LASF57:
 3714 0575 62797465 		.ascii	"byteCount\000"
 3714      436F756E 
 3714      7400
 3715              	.LASF48:
 3716 057f 4D494449 		.ascii	"MIDI1_UART_ReadControlRegister\000"
 3716      315F5541 
 3716      52545F52 
 3716      65616443 
 3716      6F6E7472 
 3717              	.LASF81:
 3718 059e 4D494449 		.ascii	"MIDI1_UART_IntClock_StartEx\000"
 3718      315F5541 
 3718      52545F49 
 3718      6E74436C 
 3718      6F636B5F 
 3719              	.LASF27:
 3720 05ba 72784461 		.ascii	"rxData\000"
 3720      746100
 3721              	.LASF49:
 3722 05c1 4D494449 		.ascii	"MIDI1_UART_ReadTxStatus\000"
 3722      315F5541 
 3722      52545F52 
 3722      65616454 
 3722      78537461 
 3723              	.LASF58:
 3724 05d9 4D494449 		.ascii	"MIDI1_UART_PutCRLF\000"
 3724      315F5541 
 3724      52545F50 
 3724      75744352 
 3724      4C4600
 3725              	.LASF14:
 3726 05ec 63686172 		.ascii	"char\000"
 3726      00
ARM GAS  C:\Users\psmus\AppData\Local\Temp\ccyQO4JR.s 			page 99


 3727              	.LASF68:
 3728 05f1 4D494449 		.ascii	"MIDI1_UART_txBufferRead\000"
 3728      315F5541 
 3728      52545F74 
 3728      78427566 
 3728      66657252 
 3729              	.LASF13:
 3730 0609 63686172 		.ascii	"char8\000"
 3730      3800
 3731              	.LASF65:
 3732 060f 4D494449 		.ascii	"MIDI1_UART_SetTxAddressMode\000"
 3732      315F5541 
 3732      52545F53 
 3732      65745478 
 3732      41646472 
 3733              	.LASF69:
 3734 062b 4D494449 		.ascii	"MIDI1_UART_txBufferWrite\000"
 3734      315F5541 
 3734      52545F74 
 3734      78427566 
 3734      66657257 
 3735              	.LASF28:
 3736 0644 6C6F6352 		.ascii	"locRxBufferRead\000"
 3736      78427566 
 3736      66657252 
 3736      65616400 
 3737              	.LASF22:
 3738 0654 656E6162 		.ascii	"enableInterrupts\000"
 3738      6C65496E 
 3738      74657272 
 3738      75707473 
 3738      00
 3739              	.LASF32:
 3740 0665 73746174 		.ascii	"status\000"
 3740      757300
 3741              	.LASF74:
 3742 066c 4D494449 		.ascii	"MIDI1_UART_rxBufferLoopDetect\000"
 3742      315F5541 
 3742      52545F72 
 3742      78427566 
 3742      6665724C 
 3743              	.LASF45:
 3744 068a 4D494449 		.ascii	"MIDI1_UART_SetTxInterruptMode\000"
 3744      315F5541 
 3744      52545F53 
 3744      65745478 
 3744      496E7465 
 3745              	.LASF19:
 3746 06a8 4D494449 		.ascii	"MIDI1_UART_Enable\000"
 3746      315F5541 
 3746      52545F45 
 3746      6E61626C 
 3746      6500
 3747              		.ident	"GCC: (GNU Tools for ARM Embedded Processors) 5.4.1 20160609 (release) [ARM/embedded-5-bran
