ARM GAS  C:\Users\psmus\AppData\Local\Temp\cc6vt5f0.s 			page 1


   1              		.syntax unified
   2              		.cpu cortex-m0
   3              		.fpu softvfp
   4              		.eabi_attribute 20, 1
   5              		.eabi_attribute 21, 1
   6              		.eabi_attribute 23, 3
   7              		.eabi_attribute 24, 1
   8              		.eabi_attribute 25, 1
   9              		.eabi_attribute 26, 1
  10              		.eabi_attribute 30, 1
  11              		.eabi_attribute 34, 0
  12              		.eabi_attribute 18, 4
  13              		.thumb
  14              		.syntax unified
  15              		.file	"MIDI1_UART_PM.c"
  16              		.text
  17              	.Ltext0:
  18              		.cfi_sections	.debug_frame
  19              		.section	.text.MIDI1_UART_SaveConfig,"ax",%progbits
  20              		.align	2
  21              		.global	MIDI1_UART_SaveConfig
  22              		.code	16
  23              		.thumb_func
  24              		.type	MIDI1_UART_SaveConfig, %function
  25              	MIDI1_UART_SaveConfig:
  26              	.LFB1:
  27              		.file 1 "Generated_Source\\PSoC4\\MIDI1_UART_PM.c"
   1:Generated_Source\PSoC4/MIDI1_UART_PM.c **** /*******************************************************************************
   2:Generated_Source\PSoC4/MIDI1_UART_PM.c **** * File Name: MIDI1_UART_PM.c
   3:Generated_Source\PSoC4/MIDI1_UART_PM.c **** * Version 2.50
   4:Generated_Source\PSoC4/MIDI1_UART_PM.c **** *
   5:Generated_Source\PSoC4/MIDI1_UART_PM.c **** * Description:
   6:Generated_Source\PSoC4/MIDI1_UART_PM.c **** *  This file provides Sleep/WakeUp APIs functionality.
   7:Generated_Source\PSoC4/MIDI1_UART_PM.c **** *
   8:Generated_Source\PSoC4/MIDI1_UART_PM.c **** * Note:
   9:Generated_Source\PSoC4/MIDI1_UART_PM.c **** *
  10:Generated_Source\PSoC4/MIDI1_UART_PM.c **** ********************************************************************************
  11:Generated_Source\PSoC4/MIDI1_UART_PM.c **** * Copyright 2008-2015, Cypress Semiconductor Corporation.  All rights reserved.
  12:Generated_Source\PSoC4/MIDI1_UART_PM.c **** * You may use this file only in accordance with the license, terms, conditions,
  13:Generated_Source\PSoC4/MIDI1_UART_PM.c **** * disclaimers, and limitations in the end user license agreement accompanying
  14:Generated_Source\PSoC4/MIDI1_UART_PM.c **** * the software package with which this file was provided.
  15:Generated_Source\PSoC4/MIDI1_UART_PM.c **** *******************************************************************************/
  16:Generated_Source\PSoC4/MIDI1_UART_PM.c **** 
  17:Generated_Source\PSoC4/MIDI1_UART_PM.c **** #include "MIDI1_UART.h"
  18:Generated_Source\PSoC4/MIDI1_UART_PM.c **** 
  19:Generated_Source\PSoC4/MIDI1_UART_PM.c **** 
  20:Generated_Source\PSoC4/MIDI1_UART_PM.c **** /***************************************
  21:Generated_Source\PSoC4/MIDI1_UART_PM.c **** * Local data allocation
  22:Generated_Source\PSoC4/MIDI1_UART_PM.c **** ***************************************/
  23:Generated_Source\PSoC4/MIDI1_UART_PM.c **** 
  24:Generated_Source\PSoC4/MIDI1_UART_PM.c **** static MIDI1_UART_BACKUP_STRUCT  MIDI1_UART_backup =
  25:Generated_Source\PSoC4/MIDI1_UART_PM.c **** {
  26:Generated_Source\PSoC4/MIDI1_UART_PM.c ****     /* enableState - disabled */
  27:Generated_Source\PSoC4/MIDI1_UART_PM.c ****     0u,
  28:Generated_Source\PSoC4/MIDI1_UART_PM.c **** };
  29:Generated_Source\PSoC4/MIDI1_UART_PM.c **** 
  30:Generated_Source\PSoC4/MIDI1_UART_PM.c **** 
ARM GAS  C:\Users\psmus\AppData\Local\Temp\cc6vt5f0.s 			page 2


  31:Generated_Source\PSoC4/MIDI1_UART_PM.c **** 
  32:Generated_Source\PSoC4/MIDI1_UART_PM.c **** /*******************************************************************************
  33:Generated_Source\PSoC4/MIDI1_UART_PM.c **** * Function Name: MIDI1_UART_SaveConfig
  34:Generated_Source\PSoC4/MIDI1_UART_PM.c **** ********************************************************************************
  35:Generated_Source\PSoC4/MIDI1_UART_PM.c **** *
  36:Generated_Source\PSoC4/MIDI1_UART_PM.c **** * Summary:
  37:Generated_Source\PSoC4/MIDI1_UART_PM.c **** *  This function saves the component nonretention control register.
  38:Generated_Source\PSoC4/MIDI1_UART_PM.c **** *  Does not save the FIFO which is a set of nonretention registers.
  39:Generated_Source\PSoC4/MIDI1_UART_PM.c **** *  This function is called by the MIDI1_UART_Sleep() function.
  40:Generated_Source\PSoC4/MIDI1_UART_PM.c **** *
  41:Generated_Source\PSoC4/MIDI1_UART_PM.c **** * Parameters:
  42:Generated_Source\PSoC4/MIDI1_UART_PM.c **** *  None.
  43:Generated_Source\PSoC4/MIDI1_UART_PM.c **** *
  44:Generated_Source\PSoC4/MIDI1_UART_PM.c **** * Return:
  45:Generated_Source\PSoC4/MIDI1_UART_PM.c **** *  None.
  46:Generated_Source\PSoC4/MIDI1_UART_PM.c **** *
  47:Generated_Source\PSoC4/MIDI1_UART_PM.c **** * Global Variables:
  48:Generated_Source\PSoC4/MIDI1_UART_PM.c **** *  MIDI1_UART_backup - modified when non-retention registers are saved.
  49:Generated_Source\PSoC4/MIDI1_UART_PM.c **** *
  50:Generated_Source\PSoC4/MIDI1_UART_PM.c **** * Reentrant:
  51:Generated_Source\PSoC4/MIDI1_UART_PM.c **** *  No.
  52:Generated_Source\PSoC4/MIDI1_UART_PM.c **** *
  53:Generated_Source\PSoC4/MIDI1_UART_PM.c **** *******************************************************************************/
  54:Generated_Source\PSoC4/MIDI1_UART_PM.c **** void MIDI1_UART_SaveConfig(void)
  55:Generated_Source\PSoC4/MIDI1_UART_PM.c **** {
  28              		.loc 1 55 0
  29              		.cfi_startproc
  30              		@ args = 0, pretend = 0, frame = 0
  31              		@ frame_needed = 0, uses_anonymous_args = 0
  32              		@ link register save eliminated.
  56:Generated_Source\PSoC4/MIDI1_UART_PM.c ****     #if(MIDI1_UART_CONTROL_REG_REMOVED == 0u)
  57:Generated_Source\PSoC4/MIDI1_UART_PM.c ****         MIDI1_UART_backup.cr = MIDI1_UART_CONTROL_REG;
  58:Generated_Source\PSoC4/MIDI1_UART_PM.c ****     #endif /* End MIDI1_UART_CONTROL_REG_REMOVED */
  59:Generated_Source\PSoC4/MIDI1_UART_PM.c **** }
  33              		.loc 1 59 0
  34              		@ sp needed
  35 0000 7047     		bx	lr
  36              		.cfi_endproc
  37              	.LFE1:
  38              		.size	MIDI1_UART_SaveConfig, .-MIDI1_UART_SaveConfig
  39 0002 C046     		.section	.text.MIDI1_UART_RestoreConfig,"ax",%progbits
  40              		.align	2
  41              		.global	MIDI1_UART_RestoreConfig
  42              		.code	16
  43              		.thumb_func
  44              		.type	MIDI1_UART_RestoreConfig, %function
  45              	MIDI1_UART_RestoreConfig:
  46              	.LFB2:
  60:Generated_Source\PSoC4/MIDI1_UART_PM.c **** 
  61:Generated_Source\PSoC4/MIDI1_UART_PM.c **** 
  62:Generated_Source\PSoC4/MIDI1_UART_PM.c **** /*******************************************************************************
  63:Generated_Source\PSoC4/MIDI1_UART_PM.c **** * Function Name: MIDI1_UART_RestoreConfig
  64:Generated_Source\PSoC4/MIDI1_UART_PM.c **** ********************************************************************************
  65:Generated_Source\PSoC4/MIDI1_UART_PM.c **** *
  66:Generated_Source\PSoC4/MIDI1_UART_PM.c **** * Summary:
  67:Generated_Source\PSoC4/MIDI1_UART_PM.c **** *  Restores the nonretention control register except FIFO.
  68:Generated_Source\PSoC4/MIDI1_UART_PM.c **** *  Does not restore the FIFO which is a set of nonretention registers.
ARM GAS  C:\Users\psmus\AppData\Local\Temp\cc6vt5f0.s 			page 3


  69:Generated_Source\PSoC4/MIDI1_UART_PM.c **** *
  70:Generated_Source\PSoC4/MIDI1_UART_PM.c **** * Parameters:
  71:Generated_Source\PSoC4/MIDI1_UART_PM.c **** *  None.
  72:Generated_Source\PSoC4/MIDI1_UART_PM.c **** *
  73:Generated_Source\PSoC4/MIDI1_UART_PM.c **** * Return:
  74:Generated_Source\PSoC4/MIDI1_UART_PM.c **** *  None.
  75:Generated_Source\PSoC4/MIDI1_UART_PM.c **** *
  76:Generated_Source\PSoC4/MIDI1_UART_PM.c **** * Global Variables:
  77:Generated_Source\PSoC4/MIDI1_UART_PM.c **** *  MIDI1_UART_backup - used when non-retention registers are restored.
  78:Generated_Source\PSoC4/MIDI1_UART_PM.c **** *
  79:Generated_Source\PSoC4/MIDI1_UART_PM.c **** * Reentrant:
  80:Generated_Source\PSoC4/MIDI1_UART_PM.c **** *  No.
  81:Generated_Source\PSoC4/MIDI1_UART_PM.c **** *
  82:Generated_Source\PSoC4/MIDI1_UART_PM.c **** * Notes:
  83:Generated_Source\PSoC4/MIDI1_UART_PM.c **** *  If this function is called without calling MIDI1_UART_SaveConfig() 
  84:Generated_Source\PSoC4/MIDI1_UART_PM.c **** *  first, the data loaded may be incorrect.
  85:Generated_Source\PSoC4/MIDI1_UART_PM.c **** *
  86:Generated_Source\PSoC4/MIDI1_UART_PM.c **** *******************************************************************************/
  87:Generated_Source\PSoC4/MIDI1_UART_PM.c **** void MIDI1_UART_RestoreConfig(void)
  88:Generated_Source\PSoC4/MIDI1_UART_PM.c **** {
  47              		.loc 1 88 0
  48              		.cfi_startproc
  49              		@ args = 0, pretend = 0, frame = 0
  50              		@ frame_needed = 0, uses_anonymous_args = 0
  51              		@ link register save eliminated.
  89:Generated_Source\PSoC4/MIDI1_UART_PM.c ****     #if(MIDI1_UART_CONTROL_REG_REMOVED == 0u)
  90:Generated_Source\PSoC4/MIDI1_UART_PM.c ****         MIDI1_UART_CONTROL_REG = MIDI1_UART_backup.cr;
  91:Generated_Source\PSoC4/MIDI1_UART_PM.c ****     #endif /* End MIDI1_UART_CONTROL_REG_REMOVED */
  92:Generated_Source\PSoC4/MIDI1_UART_PM.c **** }
  52              		.loc 1 92 0
  53              		@ sp needed
  54 0000 7047     		bx	lr
  55              		.cfi_endproc
  56              	.LFE2:
  57              		.size	MIDI1_UART_RestoreConfig, .-MIDI1_UART_RestoreConfig
  58 0002 C046     		.section	.text.MIDI1_UART_Sleep,"ax",%progbits
  59              		.align	2
  60              		.global	MIDI1_UART_Sleep
  61              		.code	16
  62              		.thumb_func
  63              		.type	MIDI1_UART_Sleep, %function
  64              	MIDI1_UART_Sleep:
  65              	.LFB3:
  93:Generated_Source\PSoC4/MIDI1_UART_PM.c **** 
  94:Generated_Source\PSoC4/MIDI1_UART_PM.c **** 
  95:Generated_Source\PSoC4/MIDI1_UART_PM.c **** /*******************************************************************************
  96:Generated_Source\PSoC4/MIDI1_UART_PM.c **** * Function Name: MIDI1_UART_Sleep
  97:Generated_Source\PSoC4/MIDI1_UART_PM.c **** ********************************************************************************
  98:Generated_Source\PSoC4/MIDI1_UART_PM.c **** *
  99:Generated_Source\PSoC4/MIDI1_UART_PM.c **** * Summary:
 100:Generated_Source\PSoC4/MIDI1_UART_PM.c **** *  This is the preferred API to prepare the component for sleep. 
 101:Generated_Source\PSoC4/MIDI1_UART_PM.c **** *  The MIDI1_UART_Sleep() API saves the current component state. Then it
 102:Generated_Source\PSoC4/MIDI1_UART_PM.c **** *  calls the MIDI1_UART_Stop() function and calls 
 103:Generated_Source\PSoC4/MIDI1_UART_PM.c **** *  MIDI1_UART_SaveConfig() to save the hardware configuration.
 104:Generated_Source\PSoC4/MIDI1_UART_PM.c **** *  Call the MIDI1_UART_Sleep() function before calling the CyPmSleep() 
 105:Generated_Source\PSoC4/MIDI1_UART_PM.c **** *  or the CyPmHibernate() function. 
 106:Generated_Source\PSoC4/MIDI1_UART_PM.c **** *
ARM GAS  C:\Users\psmus\AppData\Local\Temp\cc6vt5f0.s 			page 4


 107:Generated_Source\PSoC4/MIDI1_UART_PM.c **** * Parameters:
 108:Generated_Source\PSoC4/MIDI1_UART_PM.c **** *  None.
 109:Generated_Source\PSoC4/MIDI1_UART_PM.c **** *
 110:Generated_Source\PSoC4/MIDI1_UART_PM.c **** * Return:
 111:Generated_Source\PSoC4/MIDI1_UART_PM.c **** *  None.
 112:Generated_Source\PSoC4/MIDI1_UART_PM.c **** *
 113:Generated_Source\PSoC4/MIDI1_UART_PM.c **** * Global Variables:
 114:Generated_Source\PSoC4/MIDI1_UART_PM.c **** *  MIDI1_UART_backup - modified when non-retention registers are saved.
 115:Generated_Source\PSoC4/MIDI1_UART_PM.c **** *
 116:Generated_Source\PSoC4/MIDI1_UART_PM.c **** * Reentrant:
 117:Generated_Source\PSoC4/MIDI1_UART_PM.c **** *  No.
 118:Generated_Source\PSoC4/MIDI1_UART_PM.c **** *
 119:Generated_Source\PSoC4/MIDI1_UART_PM.c **** *******************************************************************************/
 120:Generated_Source\PSoC4/MIDI1_UART_PM.c **** void MIDI1_UART_Sleep(void)
 121:Generated_Source\PSoC4/MIDI1_UART_PM.c **** {
  66              		.loc 1 121 0
  67              		.cfi_startproc
  68              		@ args = 0, pretend = 0, frame = 0
  69              		@ frame_needed = 0, uses_anonymous_args = 0
  70 0000 10B5     		push	{r4, lr}
  71              		.cfi_def_cfa_offset 8
  72              		.cfi_offset 4, -8
  73              		.cfi_offset 14, -4
 122:Generated_Source\PSoC4/MIDI1_UART_PM.c ****     #if(MIDI1_UART_RX_ENABLED || MIDI1_UART_HD_ENABLED)
 123:Generated_Source\PSoC4/MIDI1_UART_PM.c ****         if((MIDI1_UART_RXSTATUS_ACTL_REG  & MIDI1_UART_INT_ENABLE) != 0u)
  74              		.loc 1 123 0
  75 0002 074B     		ldr	r3, .L6
  76 0004 1B78     		ldrb	r3, [r3]
  77 0006 DB06     		lsls	r3, r3, #27
  78 0008 03D5     		bpl	.L4
 124:Generated_Source\PSoC4/MIDI1_UART_PM.c ****         {
 125:Generated_Source\PSoC4/MIDI1_UART_PM.c ****             MIDI1_UART_backup.enableState = 1u;
  79              		.loc 1 125 0
  80 000a 0122     		movs	r2, #1
  81 000c 054B     		ldr	r3, .L6+4
  82 000e 1A70     		strb	r2, [r3]
  83 0010 02E0     		b	.L5
  84              	.L4:
 126:Generated_Source\PSoC4/MIDI1_UART_PM.c ****         }
 127:Generated_Source\PSoC4/MIDI1_UART_PM.c ****         else
 128:Generated_Source\PSoC4/MIDI1_UART_PM.c ****         {
 129:Generated_Source\PSoC4/MIDI1_UART_PM.c ****             MIDI1_UART_backup.enableState = 0u;
  85              		.loc 1 129 0
  86 0012 0022     		movs	r2, #0
  87 0014 034B     		ldr	r3, .L6+4
  88 0016 1A70     		strb	r2, [r3]
  89              	.L5:
 130:Generated_Source\PSoC4/MIDI1_UART_PM.c ****         }
 131:Generated_Source\PSoC4/MIDI1_UART_PM.c ****     #else
 132:Generated_Source\PSoC4/MIDI1_UART_PM.c ****         if((MIDI1_UART_TXSTATUS_ACTL_REG  & MIDI1_UART_INT_ENABLE) !=0u)
 133:Generated_Source\PSoC4/MIDI1_UART_PM.c ****         {
 134:Generated_Source\PSoC4/MIDI1_UART_PM.c ****             MIDI1_UART_backup.enableState = 1u;
 135:Generated_Source\PSoC4/MIDI1_UART_PM.c ****         }
 136:Generated_Source\PSoC4/MIDI1_UART_PM.c ****         else
 137:Generated_Source\PSoC4/MIDI1_UART_PM.c ****         {
 138:Generated_Source\PSoC4/MIDI1_UART_PM.c ****             MIDI1_UART_backup.enableState = 0u;
 139:Generated_Source\PSoC4/MIDI1_UART_PM.c ****         }
ARM GAS  C:\Users\psmus\AppData\Local\Temp\cc6vt5f0.s 			page 5


 140:Generated_Source\PSoC4/MIDI1_UART_PM.c ****     #endif /* End MIDI1_UART_RX_ENABLED || MIDI1_UART_HD_ENABLED*/
 141:Generated_Source\PSoC4/MIDI1_UART_PM.c **** 
 142:Generated_Source\PSoC4/MIDI1_UART_PM.c ****     MIDI1_UART_Stop();
  90              		.loc 1 142 0
  91 0018 FFF7FEFF 		bl	MIDI1_UART_Stop
  92              	.LVL0:
 143:Generated_Source\PSoC4/MIDI1_UART_PM.c ****     MIDI1_UART_SaveConfig();
 144:Generated_Source\PSoC4/MIDI1_UART_PM.c **** }
  93              		.loc 1 144 0
  94              		@ sp needed
  95 001c 10BD     		pop	{r4, pc}
  96              	.L7:
  97 001e C046     		.align	2
  98              	.L6:
  99 0020 93000F40 		.word	1074725011
 100 0024 00000000 		.word	.LANCHOR0
 101              		.cfi_endproc
 102              	.LFE3:
 103              		.size	MIDI1_UART_Sleep, .-MIDI1_UART_Sleep
 104              		.section	.text.MIDI1_UART_Wakeup,"ax",%progbits
 105              		.align	2
 106              		.global	MIDI1_UART_Wakeup
 107              		.code	16
 108              		.thumb_func
 109              		.type	MIDI1_UART_Wakeup, %function
 110              	MIDI1_UART_Wakeup:
 111              	.LFB4:
 145:Generated_Source\PSoC4/MIDI1_UART_PM.c **** 
 146:Generated_Source\PSoC4/MIDI1_UART_PM.c **** 
 147:Generated_Source\PSoC4/MIDI1_UART_PM.c **** /*******************************************************************************
 148:Generated_Source\PSoC4/MIDI1_UART_PM.c **** * Function Name: MIDI1_UART_Wakeup
 149:Generated_Source\PSoC4/MIDI1_UART_PM.c **** ********************************************************************************
 150:Generated_Source\PSoC4/MIDI1_UART_PM.c **** *
 151:Generated_Source\PSoC4/MIDI1_UART_PM.c **** * Summary:
 152:Generated_Source\PSoC4/MIDI1_UART_PM.c **** *  This is the preferred API to restore the component to the state when 
 153:Generated_Source\PSoC4/MIDI1_UART_PM.c **** *  MIDI1_UART_Sleep() was called. The MIDI1_UART_Wakeup() function
 154:Generated_Source\PSoC4/MIDI1_UART_PM.c **** *  calls the MIDI1_UART_RestoreConfig() function to restore the 
 155:Generated_Source\PSoC4/MIDI1_UART_PM.c **** *  configuration. If the component was enabled before the 
 156:Generated_Source\PSoC4/MIDI1_UART_PM.c **** *  MIDI1_UART_Sleep() function was called, the MIDI1_UART_Wakeup()
 157:Generated_Source\PSoC4/MIDI1_UART_PM.c **** *  function will also re-enable the component.
 158:Generated_Source\PSoC4/MIDI1_UART_PM.c **** *
 159:Generated_Source\PSoC4/MIDI1_UART_PM.c **** * Parameters:
 160:Generated_Source\PSoC4/MIDI1_UART_PM.c **** *  None.
 161:Generated_Source\PSoC4/MIDI1_UART_PM.c **** *
 162:Generated_Source\PSoC4/MIDI1_UART_PM.c **** * Return:
 163:Generated_Source\PSoC4/MIDI1_UART_PM.c **** *  None.
 164:Generated_Source\PSoC4/MIDI1_UART_PM.c **** *
 165:Generated_Source\PSoC4/MIDI1_UART_PM.c **** * Global Variables:
 166:Generated_Source\PSoC4/MIDI1_UART_PM.c **** *  MIDI1_UART_backup - used when non-retention registers are restored.
 167:Generated_Source\PSoC4/MIDI1_UART_PM.c **** *
 168:Generated_Source\PSoC4/MIDI1_UART_PM.c **** * Reentrant:
 169:Generated_Source\PSoC4/MIDI1_UART_PM.c **** *  No.
 170:Generated_Source\PSoC4/MIDI1_UART_PM.c **** *
 171:Generated_Source\PSoC4/MIDI1_UART_PM.c **** *******************************************************************************/
 172:Generated_Source\PSoC4/MIDI1_UART_PM.c **** void MIDI1_UART_Wakeup(void)
 173:Generated_Source\PSoC4/MIDI1_UART_PM.c **** {
 112              		.loc 1 173 0
ARM GAS  C:\Users\psmus\AppData\Local\Temp\cc6vt5f0.s 			page 6


 113              		.cfi_startproc
 114              		@ args = 0, pretend = 0, frame = 0
 115              		@ frame_needed = 0, uses_anonymous_args = 0
 116 0000 10B5     		push	{r4, lr}
 117              		.cfi_def_cfa_offset 8
 118              		.cfi_offset 4, -8
 119              		.cfi_offset 14, -4
 174:Generated_Source\PSoC4/MIDI1_UART_PM.c ****     MIDI1_UART_RestoreConfig();
 175:Generated_Source\PSoC4/MIDI1_UART_PM.c ****     #if( (MIDI1_UART_RX_ENABLED) || (MIDI1_UART_HD_ENABLED) )
 176:Generated_Source\PSoC4/MIDI1_UART_PM.c ****         MIDI1_UART_ClearRxBuffer();
 120              		.loc 1 176 0
 121 0002 FFF7FEFF 		bl	MIDI1_UART_ClearRxBuffer
 122              	.LVL1:
 177:Generated_Source\PSoC4/MIDI1_UART_PM.c ****     #endif /* End (MIDI1_UART_RX_ENABLED) || (MIDI1_UART_HD_ENABLED) */
 178:Generated_Source\PSoC4/MIDI1_UART_PM.c ****     #if(MIDI1_UART_TX_ENABLED || MIDI1_UART_HD_ENABLED)
 179:Generated_Source\PSoC4/MIDI1_UART_PM.c ****         MIDI1_UART_ClearTxBuffer();
 123              		.loc 1 179 0
 124 0006 FFF7FEFF 		bl	MIDI1_UART_ClearTxBuffer
 125              	.LVL2:
 180:Generated_Source\PSoC4/MIDI1_UART_PM.c ****     #endif /* End MIDI1_UART_TX_ENABLED || MIDI1_UART_HD_ENABLED */
 181:Generated_Source\PSoC4/MIDI1_UART_PM.c **** 
 182:Generated_Source\PSoC4/MIDI1_UART_PM.c ****     if(MIDI1_UART_backup.enableState != 0u)
 126              		.loc 1 182 0
 127 000a 034B     		ldr	r3, .L10
 128 000c 1B78     		ldrb	r3, [r3]
 129 000e 002B     		cmp	r3, #0
 130 0010 01D0     		beq	.L8
 183:Generated_Source\PSoC4/MIDI1_UART_PM.c ****     {
 184:Generated_Source\PSoC4/MIDI1_UART_PM.c ****         MIDI1_UART_Enable();
 131              		.loc 1 184 0
 132 0012 FFF7FEFF 		bl	MIDI1_UART_Enable
 133              	.LVL3:
 134              	.L8:
 185:Generated_Source\PSoC4/MIDI1_UART_PM.c ****     }
 186:Generated_Source\PSoC4/MIDI1_UART_PM.c **** }
 135              		.loc 1 186 0
 136              		@ sp needed
 137 0016 10BD     		pop	{r4, pc}
 138              	.L11:
 139              		.align	2
 140              	.L10:
 141 0018 00000000 		.word	.LANCHOR0
 142              		.cfi_endproc
 143              	.LFE4:
 144              		.size	MIDI1_UART_Wakeup, .-MIDI1_UART_Wakeup
 145              		.bss
 146              		.align	2
 147              		.set	.LANCHOR0,. + 0
 148              		.type	MIDI1_UART_backup, %object
 149              		.size	MIDI1_UART_backup, 1
 150              	MIDI1_UART_backup:
 151 0000 00       		.space	1
 152              		.text
 153              	.Letext0:
 154              		.file 2 "Generated_Source\\PSoC4\\cytypes.h"
 155              		.file 3 "Generated_Source\\PSoC4\\MIDI1_UART.h"