ARM GAS  C:\Users\psmus\AppData\Local\Temp\ccwylPuw.s 			page 1


   1              		.syntax unified
   2              		.cpu cortex-m0
   3              		.fpu softvfp
   4              		.eabi_attribute 20, 1
   5              		.eabi_attribute 21, 1
   6              		.eabi_attribute 23, 3
   7              		.eabi_attribute 24, 1
   8              		.eabi_attribute 25, 1
   9              		.eabi_attribute 26, 1
  10              		.eabi_attribute 30, 1
  11              		.eabi_attribute 34, 0
  12              		.eabi_attribute 18, 4
  13              		.thumb
  14              		.syntax unified
  15              		.file	"SPI.c"
  16              		.text
  17              	.Ltext0:
  18              		.cfi_sections	.debug_frame
  19              		.section	.text.SPI_ScbEnableIntr,"ax",%progbits
  20              		.align	2
  21              		.code	16
  22              		.thumb_func
  23              		.type	SPI_ScbEnableIntr, %function
  24              	SPI_ScbEnableIntr:
  25              	.LFB8:
  26              		.file 1 "Generated_Source\\PSoC4\\SPI.c"
   1:Generated_Source\PSoC4/SPI.c **** /***************************************************************************//**
   2:Generated_Source\PSoC4/SPI.c **** * \file SPI.c
   3:Generated_Source\PSoC4/SPI.c **** * \version 4.0
   4:Generated_Source\PSoC4/SPI.c **** *
   5:Generated_Source\PSoC4/SPI.c **** * \brief
   6:Generated_Source\PSoC4/SPI.c **** *  This file provides the source code to the API for the SCB Component.
   7:Generated_Source\PSoC4/SPI.c **** *
   8:Generated_Source\PSoC4/SPI.c **** * Note:
   9:Generated_Source\PSoC4/SPI.c **** *
  10:Generated_Source\PSoC4/SPI.c **** *******************************************************************************
  11:Generated_Source\PSoC4/SPI.c **** * \copyright
  12:Generated_Source\PSoC4/SPI.c **** * Copyright 2013-2017, Cypress Semiconductor Corporation.  All rights reserved.
  13:Generated_Source\PSoC4/SPI.c **** * You may use this file only in accordance with the license, terms, conditions,
  14:Generated_Source\PSoC4/SPI.c **** * disclaimers, and limitations in the end user license agreement accompanying
  15:Generated_Source\PSoC4/SPI.c **** * the software package with which this file was provided.
  16:Generated_Source\PSoC4/SPI.c **** *******************************************************************************/
  17:Generated_Source\PSoC4/SPI.c **** 
  18:Generated_Source\PSoC4/SPI.c **** #include "SPI_PVT.h"
  19:Generated_Source\PSoC4/SPI.c **** 
  20:Generated_Source\PSoC4/SPI.c **** #if (SPI_SCB_MODE_I2C_INC)
  21:Generated_Source\PSoC4/SPI.c ****     #include "SPI_I2C_PVT.h"
  22:Generated_Source\PSoC4/SPI.c **** #endif /* (SPI_SCB_MODE_I2C_INC) */
  23:Generated_Source\PSoC4/SPI.c **** 
  24:Generated_Source\PSoC4/SPI.c **** #if (SPI_SCB_MODE_EZI2C_INC)
  25:Generated_Source\PSoC4/SPI.c ****     #include "SPI_EZI2C_PVT.h"
  26:Generated_Source\PSoC4/SPI.c **** #endif /* (SPI_SCB_MODE_EZI2C_INC) */
  27:Generated_Source\PSoC4/SPI.c **** 
  28:Generated_Source\PSoC4/SPI.c **** #if (SPI_SCB_MODE_SPI_INC || SPI_SCB_MODE_UART_INC)
  29:Generated_Source\PSoC4/SPI.c ****     #include "SPI_SPI_UART_PVT.h"
  30:Generated_Source\PSoC4/SPI.c **** #endif /* (SPI_SCB_MODE_SPI_INC || SPI_SCB_MODE_UART_INC) */
  31:Generated_Source\PSoC4/SPI.c **** 
ARM GAS  C:\Users\psmus\AppData\Local\Temp\ccwylPuw.s 			page 2


  32:Generated_Source\PSoC4/SPI.c **** 
  33:Generated_Source\PSoC4/SPI.c **** /***************************************
  34:Generated_Source\PSoC4/SPI.c **** *    Run Time Configuration Vars
  35:Generated_Source\PSoC4/SPI.c **** ***************************************/
  36:Generated_Source\PSoC4/SPI.c **** 
  37:Generated_Source\PSoC4/SPI.c **** /* Stores internal component configuration for Unconfigured mode */
  38:Generated_Source\PSoC4/SPI.c **** #if (SPI_SCB_MODE_UNCONFIG_CONST_CFG)
  39:Generated_Source\PSoC4/SPI.c ****     /* Common configuration variables */
  40:Generated_Source\PSoC4/SPI.c ****     uint8 SPI_scbMode = SPI_SCB_MODE_UNCONFIG;
  41:Generated_Source\PSoC4/SPI.c ****     uint8 SPI_scbEnableWake;
  42:Generated_Source\PSoC4/SPI.c ****     uint8 SPI_scbEnableIntr;
  43:Generated_Source\PSoC4/SPI.c **** 
  44:Generated_Source\PSoC4/SPI.c ****     /* I2C configuration variables */
  45:Generated_Source\PSoC4/SPI.c ****     uint8 SPI_mode;
  46:Generated_Source\PSoC4/SPI.c ****     uint8 SPI_acceptAddr;
  47:Generated_Source\PSoC4/SPI.c **** 
  48:Generated_Source\PSoC4/SPI.c ****     /* SPI/UART configuration variables */
  49:Generated_Source\PSoC4/SPI.c ****     volatile uint8 * SPI_rxBuffer;
  50:Generated_Source\PSoC4/SPI.c ****     uint8  SPI_rxDataBits;
  51:Generated_Source\PSoC4/SPI.c ****     uint32 SPI_rxBufferSize;
  52:Generated_Source\PSoC4/SPI.c **** 
  53:Generated_Source\PSoC4/SPI.c ****     volatile uint8 * SPI_txBuffer;
  54:Generated_Source\PSoC4/SPI.c ****     uint8  SPI_txDataBits;
  55:Generated_Source\PSoC4/SPI.c ****     uint32 SPI_txBufferSize;
  56:Generated_Source\PSoC4/SPI.c **** 
  57:Generated_Source\PSoC4/SPI.c ****     /* EZI2C configuration variables */
  58:Generated_Source\PSoC4/SPI.c ****     uint8 SPI_numberOfAddr;
  59:Generated_Source\PSoC4/SPI.c ****     uint8 SPI_subAddrSize;
  60:Generated_Source\PSoC4/SPI.c **** #endif /* (SPI_SCB_MODE_UNCONFIG_CONST_CFG) */
  61:Generated_Source\PSoC4/SPI.c **** 
  62:Generated_Source\PSoC4/SPI.c **** 
  63:Generated_Source\PSoC4/SPI.c **** /***************************************
  64:Generated_Source\PSoC4/SPI.c **** *     Common SCB Vars
  65:Generated_Source\PSoC4/SPI.c **** ***************************************/
  66:Generated_Source\PSoC4/SPI.c **** /**
  67:Generated_Source\PSoC4/SPI.c **** * \addtogroup group_general
  68:Generated_Source\PSoC4/SPI.c **** * \{
  69:Generated_Source\PSoC4/SPI.c **** */
  70:Generated_Source\PSoC4/SPI.c **** 
  71:Generated_Source\PSoC4/SPI.c **** /** SPI_initVar indicates whether the SPI 
  72:Generated_Source\PSoC4/SPI.c **** *  component has been initialized. The variable is initialized to 0 
  73:Generated_Source\PSoC4/SPI.c **** *  and set to 1 the first time SCB_Start() is called. This allows 
  74:Generated_Source\PSoC4/SPI.c **** *  the component to restart without reinitialization after the first 
  75:Generated_Source\PSoC4/SPI.c **** *  call to the SPI_Start() routine.
  76:Generated_Source\PSoC4/SPI.c **** *
  77:Generated_Source\PSoC4/SPI.c **** *  If re-initialization of the component is required, then the 
  78:Generated_Source\PSoC4/SPI.c **** *  SPI_Init() function can be called before the 
  79:Generated_Source\PSoC4/SPI.c **** *  SPI_Start() or SPI_Enable() function.
  80:Generated_Source\PSoC4/SPI.c **** */
  81:Generated_Source\PSoC4/SPI.c **** uint8 SPI_initVar = 0u;
  82:Generated_Source\PSoC4/SPI.c **** 
  83:Generated_Source\PSoC4/SPI.c **** 
  84:Generated_Source\PSoC4/SPI.c **** #if (! (SPI_SCB_MODE_I2C_CONST_CFG || \
  85:Generated_Source\PSoC4/SPI.c ****         SPI_SCB_MODE_EZI2C_CONST_CFG))
  86:Generated_Source\PSoC4/SPI.c ****     /** This global variable stores TX interrupt sources after 
  87:Generated_Source\PSoC4/SPI.c ****     * SPI_Stop() is called. Only these TX interrupt sources 
  88:Generated_Source\PSoC4/SPI.c ****     * will be restored on a subsequent SPI_Enable() call.
ARM GAS  C:\Users\psmus\AppData\Local\Temp\ccwylPuw.s 			page 3


  89:Generated_Source\PSoC4/SPI.c ****     */
  90:Generated_Source\PSoC4/SPI.c ****     uint16 SPI_IntrTxMask = 0u;
  91:Generated_Source\PSoC4/SPI.c **** #endif /* (! (SPI_SCB_MODE_I2C_CONST_CFG || \
  92:Generated_Source\PSoC4/SPI.c ****               SPI_SCB_MODE_EZI2C_CONST_CFG)) */
  93:Generated_Source\PSoC4/SPI.c **** /** \} globals */
  94:Generated_Source\PSoC4/SPI.c **** 
  95:Generated_Source\PSoC4/SPI.c **** #if (SPI_SCB_IRQ_INTERNAL)
  96:Generated_Source\PSoC4/SPI.c **** #if !defined (CY_REMOVE_SPI_CUSTOM_INTR_HANDLER)
  97:Generated_Source\PSoC4/SPI.c ****     void (*SPI_customIntrHandler)(void) = NULL;
  98:Generated_Source\PSoC4/SPI.c **** #endif /* !defined (CY_REMOVE_SPI_CUSTOM_INTR_HANDLER) */
  99:Generated_Source\PSoC4/SPI.c **** #endif /* (SPI_SCB_IRQ_INTERNAL) */
 100:Generated_Source\PSoC4/SPI.c **** 
 101:Generated_Source\PSoC4/SPI.c **** 
 102:Generated_Source\PSoC4/SPI.c **** /***************************************
 103:Generated_Source\PSoC4/SPI.c **** *    Private Function Prototypes
 104:Generated_Source\PSoC4/SPI.c **** ***************************************/
 105:Generated_Source\PSoC4/SPI.c **** 
 106:Generated_Source\PSoC4/SPI.c **** static void SPI_ScbEnableIntr(void);
 107:Generated_Source\PSoC4/SPI.c **** static void SPI_ScbModeStop(void);
 108:Generated_Source\PSoC4/SPI.c **** static void SPI_ScbModePostEnable(void);
 109:Generated_Source\PSoC4/SPI.c **** 
 110:Generated_Source\PSoC4/SPI.c **** 
 111:Generated_Source\PSoC4/SPI.c **** /*******************************************************************************
 112:Generated_Source\PSoC4/SPI.c **** * Function Name: SPI_Init
 113:Generated_Source\PSoC4/SPI.c **** ****************************************************************************//**
 114:Generated_Source\PSoC4/SPI.c **** *
 115:Generated_Source\PSoC4/SPI.c **** *  Initializes the SPI component to operate in one of the selected
 116:Generated_Source\PSoC4/SPI.c **** *  configurations: I2C, SPI, UART or EZI2C.
 117:Generated_Source\PSoC4/SPI.c **** *  When the configuration is set to "Unconfigured SCB", this function does
 118:Generated_Source\PSoC4/SPI.c **** *  not do any initialization. Use mode-specific initialization APIs instead:
 119:Generated_Source\PSoC4/SPI.c **** *  SPI_I2CInit, SPI_SpiInit, 
 120:Generated_Source\PSoC4/SPI.c **** *  SPI_UartInit or SPI_EzI2CInit.
 121:Generated_Source\PSoC4/SPI.c **** *
 122:Generated_Source\PSoC4/SPI.c **** *******************************************************************************/
 123:Generated_Source\PSoC4/SPI.c **** void SPI_Init(void)
 124:Generated_Source\PSoC4/SPI.c **** {
 125:Generated_Source\PSoC4/SPI.c **** #if (SPI_SCB_MODE_UNCONFIG_CONST_CFG)
 126:Generated_Source\PSoC4/SPI.c ****     if (SPI_SCB_MODE_UNCONFIG_RUNTM_CFG)
 127:Generated_Source\PSoC4/SPI.c ****     {
 128:Generated_Source\PSoC4/SPI.c ****         SPI_initVar = 0u;
 129:Generated_Source\PSoC4/SPI.c ****     }
 130:Generated_Source\PSoC4/SPI.c ****     else
 131:Generated_Source\PSoC4/SPI.c ****     {
 132:Generated_Source\PSoC4/SPI.c ****         /* Initialization was done before this function call */
 133:Generated_Source\PSoC4/SPI.c ****     }
 134:Generated_Source\PSoC4/SPI.c **** 
 135:Generated_Source\PSoC4/SPI.c **** #elif (SPI_SCB_MODE_I2C_CONST_CFG)
 136:Generated_Source\PSoC4/SPI.c ****     SPI_I2CInit();
 137:Generated_Source\PSoC4/SPI.c **** 
 138:Generated_Source\PSoC4/SPI.c **** #elif (SPI_SCB_MODE_SPI_CONST_CFG)
 139:Generated_Source\PSoC4/SPI.c ****     SPI_SpiInit();
 140:Generated_Source\PSoC4/SPI.c **** 
 141:Generated_Source\PSoC4/SPI.c **** #elif (SPI_SCB_MODE_UART_CONST_CFG)
 142:Generated_Source\PSoC4/SPI.c ****     SPI_UartInit();
 143:Generated_Source\PSoC4/SPI.c **** 
 144:Generated_Source\PSoC4/SPI.c **** #elif (SPI_SCB_MODE_EZI2C_CONST_CFG)
 145:Generated_Source\PSoC4/SPI.c ****     SPI_EzI2CInit();
ARM GAS  C:\Users\psmus\AppData\Local\Temp\ccwylPuw.s 			page 4


 146:Generated_Source\PSoC4/SPI.c **** 
 147:Generated_Source\PSoC4/SPI.c **** #endif /* (SPI_SCB_MODE_UNCONFIG_CONST_CFG) */
 148:Generated_Source\PSoC4/SPI.c **** }
 149:Generated_Source\PSoC4/SPI.c **** 
 150:Generated_Source\PSoC4/SPI.c **** 
 151:Generated_Source\PSoC4/SPI.c **** /*******************************************************************************
 152:Generated_Source\PSoC4/SPI.c **** * Function Name: SPI_Enable
 153:Generated_Source\PSoC4/SPI.c **** ****************************************************************************//**
 154:Generated_Source\PSoC4/SPI.c **** *
 155:Generated_Source\PSoC4/SPI.c **** *  Enables SPI component operation: activates the hardware and 
 156:Generated_Source\PSoC4/SPI.c **** *  internal interrupt. It also restores TX interrupt sources disabled after the 
 157:Generated_Source\PSoC4/SPI.c **** *  SPI_Stop() function was called (note that level-triggered TX 
 158:Generated_Source\PSoC4/SPI.c **** *  interrupt sources remain disabled to not cause code lock-up).
 159:Generated_Source\PSoC4/SPI.c **** *  For I2C and EZI2C modes the interrupt is internal and mandatory for 
 160:Generated_Source\PSoC4/SPI.c **** *  operation. For SPI and UART modes the interrupt can be configured as none, 
 161:Generated_Source\PSoC4/SPI.c **** *  internal or external.
 162:Generated_Source\PSoC4/SPI.c **** *  The SPI configuration should be not changed when the component
 163:Generated_Source\PSoC4/SPI.c **** *  is enabled. Any configuration changes should be made after disabling the 
 164:Generated_Source\PSoC4/SPI.c **** *  component.
 165:Generated_Source\PSoC4/SPI.c **** *  When configuration is set to “Unconfigured SPI”, the component 
 166:Generated_Source\PSoC4/SPI.c **** *  must first be initialized to operate in one of the following configurations: 
 167:Generated_Source\PSoC4/SPI.c **** *  I2C, SPI, UART or EZ I2C, using the mode-specific initialization API. 
 168:Generated_Source\PSoC4/SPI.c **** *  Otherwise this function does not enable the component.
 169:Generated_Source\PSoC4/SPI.c **** *
 170:Generated_Source\PSoC4/SPI.c **** *******************************************************************************/
 171:Generated_Source\PSoC4/SPI.c **** void SPI_Enable(void)
 172:Generated_Source\PSoC4/SPI.c **** {
 173:Generated_Source\PSoC4/SPI.c **** #if (SPI_SCB_MODE_UNCONFIG_CONST_CFG)
 174:Generated_Source\PSoC4/SPI.c ****     /* Enable SCB block, only if it is already configured */
 175:Generated_Source\PSoC4/SPI.c ****     if (!SPI_SCB_MODE_UNCONFIG_RUNTM_CFG)
 176:Generated_Source\PSoC4/SPI.c ****     {
 177:Generated_Source\PSoC4/SPI.c ****         SPI_CTRL_REG |= SPI_CTRL_ENABLED;
 178:Generated_Source\PSoC4/SPI.c **** 
 179:Generated_Source\PSoC4/SPI.c ****         SPI_ScbEnableIntr();
 180:Generated_Source\PSoC4/SPI.c **** 
 181:Generated_Source\PSoC4/SPI.c ****         /* Call PostEnable function specific to current operation mode */
 182:Generated_Source\PSoC4/SPI.c ****         SPI_ScbModePostEnable();
 183:Generated_Source\PSoC4/SPI.c ****     }
 184:Generated_Source\PSoC4/SPI.c **** #else
 185:Generated_Source\PSoC4/SPI.c ****     SPI_CTRL_REG |= SPI_CTRL_ENABLED;
 186:Generated_Source\PSoC4/SPI.c **** 
 187:Generated_Source\PSoC4/SPI.c ****     SPI_ScbEnableIntr();
 188:Generated_Source\PSoC4/SPI.c **** 
 189:Generated_Source\PSoC4/SPI.c ****     /* Call PostEnable function specific to current operation mode */
 190:Generated_Source\PSoC4/SPI.c ****     SPI_ScbModePostEnable();
 191:Generated_Source\PSoC4/SPI.c **** #endif /* (SPI_SCB_MODE_UNCONFIG_CONST_CFG) */
 192:Generated_Source\PSoC4/SPI.c **** }
 193:Generated_Source\PSoC4/SPI.c **** 
 194:Generated_Source\PSoC4/SPI.c **** 
 195:Generated_Source\PSoC4/SPI.c **** /*******************************************************************************
 196:Generated_Source\PSoC4/SPI.c **** * Function Name: SPI_Start
 197:Generated_Source\PSoC4/SPI.c **** ****************************************************************************//**
 198:Generated_Source\PSoC4/SPI.c **** *
 199:Generated_Source\PSoC4/SPI.c **** *  Invokes SPI_Init() and SPI_Enable().
 200:Generated_Source\PSoC4/SPI.c **** *  After this function call, the component is enabled and ready for operation.
 201:Generated_Source\PSoC4/SPI.c **** *  When configuration is set to "Unconfigured SCB", the component must first be
 202:Generated_Source\PSoC4/SPI.c **** *  initialized to operate in one of the following configurations: I2C, SPI, UART
ARM GAS  C:\Users\psmus\AppData\Local\Temp\ccwylPuw.s 			page 5


 203:Generated_Source\PSoC4/SPI.c **** *  or EZI2C. Otherwise this function does not enable the component.
 204:Generated_Source\PSoC4/SPI.c **** *
 205:Generated_Source\PSoC4/SPI.c **** * \globalvars
 206:Generated_Source\PSoC4/SPI.c **** *  SPI_initVar - used to check initial configuration, modified
 207:Generated_Source\PSoC4/SPI.c **** *  on first function call.
 208:Generated_Source\PSoC4/SPI.c **** *
 209:Generated_Source\PSoC4/SPI.c **** *******************************************************************************/
 210:Generated_Source\PSoC4/SPI.c **** void SPI_Start(void)
 211:Generated_Source\PSoC4/SPI.c **** {
 212:Generated_Source\PSoC4/SPI.c ****     if (0u == SPI_initVar)
 213:Generated_Source\PSoC4/SPI.c ****     {
 214:Generated_Source\PSoC4/SPI.c ****         SPI_Init();
 215:Generated_Source\PSoC4/SPI.c ****         SPI_initVar = 1u; /* Component was initialized */
 216:Generated_Source\PSoC4/SPI.c ****     }
 217:Generated_Source\PSoC4/SPI.c **** 
 218:Generated_Source\PSoC4/SPI.c ****     SPI_Enable();
 219:Generated_Source\PSoC4/SPI.c **** }
 220:Generated_Source\PSoC4/SPI.c **** 
 221:Generated_Source\PSoC4/SPI.c **** 
 222:Generated_Source\PSoC4/SPI.c **** /*******************************************************************************
 223:Generated_Source\PSoC4/SPI.c **** * Function Name: SPI_Stop
 224:Generated_Source\PSoC4/SPI.c **** ****************************************************************************//**
 225:Generated_Source\PSoC4/SPI.c **** *
 226:Generated_Source\PSoC4/SPI.c **** *  Disables the SPI component: disable the hardware and internal 
 227:Generated_Source\PSoC4/SPI.c **** *  interrupt. It also disables all TX interrupt sources so as not to cause an 
 228:Generated_Source\PSoC4/SPI.c **** *  unexpected interrupt trigger because after the component is enabled, the 
 229:Generated_Source\PSoC4/SPI.c **** *  TX FIFO is empty.
 230:Generated_Source\PSoC4/SPI.c **** *  Refer to the function SPI_Enable() for the interrupt 
 231:Generated_Source\PSoC4/SPI.c **** *  configuration details.
 232:Generated_Source\PSoC4/SPI.c **** *  This function disables the SCB component without checking to see if 
 233:Generated_Source\PSoC4/SPI.c **** *  communication is in progress. Before calling this function it may be 
 234:Generated_Source\PSoC4/SPI.c **** *  necessary to check the status of communication to make sure communication 
 235:Generated_Source\PSoC4/SPI.c **** *  is complete. If this is not done then communication could be stopped mid 
 236:Generated_Source\PSoC4/SPI.c **** *  byte and corrupted data could result.
 237:Generated_Source\PSoC4/SPI.c **** *
 238:Generated_Source\PSoC4/SPI.c **** *******************************************************************************/
 239:Generated_Source\PSoC4/SPI.c **** void SPI_Stop(void)
 240:Generated_Source\PSoC4/SPI.c **** {
 241:Generated_Source\PSoC4/SPI.c **** #if (SPI_SCB_IRQ_INTERNAL)
 242:Generated_Source\PSoC4/SPI.c ****     SPI_DisableInt();
 243:Generated_Source\PSoC4/SPI.c **** #endif /* (SPI_SCB_IRQ_INTERNAL) */
 244:Generated_Source\PSoC4/SPI.c **** 
 245:Generated_Source\PSoC4/SPI.c ****     /* Call Stop function specific to current operation mode */
 246:Generated_Source\PSoC4/SPI.c ****     SPI_ScbModeStop();
 247:Generated_Source\PSoC4/SPI.c **** 
 248:Generated_Source\PSoC4/SPI.c ****     /* Disable SCB IP */
 249:Generated_Source\PSoC4/SPI.c ****     SPI_CTRL_REG &= (uint32) ~SPI_CTRL_ENABLED;
 250:Generated_Source\PSoC4/SPI.c **** 
 251:Generated_Source\PSoC4/SPI.c ****     /* Disable all TX interrupt sources so as not to cause an unexpected
 252:Generated_Source\PSoC4/SPI.c ****     * interrupt trigger after the component will be enabled because the 
 253:Generated_Source\PSoC4/SPI.c ****     * TX FIFO is empty.
 254:Generated_Source\PSoC4/SPI.c ****     * For SCB IP v0, it is critical as it does not mask-out interrupt
 255:Generated_Source\PSoC4/SPI.c ****     * sources when it is disabled. This can cause a code lock-up in the
 256:Generated_Source\PSoC4/SPI.c ****     * interrupt handler because TX FIFO cannot be loaded after the block
 257:Generated_Source\PSoC4/SPI.c ****     * is disabled.
 258:Generated_Source\PSoC4/SPI.c ****     */
 259:Generated_Source\PSoC4/SPI.c ****     SPI_SetTxInterruptMode(SPI_NO_INTR_SOURCES);
ARM GAS  C:\Users\psmus\AppData\Local\Temp\ccwylPuw.s 			page 6


 260:Generated_Source\PSoC4/SPI.c **** 
 261:Generated_Source\PSoC4/SPI.c **** #if (SPI_SCB_IRQ_INTERNAL)
 262:Generated_Source\PSoC4/SPI.c ****     SPI_ClearPendingInt();
 263:Generated_Source\PSoC4/SPI.c **** #endif /* (SPI_SCB_IRQ_INTERNAL) */
 264:Generated_Source\PSoC4/SPI.c **** }
 265:Generated_Source\PSoC4/SPI.c **** 
 266:Generated_Source\PSoC4/SPI.c **** 
 267:Generated_Source\PSoC4/SPI.c **** /*******************************************************************************
 268:Generated_Source\PSoC4/SPI.c **** * Function Name: SPI_SetRxFifoLevel
 269:Generated_Source\PSoC4/SPI.c **** ****************************************************************************//**
 270:Generated_Source\PSoC4/SPI.c **** *
 271:Generated_Source\PSoC4/SPI.c **** *  Sets level in the RX FIFO to generate a RX level interrupt.
 272:Generated_Source\PSoC4/SPI.c **** *  When the RX FIFO has more entries than the RX FIFO level an RX level
 273:Generated_Source\PSoC4/SPI.c **** *  interrupt request is generated.
 274:Generated_Source\PSoC4/SPI.c **** *
 275:Generated_Source\PSoC4/SPI.c **** *  \param level: Level in the RX FIFO to generate RX level interrupt.
 276:Generated_Source\PSoC4/SPI.c **** *   The range of valid level values is between 0 and RX FIFO depth - 1.
 277:Generated_Source\PSoC4/SPI.c **** *
 278:Generated_Source\PSoC4/SPI.c **** *******************************************************************************/
 279:Generated_Source\PSoC4/SPI.c **** void SPI_SetRxFifoLevel(uint32 level)
 280:Generated_Source\PSoC4/SPI.c **** {
 281:Generated_Source\PSoC4/SPI.c ****     uint32 rxFifoCtrl;
 282:Generated_Source\PSoC4/SPI.c **** 
 283:Generated_Source\PSoC4/SPI.c ****     rxFifoCtrl = SPI_RX_FIFO_CTRL_REG;
 284:Generated_Source\PSoC4/SPI.c **** 
 285:Generated_Source\PSoC4/SPI.c ****     rxFifoCtrl &= ((uint32) ~SPI_RX_FIFO_CTRL_TRIGGER_LEVEL_MASK); /* Clear level mask bits */
 286:Generated_Source\PSoC4/SPI.c ****     rxFifoCtrl |= ((uint32) (SPI_RX_FIFO_CTRL_TRIGGER_LEVEL_MASK & level));
 287:Generated_Source\PSoC4/SPI.c **** 
 288:Generated_Source\PSoC4/SPI.c ****     SPI_RX_FIFO_CTRL_REG = rxFifoCtrl;
 289:Generated_Source\PSoC4/SPI.c **** }
 290:Generated_Source\PSoC4/SPI.c **** 
 291:Generated_Source\PSoC4/SPI.c **** 
 292:Generated_Source\PSoC4/SPI.c **** /*******************************************************************************
 293:Generated_Source\PSoC4/SPI.c **** * Function Name: SPI_SetTxFifoLevel
 294:Generated_Source\PSoC4/SPI.c **** ****************************************************************************//**
 295:Generated_Source\PSoC4/SPI.c **** *
 296:Generated_Source\PSoC4/SPI.c **** *  Sets level in the TX FIFO to generate a TX level interrupt.
 297:Generated_Source\PSoC4/SPI.c **** *  When the TX FIFO has less entries than the TX FIFO level an TX level
 298:Generated_Source\PSoC4/SPI.c **** *  interrupt request is generated.
 299:Generated_Source\PSoC4/SPI.c **** *
 300:Generated_Source\PSoC4/SPI.c **** *  \param level: Level in the TX FIFO to generate TX level interrupt.
 301:Generated_Source\PSoC4/SPI.c **** *   The range of valid level values is between 0 and TX FIFO depth - 1.
 302:Generated_Source\PSoC4/SPI.c **** *
 303:Generated_Source\PSoC4/SPI.c **** *******************************************************************************/
 304:Generated_Source\PSoC4/SPI.c **** void SPI_SetTxFifoLevel(uint32 level)
 305:Generated_Source\PSoC4/SPI.c **** {
 306:Generated_Source\PSoC4/SPI.c ****     uint32 txFifoCtrl;
 307:Generated_Source\PSoC4/SPI.c **** 
 308:Generated_Source\PSoC4/SPI.c ****     txFifoCtrl = SPI_TX_FIFO_CTRL_REG;
 309:Generated_Source\PSoC4/SPI.c **** 
 310:Generated_Source\PSoC4/SPI.c ****     txFifoCtrl &= ((uint32) ~SPI_TX_FIFO_CTRL_TRIGGER_LEVEL_MASK); /* Clear level mask bits */
 311:Generated_Source\PSoC4/SPI.c ****     txFifoCtrl |= ((uint32) (SPI_TX_FIFO_CTRL_TRIGGER_LEVEL_MASK & level));
 312:Generated_Source\PSoC4/SPI.c **** 
 313:Generated_Source\PSoC4/SPI.c ****     SPI_TX_FIFO_CTRL_REG = txFifoCtrl;
 314:Generated_Source\PSoC4/SPI.c **** }
 315:Generated_Source\PSoC4/SPI.c **** 
 316:Generated_Source\PSoC4/SPI.c **** 
ARM GAS  C:\Users\psmus\AppData\Local\Temp\ccwylPuw.s 			page 7


 317:Generated_Source\PSoC4/SPI.c **** #if (SPI_SCB_IRQ_INTERNAL)
 318:Generated_Source\PSoC4/SPI.c ****     /*******************************************************************************
 319:Generated_Source\PSoC4/SPI.c ****     * Function Name: SPI_SetCustomInterruptHandler
 320:Generated_Source\PSoC4/SPI.c ****     ****************************************************************************//**
 321:Generated_Source\PSoC4/SPI.c ****     *
 322:Generated_Source\PSoC4/SPI.c ****     *  Registers a function to be called by the internal interrupt handler.
 323:Generated_Source\PSoC4/SPI.c ****     *  First the function that is registered is called, then the internal interrupt
 324:Generated_Source\PSoC4/SPI.c ****     *  handler performs any operation such as software buffer management functions
 325:Generated_Source\PSoC4/SPI.c ****     *  before the interrupt returns.  It is the user's responsibility not to break
 326:Generated_Source\PSoC4/SPI.c ****     *  the software buffer operations. Only one custom handler is supported, which
 327:Generated_Source\PSoC4/SPI.c ****     *  is the function provided by the most recent call.
 328:Generated_Source\PSoC4/SPI.c ****     *  At the initialization time no custom handler is registered.
 329:Generated_Source\PSoC4/SPI.c ****     *
 330:Generated_Source\PSoC4/SPI.c ****     *  \param func: Pointer to the function to register.
 331:Generated_Source\PSoC4/SPI.c ****     *        The value NULL indicates to remove the current custom interrupt
 332:Generated_Source\PSoC4/SPI.c ****     *        handler.
 333:Generated_Source\PSoC4/SPI.c ****     *
 334:Generated_Source\PSoC4/SPI.c ****     *******************************************************************************/
 335:Generated_Source\PSoC4/SPI.c ****     void SPI_SetCustomInterruptHandler(void (*func)(void))
 336:Generated_Source\PSoC4/SPI.c ****     {
 337:Generated_Source\PSoC4/SPI.c ****     #if !defined (CY_REMOVE_SPI_CUSTOM_INTR_HANDLER)
 338:Generated_Source\PSoC4/SPI.c ****         SPI_customIntrHandler = func; /* Register interrupt handler */
 339:Generated_Source\PSoC4/SPI.c ****     #else
 340:Generated_Source\PSoC4/SPI.c ****         if (NULL != func)
 341:Generated_Source\PSoC4/SPI.c ****         {
 342:Generated_Source\PSoC4/SPI.c ****             /* Suppress compiler warning */
 343:Generated_Source\PSoC4/SPI.c ****         }
 344:Generated_Source\PSoC4/SPI.c ****     #endif /* !defined (CY_REMOVE_SPI_CUSTOM_INTR_HANDLER) */
 345:Generated_Source\PSoC4/SPI.c ****     }
 346:Generated_Source\PSoC4/SPI.c **** #endif /* (SPI_SCB_IRQ_INTERNAL) */
 347:Generated_Source\PSoC4/SPI.c **** 
 348:Generated_Source\PSoC4/SPI.c **** 
 349:Generated_Source\PSoC4/SPI.c **** /*******************************************************************************
 350:Generated_Source\PSoC4/SPI.c **** * Function Name: SPI_ScbModeEnableIntr
 351:Generated_Source\PSoC4/SPI.c **** ****************************************************************************//**
 352:Generated_Source\PSoC4/SPI.c **** *
 353:Generated_Source\PSoC4/SPI.c **** *  Enables an interrupt for a specific mode.
 354:Generated_Source\PSoC4/SPI.c **** *
 355:Generated_Source\PSoC4/SPI.c **** *******************************************************************************/
 356:Generated_Source\PSoC4/SPI.c **** static void SPI_ScbEnableIntr(void)
 357:Generated_Source\PSoC4/SPI.c **** {
  27              		.loc 1 357 0
  28              		.cfi_startproc
  29              		@ args = 0, pretend = 0, frame = 0
  30              		@ frame_needed = 0, uses_anonymous_args = 0
  31 0000 10B5     		push	{r4, lr}
  32              		.cfi_def_cfa_offset 8
  33              		.cfi_offset 4, -8
  34              		.cfi_offset 14, -4
 358:Generated_Source\PSoC4/SPI.c **** #if (SPI_SCB_IRQ_INTERNAL)
 359:Generated_Source\PSoC4/SPI.c ****     /* Enable interrupt in NVIC */
 360:Generated_Source\PSoC4/SPI.c ****     #if (SPI_SCB_MODE_UNCONFIG_CONST_CFG)
 361:Generated_Source\PSoC4/SPI.c ****         if (0u != SPI_scbEnableIntr)
 362:Generated_Source\PSoC4/SPI.c ****         {
 363:Generated_Source\PSoC4/SPI.c ****             SPI_EnableInt();
 364:Generated_Source\PSoC4/SPI.c ****         }
 365:Generated_Source\PSoC4/SPI.c **** 
ARM GAS  C:\Users\psmus\AppData\Local\Temp\ccwylPuw.s 			page 8


 366:Generated_Source\PSoC4/SPI.c ****     #else
 367:Generated_Source\PSoC4/SPI.c ****         SPI_EnableInt();
  35              		.loc 1 367 0
  36 0002 0A20     		movs	r0, #10
  37 0004 FFF7FEFF 		bl	CyIntEnable
  38              	.LVL0:
 368:Generated_Source\PSoC4/SPI.c **** 
 369:Generated_Source\PSoC4/SPI.c ****     #endif /* (SPI_SCB_MODE_UNCONFIG_CONST_CFG) */
 370:Generated_Source\PSoC4/SPI.c **** #endif /* (SPI_SCB_IRQ_INTERNAL) */
 371:Generated_Source\PSoC4/SPI.c **** }
  39              		.loc 1 371 0
  40              		@ sp needed
  41 0008 10BD     		pop	{r4, pc}
  42              		.cfi_endproc
  43              	.LFE8:
  44              		.size	SPI_ScbEnableIntr, .-SPI_ScbEnableIntr
  45 000a C046     		.section	.text.SPI_ScbModePostEnable,"ax",%progbits
  46              		.align	2
  47              		.code	16
  48              		.thumb_func
  49              		.type	SPI_ScbModePostEnable, %function
  50              	SPI_ScbModePostEnable:
  51              	.LFB9:
 372:Generated_Source\PSoC4/SPI.c **** 
 373:Generated_Source\PSoC4/SPI.c **** 
 374:Generated_Source\PSoC4/SPI.c **** /*******************************************************************************
 375:Generated_Source\PSoC4/SPI.c **** * Function Name: SPI_ScbModePostEnable
 376:Generated_Source\PSoC4/SPI.c **** ****************************************************************************//**
 377:Generated_Source\PSoC4/SPI.c **** *
 378:Generated_Source\PSoC4/SPI.c **** *  Calls the PostEnable function for a specific operation mode.
 379:Generated_Source\PSoC4/SPI.c **** *
 380:Generated_Source\PSoC4/SPI.c **** *******************************************************************************/
 381:Generated_Source\PSoC4/SPI.c **** static void SPI_ScbModePostEnable(void)
 382:Generated_Source\PSoC4/SPI.c **** {
  52              		.loc 1 382 0
  53              		.cfi_startproc
  54              		@ args = 0, pretend = 0, frame = 0
  55              		@ frame_needed = 0, uses_anonymous_args = 0
  56 0000 10B5     		push	{r4, lr}
  57              		.cfi_def_cfa_offset 8
  58              		.cfi_offset 4, -8
  59              		.cfi_offset 14, -4
 383:Generated_Source\PSoC4/SPI.c **** #if (SPI_SCB_MODE_UNCONFIG_CONST_CFG)
 384:Generated_Source\PSoC4/SPI.c **** #if (!SPI_CY_SCBIP_V1)
 385:Generated_Source\PSoC4/SPI.c ****     if (SPI_SCB_MODE_SPI_RUNTM_CFG)
 386:Generated_Source\PSoC4/SPI.c ****     {
 387:Generated_Source\PSoC4/SPI.c ****         SPI_SpiPostEnable();
 388:Generated_Source\PSoC4/SPI.c ****     }
 389:Generated_Source\PSoC4/SPI.c ****     else if (SPI_SCB_MODE_UART_RUNTM_CFG)
 390:Generated_Source\PSoC4/SPI.c ****     {
 391:Generated_Source\PSoC4/SPI.c ****         SPI_UartPostEnable();
 392:Generated_Source\PSoC4/SPI.c ****     }
 393:Generated_Source\PSoC4/SPI.c ****     else
 394:Generated_Source\PSoC4/SPI.c ****     {
 395:Generated_Source\PSoC4/SPI.c ****         /* Unknown mode: do nothing */
 396:Generated_Source\PSoC4/SPI.c ****     }
 397:Generated_Source\PSoC4/SPI.c **** #endif /* (!SPI_CY_SCBIP_V1) */
ARM GAS  C:\Users\psmus\AppData\Local\Temp\ccwylPuw.s 			page 9


 398:Generated_Source\PSoC4/SPI.c **** 
 399:Generated_Source\PSoC4/SPI.c **** #elif (SPI_SCB_MODE_SPI_CONST_CFG)
 400:Generated_Source\PSoC4/SPI.c ****     SPI_SpiPostEnable();
  60              		.loc 1 400 0
  61 0002 FFF7FEFF 		bl	SPI_SpiPostEnable
  62              	.LVL1:
 401:Generated_Source\PSoC4/SPI.c **** 
 402:Generated_Source\PSoC4/SPI.c **** #elif (SPI_SCB_MODE_UART_CONST_CFG)
 403:Generated_Source\PSoC4/SPI.c ****     SPI_UartPostEnable();
 404:Generated_Source\PSoC4/SPI.c **** 
 405:Generated_Source\PSoC4/SPI.c **** #else
 406:Generated_Source\PSoC4/SPI.c ****     /* Unknown mode: do nothing */
 407:Generated_Source\PSoC4/SPI.c **** #endif /* (SPI_SCB_MODE_UNCONFIG_CONST_CFG) */
 408:Generated_Source\PSoC4/SPI.c **** }
  63              		.loc 1 408 0
  64              		@ sp needed
  65 0006 10BD     		pop	{r4, pc}
  66              		.cfi_endproc
  67              	.LFE9:
  68              		.size	SPI_ScbModePostEnable, .-SPI_ScbModePostEnable
  69              		.section	.text.SPI_ScbModeStop,"ax",%progbits
  70              		.align	2
  71              		.code	16
  72              		.thumb_func
  73              		.type	SPI_ScbModeStop, %function
  74              	SPI_ScbModeStop:
  75              	.LFB10:
 409:Generated_Source\PSoC4/SPI.c **** 
 410:Generated_Source\PSoC4/SPI.c **** 
 411:Generated_Source\PSoC4/SPI.c **** /*******************************************************************************
 412:Generated_Source\PSoC4/SPI.c **** * Function Name: SPI_ScbModeStop
 413:Generated_Source\PSoC4/SPI.c **** ****************************************************************************//**
 414:Generated_Source\PSoC4/SPI.c **** *
 415:Generated_Source\PSoC4/SPI.c **** *  Calls the Stop function for a specific operation mode.
 416:Generated_Source\PSoC4/SPI.c **** *
 417:Generated_Source\PSoC4/SPI.c **** *******************************************************************************/
 418:Generated_Source\PSoC4/SPI.c **** static void SPI_ScbModeStop(void)
 419:Generated_Source\PSoC4/SPI.c **** {
  76              		.loc 1 419 0
  77              		.cfi_startproc
  78              		@ args = 0, pretend = 0, frame = 0
  79              		@ frame_needed = 0, uses_anonymous_args = 0
  80 0000 10B5     		push	{r4, lr}
  81              		.cfi_def_cfa_offset 8
  82              		.cfi_offset 4, -8
  83              		.cfi_offset 14, -4
 420:Generated_Source\PSoC4/SPI.c **** #if (SPI_SCB_MODE_UNCONFIG_CONST_CFG)
 421:Generated_Source\PSoC4/SPI.c ****     if (SPI_SCB_MODE_I2C_RUNTM_CFG)
 422:Generated_Source\PSoC4/SPI.c ****     {
 423:Generated_Source\PSoC4/SPI.c ****         SPI_I2CStop();
 424:Generated_Source\PSoC4/SPI.c ****     }
 425:Generated_Source\PSoC4/SPI.c ****     else if (SPI_SCB_MODE_EZI2C_RUNTM_CFG)
 426:Generated_Source\PSoC4/SPI.c ****     {
 427:Generated_Source\PSoC4/SPI.c ****         SPI_EzI2CStop();
 428:Generated_Source\PSoC4/SPI.c ****     }
 429:Generated_Source\PSoC4/SPI.c **** #if (!SPI_CY_SCBIP_V1)
 430:Generated_Source\PSoC4/SPI.c ****     else if (SPI_SCB_MODE_SPI_RUNTM_CFG)
ARM GAS  C:\Users\psmus\AppData\Local\Temp\ccwylPuw.s 			page 10


 431:Generated_Source\PSoC4/SPI.c ****     {
 432:Generated_Source\PSoC4/SPI.c ****         SPI_SpiStop();
 433:Generated_Source\PSoC4/SPI.c ****     }
 434:Generated_Source\PSoC4/SPI.c ****     else if (SPI_SCB_MODE_UART_RUNTM_CFG)
 435:Generated_Source\PSoC4/SPI.c ****     {
 436:Generated_Source\PSoC4/SPI.c ****         SPI_UartStop();
 437:Generated_Source\PSoC4/SPI.c ****     }
 438:Generated_Source\PSoC4/SPI.c **** #endif /* (!SPI_CY_SCBIP_V1) */
 439:Generated_Source\PSoC4/SPI.c ****     else
 440:Generated_Source\PSoC4/SPI.c ****     {
 441:Generated_Source\PSoC4/SPI.c ****         /* Unknown mode: do nothing */
 442:Generated_Source\PSoC4/SPI.c ****     }
 443:Generated_Source\PSoC4/SPI.c **** #elif (SPI_SCB_MODE_I2C_CONST_CFG)
 444:Generated_Source\PSoC4/SPI.c ****     SPI_I2CStop();
 445:Generated_Source\PSoC4/SPI.c **** 
 446:Generated_Source\PSoC4/SPI.c **** #elif (SPI_SCB_MODE_EZI2C_CONST_CFG)
 447:Generated_Source\PSoC4/SPI.c ****     SPI_EzI2CStop();
 448:Generated_Source\PSoC4/SPI.c **** 
 449:Generated_Source\PSoC4/SPI.c **** #elif (SPI_SCB_MODE_SPI_CONST_CFG)
 450:Generated_Source\PSoC4/SPI.c ****     SPI_SpiStop();
  84              		.loc 1 450 0
  85 0002 FFF7FEFF 		bl	SPI_SpiStop
  86              	.LVL2:
 451:Generated_Source\PSoC4/SPI.c **** 
 452:Generated_Source\PSoC4/SPI.c **** #elif (SPI_SCB_MODE_UART_CONST_CFG)
 453:Generated_Source\PSoC4/SPI.c ****     SPI_UartStop();
 454:Generated_Source\PSoC4/SPI.c **** 
 455:Generated_Source\PSoC4/SPI.c **** #else
 456:Generated_Source\PSoC4/SPI.c ****     /* Unknown mode: do nothing */
 457:Generated_Source\PSoC4/SPI.c **** #endif /* (SPI_SCB_MODE_UNCONFIG_CONST_CFG) */
 458:Generated_Source\PSoC4/SPI.c **** }
  87              		.loc 1 458 0
  88              		@ sp needed
  89 0006 10BD     		pop	{r4, pc}
  90              		.cfi_endproc
  91              	.LFE10:
  92              		.size	SPI_ScbModeStop, .-SPI_ScbModeStop
  93              		.section	.text.SPI_Init,"ax",%progbits
  94              		.align	2
  95              		.global	SPI_Init
  96              		.code	16
  97              		.thumb_func
  98              		.type	SPI_Init, %function
  99              	SPI_Init:
 100              	.LFB1:
 124:Generated_Source\PSoC4/SPI.c **** #if (SPI_SCB_MODE_UNCONFIG_CONST_CFG)
 101              		.loc 1 124 0
 102              		.cfi_startproc
 103              		@ args = 0, pretend = 0, frame = 0
 104              		@ frame_needed = 0, uses_anonymous_args = 0
 105 0000 10B5     		push	{r4, lr}
 106              		.cfi_def_cfa_offset 8
 107              		.cfi_offset 4, -8
 108              		.cfi_offset 14, -4
 139:Generated_Source\PSoC4/SPI.c **** 
 109              		.loc 1 139 0
 110 0002 FFF7FEFF 		bl	SPI_SpiInit
ARM GAS  C:\Users\psmus\AppData\Local\Temp\ccwylPuw.s 			page 11


 111              	.LVL3:
 148:Generated_Source\PSoC4/SPI.c **** 
 112              		.loc 1 148 0
 113              		@ sp needed
 114 0006 10BD     		pop	{r4, pc}
 115              		.cfi_endproc
 116              	.LFE1:
 117              		.size	SPI_Init, .-SPI_Init
 118              		.section	.text.SPI_Enable,"ax",%progbits
 119              		.align	2
 120              		.global	SPI_Enable
 121              		.code	16
 122              		.thumb_func
 123              		.type	SPI_Enable, %function
 124              	SPI_Enable:
 125              	.LFB2:
 172:Generated_Source\PSoC4/SPI.c **** #if (SPI_SCB_MODE_UNCONFIG_CONST_CFG)
 126              		.loc 1 172 0
 127              		.cfi_startproc
 128              		@ args = 0, pretend = 0, frame = 0
 129              		@ frame_needed = 0, uses_anonymous_args = 0
 130 0000 10B5     		push	{r4, lr}
 131              		.cfi_def_cfa_offset 8
 132              		.cfi_offset 4, -8
 133              		.cfi_offset 14, -4
 185:Generated_Source\PSoC4/SPI.c **** 
 134              		.loc 1 185 0
 135 0002 054A     		ldr	r2, .L6
 136 0004 1368     		ldr	r3, [r2]
 137 0006 8021     		movs	r1, #128
 138 0008 0906     		lsls	r1, r1, #24
 139 000a 0B43     		orrs	r3, r1
 140 000c 1360     		str	r3, [r2]
 187:Generated_Source\PSoC4/SPI.c **** 
 141              		.loc 1 187 0
 142 000e FFF7FEFF 		bl	SPI_ScbEnableIntr
 143              	.LVL4:
 190:Generated_Source\PSoC4/SPI.c **** #endif /* (SPI_SCB_MODE_UNCONFIG_CONST_CFG) */
 144              		.loc 1 190 0
 145 0012 FFF7FEFF 		bl	SPI_ScbModePostEnable
 146              	.LVL5:
 192:Generated_Source\PSoC4/SPI.c **** 
 147              		.loc 1 192 0
 148              		@ sp needed
 149 0016 10BD     		pop	{r4, pc}
 150              	.L7:
 151              		.align	2
 152              	.L6:
 153 0018 00002540 		.word	1076166656
 154              		.cfi_endproc
 155              	.LFE2:
 156              		.size	SPI_Enable, .-SPI_Enable
 157              		.section	.text.SPI_Start,"ax",%progbits
 158              		.align	2
 159              		.global	SPI_Start
 160              		.code	16
 161              		.thumb_func
ARM GAS  C:\Users\psmus\AppData\Local\Temp\ccwylPuw.s 			page 12


 162              		.type	SPI_Start, %function
 163              	SPI_Start:
 164              	.LFB3:
 211:Generated_Source\PSoC4/SPI.c ****     if (0u == SPI_initVar)
 165              		.loc 1 211 0
 166              		.cfi_startproc
 167              		@ args = 0, pretend = 0, frame = 0
 168              		@ frame_needed = 0, uses_anonymous_args = 0
 169 0000 10B5     		push	{r4, lr}
 170              		.cfi_def_cfa_offset 8
 171              		.cfi_offset 4, -8
 172              		.cfi_offset 14, -4
 212:Generated_Source\PSoC4/SPI.c ****     {
 173              		.loc 1 212 0
 174 0002 064B     		ldr	r3, .L10
 175 0004 1B78     		ldrb	r3, [r3]
 176 0006 002B     		cmp	r3, #0
 177 0008 04D1     		bne	.L9
 214:Generated_Source\PSoC4/SPI.c ****         SPI_initVar = 1u; /* Component was initialized */
 178              		.loc 1 214 0
 179 000a FFF7FEFF 		bl	SPI_Init
 180              	.LVL6:
 215:Generated_Source\PSoC4/SPI.c ****     }
 181              		.loc 1 215 0
 182 000e 0122     		movs	r2, #1
 183 0010 024B     		ldr	r3, .L10
 184 0012 1A70     		strb	r2, [r3]
 185              	.L9:
 218:Generated_Source\PSoC4/SPI.c **** }
 186              		.loc 1 218 0
 187 0014 FFF7FEFF 		bl	SPI_Enable
 188              	.LVL7:
 219:Generated_Source\PSoC4/SPI.c **** 
 189              		.loc 1 219 0
 190              		@ sp needed
 191 0018 10BD     		pop	{r4, pc}
 192              	.L11:
 193 001a C046     		.align	2
 194              	.L10:
 195 001c 00000000 		.word	.LANCHOR0
 196              		.cfi_endproc
 197              	.LFE3:
 198              		.size	SPI_Start, .-SPI_Start
 199              		.section	.text.SPI_Stop,"ax",%progbits
 200              		.align	2
 201              		.global	SPI_Stop
 202              		.code	16
 203              		.thumb_func
 204              		.type	SPI_Stop, %function
 205              	SPI_Stop:
 206              	.LFB4:
 240:Generated_Source\PSoC4/SPI.c **** #if (SPI_SCB_IRQ_INTERNAL)
 207              		.loc 1 240 0
 208              		.cfi_startproc
 209              		@ args = 0, pretend = 0, frame = 0
 210              		@ frame_needed = 0, uses_anonymous_args = 0
 211 0000 10B5     		push	{r4, lr}
ARM GAS  C:\Users\psmus\AppData\Local\Temp\ccwylPuw.s 			page 13


 212              		.cfi_def_cfa_offset 8
 213              		.cfi_offset 4, -8
 214              		.cfi_offset 14, -4
 242:Generated_Source\PSoC4/SPI.c **** #endif /* (SPI_SCB_IRQ_INTERNAL) */
 215              		.loc 1 242 0
 216 0002 0A20     		movs	r0, #10
 217 0004 FFF7FEFF 		bl	CyIntDisable
 218              	.LVL8:
 246:Generated_Source\PSoC4/SPI.c **** 
 219              		.loc 1 246 0
 220 0008 FFF7FEFF 		bl	SPI_ScbModeStop
 221              	.LVL9:
 249:Generated_Source\PSoC4/SPI.c **** 
 222              		.loc 1 249 0
 223 000c 054A     		ldr	r2, .L13
 224 000e 1368     		ldr	r3, [r2]
 225 0010 5B00     		lsls	r3, r3, #1
 226 0012 5B08     		lsrs	r3, r3, #1
 227 0014 1360     		str	r3, [r2]
 259:Generated_Source\PSoC4/SPI.c **** 
 228              		.loc 1 259 0
 229 0016 0022     		movs	r2, #0
 230 0018 034B     		ldr	r3, .L13+4
 231 001a 1A60     		str	r2, [r3]
 262:Generated_Source\PSoC4/SPI.c **** #endif /* (SPI_SCB_IRQ_INTERNAL) */
 232              		.loc 1 262 0
 233 001c 0A20     		movs	r0, #10
 234 001e FFF7FEFF 		bl	CyIntClearPending
 235              	.LVL10:
 264:Generated_Source\PSoC4/SPI.c **** 
 236              		.loc 1 264 0
 237              		@ sp needed
 238 0022 10BD     		pop	{r4, pc}
 239              	.L14:
 240              		.align	2
 241              	.L13:
 242 0024 00002540 		.word	1076166656
 243 0028 880F2540 		.word	1076170632
 244              		.cfi_endproc
 245              	.LFE4:
 246              		.size	SPI_Stop, .-SPI_Stop
 247              		.section	.text.SPI_SetRxFifoLevel,"ax",%progbits
 248              		.align	2
 249              		.global	SPI_SetRxFifoLevel
 250              		.code	16
 251              		.thumb_func
 252              		.type	SPI_SetRxFifoLevel, %function
 253              	SPI_SetRxFifoLevel:
 254              	.LFB5:
 280:Generated_Source\PSoC4/SPI.c ****     uint32 rxFifoCtrl;
 255              		.loc 1 280 0
 256              		.cfi_startproc
 257              		@ args = 0, pretend = 0, frame = 0
 258              		@ frame_needed = 0, uses_anonymous_args = 0
 259              		@ link register save eliminated.
 260              	.LVL11:
 283:Generated_Source\PSoC4/SPI.c **** 
ARM GAS  C:\Users\psmus\AppData\Local\Temp\ccwylPuw.s 			page 14


 261              		.loc 1 283 0
 262 0000 034A     		ldr	r2, .L16
 263 0002 1368     		ldr	r3, [r2]
 264              	.LVL12:
 285:Generated_Source\PSoC4/SPI.c ****     rxFifoCtrl |= ((uint32) (SPI_RX_FIFO_CTRL_TRIGGER_LEVEL_MASK & level));
 265              		.loc 1 285 0
 266 0004 0F21     		movs	r1, #15
 267 0006 8B43     		bics	r3, r1
 268              	.LVL13:
 286:Generated_Source\PSoC4/SPI.c **** 
 269              		.loc 1 286 0
 270 0008 0840     		ands	r0, r1
 271              	.LVL14:
 272 000a 1843     		orrs	r0, r3
 273              	.LVL15:
 288:Generated_Source\PSoC4/SPI.c **** }
 274              		.loc 1 288 0
 275 000c 1060     		str	r0, [r2]
 289:Generated_Source\PSoC4/SPI.c **** 
 276              		.loc 1 289 0
 277              		@ sp needed
 278 000e 7047     		bx	lr
 279              	.L17:
 280              		.align	2
 281              	.L16:
 282 0010 04032540 		.word	1076167428
 283              		.cfi_endproc
 284              	.LFE5:
 285              		.size	SPI_SetRxFifoLevel, .-SPI_SetRxFifoLevel
 286              		.section	.text.SPI_SetTxFifoLevel,"ax",%progbits
 287              		.align	2
 288              		.global	SPI_SetTxFifoLevel
 289              		.code	16
 290              		.thumb_func
 291              		.type	SPI_SetTxFifoLevel, %function
 292              	SPI_SetTxFifoLevel:
 293              	.LFB6:
 305:Generated_Source\PSoC4/SPI.c ****     uint32 txFifoCtrl;
 294              		.loc 1 305 0
 295              		.cfi_startproc
 296              		@ args = 0, pretend = 0, frame = 0
 297              		@ frame_needed = 0, uses_anonymous_args = 0
 298              		@ link register save eliminated.
 299              	.LVL16:
 308:Generated_Source\PSoC4/SPI.c **** 
 300              		.loc 1 308 0
 301 0000 034A     		ldr	r2, .L19
 302 0002 1368     		ldr	r3, [r2]
 303              	.LVL17:
 310:Generated_Source\PSoC4/SPI.c ****     txFifoCtrl |= ((uint32) (SPI_TX_FIFO_CTRL_TRIGGER_LEVEL_MASK & level));
 304              		.loc 1 310 0
 305 0004 0F21     		movs	r1, #15
 306 0006 8B43     		bics	r3, r1
 307              	.LVL18:
 311:Generated_Source\PSoC4/SPI.c **** 
 308              		.loc 1 311 0
 309 0008 0840     		ands	r0, r1
ARM GAS  C:\Users\psmus\AppData\Local\Temp\ccwylPuw.s 			page 15


 310              	.LVL19:
 311 000a 1843     		orrs	r0, r3
 312              	.LVL20:
 313:Generated_Source\PSoC4/SPI.c **** }
 313              		.loc 1 313 0
 314 000c 1060     		str	r0, [r2]
 314:Generated_Source\PSoC4/SPI.c **** 
 315              		.loc 1 314 0
 316              		@ sp needed
 317 000e 7047     		bx	lr
 318              	.L20:
 319              		.align	2
 320              	.L19:
 321 0010 04022540 		.word	1076167172
 322              		.cfi_endproc
 323              	.LFE6:
 324              		.size	SPI_SetTxFifoLevel, .-SPI_SetTxFifoLevel
 325              		.section	.text.SPI_SetCustomInterruptHandler,"ax",%progbits
 326              		.align	2
 327              		.global	SPI_SetCustomInterruptHandler
 328              		.code	16
 329              		.thumb_func
 330              		.type	SPI_SetCustomInterruptHandler, %function
 331              	SPI_SetCustomInterruptHandler:
 332              	.LFB7:
 336:Generated_Source\PSoC4/SPI.c ****     #if !defined (CY_REMOVE_SPI_CUSTOM_INTR_HANDLER)
 333              		.loc 1 336 0
 334              		.cfi_startproc
 335              		@ args = 0, pretend = 0, frame = 0
 336              		@ frame_needed = 0, uses_anonymous_args = 0
 337              		@ link register save eliminated.
 338              	.LVL21:
 338:Generated_Source\PSoC4/SPI.c ****     #else
 339              		.loc 1 338 0
 340 0000 014B     		ldr	r3, .L22
 341 0002 5860     		str	r0, [r3, #4]
 345:Generated_Source\PSoC4/SPI.c **** #endif /* (SPI_SCB_IRQ_INTERNAL) */
 342              		.loc 1 345 0
 343              		@ sp needed
 344 0004 7047     		bx	lr
 345              	.L23:
 346 0006 C046     		.align	2
 347              	.L22:
 348 0008 00000000 		.word	.LANCHOR0
 349              		.cfi_endproc
 350              	.LFE7:
 351              		.size	SPI_SetCustomInterruptHandler, .-SPI_SetCustomInterruptHandler
 352              		.global	SPI_customIntrHandler
 353              		.global	SPI_IntrTxMask
 354              		.global	SPI_initVar
 355              		.bss
 356              		.align	2
 357              		.set	.LANCHOR0,. + 0
 358              		.type	SPI_initVar, %object
 359              		.size	SPI_initVar, 1
 360              	SPI_initVar:
 361 0000 00       		.space	1
ARM GAS  C:\Users\psmus\AppData\Local\Temp\ccwylPuw.s 			page 16


 362 0001 000000   		.space	3
 363              		.type	SPI_customIntrHandler, %object
 364              		.size	SPI_customIntrHandler, 4
 365              	SPI_customIntrHandler:
 366 0004 00000000 		.space	4
 367              		.type	SPI_IntrTxMask, %object
 368              		.size	SPI_IntrTxMask, 2
 369              	SPI_IntrTxMask:
 370 0008 0000     		.space	2
 371              		.text
 372              	.Letext0:
 373              		.file 2 "Generated_Source\\PSoC4/cytypes.h"
 374              		.file 3 "Generated_Source\\PSoC4/CyLib.h"
 375              		.file 4 "Generated_Source\\PSoC4\\SPI_SPI_UART_PVT.h"