ARM GAS  C:\Users\psmus\AppData\Local\Temp\ccpTkKC1.s 			page 1


   1              		.syntax unified
   2              		.cpu cortex-m0
   3              		.fpu softvfp
   4              		.eabi_attribute 20, 1
   5              		.eabi_attribute 21, 1
   6              		.eabi_attribute 23, 3
   7              		.eabi_attribute 24, 1
   8              		.eabi_attribute 25, 1
   9              		.eabi_attribute 26, 1
  10              		.eabi_attribute 30, 1
  11              		.eabi_attribute 34, 0
  12              		.eabi_attribute 18, 4
  13              		.thumb
  14              		.syntax unified
  15              		.file	"USB_episr.c"
  16              		.text
  17              	.Ltext0:
  18              		.cfi_sections	.debug_frame
  19              		.section	.text.USB_EP_1_ISR,"ax",%progbits
  20              		.align	2
  21              		.global	USB_EP_1_ISR
  22              		.code	16
  23              		.thumb_func
  24              		.type	USB_EP_1_ISR, %function
  25              	USB_EP_1_ISR:
  26              	.LFB1:
  27              		.file 1 "Generated_Source\\PSoC4\\USB_episr.c"
   1:Generated_Source\PSoC4/USB_episr.c **** /***************************************************************************//**
   2:Generated_Source\PSoC4/USB_episr.c **** * \file USB_episr.c
   3:Generated_Source\PSoC4/USB_episr.c **** * \version 3.20
   4:Generated_Source\PSoC4/USB_episr.c **** *
   5:Generated_Source\PSoC4/USB_episr.c **** * \brief
   6:Generated_Source\PSoC4/USB_episr.c **** *  This file contains the Data endpoint Interrupt Service Routines.
   7:Generated_Source\PSoC4/USB_episr.c **** *
   8:Generated_Source\PSoC4/USB_episr.c **** ********************************************************************************
   9:Generated_Source\PSoC4/USB_episr.c **** * \copyright
  10:Generated_Source\PSoC4/USB_episr.c **** * Copyright 2008-2016, Cypress Semiconductor Corporation.  All rights reserved.
  11:Generated_Source\PSoC4/USB_episr.c **** * You may use this file only in accordance with the license, terms, conditions,
  12:Generated_Source\PSoC4/USB_episr.c **** * disclaimers, and limitations in the end user license agreement accompanying
  13:Generated_Source\PSoC4/USB_episr.c **** * the software package with which this file was provided.
  14:Generated_Source\PSoC4/USB_episr.c **** *******************************************************************************/
  15:Generated_Source\PSoC4/USB_episr.c **** 
  16:Generated_Source\PSoC4/USB_episr.c **** #include "USB_pvt.h"
  17:Generated_Source\PSoC4/USB_episr.c **** #include "USB_cydmac.h"
  18:Generated_Source\PSoC4/USB_episr.c **** #include "cyapicallbacks.h"
  19:Generated_Source\PSoC4/USB_episr.c **** 
  20:Generated_Source\PSoC4/USB_episr.c **** 
  21:Generated_Source\PSoC4/USB_episr.c **** /***************************************
  22:Generated_Source\PSoC4/USB_episr.c **** * Custom Declarations
  23:Generated_Source\PSoC4/USB_episr.c **** ***************************************/
  24:Generated_Source\PSoC4/USB_episr.c **** /* `#START CUSTOM_DECLARATIONS` Place your declaration here */
  25:Generated_Source\PSoC4/USB_episr.c **** 
  26:Generated_Source\PSoC4/USB_episr.c **** /* `#END` */
  27:Generated_Source\PSoC4/USB_episr.c **** 
  28:Generated_Source\PSoC4/USB_episr.c **** 
  29:Generated_Source\PSoC4/USB_episr.c **** #if (USB_EP1_ISR_ACTIVE)
  30:Generated_Source\PSoC4/USB_episr.c ****     /******************************************************************************
ARM GAS  C:\Users\psmus\AppData\Local\Temp\ccpTkKC1.s 			page 2


  31:Generated_Source\PSoC4/USB_episr.c ****     * Function Name: USB_EP_1_ISR
  32:Generated_Source\PSoC4/USB_episr.c ****     ***************************************************************************//**
  33:Generated_Source\PSoC4/USB_episr.c ****     *
  34:Generated_Source\PSoC4/USB_episr.c ****     *  Endpoint 1 Interrupt Service Routine
  35:Generated_Source\PSoC4/USB_episr.c ****     *
  36:Generated_Source\PSoC4/USB_episr.c ****     ******************************************************************************/
  37:Generated_Source\PSoC4/USB_episr.c ****     CY_ISR(USB_EP_1_ISR)
  38:Generated_Source\PSoC4/USB_episr.c ****     {
  28              		.loc 1 38 0
  29              		.cfi_startproc
  30              		@ args = 0, pretend = 0, frame = 0
  31              		@ frame_needed = 0, uses_anonymous_args = 0
  32              		@ link register save eliminated.
  39:Generated_Source\PSoC4/USB_episr.c **** 
  40:Generated_Source\PSoC4/USB_episr.c ****     #ifdef USB_EP_1_ISR_ENTRY_CALLBACK
  41:Generated_Source\PSoC4/USB_episr.c ****         USB_EP_1_ISR_EntryCallback();
  42:Generated_Source\PSoC4/USB_episr.c ****     #endif /* (USB_EP_1_ISR_ENTRY_CALLBACK) */
  43:Generated_Source\PSoC4/USB_episr.c **** 
  44:Generated_Source\PSoC4/USB_episr.c ****         /* `#START EP1_USER_CODE` Place your code here */
  45:Generated_Source\PSoC4/USB_episr.c **** 
  46:Generated_Source\PSoC4/USB_episr.c ****         /* `#END` */
  47:Generated_Source\PSoC4/USB_episr.c **** 
  48:Generated_Source\PSoC4/USB_episr.c ****     #if (CY_PSOC3 && defined(USB_ENABLE_MIDI_STREAMING) && \
  49:Generated_Source\PSoC4/USB_episr.c ****         !defined(USB_MAIN_SERVICE_MIDI_OUT) && USB_ISR_SERVICE_MIDI_OUT)
  50:Generated_Source\PSoC4/USB_episr.c ****         {
  51:Generated_Source\PSoC4/USB_episr.c ****             uint8 intEn = EA;
  52:Generated_Source\PSoC4/USB_episr.c ****             CyGlobalIntEnable;  /* Enable nested interrupts. */
  53:Generated_Source\PSoC4/USB_episr.c ****     #endif /* (CY_PSOC3 && USB_ISR_SERVICE_MIDI_OUT) */
  54:Generated_Source\PSoC4/USB_episr.c ****     
  55:Generated_Source\PSoC4/USB_episr.c ****         USB_ClearSieEpInterruptSource(USB_SIE_INT_EP1_INTR);
  33              		.loc 1 55 0
  34 0000 0122     		movs	r2, #1
  35 0002 0A4B     		ldr	r3, .L3
  36 0004 1A60     		str	r2, [r3]
  56:Generated_Source\PSoC4/USB_episr.c ****             
  57:Generated_Source\PSoC4/USB_episr.c ****         /* Notifies user that transfer IN or OUT transfer is completed.
  58:Generated_Source\PSoC4/USB_episr.c ****         * IN endpoint: endpoint buffer can be reloaded, Host is read data.
  59:Generated_Source\PSoC4/USB_episr.c ****         * OUT endpoint: data is ready to be read from endpoint buffer. 
  60:Generated_Source\PSoC4/USB_episr.c ****         */
  61:Generated_Source\PSoC4/USB_episr.c ****     #if (CY_PSOC4 && USB_EP_MANAGEMENT_DMA_AUTO)
  62:Generated_Source\PSoC4/USB_episr.c ****         if (0u != (USB_EP[USB_EP1].addr & USB_DIR_IN))
  63:Generated_Source\PSoC4/USB_episr.c ****     #endif /* (CY_PSOC4 && USB_EP_MANAGEMENT_DMA_AUTO) */
  64:Generated_Source\PSoC4/USB_episr.c ****         {
  65:Generated_Source\PSoC4/USB_episr.c ****             /* Read CR0 register to clear SIE lock. */
  66:Generated_Source\PSoC4/USB_episr.c ****             (void) USB_SIE_EP_BASE.sieEp[USB_EP1].epCr0;
  37              		.loc 1 66 0
  38 0006 0A4B     		ldr	r3, .L3+4
  39 0008 9B6C     		ldr	r3, [r3, #72]
  67:Generated_Source\PSoC4/USB_episr.c ****             
  68:Generated_Source\PSoC4/USB_episr.c ****             /* Toggle all endpoint types except ISOC. */
  69:Generated_Source\PSoC4/USB_episr.c ****             if (USB_GET_EP_TYPE(USB_EP1) != USB_EP_TYPE_ISOC)
  40              		.loc 1 69 0
  41 000a 0A4B     		ldr	r3, .L3+8
  42 000c 1A7B     		ldrb	r2, [r3, #12]
  43 000e 0323     		movs	r3, #3
  44 0010 1340     		ands	r3, r2
  45 0012 012B     		cmp	r3, #1
ARM GAS  C:\Users\psmus\AppData\Local\Temp\ccpTkKC1.s 			page 3


  46 0014 06D0     		beq	.L2
  70:Generated_Source\PSoC4/USB_episr.c ****             {
  71:Generated_Source\PSoC4/USB_episr.c ****                 USB_EP[USB_EP1].epToggle ^= USB_EPX_CNT_DATA_TOGGLE;
  47              		.loc 1 71 0
  48 0016 074A     		ldr	r2, .L3+8
  49 0018 D17B     		ldrb	r1, [r2, #15]
  50 001a 8023     		movs	r3, #128
  51 001c 5B42     		rsbs	r3, r3, #0
  52 001e 4B40     		eors	r3, r1
  53 0020 DBB2     		uxtb	r3, r3
  54 0022 D373     		strb	r3, [r2, #15]
  55              	.L2:
  72:Generated_Source\PSoC4/USB_episr.c ****             }
  73:Generated_Source\PSoC4/USB_episr.c **** 
  74:Generated_Source\PSoC4/USB_episr.c ****             /* EP_MANAGEMENT_DMA_AUTO (Ticket ID# 214187): For OUT endpoint this event is used to n
  75:Generated_Source\PSoC4/USB_episr.c ****             * user that DMA has completed copying data from OUT endpoint which is not completely tr
  76:Generated_Source\PSoC4/USB_episr.c ****             * Because last chunk of data is being copied.
  77:Generated_Source\PSoC4/USB_episr.c ****             * For CY_PSOC 3/5LP: it is acceptable as DMA is really fast.
  78:Generated_Source\PSoC4/USB_episr.c ****             * For CY_PSOC4: this event is set in Arbiter interrupt (source is DMA_TERMIN).
  79:Generated_Source\PSoC4/USB_episr.c ****             */
  80:Generated_Source\PSoC4/USB_episr.c ****             USB_EP[USB_EP1].apiEpState = USB_EVENT_PENDING;
  56              		.loc 1 80 0
  57 0024 0122     		movs	r2, #1
  58 0026 034B     		ldr	r3, .L3+8
  59 0028 5A73     		strb	r2, [r3, #13]
  81:Generated_Source\PSoC4/USB_episr.c ****         }
  82:Generated_Source\PSoC4/USB_episr.c **** 
  83:Generated_Source\PSoC4/USB_episr.c ****     #if (!(CY_PSOC4 && USB_EP_MANAGEMENT_DMA_AUTO))
  84:Generated_Source\PSoC4/USB_episr.c ****         #if (defined(USB_ENABLE_MIDI_STREAMING) && \
  85:Generated_Source\PSoC4/USB_episr.c ****             !defined(USB_MAIN_SERVICE_MIDI_OUT) && USB_ISR_SERVICE_MIDI_OUT)
  86:Generated_Source\PSoC4/USB_episr.c ****             if (USB_midi_out_ep == USB_EP1)
  87:Generated_Source\PSoC4/USB_episr.c ****             {
  88:Generated_Source\PSoC4/USB_episr.c ****                 USB_MIDI_OUT_Service();
  89:Generated_Source\PSoC4/USB_episr.c ****             }
  90:Generated_Source\PSoC4/USB_episr.c ****         #endif /* (USB_ISR_SERVICE_MIDI_OUT) */
  91:Generated_Source\PSoC4/USB_episr.c ****     #endif /* (!(CY_PSOC4 && USB_EP_MANAGEMENT_DMA_AUTO)) */
  92:Generated_Source\PSoC4/USB_episr.c ****     
  93:Generated_Source\PSoC4/USB_episr.c ****         /* `#START EP1_END_USER_CODE` Place your code here */
  94:Generated_Source\PSoC4/USB_episr.c **** 
  95:Generated_Source\PSoC4/USB_episr.c ****         /* `#END` */
  96:Generated_Source\PSoC4/USB_episr.c **** 
  97:Generated_Source\PSoC4/USB_episr.c ****     #ifdef USB_EP_1_ISR_EXIT_CALLBACK
  98:Generated_Source\PSoC4/USB_episr.c ****         USB_EP_1_ISR_ExitCallback();
  99:Generated_Source\PSoC4/USB_episr.c ****     #endif /* (USB_EP_1_ISR_EXIT_CALLBACK) */
 100:Generated_Source\PSoC4/USB_episr.c **** 
 101:Generated_Source\PSoC4/USB_episr.c ****     #if (CY_PSOC3 && defined(USB_ENABLE_MIDI_STREAMING) && \
 102:Generated_Source\PSoC4/USB_episr.c ****         !defined(USB_MAIN_SERVICE_MIDI_OUT) && USB_ISR_SERVICE_MIDI_OUT)
 103:Generated_Source\PSoC4/USB_episr.c ****         
 104:Generated_Source\PSoC4/USB_episr.c ****             EA = intEn; /* Restore nested interrupt configuration. */
 105:Generated_Source\PSoC4/USB_episr.c ****         }
 106:Generated_Source\PSoC4/USB_episr.c ****     #endif /* (CY_PSOC3 && USB_ISR_SERVICE_MIDI_OUT) */
 107:Generated_Source\PSoC4/USB_episr.c ****     }
  60              		.loc 1 107 0
  61              		@ sp needed
  62 002a 7047     		bx	lr
  63              	.L4:
  64              		.align	2
ARM GAS  C:\Users\psmus\AppData\Local\Temp\ccpTkKC1.s 			page 4


  65              	.L3:
  66 002c 2C002C40 		.word	1076625452
  67 0030 F0FF2B40 		.word	1076625392
  68 0034 00000000 		.word	USB_EP
  69              		.cfi_endproc
  70              	.LFE1:
  71              		.size	USB_EP_1_ISR, .-USB_EP_1_ISR
  72              		.section	.text.USB_EP_2_ISR,"ax",%progbits
  73              		.align	2
  74              		.global	USB_EP_2_ISR
  75              		.code	16
  76              		.thumb_func
  77              		.type	USB_EP_2_ISR, %function
  78              	USB_EP_2_ISR:
  79              	.LFB2:
 108:Generated_Source\PSoC4/USB_episr.c **** 
 109:Generated_Source\PSoC4/USB_episr.c **** #endif /* (USB_EP1_ISR_ACTIVE) */
 110:Generated_Source\PSoC4/USB_episr.c **** 
 111:Generated_Source\PSoC4/USB_episr.c **** 
 112:Generated_Source\PSoC4/USB_episr.c **** #if (USB_EP2_ISR_ACTIVE)
 113:Generated_Source\PSoC4/USB_episr.c ****     /*******************************************************************************
 114:Generated_Source\PSoC4/USB_episr.c ****     * Function Name: USB_EP_2_ISR
 115:Generated_Source\PSoC4/USB_episr.c ****     ****************************************************************************//**
 116:Generated_Source\PSoC4/USB_episr.c ****     *
 117:Generated_Source\PSoC4/USB_episr.c ****     *  Endpoint 2 Interrupt Service Routine.
 118:Generated_Source\PSoC4/USB_episr.c ****     *
 119:Generated_Source\PSoC4/USB_episr.c ****     *******************************************************************************/
 120:Generated_Source\PSoC4/USB_episr.c ****     CY_ISR(USB_EP_2_ISR)
 121:Generated_Source\PSoC4/USB_episr.c ****     {
  80              		.loc 1 121 0
  81              		.cfi_startproc
  82              		@ args = 0, pretend = 0, frame = 0
  83              		@ frame_needed = 0, uses_anonymous_args = 0
  84              		@ link register save eliminated.
 122:Generated_Source\PSoC4/USB_episr.c ****     #ifdef USB_EP_2_ISR_ENTRY_CALLBACK
 123:Generated_Source\PSoC4/USB_episr.c ****         USB_EP_2_ISR_EntryCallback();
 124:Generated_Source\PSoC4/USB_episr.c ****     #endif /* (USB_EP_2_ISR_ENTRY_CALLBACK) */
 125:Generated_Source\PSoC4/USB_episr.c **** 
 126:Generated_Source\PSoC4/USB_episr.c ****         /* `#START EP2_USER_CODE` Place your code here */
 127:Generated_Source\PSoC4/USB_episr.c **** 
 128:Generated_Source\PSoC4/USB_episr.c ****         /* `#END` */
 129:Generated_Source\PSoC4/USB_episr.c **** 
 130:Generated_Source\PSoC4/USB_episr.c ****     #if (CY_PSOC3 && defined(USB_ENABLE_MIDI_STREAMING) && \
 131:Generated_Source\PSoC4/USB_episr.c ****         !defined(USB_MAIN_SERVICE_MIDI_OUT) && USB_ISR_SERVICE_MIDI_OUT)
 132:Generated_Source\PSoC4/USB_episr.c ****         {
 133:Generated_Source\PSoC4/USB_episr.c ****             uint8 intEn = EA;
 134:Generated_Source\PSoC4/USB_episr.c ****             CyGlobalIntEnable;  /* Enable nested interrupts. */
 135:Generated_Source\PSoC4/USB_episr.c ****     #endif /* (CY_PSOC3 && USB_ISR_SERVICE_MIDI_OUT) */
 136:Generated_Source\PSoC4/USB_episr.c **** 
 137:Generated_Source\PSoC4/USB_episr.c ****         USB_ClearSieEpInterruptSource(USB_SIE_INT_EP2_INTR);
  85              		.loc 1 137 0
  86 0000 0222     		movs	r2, #2
  87 0002 0B4B     		ldr	r3, .L7
  88 0004 1A60     		str	r2, [r3]
 138:Generated_Source\PSoC4/USB_episr.c **** 
 139:Generated_Source\PSoC4/USB_episr.c ****         /* Notifies user that transfer IN or OUT transfer is completed.
 140:Generated_Source\PSoC4/USB_episr.c ****         * IN endpoint: endpoint buffer can be reloaded, Host is read data.
ARM GAS  C:\Users\psmus\AppData\Local\Temp\ccpTkKC1.s 			page 5


 141:Generated_Source\PSoC4/USB_episr.c ****         * OUT endpoint: data is ready to be read from endpoint buffer. 
 142:Generated_Source\PSoC4/USB_episr.c ****         */
 143:Generated_Source\PSoC4/USB_episr.c ****     #if (CY_PSOC4 && USB_EP_MANAGEMENT_DMA_AUTO)
 144:Generated_Source\PSoC4/USB_episr.c ****         if (0u != (USB_EP[USB_EP2].addr & USB_DIR_IN))
 145:Generated_Source\PSoC4/USB_episr.c ****     #endif /* (CY_PSOC4 && USB_EP_MANAGEMENT_DMA_AUTO) */
 146:Generated_Source\PSoC4/USB_episr.c ****         {            
 147:Generated_Source\PSoC4/USB_episr.c ****             /* Read CR0 register to clear SIE lock. */
 148:Generated_Source\PSoC4/USB_episr.c ****             (void) USB_SIE_EP_BASE.sieEp[USB_EP2].epCr0;
  89              		.loc 1 148 0
  90 0006 8823     		movs	r3, #136
  91 0008 0A4A     		ldr	r2, .L7+4
  92 000a D358     		ldr	r3, [r2, r3]
 149:Generated_Source\PSoC4/USB_episr.c ****             
 150:Generated_Source\PSoC4/USB_episr.c ****             /* Toggle all endpoint types except ISOC. */
 151:Generated_Source\PSoC4/USB_episr.c ****             if (USB_GET_EP_TYPE(USB_EP2) != USB_EP_TYPE_ISOC)
  93              		.loc 1 151 0
  94 000c 0A4B     		ldr	r3, .L7+8
  95 000e 1A7E     		ldrb	r2, [r3, #24]
  96 0010 0323     		movs	r3, #3
  97 0012 1340     		ands	r3, r2
  98 0014 012B     		cmp	r3, #1
  99 0016 06D0     		beq	.L6
 152:Generated_Source\PSoC4/USB_episr.c ****             {
 153:Generated_Source\PSoC4/USB_episr.c ****                 USB_EP[USB_EP2].epToggle ^= USB_EPX_CNT_DATA_TOGGLE;
 100              		.loc 1 153 0
 101 0018 074A     		ldr	r2, .L7+8
 102 001a D17E     		ldrb	r1, [r2, #27]
 103 001c 8023     		movs	r3, #128
 104 001e 5B42     		rsbs	r3, r3, #0
 105 0020 4B40     		eors	r3, r1
 106 0022 DBB2     		uxtb	r3, r3
 107 0024 D376     		strb	r3, [r2, #27]
 108              	.L6:
 154:Generated_Source\PSoC4/USB_episr.c ****             }
 155:Generated_Source\PSoC4/USB_episr.c **** 
 156:Generated_Source\PSoC4/USB_episr.c ****             /* EP_MANAGEMENT_DMA_AUTO (Ticket ID# 214187): For OUT endpoint this event is used to n
 157:Generated_Source\PSoC4/USB_episr.c ****             * user that DMA has completed copying data from OUT endpoint which is not completely tr
 158:Generated_Source\PSoC4/USB_episr.c ****             * Because last chunk of data is being copied.
 159:Generated_Source\PSoC4/USB_episr.c ****             * For CY_PSOC 3/5LP: it is acceptable as DMA is really fast.
 160:Generated_Source\PSoC4/USB_episr.c ****             * For CY_PSOC4: this event is set in Arbiter interrupt (source is DMA_TERMIN).
 161:Generated_Source\PSoC4/USB_episr.c ****             */
 162:Generated_Source\PSoC4/USB_episr.c ****             USB_EP[USB_EP2].apiEpState = USB_EVENT_PENDING;
 109              		.loc 1 162 0
 110 0026 0122     		movs	r2, #1
 111 0028 034B     		ldr	r3, .L7+8
 112 002a 5A76     		strb	r2, [r3, #25]
 163:Generated_Source\PSoC4/USB_episr.c ****         }
 164:Generated_Source\PSoC4/USB_episr.c **** 
 165:Generated_Source\PSoC4/USB_episr.c ****     #if (!(CY_PSOC4 && USB_EP_MANAGEMENT_DMA_AUTO))
 166:Generated_Source\PSoC4/USB_episr.c ****         #if (defined(USB_ENABLE_MIDI_STREAMING) && \
 167:Generated_Source\PSoC4/USB_episr.c ****             !defined(USB_MAIN_SERVICE_MIDI_OUT) && USB_ISR_SERVICE_MIDI_OUT)
 168:Generated_Source\PSoC4/USB_episr.c ****             if (USB_midi_out_ep == USB_EP2)
 169:Generated_Source\PSoC4/USB_episr.c ****             {
 170:Generated_Source\PSoC4/USB_episr.c ****                 USB_MIDI_OUT_Service();
 171:Generated_Source\PSoC4/USB_episr.c ****             }
 172:Generated_Source\PSoC4/USB_episr.c ****         #endif /* (USB_ISR_SERVICE_MIDI_OUT) */
 173:Generated_Source\PSoC4/USB_episr.c ****     #endif /* (!(CY_PSOC4 && USB_EP_MANAGEMENT_DMA_AUTO)) */        
ARM GAS  C:\Users\psmus\AppData\Local\Temp\ccpTkKC1.s 			page 6


 174:Generated_Source\PSoC4/USB_episr.c ****     
 175:Generated_Source\PSoC4/USB_episr.c ****         /* `#START EP2_END_USER_CODE` Place your code here */
 176:Generated_Source\PSoC4/USB_episr.c **** 
 177:Generated_Source\PSoC4/USB_episr.c ****         /* `#END` */
 178:Generated_Source\PSoC4/USB_episr.c **** 
 179:Generated_Source\PSoC4/USB_episr.c ****     #ifdef USB_EP_2_ISR_EXIT_CALLBACK
 180:Generated_Source\PSoC4/USB_episr.c ****         USB_EP_2_ISR_ExitCallback();
 181:Generated_Source\PSoC4/USB_episr.c ****     #endif /* (USB_EP_2_ISR_EXIT_CALLBACK) */
 182:Generated_Source\PSoC4/USB_episr.c **** 
 183:Generated_Source\PSoC4/USB_episr.c ****     #if (CY_PSOC3 && defined(USB_ENABLE_MIDI_STREAMING) && \
 184:Generated_Source\PSoC4/USB_episr.c ****         !defined(USB_MAIN_SERVICE_MIDI_OUT) && USB_ISR_SERVICE_MIDI_OUT)
 185:Generated_Source\PSoC4/USB_episr.c ****         
 186:Generated_Source\PSoC4/USB_episr.c ****             EA = intEn; /* Restore nested interrupt configuration. */
 187:Generated_Source\PSoC4/USB_episr.c ****         }
 188:Generated_Source\PSoC4/USB_episr.c ****     #endif /* (CY_PSOC3 && USB_ISR_SERVICE_MIDI_OUT) */
 189:Generated_Source\PSoC4/USB_episr.c ****     }
 113              		.loc 1 189 0
 114              		@ sp needed
 115 002c 7047     		bx	lr
 116              	.L8:
 117 002e C046     		.align	2
 118              	.L7:
 119 0030 2C002C40 		.word	1076625452
 120 0034 F0FF2B40 		.word	1076625392
 121 0038 00000000 		.word	USB_EP
 122              		.cfi_endproc
 123              	.LFE2:
 124              		.size	USB_EP_2_ISR, .-USB_EP_2_ISR
 125              		.section	.text.USB_SOF_ISR,"ax",%progbits
 126              		.align	2
 127              		.global	USB_SOF_ISR
 128              		.code	16
 129              		.thumb_func
 130              		.type	USB_SOF_ISR, %function
 131              	USB_SOF_ISR:
 132              	.LFB3:
 190:Generated_Source\PSoC4/USB_episr.c **** #endif /* (USB_EP2_ISR_ACTIVE) */
 191:Generated_Source\PSoC4/USB_episr.c **** 
 192:Generated_Source\PSoC4/USB_episr.c **** 
 193:Generated_Source\PSoC4/USB_episr.c **** #if (USB_EP3_ISR_ACTIVE)
 194:Generated_Source\PSoC4/USB_episr.c ****     /*******************************************************************************
 195:Generated_Source\PSoC4/USB_episr.c ****     * Function Name: USB_EP_3_ISR
 196:Generated_Source\PSoC4/USB_episr.c ****     ****************************************************************************//**
 197:Generated_Source\PSoC4/USB_episr.c ****     *
 198:Generated_Source\PSoC4/USB_episr.c ****     *  Endpoint 3 Interrupt Service Routine.
 199:Generated_Source\PSoC4/USB_episr.c ****     *
 200:Generated_Source\PSoC4/USB_episr.c ****     *******************************************************************************/
 201:Generated_Source\PSoC4/USB_episr.c ****     CY_ISR(USB_EP_3_ISR)
 202:Generated_Source\PSoC4/USB_episr.c ****     {
 203:Generated_Source\PSoC4/USB_episr.c ****     #ifdef USB_EP_3_ISR_ENTRY_CALLBACK
 204:Generated_Source\PSoC4/USB_episr.c ****         USB_EP_3_ISR_EntryCallback();
 205:Generated_Source\PSoC4/USB_episr.c ****     #endif /* (USB_EP_3_ISR_ENTRY_CALLBACK) */
 206:Generated_Source\PSoC4/USB_episr.c **** 
 207:Generated_Source\PSoC4/USB_episr.c ****         /* `#START EP3_USER_CODE` Place your code here */
 208:Generated_Source\PSoC4/USB_episr.c **** 
 209:Generated_Source\PSoC4/USB_episr.c ****         /* `#END` */
 210:Generated_Source\PSoC4/USB_episr.c **** 
ARM GAS  C:\Users\psmus\AppData\Local\Temp\ccpTkKC1.s 			page 7


 211:Generated_Source\PSoC4/USB_episr.c ****     #if (CY_PSOC3 && defined(USB_ENABLE_MIDI_STREAMING) && \
 212:Generated_Source\PSoC4/USB_episr.c ****         !defined(USB_MAIN_SERVICE_MIDI_OUT) && USB_ISR_SERVICE_MIDI_OUT)
 213:Generated_Source\PSoC4/USB_episr.c ****         {
 214:Generated_Source\PSoC4/USB_episr.c ****             uint8 intEn = EA;
 215:Generated_Source\PSoC4/USB_episr.c ****             CyGlobalIntEnable;  /* Enable nested interrupts. */
 216:Generated_Source\PSoC4/USB_episr.c ****     #endif /* (CY_PSOC3 && USB_ISR_SERVICE_MIDI_OUT) */
 217:Generated_Source\PSoC4/USB_episr.c **** 
 218:Generated_Source\PSoC4/USB_episr.c ****         USB_ClearSieEpInterruptSource(USB_SIE_INT_EP3_INTR);    
 219:Generated_Source\PSoC4/USB_episr.c **** 
 220:Generated_Source\PSoC4/USB_episr.c ****         /* Notifies user that transfer IN or OUT transfer is completed.
 221:Generated_Source\PSoC4/USB_episr.c ****         * IN endpoint: endpoint buffer can be reloaded, Host is read data.
 222:Generated_Source\PSoC4/USB_episr.c ****         * OUT endpoint: data is ready to be read from endpoint buffer. 
 223:Generated_Source\PSoC4/USB_episr.c ****         */
 224:Generated_Source\PSoC4/USB_episr.c ****     #if (CY_PSOC4 && USB_EP_MANAGEMENT_DMA_AUTO)
 225:Generated_Source\PSoC4/USB_episr.c ****         if (0u != (USB_EP[USB_EP3].addr & USB_DIR_IN))
 226:Generated_Source\PSoC4/USB_episr.c ****     #endif /* (USB_EP_MANAGEMENT_DMA_AUTO) */
 227:Generated_Source\PSoC4/USB_episr.c ****         {            
 228:Generated_Source\PSoC4/USB_episr.c ****             /* Read CR0 register to clear SIE lock. */
 229:Generated_Source\PSoC4/USB_episr.c ****             (void) USB_SIE_EP_BASE.sieEp[USB_EP3].epCr0;
 230:Generated_Source\PSoC4/USB_episr.c **** 
 231:Generated_Source\PSoC4/USB_episr.c ****             /* Toggle all endpoint types except ISOC. */
 232:Generated_Source\PSoC4/USB_episr.c ****             if (USB_GET_EP_TYPE(USB_EP3) != USB_EP_TYPE_ISOC)
 233:Generated_Source\PSoC4/USB_episr.c ****             {
 234:Generated_Source\PSoC4/USB_episr.c ****                 USB_EP[USB_EP3].epToggle ^= USB_EPX_CNT_DATA_TOGGLE;
 235:Generated_Source\PSoC4/USB_episr.c ****             }
 236:Generated_Source\PSoC4/USB_episr.c **** 
 237:Generated_Source\PSoC4/USB_episr.c ****             /* EP_MANAGEMENT_DMA_AUTO (Ticket ID# 214187): For OUT endpoint this event is used to n
 238:Generated_Source\PSoC4/USB_episr.c ****             * user that DMA has completed copying data from OUT endpoint which is not completely tr
 239:Generated_Source\PSoC4/USB_episr.c ****             * Because last chunk of data is being copied.
 240:Generated_Source\PSoC4/USB_episr.c ****             * For CY_PSOC 3/5LP: it is acceptable as DMA is really fast.
 241:Generated_Source\PSoC4/USB_episr.c ****             * For CY_PSOC4: this event is set in Arbiter interrupt (source is DMA_TERMIN).
 242:Generated_Source\PSoC4/USB_episr.c ****             */
 243:Generated_Source\PSoC4/USB_episr.c ****             USB_EP[USB_EP3].apiEpState = USB_EVENT_PENDING;
 244:Generated_Source\PSoC4/USB_episr.c ****         }
 245:Generated_Source\PSoC4/USB_episr.c **** 
 246:Generated_Source\PSoC4/USB_episr.c ****     #if (!(CY_PSOC4 && USB_EP_MANAGEMENT_DMA_AUTO))
 247:Generated_Source\PSoC4/USB_episr.c ****         #if (defined(USB_ENABLE_MIDI_STREAMING) && \
 248:Generated_Source\PSoC4/USB_episr.c ****             !defined(USB_MAIN_SERVICE_MIDI_OUT) && USB_ISR_SERVICE_MIDI_OUT)
 249:Generated_Source\PSoC4/USB_episr.c ****             if (USB_midi_out_ep == USB_EP3)
 250:Generated_Source\PSoC4/USB_episr.c ****             {
 251:Generated_Source\PSoC4/USB_episr.c ****                 USB_MIDI_OUT_Service();
 252:Generated_Source\PSoC4/USB_episr.c ****             }
 253:Generated_Source\PSoC4/USB_episr.c ****         #endif /* (USB_ISR_SERVICE_MIDI_OUT) */
 254:Generated_Source\PSoC4/USB_episr.c ****     #endif /* (!(CY_PSOC4 && USB_EP_MANAGEMENT_DMA_AUTO)) */        
 255:Generated_Source\PSoC4/USB_episr.c **** 
 256:Generated_Source\PSoC4/USB_episr.c ****         /* `#START EP3_END_USER_CODE` Place your code here */
 257:Generated_Source\PSoC4/USB_episr.c **** 
 258:Generated_Source\PSoC4/USB_episr.c ****         /* `#END` */
 259:Generated_Source\PSoC4/USB_episr.c **** 
 260:Generated_Source\PSoC4/USB_episr.c ****     #ifdef USB_EP_3_ISR_EXIT_CALLBACK
 261:Generated_Source\PSoC4/USB_episr.c ****         USB_EP_3_ISR_ExitCallback();
 262:Generated_Source\PSoC4/USB_episr.c ****     #endif /* (USB_EP_3_ISR_EXIT_CALLBACK) */
 263:Generated_Source\PSoC4/USB_episr.c **** 
 264:Generated_Source\PSoC4/USB_episr.c ****     #if (CY_PSOC3 && defined(USB_ENABLE_MIDI_STREAMING) && \
 265:Generated_Source\PSoC4/USB_episr.c ****         !defined(USB_MAIN_SERVICE_MIDI_OUT) && USB_ISR_SERVICE_MIDI_OUT)
 266:Generated_Source\PSoC4/USB_episr.c ****         
 267:Generated_Source\PSoC4/USB_episr.c ****             EA = intEn; /* Restore nested interrupt configuration. */
ARM GAS  C:\Users\psmus\AppData\Local\Temp\ccpTkKC1.s 			page 8


 268:Generated_Source\PSoC4/USB_episr.c ****         }
 269:Generated_Source\PSoC4/USB_episr.c ****     #endif /* (CY_PSOC3 && USB_ISR_SERVICE_MIDI_OUT) */
 270:Generated_Source\PSoC4/USB_episr.c ****     }
 271:Generated_Source\PSoC4/USB_episr.c **** #endif /* (USB_EP3_ISR_ACTIVE) */
 272:Generated_Source\PSoC4/USB_episr.c **** 
 273:Generated_Source\PSoC4/USB_episr.c **** 
 274:Generated_Source\PSoC4/USB_episr.c **** #if (USB_EP4_ISR_ACTIVE)
 275:Generated_Source\PSoC4/USB_episr.c ****     /*******************************************************************************
 276:Generated_Source\PSoC4/USB_episr.c ****     * Function Name: USB_EP_4_ISR
 277:Generated_Source\PSoC4/USB_episr.c ****     ****************************************************************************//**
 278:Generated_Source\PSoC4/USB_episr.c ****     *
 279:Generated_Source\PSoC4/USB_episr.c ****     *  Endpoint 4 Interrupt Service Routine.
 280:Generated_Source\PSoC4/USB_episr.c ****     *
 281:Generated_Source\PSoC4/USB_episr.c ****     *******************************************************************************/
 282:Generated_Source\PSoC4/USB_episr.c ****     CY_ISR(USB_EP_4_ISR)
 283:Generated_Source\PSoC4/USB_episr.c ****     {
 284:Generated_Source\PSoC4/USB_episr.c ****     #ifdef USB_EP_4_ISR_ENTRY_CALLBACK
 285:Generated_Source\PSoC4/USB_episr.c ****         USB_EP_4_ISR_EntryCallback();
 286:Generated_Source\PSoC4/USB_episr.c ****     #endif /* (USB_EP_4_ISR_ENTRY_CALLBACK) */
 287:Generated_Source\PSoC4/USB_episr.c **** 
 288:Generated_Source\PSoC4/USB_episr.c ****         /* `#START EP4_USER_CODE` Place your code here */
 289:Generated_Source\PSoC4/USB_episr.c **** 
 290:Generated_Source\PSoC4/USB_episr.c ****         /* `#END` */
 291:Generated_Source\PSoC4/USB_episr.c **** 
 292:Generated_Source\PSoC4/USB_episr.c ****     #if (CY_PSOC3 && defined(USB_ENABLE_MIDI_STREAMING) && \
 293:Generated_Source\PSoC4/USB_episr.c ****         !defined(USB_MAIN_SERVICE_MIDI_OUT) && USB_ISR_SERVICE_MIDI_OUT)
 294:Generated_Source\PSoC4/USB_episr.c ****         {
 295:Generated_Source\PSoC4/USB_episr.c ****             uint8 intEn = EA;
 296:Generated_Source\PSoC4/USB_episr.c ****             CyGlobalIntEnable;  /* Enable nested interrupts. */
 297:Generated_Source\PSoC4/USB_episr.c ****     #endif /* (CY_PSOC3 && USB_ISR_SERVICE_MIDI_OUT) */
 298:Generated_Source\PSoC4/USB_episr.c **** 
 299:Generated_Source\PSoC4/USB_episr.c ****         USB_ClearSieEpInterruptSource(USB_SIE_INT_EP4_INTR);
 300:Generated_Source\PSoC4/USB_episr.c ****         
 301:Generated_Source\PSoC4/USB_episr.c ****         /* Notifies user that transfer IN or OUT transfer is completed.
 302:Generated_Source\PSoC4/USB_episr.c ****         * IN endpoint: endpoint buffer can be reloaded, Host is read data.
 303:Generated_Source\PSoC4/USB_episr.c ****         * OUT endpoint: data is ready to read from endpoint buffer. 
 304:Generated_Source\PSoC4/USB_episr.c ****         */
 305:Generated_Source\PSoC4/USB_episr.c ****     #if (CY_PSOC4 && USB_EP_MANAGEMENT_DMA_AUTO)
 306:Generated_Source\PSoC4/USB_episr.c ****         if (0u != (USB_EP[USB_EP4].addr & USB_DIR_IN))
 307:Generated_Source\PSoC4/USB_episr.c ****     #endif /* (USB_EP_MANAGEMENT_DMA_AUTO) */
 308:Generated_Source\PSoC4/USB_episr.c ****         {
 309:Generated_Source\PSoC4/USB_episr.c ****             /* Read CR0 register to clear SIE lock. */
 310:Generated_Source\PSoC4/USB_episr.c ****             (void) USB_SIE_EP_BASE.sieEp[USB_EP4].epCr0;
 311:Generated_Source\PSoC4/USB_episr.c **** 
 312:Generated_Source\PSoC4/USB_episr.c ****             /* Toggle all endpoint types except ISOC. */
 313:Generated_Source\PSoC4/USB_episr.c ****             if (USB_GET_EP_TYPE(USB_EP4) != USB_EP_TYPE_ISOC)
 314:Generated_Source\PSoC4/USB_episr.c ****             {
 315:Generated_Source\PSoC4/USB_episr.c ****                 USB_EP[USB_EP4].epToggle ^= USB_EPX_CNT_DATA_TOGGLE;
 316:Generated_Source\PSoC4/USB_episr.c ****             }
 317:Generated_Source\PSoC4/USB_episr.c **** 
 318:Generated_Source\PSoC4/USB_episr.c ****             /* EP_MANAGEMENT_DMA_AUTO (Ticket ID# 214187): For OUT endpoint this event is used to n
 319:Generated_Source\PSoC4/USB_episr.c ****             * user that DMA has completed copying data from OUT endpoint which is not completely tr
 320:Generated_Source\PSoC4/USB_episr.c ****             * Because last chunk of data is being copied.
 321:Generated_Source\PSoC4/USB_episr.c ****             * For CY_PSOC 3/5LP: it is acceptable as DMA is really fast.
 322:Generated_Source\PSoC4/USB_episr.c ****             * For CY_PSOC4: this event is set in Arbiter interrupt (source is DMA_TERMIN).
 323:Generated_Source\PSoC4/USB_episr.c ****             */
 324:Generated_Source\PSoC4/USB_episr.c ****             USB_EP[USB_EP4].apiEpState = USB_EVENT_PENDING;
ARM GAS  C:\Users\psmus\AppData\Local\Temp\ccpTkKC1.s 			page 9


 325:Generated_Source\PSoC4/USB_episr.c ****         }
 326:Generated_Source\PSoC4/USB_episr.c **** 
 327:Generated_Source\PSoC4/USB_episr.c ****     #if (!(CY_PSOC4 && USB_EP_MANAGEMENT_DMA_AUTO))
 328:Generated_Source\PSoC4/USB_episr.c ****         #if (defined(USB_ENABLE_MIDI_STREAMING) && \
 329:Generated_Source\PSoC4/USB_episr.c ****             !defined(USB_MAIN_SERVICE_MIDI_OUT) && USB_ISR_SERVICE_MIDI_OUT)
 330:Generated_Source\PSoC4/USB_episr.c ****             if(USB_midi_out_ep == USB_EP4)
 331:Generated_Source\PSoC4/USB_episr.c ****             {
 332:Generated_Source\PSoC4/USB_episr.c ****                 USB_MIDI_OUT_Service();
 333:Generated_Source\PSoC4/USB_episr.c ****             }
 334:Generated_Source\PSoC4/USB_episr.c ****         #endif /* (USB_ISR_SERVICE_MIDI_OUT) */
 335:Generated_Source\PSoC4/USB_episr.c ****     #endif /* (!(CY_PSOC4 && USB_EP_MANAGEMENT_DMA_AUTO)) */        
 336:Generated_Source\PSoC4/USB_episr.c **** 
 337:Generated_Source\PSoC4/USB_episr.c ****         /* `#START EP4_END_USER_CODE` Place your code here */
 338:Generated_Source\PSoC4/USB_episr.c **** 
 339:Generated_Source\PSoC4/USB_episr.c ****         /* `#END` */
 340:Generated_Source\PSoC4/USB_episr.c **** 
 341:Generated_Source\PSoC4/USB_episr.c ****     #ifdef USB_EP_4_ISR_EXIT_CALLBACK
 342:Generated_Source\PSoC4/USB_episr.c ****         USB_EP_4_ISR_ExitCallback();
 343:Generated_Source\PSoC4/USB_episr.c ****     #endif /* (USB_EP_4_ISR_EXIT_CALLBACK) */
 344:Generated_Source\PSoC4/USB_episr.c **** 
 345:Generated_Source\PSoC4/USB_episr.c ****     #if (CY_PSOC3 && defined(USB_ENABLE_MIDI_STREAMING) && \
 346:Generated_Source\PSoC4/USB_episr.c ****         !defined(USB_MAIN_SERVICE_MIDI_OUT) && USB_ISR_SERVICE_MIDI_OUT)
 347:Generated_Source\PSoC4/USB_episr.c ****         
 348:Generated_Source\PSoC4/USB_episr.c ****             EA = intEn; /* Restore nested interrupt configuration. */
 349:Generated_Source\PSoC4/USB_episr.c ****         }
 350:Generated_Source\PSoC4/USB_episr.c ****     #endif /* (CY_PSOC3 && USB_ISR_SERVICE_MIDI_OUT) */
 351:Generated_Source\PSoC4/USB_episr.c ****     }
 352:Generated_Source\PSoC4/USB_episr.c **** #endif /* (USB_EP4_ISR_ACTIVE) */
 353:Generated_Source\PSoC4/USB_episr.c **** 
 354:Generated_Source\PSoC4/USB_episr.c **** 
 355:Generated_Source\PSoC4/USB_episr.c **** #if (USB_EP5_ISR_ACTIVE)
 356:Generated_Source\PSoC4/USB_episr.c ****     /*******************************************************************************
 357:Generated_Source\PSoC4/USB_episr.c ****     * Function Name: USB_EP_5_ISR
 358:Generated_Source\PSoC4/USB_episr.c ****     ****************************************************************************//**
 359:Generated_Source\PSoC4/USB_episr.c ****     *
 360:Generated_Source\PSoC4/USB_episr.c ****     *  Endpoint 5 Interrupt Service Routine
 361:Generated_Source\PSoC4/USB_episr.c ****     *
 362:Generated_Source\PSoC4/USB_episr.c ****     *
 363:Generated_Source\PSoC4/USB_episr.c ****     *******************************************************************************/
 364:Generated_Source\PSoC4/USB_episr.c ****     CY_ISR(USB_EP_5_ISR)
 365:Generated_Source\PSoC4/USB_episr.c ****     {
 366:Generated_Source\PSoC4/USB_episr.c ****     #ifdef USB_EP_5_ISR_ENTRY_CALLBACK
 367:Generated_Source\PSoC4/USB_episr.c ****         USB_EP_5_ISR_EntryCallback();
 368:Generated_Source\PSoC4/USB_episr.c ****     #endif /* (USB_EP_5_ISR_ENTRY_CALLBACK) */
 369:Generated_Source\PSoC4/USB_episr.c **** 
 370:Generated_Source\PSoC4/USB_episr.c ****         /* `#START EP5_USER_CODE` Place your code here */
 371:Generated_Source\PSoC4/USB_episr.c **** 
 372:Generated_Source\PSoC4/USB_episr.c ****         /* `#END` */
 373:Generated_Source\PSoC4/USB_episr.c **** 
 374:Generated_Source\PSoC4/USB_episr.c ****     #if (defined(USB_ENABLE_MIDI_STREAMING) && !defined(USB_MAIN_SERVICE_MIDI_OUT) && \
 375:Generated_Source\PSoC4/USB_episr.c ****                  USB_ISR_SERVICE_MIDI_OUT && CY_PSOC3)
 376:Generated_Source\PSoC4/USB_episr.c ****         {
 377:Generated_Source\PSoC4/USB_episr.c ****             uint8 intEn = EA;
 378:Generated_Source\PSoC4/USB_episr.c ****             CyGlobalIntEnable;  /* Enable nested interrupts. */
 379:Generated_Source\PSoC4/USB_episr.c ****     #endif /* (CY_PSOC3 && USB_ISR_SERVICE_MIDI_OUT) */
 380:Generated_Source\PSoC4/USB_episr.c **** 
 381:Generated_Source\PSoC4/USB_episr.c ****         USB_ClearSieEpInterruptSource(USB_SIE_INT_EP5_INTR);
ARM GAS  C:\Users\psmus\AppData\Local\Temp\ccpTkKC1.s 			page 10


 382:Generated_Source\PSoC4/USB_episr.c ****     
 383:Generated_Source\PSoC4/USB_episr.c ****         /* Notifies user that transfer IN or OUT transfer is completed.
 384:Generated_Source\PSoC4/USB_episr.c ****         * IN endpoint: endpoint buffer can be reloaded, Host is read data.
 385:Generated_Source\PSoC4/USB_episr.c ****         * OUT endpoint: data is ready to read from endpoint buffer. 
 386:Generated_Source\PSoC4/USB_episr.c ****         */
 387:Generated_Source\PSoC4/USB_episr.c ****     #if (CY_PSOC4 && USB_EP_MANAGEMENT_DMA_AUTO)
 388:Generated_Source\PSoC4/USB_episr.c ****         if (0u != (USB_EP[USB_EP5].addr & USB_DIR_IN))
 389:Generated_Source\PSoC4/USB_episr.c ****     #endif /* (USB_EP_MANAGEMENT_DMA_AUTO) */
 390:Generated_Source\PSoC4/USB_episr.c ****         {            
 391:Generated_Source\PSoC4/USB_episr.c ****             /* Read CR0 register to clear SIE lock. */
 392:Generated_Source\PSoC4/USB_episr.c ****             (void) USB_SIE_EP_BASE.sieEp[USB_EP5].epCr0;
 393:Generated_Source\PSoC4/USB_episr.c **** 
 394:Generated_Source\PSoC4/USB_episr.c ****             /* Toggle all endpoint types except ISOC. */
 395:Generated_Source\PSoC4/USB_episr.c ****             if (USB_GET_EP_TYPE(USB_EP5) != USB_EP_TYPE_ISOC)
 396:Generated_Source\PSoC4/USB_episr.c ****             {
 397:Generated_Source\PSoC4/USB_episr.c ****                 USB_EP[USB_EP5].epToggle ^= USB_EPX_CNT_DATA_TOGGLE;
 398:Generated_Source\PSoC4/USB_episr.c ****             }
 399:Generated_Source\PSoC4/USB_episr.c **** 
 400:Generated_Source\PSoC4/USB_episr.c ****             /* EP_MANAGEMENT_DMA_AUTO (Ticket ID# 214187): For OUT endpoint this event is used to n
 401:Generated_Source\PSoC4/USB_episr.c ****             * user that DMA has completed copying data from OUT endpoint which is not completely tr
 402:Generated_Source\PSoC4/USB_episr.c ****             * Because last chunk of data is being copied.
 403:Generated_Source\PSoC4/USB_episr.c ****             * For CY_PSOC 3/5LP: it is acceptable as DMA is really fast.
 404:Generated_Source\PSoC4/USB_episr.c ****             * For CY_PSOC4: this event is set in Arbiter interrupt (source is DMA_TERMIN).
 405:Generated_Source\PSoC4/USB_episr.c ****             */
 406:Generated_Source\PSoC4/USB_episr.c ****             USB_EP[USB_EP5].apiEpState = USB_EVENT_PENDING;
 407:Generated_Source\PSoC4/USB_episr.c ****         }
 408:Generated_Source\PSoC4/USB_episr.c **** 
 409:Generated_Source\PSoC4/USB_episr.c ****     #if (!(CY_PSOC4 && USB_EP_MANAGEMENT_DMA_AUTO))        
 410:Generated_Source\PSoC4/USB_episr.c ****         #if (defined(USB_ENABLE_MIDI_STREAMING) && \
 411:Generated_Source\PSoC4/USB_episr.c ****             !defined(USB_MAIN_SERVICE_MIDI_OUT) && USB_ISR_SERVICE_MIDI_OUT)
 412:Generated_Source\PSoC4/USB_episr.c ****             if (USB_midi_out_ep == USB_EP5)
 413:Generated_Source\PSoC4/USB_episr.c ****             {
 414:Generated_Source\PSoC4/USB_episr.c ****                 USB_MIDI_OUT_Service();
 415:Generated_Source\PSoC4/USB_episr.c ****             }
 416:Generated_Source\PSoC4/USB_episr.c ****         #endif /* (USB_ISR_SERVICE_MIDI_OUT) */
 417:Generated_Source\PSoC4/USB_episr.c ****     #endif /* (!(CY_PSOC4 && USB_EP_MANAGEMENT_DMA_AUTO)) */
 418:Generated_Source\PSoC4/USB_episr.c **** 
 419:Generated_Source\PSoC4/USB_episr.c ****         /* `#START EP5_END_USER_CODE` Place your code here */
 420:Generated_Source\PSoC4/USB_episr.c **** 
 421:Generated_Source\PSoC4/USB_episr.c ****         /* `#END` */
 422:Generated_Source\PSoC4/USB_episr.c **** 
 423:Generated_Source\PSoC4/USB_episr.c ****     #ifdef USB_EP_5_ISR_EXIT_CALLBACK
 424:Generated_Source\PSoC4/USB_episr.c ****         USB_EP_5_ISR_ExitCallback();
 425:Generated_Source\PSoC4/USB_episr.c ****     #endif /* (USB_EP_5_ISR_EXIT_CALLBACK) */
 426:Generated_Source\PSoC4/USB_episr.c **** 
 427:Generated_Source\PSoC4/USB_episr.c ****     #if (CY_PSOC3 && defined(USB_ENABLE_MIDI_STREAMING) && \
 428:Generated_Source\PSoC4/USB_episr.c ****         !defined(USB_MAIN_SERVICE_MIDI_OUT) && USB_ISR_SERVICE_MIDI_OUT)
 429:Generated_Source\PSoC4/USB_episr.c ****         
 430:Generated_Source\PSoC4/USB_episr.c ****             EA = intEn; /* Restore nested interrupt configuration. */
 431:Generated_Source\PSoC4/USB_episr.c ****         }
 432:Generated_Source\PSoC4/USB_episr.c ****     #endif /* (CY_PSOC3 && USB_ISR_SERVICE_MIDI_OUT) */
 433:Generated_Source\PSoC4/USB_episr.c ****     }
 434:Generated_Source\PSoC4/USB_episr.c **** #endif /* (USB_EP5_ISR_ACTIVE) */
 435:Generated_Source\PSoC4/USB_episr.c **** 
 436:Generated_Source\PSoC4/USB_episr.c **** 
 437:Generated_Source\PSoC4/USB_episr.c **** #if (USB_EP6_ISR_ACTIVE)
 438:Generated_Source\PSoC4/USB_episr.c ****     /*******************************************************************************
ARM GAS  C:\Users\psmus\AppData\Local\Temp\ccpTkKC1.s 			page 11


 439:Generated_Source\PSoC4/USB_episr.c ****     * Function Name: USB_EP_6_ISR
 440:Generated_Source\PSoC4/USB_episr.c ****     ****************************************************************************//**
 441:Generated_Source\PSoC4/USB_episr.c ****     *
 442:Generated_Source\PSoC4/USB_episr.c ****     *  Endpoint 6 Interrupt Service Routine.
 443:Generated_Source\PSoC4/USB_episr.c ****     *
 444:Generated_Source\PSoC4/USB_episr.c ****     *
 445:Generated_Source\PSoC4/USB_episr.c ****     *******************************************************************************/
 446:Generated_Source\PSoC4/USB_episr.c ****     CY_ISR(USB_EP_6_ISR)
 447:Generated_Source\PSoC4/USB_episr.c ****     {
 448:Generated_Source\PSoC4/USB_episr.c ****     #ifdef USB_EP_6_ISR_ENTRY_CALLBACK
 449:Generated_Source\PSoC4/USB_episr.c ****         USB_EP_6_ISR_EntryCallback();
 450:Generated_Source\PSoC4/USB_episr.c ****     #endif /* (USB_EP_6_ISR_ENTRY_CALLBACK) */
 451:Generated_Source\PSoC4/USB_episr.c **** 
 452:Generated_Source\PSoC4/USB_episr.c ****         /* `#START EP6_USER_CODE` Place your code here */
 453:Generated_Source\PSoC4/USB_episr.c **** 
 454:Generated_Source\PSoC4/USB_episr.c ****         /* `#END` */
 455:Generated_Source\PSoC4/USB_episr.c **** 
 456:Generated_Source\PSoC4/USB_episr.c ****     #if (CY_PSOC3 && defined(USB_ENABLE_MIDI_STREAMING) && \
 457:Generated_Source\PSoC4/USB_episr.c ****         !defined(USB_MAIN_SERVICE_MIDI_OUT) && USB_ISR_SERVICE_MIDI_OUT)
 458:Generated_Source\PSoC4/USB_episr.c ****         {
 459:Generated_Source\PSoC4/USB_episr.c ****             uint8 intEn = EA;
 460:Generated_Source\PSoC4/USB_episr.c ****             CyGlobalIntEnable;  /* Enable nested interrupts. */
 461:Generated_Source\PSoC4/USB_episr.c ****     #endif /* (CY_PSOC3 && USB_ISR_SERVICE_MIDI_OUT) */
 462:Generated_Source\PSoC4/USB_episr.c **** 
 463:Generated_Source\PSoC4/USB_episr.c ****         USB_ClearSieEpInterruptSource(USB_SIE_INT_EP6_INTR);
 464:Generated_Source\PSoC4/USB_episr.c ****         
 465:Generated_Source\PSoC4/USB_episr.c ****         /* Notifies user that transfer IN or OUT transfer is completed.
 466:Generated_Source\PSoC4/USB_episr.c ****         * IN endpoint: endpoint buffer can be reloaded, Host is read data.
 467:Generated_Source\PSoC4/USB_episr.c ****         * OUT endpoint: data is ready to read from endpoint buffer. 
 468:Generated_Source\PSoC4/USB_episr.c ****         */
 469:Generated_Source\PSoC4/USB_episr.c ****     #if (CY_PSOC4 && USB_EP_MANAGEMENT_DMA_AUTO)
 470:Generated_Source\PSoC4/USB_episr.c ****         if (0u != (USB_EP[USB_EP6].addr & USB_DIR_IN))
 471:Generated_Source\PSoC4/USB_episr.c ****     #endif /* (USB_EP_MANAGEMENT_DMA_AUTO) */
 472:Generated_Source\PSoC4/USB_episr.c ****         {
 473:Generated_Source\PSoC4/USB_episr.c ****             /* Read CR0 register to clear SIE lock. */
 474:Generated_Source\PSoC4/USB_episr.c ****             (void) USB_SIE_EP_BASE.sieEp[USB_EP6].epCr0;
 475:Generated_Source\PSoC4/USB_episr.c **** 
 476:Generated_Source\PSoC4/USB_episr.c ****             /* Toggle all endpoint types except ISOC. */
 477:Generated_Source\PSoC4/USB_episr.c ****             if (USB_GET_EP_TYPE(USB_EP6) != USB_EP_TYPE_ISOC)
 478:Generated_Source\PSoC4/USB_episr.c ****             {
 479:Generated_Source\PSoC4/USB_episr.c ****                 USB_EP[USB_EP6].epToggle ^= USB_EPX_CNT_DATA_TOGGLE;
 480:Generated_Source\PSoC4/USB_episr.c ****             }
 481:Generated_Source\PSoC4/USB_episr.c ****             
 482:Generated_Source\PSoC4/USB_episr.c ****             /* EP_MANAGEMENT_DMA_AUTO (Ticket ID# 214187): For OUT endpoint this event is used to n
 483:Generated_Source\PSoC4/USB_episr.c ****             * user that DMA has completed copying data from OUT endpoint which is not completely tr
 484:Generated_Source\PSoC4/USB_episr.c ****             * Because last chunk of data is being copied.
 485:Generated_Source\PSoC4/USB_episr.c ****             * For CY_PSOC 3/5LP: it is acceptable as DMA is really fast.
 486:Generated_Source\PSoC4/USB_episr.c ****             * For CY_PSOC4: this event is set in Arbiter interrupt (source is DMA_TERMIN).
 487:Generated_Source\PSoC4/USB_episr.c ****             */
 488:Generated_Source\PSoC4/USB_episr.c ****             USB_EP[USB_EP6].apiEpState = USB_EVENT_PENDING;
 489:Generated_Source\PSoC4/USB_episr.c ****         }
 490:Generated_Source\PSoC4/USB_episr.c **** 
 491:Generated_Source\PSoC4/USB_episr.c ****     #if (!(CY_PSOC4 && USB_EP_MANAGEMENT_DMA_AUTO))
 492:Generated_Source\PSoC4/USB_episr.c ****         #if (defined(USB_ENABLE_MIDI_STREAMING) && \
 493:Generated_Source\PSoC4/USB_episr.c ****             !defined(USB_MAIN_SERVICE_MIDI_OUT) && USB_ISR_SERVICE_MIDI_OUT)
 494:Generated_Source\PSoC4/USB_episr.c ****             if (USB_midi_out_ep == USB_EP6)
 495:Generated_Source\PSoC4/USB_episr.c ****             {
ARM GAS  C:\Users\psmus\AppData\Local\Temp\ccpTkKC1.s 			page 12


 496:Generated_Source\PSoC4/USB_episr.c ****                 USB_MIDI_OUT_Service();
 497:Generated_Source\PSoC4/USB_episr.c ****             }
 498:Generated_Source\PSoC4/USB_episr.c ****         #endif /* (USB_ISR_SERVICE_MIDI_OUT) */
 499:Generated_Source\PSoC4/USB_episr.c ****     #endif /* (!(CY_PSOC4 && USB_EP_MANAGEMENT_DMA_AUTO)) */
 500:Generated_Source\PSoC4/USB_episr.c **** 
 501:Generated_Source\PSoC4/USB_episr.c ****         /* `#START EP6_END_USER_CODE` Place your code here */
 502:Generated_Source\PSoC4/USB_episr.c **** 
 503:Generated_Source\PSoC4/USB_episr.c ****         /* `#END` */
 504:Generated_Source\PSoC4/USB_episr.c **** 
 505:Generated_Source\PSoC4/USB_episr.c ****     #ifdef USB_EP_6_ISR_EXIT_CALLBACK
 506:Generated_Source\PSoC4/USB_episr.c ****         USB_EP_6_ISR_ExitCallback();
 507:Generated_Source\PSoC4/USB_episr.c ****     #endif /* (USB_EP_6_ISR_EXIT_CALLBACK) */
 508:Generated_Source\PSoC4/USB_episr.c **** 
 509:Generated_Source\PSoC4/USB_episr.c ****     #if (CY_PSOC3 && defined(USB_ENABLE_MIDI_STREAMING) && \
 510:Generated_Source\PSoC4/USB_episr.c ****         !defined(USB_MAIN_SERVICE_MIDI_OUT) && USB_ISR_SERVICE_MIDI_OUT)
 511:Generated_Source\PSoC4/USB_episr.c ****         
 512:Generated_Source\PSoC4/USB_episr.c ****             EA = intEn; /* Restore nested interrupt configuration. */
 513:Generated_Source\PSoC4/USB_episr.c ****         }
 514:Generated_Source\PSoC4/USB_episr.c ****     #endif /* (CY_PSOC3 && USB_ISR_SERVICE_MIDI_OUT) */
 515:Generated_Source\PSoC4/USB_episr.c ****     }
 516:Generated_Source\PSoC4/USB_episr.c **** #endif /* (USB_EP6_ISR_ACTIVE) */
 517:Generated_Source\PSoC4/USB_episr.c **** 
 518:Generated_Source\PSoC4/USB_episr.c **** 
 519:Generated_Source\PSoC4/USB_episr.c **** #if (USB_EP7_ISR_ACTIVE)
 520:Generated_Source\PSoC4/USB_episr.c ****     /*******************************************************************************
 521:Generated_Source\PSoC4/USB_episr.c ****     * Function Name: USB_EP_7_ISR
 522:Generated_Source\PSoC4/USB_episr.c ****     ****************************************************************************//**
 523:Generated_Source\PSoC4/USB_episr.c ****     *
 524:Generated_Source\PSoC4/USB_episr.c ****     *  Endpoint 7 Interrupt Service Routine.
 525:Generated_Source\PSoC4/USB_episr.c ****     *
 526:Generated_Source\PSoC4/USB_episr.c ****     *
 527:Generated_Source\PSoC4/USB_episr.c ****     *******************************************************************************/
 528:Generated_Source\PSoC4/USB_episr.c ****     CY_ISR(USB_EP_7_ISR)
 529:Generated_Source\PSoC4/USB_episr.c ****     {
 530:Generated_Source\PSoC4/USB_episr.c ****     #ifdef USB_EP_7_ISR_ENTRY_CALLBACK
 531:Generated_Source\PSoC4/USB_episr.c ****         USB_EP_7_ISR_EntryCallback();
 532:Generated_Source\PSoC4/USB_episr.c ****     #endif /* (USB_EP_7_ISR_ENTRY_CALLBACK) */
 533:Generated_Source\PSoC4/USB_episr.c **** 
 534:Generated_Source\PSoC4/USB_episr.c ****         /* `#START EP7_USER_CODE` Place your code here */
 535:Generated_Source\PSoC4/USB_episr.c **** 
 536:Generated_Source\PSoC4/USB_episr.c ****         /* `#END` */
 537:Generated_Source\PSoC4/USB_episr.c **** 
 538:Generated_Source\PSoC4/USB_episr.c ****     #if (CY_PSOC3 && defined(USB_ENABLE_MIDI_STREAMING) && \
 539:Generated_Source\PSoC4/USB_episr.c ****         !defined(USB_MAIN_SERVICE_MIDI_OUT) && USB_ISR_SERVICE_MIDI_OUT)
 540:Generated_Source\PSoC4/USB_episr.c ****         {
 541:Generated_Source\PSoC4/USB_episr.c ****             uint8 intEn = EA;
 542:Generated_Source\PSoC4/USB_episr.c ****             CyGlobalIntEnable;  /* Enable nested interrupts. */
 543:Generated_Source\PSoC4/USB_episr.c ****     #endif /* (CY_PSOC3 && USB_ISR_SERVICE_MIDI_OUT) */
 544:Generated_Source\PSoC4/USB_episr.c ****     
 545:Generated_Source\PSoC4/USB_episr.c ****         USB_ClearSieEpInterruptSource(USB_SIE_INT_EP7_INTR);
 546:Generated_Source\PSoC4/USB_episr.c ****         
 547:Generated_Source\PSoC4/USB_episr.c ****         /* Notifies user that transfer IN or OUT transfer is completed.
 548:Generated_Source\PSoC4/USB_episr.c ****         * IN endpoint: endpoint buffer can be reloaded, Host is read data.
 549:Generated_Source\PSoC4/USB_episr.c ****         * OUT endpoint: data is ready to read from endpoint buffer. 
 550:Generated_Source\PSoC4/USB_episr.c ****         */
 551:Generated_Source\PSoC4/USB_episr.c ****     #if (CY_PSOC4 && USB_EP_MANAGEMENT_DMA_AUTO)
 552:Generated_Source\PSoC4/USB_episr.c ****         if (0u != (USB_EP[USB_EP7].addr & USB_DIR_IN))
ARM GAS  C:\Users\psmus\AppData\Local\Temp\ccpTkKC1.s 			page 13


 553:Generated_Source\PSoC4/USB_episr.c ****     #endif /* (USB_EP_MANAGEMENT_DMA_AUTO) */
 554:Generated_Source\PSoC4/USB_episr.c ****         {           
 555:Generated_Source\PSoC4/USB_episr.c ****             /* Read CR0 register to clear SIE lock. */
 556:Generated_Source\PSoC4/USB_episr.c ****             (void) USB_SIE_EP_BASE.sieEp[USB_EP7].epCr0;
 557:Generated_Source\PSoC4/USB_episr.c **** 
 558:Generated_Source\PSoC4/USB_episr.c ****             /* Toggle all endpoint types except ISOC. */
 559:Generated_Source\PSoC4/USB_episr.c ****             if (USB_GET_EP_TYPE(USB_EP7) != USB_EP_TYPE_ISOC)
 560:Generated_Source\PSoC4/USB_episr.c ****             {
 561:Generated_Source\PSoC4/USB_episr.c ****                 USB_EP[USB_EP7].epToggle ^= USB_EPX_CNT_DATA_TOGGLE;
 562:Generated_Source\PSoC4/USB_episr.c ****             }
 563:Generated_Source\PSoC4/USB_episr.c ****             
 564:Generated_Source\PSoC4/USB_episr.c ****             /* EP_MANAGEMENT_DMA_AUTO (Ticket ID# 214187): For OUT endpoint this event is used to n
 565:Generated_Source\PSoC4/USB_episr.c ****             * user that DMA has completed copying data from OUT endpoint which is not completely tr
 566:Generated_Source\PSoC4/USB_episr.c ****             * Because last chunk of data is being copied.
 567:Generated_Source\PSoC4/USB_episr.c ****             * For CY_PSOC 3/5LP: it is acceptable as DMA is really fast.
 568:Generated_Source\PSoC4/USB_episr.c ****             * For CY_PSOC4: this event is set in Arbiter interrupt (source is DMA_TERMIN).
 569:Generated_Source\PSoC4/USB_episr.c ****             */
 570:Generated_Source\PSoC4/USB_episr.c ****             USB_EP[USB_EP7].apiEpState = USB_EVENT_PENDING;
 571:Generated_Source\PSoC4/USB_episr.c ****         }
 572:Generated_Source\PSoC4/USB_episr.c **** 
 573:Generated_Source\PSoC4/USB_episr.c **** 
 574:Generated_Source\PSoC4/USB_episr.c ****     #if (!(CY_PSOC4 && USB_EP_MANAGEMENT_DMA_AUTO))
 575:Generated_Source\PSoC4/USB_episr.c ****         #if (defined(USB_ENABLE_MIDI_STREAMING) && \
 576:Generated_Source\PSoC4/USB_episr.c ****             !defined(USB_MAIN_SERVICE_MIDI_OUT) && USB_ISR_SERVICE_MIDI_OUT)
 577:Generated_Source\PSoC4/USB_episr.c ****             if(USB_midi_out_ep == USB_EP7)
 578:Generated_Source\PSoC4/USB_episr.c ****             {
 579:Generated_Source\PSoC4/USB_episr.c ****                 USB_MIDI_OUT_Service();
 580:Generated_Source\PSoC4/USB_episr.c ****             }
 581:Generated_Source\PSoC4/USB_episr.c ****         #endif /* (USB_ISR_SERVICE_MIDI_OUT) */
 582:Generated_Source\PSoC4/USB_episr.c ****     #endif /* (!(CY_PSOC4 && USB_EP_MANAGEMENT_DMA_AUTO)) */
 583:Generated_Source\PSoC4/USB_episr.c **** 
 584:Generated_Source\PSoC4/USB_episr.c ****         /* `#START EP7_END_USER_CODE` Place your code here */
 585:Generated_Source\PSoC4/USB_episr.c **** 
 586:Generated_Source\PSoC4/USB_episr.c ****         /* `#END` */
 587:Generated_Source\PSoC4/USB_episr.c **** 
 588:Generated_Source\PSoC4/USB_episr.c ****     #ifdef USB_EP_7_ISR_EXIT_CALLBACK
 589:Generated_Source\PSoC4/USB_episr.c ****         USB_EP_7_ISR_ExitCallback();
 590:Generated_Source\PSoC4/USB_episr.c ****     #endif /* (USB_EP_7_ISR_EXIT_CALLBACK) */
 591:Generated_Source\PSoC4/USB_episr.c **** 
 592:Generated_Source\PSoC4/USB_episr.c ****     #if (CY_PSOC3 && defined(USB_ENABLE_MIDI_STREAMING) && \
 593:Generated_Source\PSoC4/USB_episr.c ****         !defined(USB_MAIN_SERVICE_MIDI_OUT) && USB_ISR_SERVICE_MIDI_OUT)
 594:Generated_Source\PSoC4/USB_episr.c ****         
 595:Generated_Source\PSoC4/USB_episr.c ****             EA = intEn; /* Restore nested interrupt configuration. */
 596:Generated_Source\PSoC4/USB_episr.c ****         }
 597:Generated_Source\PSoC4/USB_episr.c ****     #endif /* (CY_PSOC3 && USB_ISR_SERVICE_MIDI_OUT) */
 598:Generated_Source\PSoC4/USB_episr.c ****     }
 599:Generated_Source\PSoC4/USB_episr.c **** #endif /* (USB_EP7_ISR_ACTIVE) */
 600:Generated_Source\PSoC4/USB_episr.c **** 
 601:Generated_Source\PSoC4/USB_episr.c **** 
 602:Generated_Source\PSoC4/USB_episr.c **** #if (USB_EP8_ISR_ACTIVE)
 603:Generated_Source\PSoC4/USB_episr.c ****     /*******************************************************************************
 604:Generated_Source\PSoC4/USB_episr.c ****     * Function Name: USB_EP_8_ISR
 605:Generated_Source\PSoC4/USB_episr.c ****     ****************************************************************************//**
 606:Generated_Source\PSoC4/USB_episr.c ****     *
 607:Generated_Source\PSoC4/USB_episr.c ****     *  Endpoint 8 Interrupt Service Routine
 608:Generated_Source\PSoC4/USB_episr.c ****     *
 609:Generated_Source\PSoC4/USB_episr.c ****     *
ARM GAS  C:\Users\psmus\AppData\Local\Temp\ccpTkKC1.s 			page 14


 610:Generated_Source\PSoC4/USB_episr.c ****     *******************************************************************************/
 611:Generated_Source\PSoC4/USB_episr.c ****     CY_ISR(USB_EP_8_ISR)
 612:Generated_Source\PSoC4/USB_episr.c ****     {
 613:Generated_Source\PSoC4/USB_episr.c ****     #ifdef USB_EP_8_ISR_ENTRY_CALLBACK
 614:Generated_Source\PSoC4/USB_episr.c ****         USB_EP_8_ISR_EntryCallback();
 615:Generated_Source\PSoC4/USB_episr.c ****     #endif /* (USB_EP_8_ISR_ENTRY_CALLBACK) */
 616:Generated_Source\PSoC4/USB_episr.c **** 
 617:Generated_Source\PSoC4/USB_episr.c ****         /* `#START EP8_USER_CODE` Place your code here */
 618:Generated_Source\PSoC4/USB_episr.c **** 
 619:Generated_Source\PSoC4/USB_episr.c ****         /* `#END` */
 620:Generated_Source\PSoC4/USB_episr.c **** 
 621:Generated_Source\PSoC4/USB_episr.c ****     #if (CY_PSOC3 && defined(USB_ENABLE_MIDI_STREAMING) && \
 622:Generated_Source\PSoC4/USB_episr.c ****         !defined(USB_MAIN_SERVICE_MIDI_OUT) && USB_ISR_SERVICE_MIDI_OUT)
 623:Generated_Source\PSoC4/USB_episr.c ****         {
 624:Generated_Source\PSoC4/USB_episr.c ****             uint8 intEn = EA;
 625:Generated_Source\PSoC4/USB_episr.c ****             CyGlobalIntEnable;  /* Enable nested interrupts. */
 626:Generated_Source\PSoC4/USB_episr.c ****     #endif /* (CY_PSOC3 && USB_ISR_SERVICE_MIDI_OUT) */
 627:Generated_Source\PSoC4/USB_episr.c **** 
 628:Generated_Source\PSoC4/USB_episr.c ****         USB_ClearSieEpInterruptSource(USB_SIE_INT_EP8_INTR);
 629:Generated_Source\PSoC4/USB_episr.c ****         
 630:Generated_Source\PSoC4/USB_episr.c ****         /* Notifies user that transfer IN or OUT transfer is completed.
 631:Generated_Source\PSoC4/USB_episr.c ****         * IN endpoint: endpoint buffer can be reloaded, Host is read data.
 632:Generated_Source\PSoC4/USB_episr.c ****         * OUT endpoint: data is ready to read from endpoint buffer. 
 633:Generated_Source\PSoC4/USB_episr.c ****         */
 634:Generated_Source\PSoC4/USB_episr.c ****     #if (CY_PSOC4 && USB_EP_MANAGEMENT_DMA_AUTO)
 635:Generated_Source\PSoC4/USB_episr.c ****         if (0u != (USB_EP[USB_EP8].addr & USB_DIR_IN))
 636:Generated_Source\PSoC4/USB_episr.c ****     #endif /* (USB_EP_MANAGEMENT_DMA_AUTO) */
 637:Generated_Source\PSoC4/USB_episr.c ****         {
 638:Generated_Source\PSoC4/USB_episr.c ****             /* Read CR0 register to clear SIE lock. */
 639:Generated_Source\PSoC4/USB_episr.c ****             (void) USB_SIE_EP_BASE.sieEp[USB_EP8].epCr0;
 640:Generated_Source\PSoC4/USB_episr.c **** 
 641:Generated_Source\PSoC4/USB_episr.c ****             /* Toggle all endpoint types except ISOC. */
 642:Generated_Source\PSoC4/USB_episr.c ****             if (USB_GET_EP_TYPE(USB_EP8) != USB_EP_TYPE_ISOC)
 643:Generated_Source\PSoC4/USB_episr.c ****             {
 644:Generated_Source\PSoC4/USB_episr.c ****                 USB_EP[USB_EP8].epToggle ^= USB_EPX_CNT_DATA_TOGGLE;
 645:Generated_Source\PSoC4/USB_episr.c ****             }
 646:Generated_Source\PSoC4/USB_episr.c **** 
 647:Generated_Source\PSoC4/USB_episr.c ****             /* EP_MANAGEMENT_DMA_AUTO (Ticket ID# 214187): For OUT endpoint this event is used to n
 648:Generated_Source\PSoC4/USB_episr.c ****             * user that DMA has completed copying data from OUT endpoint which is not completely tr
 649:Generated_Source\PSoC4/USB_episr.c ****             * Because last chunk of data is being copied.
 650:Generated_Source\PSoC4/USB_episr.c ****             * For CY_PSOC 3/5LP: it is acceptable as DMA is really fast.
 651:Generated_Source\PSoC4/USB_episr.c ****             * For CY_PSOC4: this event is set in Arbiter interrupt (source is DMA_TERMIN).
 652:Generated_Source\PSoC4/USB_episr.c ****             */
 653:Generated_Source\PSoC4/USB_episr.c ****             USB_EP[USB_EP8].apiEpState = USB_EVENT_PENDING;
 654:Generated_Source\PSoC4/USB_episr.c ****         }
 655:Generated_Source\PSoC4/USB_episr.c **** 
 656:Generated_Source\PSoC4/USB_episr.c ****     #if (!(CY_PSOC4 && USB_EP_MANAGEMENT_DMA_AUTO))
 657:Generated_Source\PSoC4/USB_episr.c ****         #if (defined(USB_ENABLE_MIDI_STREAMING) && \
 658:Generated_Source\PSoC4/USB_episr.c ****             !defined(USB_MAIN_SERVICE_MIDI_OUT) && USB_ISR_SERVICE_MIDI_OUT)
 659:Generated_Source\PSoC4/USB_episr.c ****             if (USB_midi_out_ep == USB_EP8)
 660:Generated_Source\PSoC4/USB_episr.c ****             {
 661:Generated_Source\PSoC4/USB_episr.c ****                 USB_MIDI_OUT_Service();
 662:Generated_Source\PSoC4/USB_episr.c ****             }
 663:Generated_Source\PSoC4/USB_episr.c ****         #endif /* (USB_ISR_SERVICE_MIDI_OUT) */
 664:Generated_Source\PSoC4/USB_episr.c ****     #endif /* (!(CY_PSOC4 && USB_EP_MANAGEMENT_DMA_AUTO)) */
 665:Generated_Source\PSoC4/USB_episr.c **** 
 666:Generated_Source\PSoC4/USB_episr.c ****         /* `#START EP8_END_USER_CODE` Place your code here */
ARM GAS  C:\Users\psmus\AppData\Local\Temp\ccpTkKC1.s 			page 15


 667:Generated_Source\PSoC4/USB_episr.c **** 
 668:Generated_Source\PSoC4/USB_episr.c ****         /* `#END` */
 669:Generated_Source\PSoC4/USB_episr.c **** 
 670:Generated_Source\PSoC4/USB_episr.c ****     #ifdef USB_EP_8_ISR_EXIT_CALLBACK
 671:Generated_Source\PSoC4/USB_episr.c ****         USB_EP_8_ISR_ExitCallback();
 672:Generated_Source\PSoC4/USB_episr.c ****     #endif /* (USB_EP_8_ISR_EXIT_CALLBACK) */
 673:Generated_Source\PSoC4/USB_episr.c **** 
 674:Generated_Source\PSoC4/USB_episr.c ****     #if (CY_PSOC3 && defined(USB_ENABLE_MIDI_STREAMING) && \
 675:Generated_Source\PSoC4/USB_episr.c ****         !defined(USB_MAIN_SERVICE_MIDI_OUT) && USB_ISR_SERVICE_MIDI_OUT)
 676:Generated_Source\PSoC4/USB_episr.c ****         
 677:Generated_Source\PSoC4/USB_episr.c ****             EA = intEn; /* Restore nested interrupt configuration. */
 678:Generated_Source\PSoC4/USB_episr.c ****         }
 679:Generated_Source\PSoC4/USB_episr.c ****     #endif /* (CY_PSOC3 && USB_ISR_SERVICE_MIDI_OUT) */
 680:Generated_Source\PSoC4/USB_episr.c ****     }
 681:Generated_Source\PSoC4/USB_episr.c **** #endif /* (USB_EP8_ISR_ACTIVE) */
 682:Generated_Source\PSoC4/USB_episr.c **** 
 683:Generated_Source\PSoC4/USB_episr.c **** 
 684:Generated_Source\PSoC4/USB_episr.c **** #if (USB_SOF_ISR_ACTIVE)
 685:Generated_Source\PSoC4/USB_episr.c ****     /*******************************************************************************
 686:Generated_Source\PSoC4/USB_episr.c ****     * Function Name: USB_SOF_ISR
 687:Generated_Source\PSoC4/USB_episr.c ****     ****************************************************************************//**
 688:Generated_Source\PSoC4/USB_episr.c ****     *
 689:Generated_Source\PSoC4/USB_episr.c ****     *  Start of Frame Interrupt Service Routine.
 690:Generated_Source\PSoC4/USB_episr.c ****     *
 691:Generated_Source\PSoC4/USB_episr.c ****     *
 692:Generated_Source\PSoC4/USB_episr.c ****     *******************************************************************************/
 693:Generated_Source\PSoC4/USB_episr.c ****     CY_ISR(USB_SOF_ISR)
 694:Generated_Source\PSoC4/USB_episr.c ****     {
 133              		.loc 1 694 0
 134              		.cfi_startproc
 135              		@ args = 0, pretend = 0, frame = 0
 136              		@ frame_needed = 0, uses_anonymous_args = 0
 137              		@ link register save eliminated.
 695:Generated_Source\PSoC4/USB_episr.c ****     #ifdef USB_SOF_ISR_ENTRY_CALLBACK
 696:Generated_Source\PSoC4/USB_episr.c ****         USB_SOF_ISR_EntryCallback();
 697:Generated_Source\PSoC4/USB_episr.c ****     #endif /* (USB_SOF_ISR_ENTRY_CALLBACK) */
 698:Generated_Source\PSoC4/USB_episr.c **** 
 699:Generated_Source\PSoC4/USB_episr.c ****         /* `#START SOF_USER_CODE` Place your code here */
 700:Generated_Source\PSoC4/USB_episr.c **** 
 701:Generated_Source\PSoC4/USB_episr.c ****         /* `#END` */
 702:Generated_Source\PSoC4/USB_episr.c **** 
 703:Generated_Source\PSoC4/USB_episr.c ****         USB_ClearSieInterruptSource(USB_INTR_SIE_SOF_INTR);
 138              		.loc 1 703 0
 139 0000 0122     		movs	r2, #1
 140 0002 014B     		ldr	r3, .L10
 141 0004 1A60     		str	r2, [r3]
 704:Generated_Source\PSoC4/USB_episr.c **** 
 705:Generated_Source\PSoC4/USB_episr.c ****     #ifdef USB_SOF_ISR_EXIT_CALLBACK
 706:Generated_Source\PSoC4/USB_episr.c ****         USB_SOF_ISR_ExitCallback();
 707:Generated_Source\PSoC4/USB_episr.c ****     #endif /* (USB_SOF_ISR_EXIT_CALLBACK) */
 708:Generated_Source\PSoC4/USB_episr.c ****     }
 142              		.loc 1 708 0
 143              		@ sp needed
 144 0006 7047     		bx	lr
 145              	.L11:
 146              		.align	2
 147              	.L10:
ARM GAS  C:\Users\psmus\AppData\Local\Temp\ccpTkKC1.s 			page 16


 148 0008 20202C40 		.word	1076633632
 149              		.cfi_endproc
 150              	.LFE3:
 151              		.size	USB_SOF_ISR, .-USB_SOF_ISR
 152              		.section	.text.USB_BUS_RESET_ISR,"ax",%progbits
 153              		.align	2
 154              		.global	USB_BUS_RESET_ISR
 155              		.code	16
 156              		.thumb_func
 157              		.type	USB_BUS_RESET_ISR, %function
 158              	USB_BUS_RESET_ISR:
 159              	.LFB4:
 709:Generated_Source\PSoC4/USB_episr.c **** #endif /* (USB_SOF_ISR_ACTIVE) */
 710:Generated_Source\PSoC4/USB_episr.c **** 
 711:Generated_Source\PSoC4/USB_episr.c **** 
 712:Generated_Source\PSoC4/USB_episr.c **** #if (USB_BUS_RESET_ISR_ACTIVE)
 713:Generated_Source\PSoC4/USB_episr.c **** /*******************************************************************************
 714:Generated_Source\PSoC4/USB_episr.c **** * Function Name: USB_BUS_RESET_ISR
 715:Generated_Source\PSoC4/USB_episr.c **** ****************************************************************************//**
 716:Generated_Source\PSoC4/USB_episr.c **** *
 717:Generated_Source\PSoC4/USB_episr.c **** *  USB Bus Reset Interrupt Service Routine.  Calls _Start with the same
 718:Generated_Source\PSoC4/USB_episr.c **** *  parameters as the last USER call to _Start
 719:Generated_Source\PSoC4/USB_episr.c **** *
 720:Generated_Source\PSoC4/USB_episr.c **** *
 721:Generated_Source\PSoC4/USB_episr.c **** *******************************************************************************/
 722:Generated_Source\PSoC4/USB_episr.c **** CY_ISR(USB_BUS_RESET_ISR)
 723:Generated_Source\PSoC4/USB_episr.c **** {
 160              		.loc 1 723 0
 161              		.cfi_startproc
 162              		@ args = 0, pretend = 0, frame = 0
 163              		@ frame_needed = 0, uses_anonymous_args = 0
 164 0000 10B5     		push	{r4, lr}
 165              		.cfi_def_cfa_offset 8
 166              		.cfi_offset 4, -8
 167              		.cfi_offset 14, -4
 724:Generated_Source\PSoC4/USB_episr.c **** #ifdef USB_BUS_RESET_ISR_ENTRY_CALLBACK
 725:Generated_Source\PSoC4/USB_episr.c ****     USB_BUS_RESET_ISR_EntryCallback();
 726:Generated_Source\PSoC4/USB_episr.c **** #endif /* (USB_BUS_RESET_ISR_ENTRY_CALLBACK) */
 727:Generated_Source\PSoC4/USB_episr.c **** 
 728:Generated_Source\PSoC4/USB_episr.c ****     /* `#START BUS_RESET_USER_CODE` Place your code here */
 729:Generated_Source\PSoC4/USB_episr.c **** 
 730:Generated_Source\PSoC4/USB_episr.c ****     /* `#END` */
 731:Generated_Source\PSoC4/USB_episr.c **** 
 732:Generated_Source\PSoC4/USB_episr.c ****     USB_ClearSieInterruptSource(USB_INTR_SIE_BUS_RESET_INTR);
 168              		.loc 1 732 0
 169 0002 0222     		movs	r2, #2
 170 0004 024B     		ldr	r3, .L13
 171 0006 1A60     		str	r2, [r3]
 733:Generated_Source\PSoC4/USB_episr.c **** 
 734:Generated_Source\PSoC4/USB_episr.c ****     USB_ReInitComponent();
 172              		.loc 1 734 0
 173 0008 FFF7FEFF 		bl	USB_ReInitComponent
 174              	.LVL0:
 735:Generated_Source\PSoC4/USB_episr.c **** 
 736:Generated_Source\PSoC4/USB_episr.c **** #ifdef USB_BUS_RESET_ISR_EXIT_CALLBACK
 737:Generated_Source\PSoC4/USB_episr.c ****     USB_BUS_RESET_ISR_ExitCallback();
 738:Generated_Source\PSoC4/USB_episr.c **** #endif /* (USB_BUS_RESET_ISR_EXIT_CALLBACK) */
ARM GAS  C:\Users\psmus\AppData\Local\Temp\ccpTkKC1.s 			page 17


 739:Generated_Source\PSoC4/USB_episr.c **** }
 175              		.loc 1 739 0
 176              		@ sp needed
 177 000c 10BD     		pop	{r4, pc}
 178              	.L14:
 179 000e C046     		.align	2
 180              	.L13:
 181 0010 20202C40 		.word	1076633632
 182              		.cfi_endproc
 183              	.LFE4:
 184              		.size	USB_BUS_RESET_ISR, .-USB_BUS_RESET_ISR
 185              		.section	.text.USB_INTR_HI_ISR,"ax",%progbits
 186              		.align	2
 187              		.global	USB_INTR_HI_ISR
 188              		.code	16
 189              		.thumb_func
 190              		.type	USB_INTR_HI_ISR, %function
 191              	USB_INTR_HI_ISR:
 192              	.LFB6:
 740:Generated_Source\PSoC4/USB_episr.c **** #endif /* (USB_BUS_RESET_ISR_ACTIVE) */
 741:Generated_Source\PSoC4/USB_episr.c **** 
 742:Generated_Source\PSoC4/USB_episr.c **** 
 743:Generated_Source\PSoC4/USB_episr.c **** #if (USB_LPM_ACTIVE)
 744:Generated_Source\PSoC4/USB_episr.c **** /***************************************************************************
 745:Generated_Source\PSoC4/USB_episr.c **** * Function Name: USB_INTR_LPM_ISR
 746:Generated_Source\PSoC4/USB_episr.c **** ************************************************************************//**
 747:Generated_Source\PSoC4/USB_episr.c **** *
 748:Generated_Source\PSoC4/USB_episr.c **** *   Interrupt Service Routine for LPM of the interrupt sources.
 749:Generated_Source\PSoC4/USB_episr.c **** *
 750:Generated_Source\PSoC4/USB_episr.c **** *
 751:Generated_Source\PSoC4/USB_episr.c **** ***************************************************************************/
 752:Generated_Source\PSoC4/USB_episr.c **** CY_ISR(USB_LPM_ISR)
 753:Generated_Source\PSoC4/USB_episr.c **** {
 754:Generated_Source\PSoC4/USB_episr.c **** #ifdef USB_LPM_ISR_ENTRY_CALLBACK
 755:Generated_Source\PSoC4/USB_episr.c ****     USB_LPM_ISR_EntryCallback();
 756:Generated_Source\PSoC4/USB_episr.c **** #endif /* (USB_LPM_ISR_ENTRY_CALLBACK) */
 757:Generated_Source\PSoC4/USB_episr.c **** 
 758:Generated_Source\PSoC4/USB_episr.c ****     /* `#START LPM_BEGIN_USER_CODE` Place your code here */
 759:Generated_Source\PSoC4/USB_episr.c **** 
 760:Generated_Source\PSoC4/USB_episr.c ****     /* `#END` */
 761:Generated_Source\PSoC4/USB_episr.c **** 
 762:Generated_Source\PSoC4/USB_episr.c ****     USB_ClearSieInterruptSource(USB_INTR_SIE_LPM_INTR);
 763:Generated_Source\PSoC4/USB_episr.c **** 
 764:Generated_Source\PSoC4/USB_episr.c ****     /* `#START LPM_END_USER_CODE` Place your code here */
 765:Generated_Source\PSoC4/USB_episr.c **** 
 766:Generated_Source\PSoC4/USB_episr.c ****     /* `#END` */
 767:Generated_Source\PSoC4/USB_episr.c **** 
 768:Generated_Source\PSoC4/USB_episr.c **** #ifdef USB_LPM_ISR_EXIT_CALLBACK
 769:Generated_Source\PSoC4/USB_episr.c ****     USB_LPM_ISR_ExitCallback();
 770:Generated_Source\PSoC4/USB_episr.c **** #endif /* (USB_LPM_ISR_EXIT_CALLBACK) */
 771:Generated_Source\PSoC4/USB_episr.c **** }
 772:Generated_Source\PSoC4/USB_episr.c **** #endif /* (USB_LPM_ACTIVE) */
 773:Generated_Source\PSoC4/USB_episr.c **** 
 774:Generated_Source\PSoC4/USB_episr.c **** 
 775:Generated_Source\PSoC4/USB_episr.c **** #if (USB_EP_MANAGEMENT_DMA && USB_ARB_ISR_ACTIVE)
 776:Generated_Source\PSoC4/USB_episr.c ****     /***************************************************************************
 777:Generated_Source\PSoC4/USB_episr.c ****     * Function Name: USB_ARB_ISR
ARM GAS  C:\Users\psmus\AppData\Local\Temp\ccpTkKC1.s 			page 18


 778:Generated_Source\PSoC4/USB_episr.c ****     ************************************************************************//**
 779:Generated_Source\PSoC4/USB_episr.c ****     *
 780:Generated_Source\PSoC4/USB_episr.c ****     *  Arbiter Interrupt Service Routine.
 781:Generated_Source\PSoC4/USB_episr.c ****     *
 782:Generated_Source\PSoC4/USB_episr.c ****     *
 783:Generated_Source\PSoC4/USB_episr.c ****     ***************************************************************************/
 784:Generated_Source\PSoC4/USB_episr.c ****     CY_ISR(USB_ARB_ISR)
 785:Generated_Source\PSoC4/USB_episr.c ****     {
 786:Generated_Source\PSoC4/USB_episr.c ****         uint32 arbIntrStatus;
 787:Generated_Source\PSoC4/USB_episr.c ****         uint32 epStatus;
 788:Generated_Source\PSoC4/USB_episr.c ****         uint32 ep = USB_EP1;
 789:Generated_Source\PSoC4/USB_episr.c **** 
 790:Generated_Source\PSoC4/USB_episr.c ****     #ifdef USB_ARB_ISR_ENTRY_CALLBACK
 791:Generated_Source\PSoC4/USB_episr.c ****         USB_ARB_ISR_EntryCallback();
 792:Generated_Source\PSoC4/USB_episr.c ****     #endif /* (USB_ARB_ISR_ENTRY_CALLBACK) */
 793:Generated_Source\PSoC4/USB_episr.c **** 
 794:Generated_Source\PSoC4/USB_episr.c ****         /* `#START ARB_BEGIN_USER_CODE` Place your code here */
 795:Generated_Source\PSoC4/USB_episr.c **** 
 796:Generated_Source\PSoC4/USB_episr.c ****         /* `#END` */
 797:Generated_Source\PSoC4/USB_episr.c **** 
 798:Generated_Source\PSoC4/USB_episr.c ****         /* Get pending ARB interrupt sources. */
 799:Generated_Source\PSoC4/USB_episr.c ****         arbIntrStatus = USB_ARB_INT_SR_REG;
 800:Generated_Source\PSoC4/USB_episr.c **** 
 801:Generated_Source\PSoC4/USB_episr.c ****         while (0u != arbIntrStatus)
 802:Generated_Source\PSoC4/USB_episr.c ****         {
 803:Generated_Source\PSoC4/USB_episr.c ****             /* Check which EP is interrupt source. */
 804:Generated_Source\PSoC4/USB_episr.c ****             if (0u != (arbIntrStatus & 0x01u))
 805:Generated_Source\PSoC4/USB_episr.c ****             {
 806:Generated_Source\PSoC4/USB_episr.c ****                 /* Get endpoint enable interrupt sources. */
 807:Generated_Source\PSoC4/USB_episr.c ****                 epStatus = (USB_ARB_EP_BASE.arbEp[ep].epSr & USB_ARB_EP_BASE.arbEp[ep].epIntEn);
 808:Generated_Source\PSoC4/USB_episr.c **** 
 809:Generated_Source\PSoC4/USB_episr.c ****                 /* Handle IN endpoint buffer full event: happens only once when endpoint buffer is 
 810:Generated_Source\PSoC4/USB_episr.c ****                 if (0u != (epStatus & USB_ARB_EPX_INT_IN_BUF_FULL))
 811:Generated_Source\PSoC4/USB_episr.c ****                 {
 812:Generated_Source\PSoC4/USB_episr.c ****                     if (0u != (USB_EP[ep].addr & USB_DIR_IN))
 813:Generated_Source\PSoC4/USB_episr.c ****                     {
 814:Generated_Source\PSoC4/USB_episr.c ****                         /* Clear data ready status. */
 815:Generated_Source\PSoC4/USB_episr.c ****                         USB_ARB_EP_BASE.arbEp[ep].epCfg &= (uint32) ~USB_ARB_EPX_CFG_IN_DATA_RDY;
 816:Generated_Source\PSoC4/USB_episr.c **** 
 817:Generated_Source\PSoC4/USB_episr.c ****                     #if (CY_PSOC3 || CY_PSOC5LP)
 818:Generated_Source\PSoC4/USB_episr.c ****                         #if (USB_EP_MANAGEMENT_DMA_AUTO && (USB_EP_DMA_AUTO_OPT == 0u))
 819:Generated_Source\PSoC4/USB_episr.c ****                             /* Set up common area DMA with rest of data. */
 820:Generated_Source\PSoC4/USB_episr.c ****                             if(USB_inLength[ep] > USB_DMA_BYTES_PER_BURST)
 821:Generated_Source\PSoC4/USB_episr.c ****                             {
 822:Generated_Source\PSoC4/USB_episr.c ****                                 USB_LoadNextInEP(ep, 0u);
 823:Generated_Source\PSoC4/USB_episr.c ****                             }
 824:Generated_Source\PSoC4/USB_episr.c ****                             else
 825:Generated_Source\PSoC4/USB_episr.c ****                             {
 826:Generated_Source\PSoC4/USB_episr.c ****                                 USB_inBufFull[ep] = 1u;
 827:Generated_Source\PSoC4/USB_episr.c ****                             }
 828:Generated_Source\PSoC4/USB_episr.c ****                         #endif /* (USB_EP_MANAGEMENT_DMA_AUTO && (USB_EP_DMA_AUTO_OPT == 0u)) */
 829:Generated_Source\PSoC4/USB_episr.c ****                     #endif /* (CY_PSOC3 || CY_PSOC5LP) */
 830:Generated_Source\PSoC4/USB_episr.c **** 
 831:Generated_Source\PSoC4/USB_episr.c ****                         /* Arm IN endpoint. */
 832:Generated_Source\PSoC4/USB_episr.c ****                         USB_SIE_EP_BASE.sieEp[ep].epCr0 = USB_EP[ep].epMode;
 833:Generated_Source\PSoC4/USB_episr.c **** 
 834:Generated_Source\PSoC4/USB_episr.c ****                     #if (defined(USB_ENABLE_MIDI_STREAMING) && USB_ISR_SERVICE_MIDI_IN)
ARM GAS  C:\Users\psmus\AppData\Local\Temp\ccpTkKC1.s 			page 19


 835:Generated_Source\PSoC4/USB_episr.c ****                         if (ep == USB_midi_in_ep)
 836:Generated_Source\PSoC4/USB_episr.c ****                         {
 837:Generated_Source\PSoC4/USB_episr.c ****                             /* Clear MIDI input pointer. */
 838:Generated_Source\PSoC4/USB_episr.c ****                             USB_midiInPointer = 0u;
 839:Generated_Source\PSoC4/USB_episr.c ****                         }
 840:Generated_Source\PSoC4/USB_episr.c ****                     #endif /* (USB_ENABLE_MIDI_STREAMING) */
 841:Generated_Source\PSoC4/USB_episr.c ****                     }
 842:Generated_Source\PSoC4/USB_episr.c ****                 }
 843:Generated_Source\PSoC4/USB_episr.c **** 
 844:Generated_Source\PSoC4/USB_episr.c ****             #if (USB_EP_MANAGEMENT_DMA_MANUAL)
 845:Generated_Source\PSoC4/USB_episr.c ****                 /* Handle DMA completion event for OUT endpoints. */
 846:Generated_Source\PSoC4/USB_episr.c ****                 if (0u != (epStatus & USB_ARB_EPX_SR_DMA_GNT))
 847:Generated_Source\PSoC4/USB_episr.c ****                 {
 848:Generated_Source\PSoC4/USB_episr.c ****                     if (0u == (USB_EP[ep].addr & USB_DIR_IN))
 849:Generated_Source\PSoC4/USB_episr.c ****                     {
 850:Generated_Source\PSoC4/USB_episr.c ****                         /* Notify user that data has been copied from endpoint buffer. */
 851:Generated_Source\PSoC4/USB_episr.c ****                         USB_EP[ep].apiEpState = USB_NO_EVENT_PENDING;
 852:Generated_Source\PSoC4/USB_episr.c **** 
 853:Generated_Source\PSoC4/USB_episr.c ****                         /* DMA done coping data: OUT endpoint has to be re-armed by user. */
 854:Generated_Source\PSoC4/USB_episr.c ****                     }
 855:Generated_Source\PSoC4/USB_episr.c ****                 }
 856:Generated_Source\PSoC4/USB_episr.c ****             #endif /* (USB_EP_MANAGEMENT_DMA_MANUAL) */
 857:Generated_Source\PSoC4/USB_episr.c **** 
 858:Generated_Source\PSoC4/USB_episr.c ****             #if (CY_PSOC4 && USB_EP_MANAGEMENT_DMA_AUTO)
 859:Generated_Source\PSoC4/USB_episr.c ****                 /* Handle DMA completion event for OUT endpoints. */
 860:Generated_Source\PSoC4/USB_episr.c ****                 if (0u != (epStatus & USB_ARB_EPX_INT_DMA_TERMIN))
 861:Generated_Source\PSoC4/USB_episr.c ****                 {
 862:Generated_Source\PSoC4/USB_episr.c ****                     uint32 channelNum = USB_DmaChan[ep];
 863:Generated_Source\PSoC4/USB_episr.c **** 
 864:Generated_Source\PSoC4/USB_episr.c ****                     /* Restore burst counter for endpoint. */
 865:Generated_Source\PSoC4/USB_episr.c ****                     USB_DmaEpBurstCnt[ep] = USB_DMA_GET_BURST_CNT(USB_DmaEpBurstCntBackup[ep]);
 866:Generated_Source\PSoC4/USB_episr.c **** 
 867:Generated_Source\PSoC4/USB_episr.c ****                     /* Disable DMA channel to restore descriptor configuration. The on-going transf
 868:Generated_Source\PSoC4/USB_episr.c ****                     USB_CyDmaChDisable(channelNum);
 869:Generated_Source\PSoC4/USB_episr.c **** 
 870:Generated_Source\PSoC4/USB_episr.c ****                     /* Generate DMA tr_out signal to notify USB IP that DMA is done. This signal is
 871:Generated_Source\PSoC4/USB_episr.c ****                     * when transfer was aborted (it occurs when host writes less bytes than buffer 
 872:Generated_Source\PSoC4/USB_episr.c ****                     */
 873:Generated_Source\PSoC4/USB_episr.c ****                     USB_CyDmaTriggerOut(USB_DmaBurstEndOut[ep]);
 874:Generated_Source\PSoC4/USB_episr.c **** 
 875:Generated_Source\PSoC4/USB_episr.c ****                     /* Restore destination address for output endpoint. */
 876:Generated_Source\PSoC4/USB_episr.c ****                     USB_CyDmaSetDstAddress(channelNum, USB_DMA_DESCR0, (void*) ((uint32) USB_DmaEpB
 877:Generated_Source\PSoC4/USB_episr.c ****                     USB_CyDmaSetDstAddress(channelNum, USB_DMA_DESCR1, (void*) ((uint32) USB_DmaEpB
 878:Generated_Source\PSoC4/USB_episr.c ****                                                                                                    
 879:Generated_Source\PSoC4/USB_episr.c **** 
 880:Generated_Source\PSoC4/USB_episr.c ****                     /* Restore number of data elements to transfer which was adjusted for last burs
 881:Generated_Source\PSoC4/USB_episr.c ****                     if (0u != (USB_DmaEpLastBurstEl[ep] & USB_DMA_DESCR_REVERT))
 882:Generated_Source\PSoC4/USB_episr.c ****                     {
 883:Generated_Source\PSoC4/USB_episr.c ****                         USB_CyDmaSetNumDataElements(channelNum, (USB_DmaEpLastBurstEl[ep] >> USB_DM
 884:Generated_Source\PSoC4/USB_episr.c ****                                                                              USB_DMA_GET_MAX_ELEM_P
 885:Generated_Source\PSoC4/USB_episr.c ****                     }
 886:Generated_Source\PSoC4/USB_episr.c **** 
 887:Generated_Source\PSoC4/USB_episr.c ****                     /* Validate descriptor 0 and 1 (also reset current state). Command to start wit
 888:Generated_Source\PSoC4/USB_episr.c ****                     USB_CyDmaValidateDescriptor(channelNum, USB_DMA_DESCR0);
 889:Generated_Source\PSoC4/USB_episr.c ****                     if (USB_DmaEpBurstCntBackup[ep] > 1u)
 890:Generated_Source\PSoC4/USB_episr.c ****                     {
 891:Generated_Source\PSoC4/USB_episr.c ****                         USB_CyDmaValidateDescriptor(channelNum, USB_DMA_DESCR1);
ARM GAS  C:\Users\psmus\AppData\Local\Temp\ccpTkKC1.s 			page 20


 892:Generated_Source\PSoC4/USB_episr.c ****                     }
 893:Generated_Source\PSoC4/USB_episr.c ****                     USB_CyDmaSetDescriptor0Next(channelNum);
 894:Generated_Source\PSoC4/USB_episr.c **** 
 895:Generated_Source\PSoC4/USB_episr.c ****                     /* Enable DMA channel: configuration complete. */
 896:Generated_Source\PSoC4/USB_episr.c ****                     USB_CyDmaChEnable(channelNum);
 897:Generated_Source\PSoC4/USB_episr.c ****                     
 898:Generated_Source\PSoC4/USB_episr.c ****                     
 899:Generated_Source\PSoC4/USB_episr.c ****                     /* Read CR0 register to clear SIE lock. */
 900:Generated_Source\PSoC4/USB_episr.c ****                     (void) USB_SIE_EP_BASE.sieEp[ep].epCr0;
 901:Generated_Source\PSoC4/USB_episr.c ****                     
 902:Generated_Source\PSoC4/USB_episr.c ****                     /* Toggle all endpoint types except ISOC. */
 903:Generated_Source\PSoC4/USB_episr.c ****                     if (USB_GET_EP_TYPE(ep) != USB_EP_TYPE_ISOC)
 904:Generated_Source\PSoC4/USB_episr.c ****                     {
 905:Generated_Source\PSoC4/USB_episr.c ****                         USB_EP[ep].epToggle ^= USB_EPX_CNT_DATA_TOGGLE;
 906:Generated_Source\PSoC4/USB_episr.c ****                     }
 907:Generated_Source\PSoC4/USB_episr.c ****             
 908:Generated_Source\PSoC4/USB_episr.c ****                     /* Notify user that data has been copied from endpoint buffer. */
 909:Generated_Source\PSoC4/USB_episr.c ****                     USB_EP[ep].apiEpState = USB_EVENT_PENDING;
 910:Generated_Source\PSoC4/USB_episr.c ****                     
 911:Generated_Source\PSoC4/USB_episr.c ****                 #if (defined(USB_ENABLE_MIDI_STREAMING) && \
 912:Generated_Source\PSoC4/USB_episr.c ****                     !defined(USB_MAIN_SERVICE_MIDI_OUT) && USB_ISR_SERVICE_MIDI_OUT)
 913:Generated_Source\PSoC4/USB_episr.c ****                     if (USB_midi_out_ep == ep)
 914:Generated_Source\PSoC4/USB_episr.c ****                     {
 915:Generated_Source\PSoC4/USB_episr.c ****                         USB_MIDI_OUT_Service();
 916:Generated_Source\PSoC4/USB_episr.c ****                     }
 917:Generated_Source\PSoC4/USB_episr.c ****                 #endif /* (USB_ISR_SERVICE_MIDI_OUT) */
 918:Generated_Source\PSoC4/USB_episr.c ****                 }
 919:Generated_Source\PSoC4/USB_episr.c ****             #endif /* (CY_PSOC4 && USB_EP_MANAGEMENT_DMA_AUTO) */
 920:Generated_Source\PSoC4/USB_episr.c **** 
 921:Generated_Source\PSoC4/USB_episr.c **** 
 922:Generated_Source\PSoC4/USB_episr.c ****                 /* `#START ARB_USER_CODE` Place your code here for handle Buffer Underflow/Overflow
 923:Generated_Source\PSoC4/USB_episr.c **** 
 924:Generated_Source\PSoC4/USB_episr.c ****                 /* `#END` */
 925:Generated_Source\PSoC4/USB_episr.c **** 
 926:Generated_Source\PSoC4/USB_episr.c ****             #ifdef USB_ARB_ISR_CALLBACK
 927:Generated_Source\PSoC4/USB_episr.c ****                 USB_ARB_ISR_Callback(ep, epStatus);
 928:Generated_Source\PSoC4/USB_episr.c ****             #endif /* (USB_ARB_ISR_CALLBACK) */
 929:Generated_Source\PSoC4/USB_episr.c **** 
 930:Generated_Source\PSoC4/USB_episr.c ****                 /* Clear serviced endpoint interrupt sources. */
 931:Generated_Source\PSoC4/USB_episr.c ****                 USB_ARB_EP_BASE.arbEp[ep].epSr = epStatus;
 932:Generated_Source\PSoC4/USB_episr.c ****             }
 933:Generated_Source\PSoC4/USB_episr.c **** 
 934:Generated_Source\PSoC4/USB_episr.c ****             ++ep;
 935:Generated_Source\PSoC4/USB_episr.c ****             arbIntrStatus >>= 1u;
 936:Generated_Source\PSoC4/USB_episr.c ****         }
 937:Generated_Source\PSoC4/USB_episr.c **** 
 938:Generated_Source\PSoC4/USB_episr.c ****         /* `#START ARB_END_USER_CODE` Place your code here */
 939:Generated_Source\PSoC4/USB_episr.c **** 
 940:Generated_Source\PSoC4/USB_episr.c ****         /* `#END` */
 941:Generated_Source\PSoC4/USB_episr.c **** 
 942:Generated_Source\PSoC4/USB_episr.c ****     #ifdef USB_ARB_ISR_EXIT_CALLBACK
 943:Generated_Source\PSoC4/USB_episr.c ****         USB_ARB_ISR_ExitCallback();
 944:Generated_Source\PSoC4/USB_episr.c ****     #endif /* (USB_ARB_ISR_EXIT_CALLBACK) */
 945:Generated_Source\PSoC4/USB_episr.c ****     }
 946:Generated_Source\PSoC4/USB_episr.c **** 
 947:Generated_Source\PSoC4/USB_episr.c **** #endif /*  (USB_ARB_ISR_ACTIVE && USB_EP_MANAGEMENT_DMA) */
 948:Generated_Source\PSoC4/USB_episr.c **** 
ARM GAS  C:\Users\psmus\AppData\Local\Temp\ccpTkKC1.s 			page 21


 949:Generated_Source\PSoC4/USB_episr.c **** 
 950:Generated_Source\PSoC4/USB_episr.c **** #if (USB_EP_MANAGEMENT_DMA_AUTO)
 951:Generated_Source\PSoC4/USB_episr.c **** #if (CY_PSOC4)
 952:Generated_Source\PSoC4/USB_episr.c **** 
 953:Generated_Source\PSoC4/USB_episr.c ****     /******************************************************************************
 954:Generated_Source\PSoC4/USB_episr.c ****     * Function Name: USB_EPxDmaDone
 955:Generated_Source\PSoC4/USB_episr.c ****     ***************************************************************************//**
 956:Generated_Source\PSoC4/USB_episr.c ****     *
 957:Generated_Source\PSoC4/USB_episr.c ****     * \internal
 958:Generated_Source\PSoC4/USB_episr.c ****     *  Endpoint  DMA Done Interrupt Service Routine basic function .
 959:Generated_Source\PSoC4/USB_episr.c ****     *  
 960:Generated_Source\PSoC4/USB_episr.c ****     *  \param dmaCh
 961:Generated_Source\PSoC4/USB_episr.c ****     *  number of DMA channel
 962:Generated_Source\PSoC4/USB_episr.c ****     *  
 963:Generated_Source\PSoC4/USB_episr.c ****     *  \param ep
 964:Generated_Source\PSoC4/USB_episr.c ****     *  number of USB end point
 965:Generated_Source\PSoC4/USB_episr.c ****     *  
 966:Generated_Source\PSoC4/USB_episr.c ****     *  \param dmaDone
 967:Generated_Source\PSoC4/USB_episr.c ****     *  transfer completion flag
 968:Generated_Source\PSoC4/USB_episr.c ****     *  
 969:Generated_Source\PSoC4/USB_episr.c ****     *  \return
 970:Generated_Source\PSoC4/USB_episr.c ****     *   updated transfer completion flag
 971:Generated_Source\PSoC4/USB_episr.c ****     *
 972:Generated_Source\PSoC4/USB_episr.c ****     ******************************************************************************/
 973:Generated_Source\PSoC4/USB_episr.c ****     CY_INLINE static void USB_EPxDmaDone(uint8 dmaCh, uint8 ep)
 974:Generated_Source\PSoC4/USB_episr.c ****     {
 975:Generated_Source\PSoC4/USB_episr.c ****         uint32 nextAddr;
 976:Generated_Source\PSoC4/USB_episr.c **** 
 977:Generated_Source\PSoC4/USB_episr.c ****         /* Manage data elements which remain to transfer. */
 978:Generated_Source\PSoC4/USB_episr.c ****         if (0u != USB_DmaEpBurstCnt[ep])
 979:Generated_Source\PSoC4/USB_episr.c ****         {
 980:Generated_Source\PSoC4/USB_episr.c ****             if(USB_DmaEpBurstCnt[ep] <= 2u)
 981:Generated_Source\PSoC4/USB_episr.c ****             {
 982:Generated_Source\PSoC4/USB_episr.c ****                 /* Adjust length of last burst. */
 983:Generated_Source\PSoC4/USB_episr.c ****                 USB_CyDmaSetNumDataElements(dmaCh,
 984:Generated_Source\PSoC4/USB_episr.c ****                                                     ((uint32) USB_DmaEpLastBurstEl[ep] >> USB_DMA_D
 985:Generated_Source\PSoC4/USB_episr.c ****                                                     ((uint32) USB_DmaEpLastBurstEl[ep] &  USB_DMA_B
 986:Generated_Source\PSoC4/USB_episr.c ****             }
 987:Generated_Source\PSoC4/USB_episr.c ****             
 988:Generated_Source\PSoC4/USB_episr.c **** 
 989:Generated_Source\PSoC4/USB_episr.c ****             /* Advance source for input endpoint or destination for output endpoint. */
 990:Generated_Source\PSoC4/USB_episr.c ****             if (0u != (USB_EP[ep].addr & USB_DIR_IN))
 991:Generated_Source\PSoC4/USB_episr.c ****             {
 992:Generated_Source\PSoC4/USB_episr.c ****                 /* Change source for descriptor 0. */
 993:Generated_Source\PSoC4/USB_episr.c ****                 nextAddr = (uint32) USB_CyDmaGetSrcAddress(dmaCh, USB_DMA_DESCR0);
 994:Generated_Source\PSoC4/USB_episr.c ****                 nextAddr += (2u * USB_DMA_BYTES_PER_BURST);
 995:Generated_Source\PSoC4/USB_episr.c ****                 USB_CyDmaSetSrcAddress(dmaCh, USB_DMA_DESCR0, (void *) nextAddr);
 996:Generated_Source\PSoC4/USB_episr.c **** 
 997:Generated_Source\PSoC4/USB_episr.c ****                 /* Change source for descriptor 1. */
 998:Generated_Source\PSoC4/USB_episr.c ****                 nextAddr += USB_DMA_BYTES_PER_BURST;
 999:Generated_Source\PSoC4/USB_episr.c ****                 USB_CyDmaSetSrcAddress(dmaCh, USB_DMA_DESCR1, (void *) nextAddr);
1000:Generated_Source\PSoC4/USB_episr.c ****             }
1001:Generated_Source\PSoC4/USB_episr.c ****             else
1002:Generated_Source\PSoC4/USB_episr.c ****             {
1003:Generated_Source\PSoC4/USB_episr.c ****                 /* Change destination for descriptor 0. */
1004:Generated_Source\PSoC4/USB_episr.c ****                 nextAddr  = (uint32) USB_CyDmaGetDstAddress(dmaCh, USB_DMA_DESCR0);
1005:Generated_Source\PSoC4/USB_episr.c ****                 nextAddr += (2u * USB_DMA_BYTES_PER_BURST);
ARM GAS  C:\Users\psmus\AppData\Local\Temp\ccpTkKC1.s 			page 22


1006:Generated_Source\PSoC4/USB_episr.c ****                 USB_CyDmaSetDstAddress(dmaCh, USB_DMA_DESCR0, (void *) nextAddr);
1007:Generated_Source\PSoC4/USB_episr.c **** 
1008:Generated_Source\PSoC4/USB_episr.c ****                 /* Change destination for descriptor 1. */
1009:Generated_Source\PSoC4/USB_episr.c ****                 nextAddr += USB_DMA_BYTES_PER_BURST;
1010:Generated_Source\PSoC4/USB_episr.c ****                 USB_CyDmaSetDstAddress(dmaCh, USB_DMA_DESCR1, (void *) nextAddr);
1011:Generated_Source\PSoC4/USB_episr.c ****             }
1012:Generated_Source\PSoC4/USB_episr.c **** 
1013:Generated_Source\PSoC4/USB_episr.c ****             /* Enable DMA to execute transfer as it was disabled because there were no valid descri
1014:Generated_Source\PSoC4/USB_episr.c ****             USB_CyDmaValidateDescriptor(dmaCh, USB_DMA_DESCR0);
1015:Generated_Source\PSoC4/USB_episr.c ****             
1016:Generated_Source\PSoC4/USB_episr.c ****             --USB_DmaEpBurstCnt[ep];
1017:Generated_Source\PSoC4/USB_episr.c ****             if (0u != USB_DmaEpBurstCnt[ep])
1018:Generated_Source\PSoC4/USB_episr.c ****             {
1019:Generated_Source\PSoC4/USB_episr.c ****                 USB_CyDmaValidateDescriptor(dmaCh, USB_DMA_DESCR1);
1020:Generated_Source\PSoC4/USB_episr.c ****                 --USB_DmaEpBurstCnt[ep];
1021:Generated_Source\PSoC4/USB_episr.c ****             }
1022:Generated_Source\PSoC4/USB_episr.c ****             
1023:Generated_Source\PSoC4/USB_episr.c ****             USB_CyDmaChEnable (dmaCh);
1024:Generated_Source\PSoC4/USB_episr.c ****             USB_CyDmaTriggerIn(USB_DmaReqOut[ep]);
1025:Generated_Source\PSoC4/USB_episr.c ****         }
1026:Generated_Source\PSoC4/USB_episr.c ****         else
1027:Generated_Source\PSoC4/USB_episr.c ****         {
1028:Generated_Source\PSoC4/USB_episr.c ****             /* No data to transfer. False DMA trig. Ignore.  */
1029:Generated_Source\PSoC4/USB_episr.c ****         }
1030:Generated_Source\PSoC4/USB_episr.c **** 
1031:Generated_Source\PSoC4/USB_episr.c ****     }
1032:Generated_Source\PSoC4/USB_episr.c **** 
1033:Generated_Source\PSoC4/USB_episr.c ****     #if (USB_DMA1_ACTIVE)
1034:Generated_Source\PSoC4/USB_episr.c ****         /******************************************************************************
1035:Generated_Source\PSoC4/USB_episr.c ****         * Function Name: USB_EP1_DMA_DONE_ISR
1036:Generated_Source\PSoC4/USB_episr.c ****         ***************************************************************************//**
1037:Generated_Source\PSoC4/USB_episr.c ****         *
1038:Generated_Source\PSoC4/USB_episr.c ****         *  Endpoint 1 DMA Done Interrupt Service Routine.
1039:Generated_Source\PSoC4/USB_episr.c ****         *
1040:Generated_Source\PSoC4/USB_episr.c ****         *
1041:Generated_Source\PSoC4/USB_episr.c ****         ******************************************************************************/
1042:Generated_Source\PSoC4/USB_episr.c ****         void USB_EP1_DMA_DONE_ISR(void)
1043:Generated_Source\PSoC4/USB_episr.c ****         {
1044:Generated_Source\PSoC4/USB_episr.c **** 
1045:Generated_Source\PSoC4/USB_episr.c ****             USB_EPxDmaDone((uint8)USB_EP1_DMA_CH,
1046:Generated_Source\PSoC4/USB_episr.c ****                                                   USB_EP1);
1047:Generated_Source\PSoC4/USB_episr.c ****                 
1048:Generated_Source\PSoC4/USB_episr.c ****         }
1049:Generated_Source\PSoC4/USB_episr.c ****     #endif /* (USB_DMA1_ACTIVE) */
1050:Generated_Source\PSoC4/USB_episr.c **** 
1051:Generated_Source\PSoC4/USB_episr.c **** 
1052:Generated_Source\PSoC4/USB_episr.c ****     #if (USB_DMA2_ACTIVE)
1053:Generated_Source\PSoC4/USB_episr.c ****         /******************************************************************************
1054:Generated_Source\PSoC4/USB_episr.c ****         * Function Name: USB_EP2_DMA_DONE_ISR
1055:Generated_Source\PSoC4/USB_episr.c ****         ***************************************************************************//**
1056:Generated_Source\PSoC4/USB_episr.c ****         *
1057:Generated_Source\PSoC4/USB_episr.c ****         *  Endpoint 2 DMA Done Interrupt Service Routine.
1058:Generated_Source\PSoC4/USB_episr.c ****         *
1059:Generated_Source\PSoC4/USB_episr.c ****         *
1060:Generated_Source\PSoC4/USB_episr.c ****         ******************************************************************************/
1061:Generated_Source\PSoC4/USB_episr.c ****         void USB_EP2_DMA_DONE_ISR(void)
1062:Generated_Source\PSoC4/USB_episr.c ****         {
ARM GAS  C:\Users\psmus\AppData\Local\Temp\ccpTkKC1.s 			page 23


1063:Generated_Source\PSoC4/USB_episr.c **** 
1064:Generated_Source\PSoC4/USB_episr.c ****             USB_EPxDmaDone((uint8)USB_EP2_DMA_CH,
1065:Generated_Source\PSoC4/USB_episr.c ****                                                   USB_EP2);
1066:Generated_Source\PSoC4/USB_episr.c ****         }
1067:Generated_Source\PSoC4/USB_episr.c ****     #endif /* (USB_DMA2_ACTIVE) */
1068:Generated_Source\PSoC4/USB_episr.c **** 
1069:Generated_Source\PSoC4/USB_episr.c **** 
1070:Generated_Source\PSoC4/USB_episr.c ****     #if (USB_DMA3_ACTIVE)
1071:Generated_Source\PSoC4/USB_episr.c ****         /******************************************************************************
1072:Generated_Source\PSoC4/USB_episr.c ****         * Function Name: USB_EP3_DMA_DONE_ISR
1073:Generated_Source\PSoC4/USB_episr.c ****         ***************************************************************************//**
1074:Generated_Source\PSoC4/USB_episr.c ****         *
1075:Generated_Source\PSoC4/USB_episr.c ****         *  Endpoint 3 DMA Done Interrupt Service Routine.
1076:Generated_Source\PSoC4/USB_episr.c ****         *
1077:Generated_Source\PSoC4/USB_episr.c ****         *
1078:Generated_Source\PSoC4/USB_episr.c ****         ******************************************************************************/
1079:Generated_Source\PSoC4/USB_episr.c ****         void USB_EP3_DMA_DONE_ISR(void)
1080:Generated_Source\PSoC4/USB_episr.c ****         {
1081:Generated_Source\PSoC4/USB_episr.c **** 
1082:Generated_Source\PSoC4/USB_episr.c ****             USB_EPxDmaDone((uint8)USB_EP3_DMA_CH,
1083:Generated_Source\PSoC4/USB_episr.c ****                                                   USB_EP3);
1084:Generated_Source\PSoC4/USB_episr.c ****         }
1085:Generated_Source\PSoC4/USB_episr.c ****     #endif /* (USB_DMA3_ACTIVE) */
1086:Generated_Source\PSoC4/USB_episr.c **** 
1087:Generated_Source\PSoC4/USB_episr.c **** 
1088:Generated_Source\PSoC4/USB_episr.c ****     #if (USB_DMA4_ACTIVE)
1089:Generated_Source\PSoC4/USB_episr.c ****         /******************************************************************************
1090:Generated_Source\PSoC4/USB_episr.c ****         * Function Name: USB_EP4_DMA_DONE_ISR
1091:Generated_Source\PSoC4/USB_episr.c ****         ***************************************************************************//**
1092:Generated_Source\PSoC4/USB_episr.c ****         *
1093:Generated_Source\PSoC4/USB_episr.c ****         *  Endpoint 4 DMA Done Interrupt Service Routine.
1094:Generated_Source\PSoC4/USB_episr.c ****         *
1095:Generated_Source\PSoC4/USB_episr.c ****         *
1096:Generated_Source\PSoC4/USB_episr.c ****         ******************************************************************************/
1097:Generated_Source\PSoC4/USB_episr.c ****         void USB_EP4_DMA_DONE_ISR(void)
1098:Generated_Source\PSoC4/USB_episr.c ****         {
1099:Generated_Source\PSoC4/USB_episr.c **** 
1100:Generated_Source\PSoC4/USB_episr.c ****             USB_EPxDmaDone((uint8)USB_EP4_DMA_CH,
1101:Generated_Source\PSoC4/USB_episr.c ****                                                   USB_EP4);
1102:Generated_Source\PSoC4/USB_episr.c ****         }
1103:Generated_Source\PSoC4/USB_episr.c ****     #endif /* (USB_DMA4_ACTIVE) */
1104:Generated_Source\PSoC4/USB_episr.c **** 
1105:Generated_Source\PSoC4/USB_episr.c **** 
1106:Generated_Source\PSoC4/USB_episr.c ****     #if (USB_DMA5_ACTIVE)
1107:Generated_Source\PSoC4/USB_episr.c ****         /******************************************************************************
1108:Generated_Source\PSoC4/USB_episr.c ****         * Function Name: USB_EP5_DMA_DONE_ISR
1109:Generated_Source\PSoC4/USB_episr.c ****         ***************************************************************************//**
1110:Generated_Source\PSoC4/USB_episr.c ****         *
1111:Generated_Source\PSoC4/USB_episr.c ****         *  Endpoint 5 DMA Done Interrupt Service Routine.
1112:Generated_Source\PSoC4/USB_episr.c ****         *
1113:Generated_Source\PSoC4/USB_episr.c ****         *
1114:Generated_Source\PSoC4/USB_episr.c ****         ******************************************************************************/
1115:Generated_Source\PSoC4/USB_episr.c ****         void USB_EP5_DMA_DONE_ISR(void)
1116:Generated_Source\PSoC4/USB_episr.c ****         {
1117:Generated_Source\PSoC4/USB_episr.c **** 
1118:Generated_Source\PSoC4/USB_episr.c ****             USB_EPxDmaDone((uint8)USB_EP5_DMA_CH,
1119:Generated_Source\PSoC4/USB_episr.c ****                                                   USB_EP5);
ARM GAS  C:\Users\psmus\AppData\Local\Temp\ccpTkKC1.s 			page 24


1120:Generated_Source\PSoC4/USB_episr.c ****         }
1121:Generated_Source\PSoC4/USB_episr.c ****     #endif /* (USB_DMA5_ACTIVE) */
1122:Generated_Source\PSoC4/USB_episr.c **** 
1123:Generated_Source\PSoC4/USB_episr.c **** 
1124:Generated_Source\PSoC4/USB_episr.c ****     #if (USB_DMA6_ACTIVE)
1125:Generated_Source\PSoC4/USB_episr.c ****         /******************************************************************************
1126:Generated_Source\PSoC4/USB_episr.c ****         * Function Name: USB_EP6_DMA_DONE_ISR
1127:Generated_Source\PSoC4/USB_episr.c ****         ***************************************************************************//**
1128:Generated_Source\PSoC4/USB_episr.c ****         *
1129:Generated_Source\PSoC4/USB_episr.c ****         *  Endpoint 6 DMA Done Interrupt Service Routine.
1130:Generated_Source\PSoC4/USB_episr.c ****         *
1131:Generated_Source\PSoC4/USB_episr.c ****         *
1132:Generated_Source\PSoC4/USB_episr.c ****         ******************************************************************************/
1133:Generated_Source\PSoC4/USB_episr.c ****         void USB_EP6_DMA_DONE_ISR(void)
1134:Generated_Source\PSoC4/USB_episr.c ****         {
1135:Generated_Source\PSoC4/USB_episr.c **** 
1136:Generated_Source\PSoC4/USB_episr.c ****             USB_EPxDmaDone((uint8)USB_EP6_DMA_CH,
1137:Generated_Source\PSoC4/USB_episr.c ****                                                   USB_EP6);
1138:Generated_Source\PSoC4/USB_episr.c ****         }
1139:Generated_Source\PSoC4/USB_episr.c ****     #endif /* (USB_DMA6_ACTIVE) */
1140:Generated_Source\PSoC4/USB_episr.c **** 
1141:Generated_Source\PSoC4/USB_episr.c **** 
1142:Generated_Source\PSoC4/USB_episr.c ****     #if (USB_DMA7_ACTIVE)
1143:Generated_Source\PSoC4/USB_episr.c ****         /******************************************************************************
1144:Generated_Source\PSoC4/USB_episr.c ****         * Function Name: USB_EP7_DMA_DONE_ISR
1145:Generated_Source\PSoC4/USB_episr.c ****         ***************************************************************************//**
1146:Generated_Source\PSoC4/USB_episr.c ****         *
1147:Generated_Source\PSoC4/USB_episr.c ****         *  Endpoint 7 DMA Done Interrupt Service Routine.
1148:Generated_Source\PSoC4/USB_episr.c ****         *
1149:Generated_Source\PSoC4/USB_episr.c ****         *
1150:Generated_Source\PSoC4/USB_episr.c ****         ******************************************************************************/
1151:Generated_Source\PSoC4/USB_episr.c ****         void USB_EP7_DMA_DONE_ISR(void)
1152:Generated_Source\PSoC4/USB_episr.c ****         {
1153:Generated_Source\PSoC4/USB_episr.c **** 
1154:Generated_Source\PSoC4/USB_episr.c ****             USB_EPxDmaDone((uint8)USB_EP7_DMA_CH,
1155:Generated_Source\PSoC4/USB_episr.c ****                                                   USB_EP7);
1156:Generated_Source\PSoC4/USB_episr.c ****         }
1157:Generated_Source\PSoC4/USB_episr.c ****     #endif /* (USB_DMA7_ACTIVE) */
1158:Generated_Source\PSoC4/USB_episr.c **** 
1159:Generated_Source\PSoC4/USB_episr.c **** 
1160:Generated_Source\PSoC4/USB_episr.c ****     #if (USB_DMA8_ACTIVE)
1161:Generated_Source\PSoC4/USB_episr.c ****         /******************************************************************************
1162:Generated_Source\PSoC4/USB_episr.c ****         * Function Name: USB_EP8_DMA_DONE_ISR
1163:Generated_Source\PSoC4/USB_episr.c ****         ***************************************************************************//**
1164:Generated_Source\PSoC4/USB_episr.c ****         *
1165:Generated_Source\PSoC4/USB_episr.c ****         *  Endpoint 8 DMA Done Interrupt Service Routine.
1166:Generated_Source\PSoC4/USB_episr.c ****         *
1167:Generated_Source\PSoC4/USB_episr.c ****         *
1168:Generated_Source\PSoC4/USB_episr.c ****         ******************************************************************************/
1169:Generated_Source\PSoC4/USB_episr.c ****         void USB_EP8_DMA_DONE_ISR(void)
1170:Generated_Source\PSoC4/USB_episr.c ****         {
1171:Generated_Source\PSoC4/USB_episr.c **** 
1172:Generated_Source\PSoC4/USB_episr.c ****             USB_EPxDmaDone((uint8)USB_EP8_DMA_CH,
1173:Generated_Source\PSoC4/USB_episr.c ****                                                   USB_EP8);
1174:Generated_Source\PSoC4/USB_episr.c ****         }
1175:Generated_Source\PSoC4/USB_episr.c ****     #endif /* (USB_DMA8_ACTIVE) */
1176:Generated_Source\PSoC4/USB_episr.c **** 
ARM GAS  C:\Users\psmus\AppData\Local\Temp\ccpTkKC1.s 			page 25


1177:Generated_Source\PSoC4/USB_episr.c **** 
1178:Generated_Source\PSoC4/USB_episr.c **** #else
1179:Generated_Source\PSoC4/USB_episr.c ****     #if (USB_EP_DMA_AUTO_OPT == 0u)
1180:Generated_Source\PSoC4/USB_episr.c ****         /******************************************************************************
1181:Generated_Source\PSoC4/USB_episr.c ****         * Function Name: USB_EP_DMA_DONE_ISR
1182:Generated_Source\PSoC4/USB_episr.c ****         ***************************************************************************//**
1183:Generated_Source\PSoC4/USB_episr.c ****         *
1184:Generated_Source\PSoC4/USB_episr.c ****         *  DMA Done Interrupt Service Routine.
1185:Generated_Source\PSoC4/USB_episr.c ****         *
1186:Generated_Source\PSoC4/USB_episr.c ****         *
1187:Generated_Source\PSoC4/USB_episr.c ****         ******************************************************************************/
1188:Generated_Source\PSoC4/USB_episr.c ****         CY_ISR(USB_EP_DMA_DONE_ISR)
1189:Generated_Source\PSoC4/USB_episr.c ****         {
1190:Generated_Source\PSoC4/USB_episr.c ****             uint8 int8Status;
1191:Generated_Source\PSoC4/USB_episr.c ****             uint8 int17Status;
1192:Generated_Source\PSoC4/USB_episr.c ****             uint8 ep_status;
1193:Generated_Source\PSoC4/USB_episr.c ****             uint8 ep = USB_EP1;
1194:Generated_Source\PSoC4/USB_episr.c **** 
1195:Generated_Source\PSoC4/USB_episr.c ****         #ifdef USB_EP_DMA_DONE_ISR_ENTRY_CALLBACK
1196:Generated_Source\PSoC4/USB_episr.c ****             USB_EP_DMA_DONE_ISR_EntryCallback();
1197:Generated_Source\PSoC4/USB_episr.c ****         #endif /* (USB_EP_DMA_DONE_ISR_ENTRY_CALLBACK) */
1198:Generated_Source\PSoC4/USB_episr.c **** 
1199:Generated_Source\PSoC4/USB_episr.c ****             /* `#START EP_DMA_DONE_BEGIN_USER_CODE` Place your code here */
1200:Generated_Source\PSoC4/USB_episr.c **** 
1201:Generated_Source\PSoC4/USB_episr.c ****             /* `#END` */
1202:Generated_Source\PSoC4/USB_episr.c **** 
1203:Generated_Source\PSoC4/USB_episr.c ****             /* Read clear on read status register with EP source of interrupt. */
1204:Generated_Source\PSoC4/USB_episr.c ****             int17Status = USB_EP17_DMA_Done_SR_Read() & USB_EP17_SR_MASK;
1205:Generated_Source\PSoC4/USB_episr.c ****             int8Status  = USB_EP8_DMA_Done_SR_Read()  & USB_EP8_SR_MASK;
1206:Generated_Source\PSoC4/USB_episr.c **** 
1207:Generated_Source\PSoC4/USB_episr.c ****             while (int8Status != 0u)
1208:Generated_Source\PSoC4/USB_episr.c ****             {
1209:Generated_Source\PSoC4/USB_episr.c ****                 while (int17Status != 0u)
1210:Generated_Source\PSoC4/USB_episr.c ****                 {
1211:Generated_Source\PSoC4/USB_episr.c ****                     if ((int17Status & 1u) != 0u)  /* If EpX interrupt present. */
1212:Generated_Source\PSoC4/USB_episr.c ****                     {
1213:Generated_Source\PSoC4/USB_episr.c ****                         /* Read Endpoint Status Register. */
1214:Generated_Source\PSoC4/USB_episr.c ****                         ep_status = USB_ARB_EP_BASE.arbEp[ep].epSr;
1215:Generated_Source\PSoC4/USB_episr.c **** 
1216:Generated_Source\PSoC4/USB_episr.c ****                         if ((0u == (ep_status & USB_ARB_EPX_SR_IN_BUF_FULL)) &&
1217:Generated_Source\PSoC4/USB_episr.c ****                             (0u ==USB_inBufFull[ep]))
1218:Generated_Source\PSoC4/USB_episr.c ****                         {
1219:Generated_Source\PSoC4/USB_episr.c ****                             /* `#START EP_DMA_DONE_USER_CODE` Place your code here */
1220:Generated_Source\PSoC4/USB_episr.c **** 
1221:Generated_Source\PSoC4/USB_episr.c ****                             /* `#END` */
1222:Generated_Source\PSoC4/USB_episr.c **** 
1223:Generated_Source\PSoC4/USB_episr.c ****                         #ifdef USB_EP_DMA_DONE_ISR_CALLBACK
1224:Generated_Source\PSoC4/USB_episr.c ****                             USB_EP_DMA_DONE_ISR_Callback();
1225:Generated_Source\PSoC4/USB_episr.c ****                         #endif /* (USB_EP_DMA_DONE_ISR_CALLBACK) */
1226:Generated_Source\PSoC4/USB_episr.c **** 
1227:Generated_Source\PSoC4/USB_episr.c ****                             /* Transfer again 2 last bytes into pre-fetch endpoint area. */
1228:Generated_Source\PSoC4/USB_episr.c ****                             USB_ARB_EP_BASE.arbEp[ep].rwWaMsb = 0u;
1229:Generated_Source\PSoC4/USB_episr.c ****                             USB_ARB_EP_BASE.arbEp[ep].rwWa = (USB_DMA_BYTES_PER_BURST * ep) - USB_D
1230:Generated_Source\PSoC4/USB_episr.c ****                             USB_LoadNextInEP(ep, 1u);
1231:Generated_Source\PSoC4/USB_episr.c **** 
1232:Generated_Source\PSoC4/USB_episr.c ****                             /* Set Data ready status to generate DMA request. */
1233:Generated_Source\PSoC4/USB_episr.c ****                             USB_ARB_EP_BASE.arbEp[ep].epCfg |= USB_ARB_EPX_CFG_IN_DATA_RDY;
ARM GAS  C:\Users\psmus\AppData\Local\Temp\ccpTkKC1.s 			page 26


1234:Generated_Source\PSoC4/USB_episr.c ****                         }
1235:Generated_Source\PSoC4/USB_episr.c ****                     }
1236:Generated_Source\PSoC4/USB_episr.c **** 
1237:Generated_Source\PSoC4/USB_episr.c ****                     ep++;
1238:Generated_Source\PSoC4/USB_episr.c ****                     int17Status >>= 1u;
1239:Generated_Source\PSoC4/USB_episr.c ****                 }
1240:Generated_Source\PSoC4/USB_episr.c **** 
1241:Generated_Source\PSoC4/USB_episr.c ****                 int8Status >>= 1u;
1242:Generated_Source\PSoC4/USB_episr.c **** 
1243:Generated_Source\PSoC4/USB_episr.c ****                 if (int8Status != 0u)
1244:Generated_Source\PSoC4/USB_episr.c ****                 {
1245:Generated_Source\PSoC4/USB_episr.c ****                     /* Prepare pointer for EP8. */
1246:Generated_Source\PSoC4/USB_episr.c ****                     ep = USB_EP8;
1247:Generated_Source\PSoC4/USB_episr.c ****                     int17Status = int8Status & 0x01u;
1248:Generated_Source\PSoC4/USB_episr.c ****                 }
1249:Generated_Source\PSoC4/USB_episr.c ****             }
1250:Generated_Source\PSoC4/USB_episr.c **** 
1251:Generated_Source\PSoC4/USB_episr.c ****             /* `#START EP_DMA_DONE_END_USER_CODE` Place your code here */
1252:Generated_Source\PSoC4/USB_episr.c **** 
1253:Generated_Source\PSoC4/USB_episr.c ****             /* `#END` */
1254:Generated_Source\PSoC4/USB_episr.c **** 
1255:Generated_Source\PSoC4/USB_episr.c ****     #ifdef USB_EP_DMA_DONE_ISR_EXIT_CALLBACK
1256:Generated_Source\PSoC4/USB_episr.c ****         USB_EP_DMA_DONE_ISR_ExitCallback();
1257:Generated_Source\PSoC4/USB_episr.c ****     #endif /* (USB_EP_DMA_DONE_ISR_EXIT_CALLBACK) */
1258:Generated_Source\PSoC4/USB_episr.c ****         }
1259:Generated_Source\PSoC4/USB_episr.c ****     #endif /* (USB_EP_DMA_AUTO_OPT == 0u) */
1260:Generated_Source\PSoC4/USB_episr.c **** #endif /* (CY_PSOC4) */
1261:Generated_Source\PSoC4/USB_episr.c **** #endif /* (USB_EP_MANAGEMENT_DMA_AUTO) */
1262:Generated_Source\PSoC4/USB_episr.c **** 
1263:Generated_Source\PSoC4/USB_episr.c **** 
1264:Generated_Source\PSoC4/USB_episr.c **** #if (CY_PSOC4)
1265:Generated_Source\PSoC4/USB_episr.c ****     /***************************************************************************
1266:Generated_Source\PSoC4/USB_episr.c ****     * Function Name: USB_IntrHandler
1267:Generated_Source\PSoC4/USB_episr.c ****     ************************************************************************//**
1268:Generated_Source\PSoC4/USB_episr.c ****     *
1269:Generated_Source\PSoC4/USB_episr.c ****     *   Interrupt handler for Hi/Mid/Low ISRs.
1270:Generated_Source\PSoC4/USB_episr.c ****     *
1271:Generated_Source\PSoC4/USB_episr.c ****     *  regCause - The cause register of interrupt. One of the three variants:
1272:Generated_Source\PSoC4/USB_episr.c ****     *       USB_INTR_CAUSE_LO_REG - Low interrupts.
1273:Generated_Source\PSoC4/USB_episr.c ****     *       USB_INTR_CAUSE_MED_REG - Med interrupts.
1274:Generated_Source\PSoC4/USB_episr.c ****     *       USB_INTR_CAUSE_HI_REG - - High interrupts.
1275:Generated_Source\PSoC4/USB_episr.c ****     *
1276:Generated_Source\PSoC4/USB_episr.c ****     *
1277:Generated_Source\PSoC4/USB_episr.c ****     ***************************************************************************/
1278:Generated_Source\PSoC4/USB_episr.c ****     CY_INLINE static void USB_IntrHandler(uint32 intrCause)
1279:Generated_Source\PSoC4/USB_episr.c ****     {
1280:Generated_Source\PSoC4/USB_episr.c ****         /* Array of pointers to component interrupt handlers. */
1281:Generated_Source\PSoC4/USB_episr.c ****         static const cyisraddress USB_isrCallbacks[] =
1282:Generated_Source\PSoC4/USB_episr.c ****         {
1283:Generated_Source\PSoC4/USB_episr.c ****             &USB_SOF_ISR,
1284:Generated_Source\PSoC4/USB_episr.c ****             &USB_BUS_RESET_ISR,
1285:Generated_Source\PSoC4/USB_episr.c ****             &USB_EP_0_ISR,
1286:Generated_Source\PSoC4/USB_episr.c ****             NULL,
1287:Generated_Source\PSoC4/USB_episr.c ****             NULL,
1288:Generated_Source\PSoC4/USB_episr.c ****             &USB_EP_1_ISR,
1289:Generated_Source\PSoC4/USB_episr.c ****             &USB_EP_2_ISR,
1290:Generated_Source\PSoC4/USB_episr.c ****             NULL,
ARM GAS  C:\Users\psmus\AppData\Local\Temp\ccpTkKC1.s 			page 27


1291:Generated_Source\PSoC4/USB_episr.c ****             NULL,
1292:Generated_Source\PSoC4/USB_episr.c ****             NULL,
1293:Generated_Source\PSoC4/USB_episr.c ****             NULL,
1294:Generated_Source\PSoC4/USB_episr.c ****             NULL,
1295:Generated_Source\PSoC4/USB_episr.c ****             NULL,
1296:Generated_Source\PSoC4/USB_episr.c ****         };
1297:Generated_Source\PSoC4/USB_episr.c **** 
1298:Generated_Source\PSoC4/USB_episr.c ****         uint32 cbIdx = 0u;
1299:Generated_Source\PSoC4/USB_episr.c **** 
1300:Generated_Source\PSoC4/USB_episr.c ****         /* Check arbiter interrupt source first. */
1301:Generated_Source\PSoC4/USB_episr.c ****         if (0u != (intrCause & USB_INTR_CAUSE_ARB_INTR))
1302:Generated_Source\PSoC4/USB_episr.c ****         {
1303:Generated_Source\PSoC4/USB_episr.c ****             USB_isrCallbacks[USB_ARB_EP_INTR_NUM]();
1304:Generated_Source\PSoC4/USB_episr.c ****         }
1305:Generated_Source\PSoC4/USB_episr.c **** 
1306:Generated_Source\PSoC4/USB_episr.c ****         /* Check all other interrupt sources (except arbiter and resume). */
1307:Generated_Source\PSoC4/USB_episr.c ****         intrCause = (intrCause  & USB_INTR_CAUSE_CTRL_INTR_MASK) |
1308:Generated_Source\PSoC4/USB_episr.c ****                     ((intrCause & USB_INTR_CAUSE_EP1_8_INTR_MASK) >>
1309:Generated_Source\PSoC4/USB_episr.c ****                                   USB_INTR_CAUSE_EP_INTR_SHIFT);
1310:Generated_Source\PSoC4/USB_episr.c **** 
1311:Generated_Source\PSoC4/USB_episr.c ****         /* Call interrupt handlers for active interrupt sources. */
1312:Generated_Source\PSoC4/USB_episr.c ****         while (0u != intrCause)
1313:Generated_Source\PSoC4/USB_episr.c ****         {
1314:Generated_Source\PSoC4/USB_episr.c ****             if (0u != (intrCause & 0x1u))
1315:Generated_Source\PSoC4/USB_episr.c ****             {
1316:Generated_Source\PSoC4/USB_episr.c ****                  USB_isrCallbacks[cbIdx]();
1317:Generated_Source\PSoC4/USB_episr.c ****             }
1318:Generated_Source\PSoC4/USB_episr.c **** 
1319:Generated_Source\PSoC4/USB_episr.c ****             intrCause >>= 1u;
1320:Generated_Source\PSoC4/USB_episr.c ****             ++cbIdx;
1321:Generated_Source\PSoC4/USB_episr.c ****         }
1322:Generated_Source\PSoC4/USB_episr.c ****     }
1323:Generated_Source\PSoC4/USB_episr.c **** 
1324:Generated_Source\PSoC4/USB_episr.c **** 
1325:Generated_Source\PSoC4/USB_episr.c ****     /***************************************************************************
1326:Generated_Source\PSoC4/USB_episr.c ****     * Function Name: USB_INTR_HI_ISR
1327:Generated_Source\PSoC4/USB_episr.c ****     ************************************************************************//**
1328:Generated_Source\PSoC4/USB_episr.c ****     *
1329:Generated_Source\PSoC4/USB_episr.c ****     *   Interrupt Service Routine for the high group of the interrupt sources.
1330:Generated_Source\PSoC4/USB_episr.c ****     *
1331:Generated_Source\PSoC4/USB_episr.c ****     *
1332:Generated_Source\PSoC4/USB_episr.c ****     ***************************************************************************/
1333:Generated_Source\PSoC4/USB_episr.c ****     CY_ISR(USB_INTR_HI_ISR)
1334:Generated_Source\PSoC4/USB_episr.c ****     {
 193              		.loc 1 1334 0
 194              		.cfi_startproc
 195              		@ args = 0, pretend = 0, frame = 0
 196              		@ frame_needed = 0, uses_anonymous_args = 0
 197 0000 70B5     		push	{r4, r5, r6, lr}
 198              		.cfi_def_cfa_offset 16
 199              		.cfi_offset 4, -16
 200              		.cfi_offset 5, -12
 201              		.cfi_offset 6, -8
 202              		.cfi_offset 14, -4
1335:Generated_Source\PSoC4/USB_episr.c ****         USB_IntrHandler(USB_INTR_CAUSE_HI_REG);
 203              		.loc 1 1335 0
 204 0002 0D4B     		ldr	r3, .L20
ARM GAS  C:\Users\psmus\AppData\Local\Temp\ccpTkKC1.s 			page 28


 205 0004 1D68     		ldr	r5, [r3]
 206              	.LVL1:
 207              	.LBB4:
 208              	.LBB5:
1301:Generated_Source\PSoC4/USB_episr.c ****         {
 209              		.loc 1 1301 0
 210 0006 2B06     		lsls	r3, r5, #24
 211 0008 01D5     		bpl	.L16
1303:Generated_Source\PSoC4/USB_episr.c ****         }
 212              		.loc 1 1303 0
 213 000a 0023     		movs	r3, #0
 214 000c 9847     		blx	r3
 215              	.LVL2:
 216              	.L16:
1307:Generated_Source\PSoC4/USB_episr.c ****                     ((intrCause & USB_INTR_CAUSE_EP1_8_INTR_MASK) >>
 217              		.loc 1 1307 0
 218 000e 0F24     		movs	r4, #15
 219 0010 2200     		movs	r2, r4
 220 0012 2A40     		ands	r2, r5
1308:Generated_Source\PSoC4/USB_episr.c ****                                   USB_INTR_CAUSE_EP_INTR_SHIFT);
 221              		.loc 1 1308 0
 222 0014 EC08     		lsrs	r4, r5, #3
 223 0016 FF23     		movs	r3, #255
 224 0018 5B01     		lsls	r3, r3, #5
 225 001a 1C40     		ands	r4, r3
1307:Generated_Source\PSoC4/USB_episr.c ****                     ((intrCause & USB_INTR_CAUSE_EP1_8_INTR_MASK) >>
 226              		.loc 1 1307 0
 227 001c 1443     		orrs	r4, r2
 228              	.LVL3:
1298:Generated_Source\PSoC4/USB_episr.c **** 
 229              		.loc 1 1298 0
 230 001e 0025     		movs	r5, #0
 231 0020 07E0     		b	.L17
 232              	.LVL4:
 233              	.L19:
1314:Generated_Source\PSoC4/USB_episr.c ****             {
 234              		.loc 1 1314 0
 235 0022 E307     		lsls	r3, r4, #31
 236 0024 03D5     		bpl	.L18
1316:Generated_Source\PSoC4/USB_episr.c ****             }
 237              		.loc 1 1316 0
 238 0026 AB00     		lsls	r3, r5, #2
 239 0028 044A     		ldr	r2, .L20+4
 240 002a 9B58     		ldr	r3, [r3, r2]
 241 002c 9847     		blx	r3
 242              	.LVL5:
 243              	.L18:
1319:Generated_Source\PSoC4/USB_episr.c ****             ++cbIdx;
 244              		.loc 1 1319 0
 245 002e 6408     		lsrs	r4, r4, #1
 246              	.LVL6:
1320:Generated_Source\PSoC4/USB_episr.c ****         }
 247              		.loc 1 1320 0
 248 0030 0135     		adds	r5, r5, #1
 249              	.LVL7:
 250              	.L17:
1312:Generated_Source\PSoC4/USB_episr.c ****         {
ARM GAS  C:\Users\psmus\AppData\Local\Temp\ccpTkKC1.s 			page 29


 251              		.loc 1 1312 0
 252 0032 002C     		cmp	r4, #0
 253 0034 F5D1     		bne	.L19
 254              	.LBE5:
 255              	.LBE4:
1336:Generated_Source\PSoC4/USB_episr.c ****     }
 256              		.loc 1 1336 0
 257              		@ sp needed
 258              	.LVL8:
 259              	.LVL9:
 260 0036 70BD     		pop	{r4, r5, r6, pc}
 261              	.L21:
 262              		.align	2
 263              	.L20:
 264 0038 34202C40 		.word	1076633652
 265 003c 00000000 		.word	.LANCHOR0
 266              		.cfi_endproc
 267              	.LFE6:
 268              		.size	USB_INTR_HI_ISR, .-USB_INTR_HI_ISR
 269              		.section	.text.USB_INTR_MED_ISR,"ax",%progbits
 270              		.align	2
 271              		.global	USB_INTR_MED_ISR
 272              		.code	16
 273              		.thumb_func
 274              		.type	USB_INTR_MED_ISR, %function
 275              	USB_INTR_MED_ISR:
 276              	.LFB7:
1337:Generated_Source\PSoC4/USB_episr.c **** 
1338:Generated_Source\PSoC4/USB_episr.c ****     /***************************************************************************
1339:Generated_Source\PSoC4/USB_episr.c ****     * Function Name: USB_INTR_MED_ISR
1340:Generated_Source\PSoC4/USB_episr.c ****     ************************************************************************//**
1341:Generated_Source\PSoC4/USB_episr.c ****     *
1342:Generated_Source\PSoC4/USB_episr.c ****     *   Interrupt Service Routine for the medium group of the interrupt sources.
1343:Generated_Source\PSoC4/USB_episr.c ****     *
1344:Generated_Source\PSoC4/USB_episr.c ****     *
1345:Generated_Source\PSoC4/USB_episr.c ****     ***************************************************************************/
1346:Generated_Source\PSoC4/USB_episr.c ****     CY_ISR(USB_INTR_MED_ISR)
1347:Generated_Source\PSoC4/USB_episr.c ****     {
 277              		.loc 1 1347 0
 278              		.cfi_startproc
 279              		@ args = 0, pretend = 0, frame = 0
 280              		@ frame_needed = 0, uses_anonymous_args = 0
 281 0000 70B5     		push	{r4, r5, r6, lr}
 282              		.cfi_def_cfa_offset 16
 283              		.cfi_offset 4, -16
 284              		.cfi_offset 5, -12
 285              		.cfi_offset 6, -8
 286              		.cfi_offset 14, -4
1348:Generated_Source\PSoC4/USB_episr.c ****        USB_IntrHandler(USB_INTR_CAUSE_MED_REG);
 287              		.loc 1 1348 0
 288 0002 0D4B     		ldr	r3, .L27
 289 0004 1D68     		ldr	r5, [r3]
 290              	.LVL10:
 291              	.LBB8:
 292              	.LBB9:
1301:Generated_Source\PSoC4/USB_episr.c ****         {
 293              		.loc 1 1301 0
ARM GAS  C:\Users\psmus\AppData\Local\Temp\ccpTkKC1.s 			page 30


 294 0006 2B06     		lsls	r3, r5, #24
 295 0008 01D5     		bpl	.L23
1303:Generated_Source\PSoC4/USB_episr.c ****         }
 296              		.loc 1 1303 0
 297 000a 0023     		movs	r3, #0
 298 000c 9847     		blx	r3
 299              	.LVL11:
 300              	.L23:
1307:Generated_Source\PSoC4/USB_episr.c ****                     ((intrCause & USB_INTR_CAUSE_EP1_8_INTR_MASK) >>
 301              		.loc 1 1307 0
 302 000e 0F24     		movs	r4, #15
 303 0010 2200     		movs	r2, r4
 304 0012 2A40     		ands	r2, r5
1308:Generated_Source\PSoC4/USB_episr.c ****                                   USB_INTR_CAUSE_EP_INTR_SHIFT);
 305              		.loc 1 1308 0
 306 0014 EC08     		lsrs	r4, r5, #3
 307 0016 FF23     		movs	r3, #255
 308 0018 5B01     		lsls	r3, r3, #5
 309 001a 1C40     		ands	r4, r3
1307:Generated_Source\PSoC4/USB_episr.c ****                     ((intrCause & USB_INTR_CAUSE_EP1_8_INTR_MASK) >>
 310              		.loc 1 1307 0
 311 001c 1443     		orrs	r4, r2
 312              	.LVL12:
1298:Generated_Source\PSoC4/USB_episr.c **** 
 313              		.loc 1 1298 0
 314 001e 0025     		movs	r5, #0
 315 0020 07E0     		b	.L24
 316              	.LVL13:
 317              	.L26:
1314:Generated_Source\PSoC4/USB_episr.c ****             {
 318              		.loc 1 1314 0
 319 0022 E307     		lsls	r3, r4, #31
 320 0024 03D5     		bpl	.L25
1316:Generated_Source\PSoC4/USB_episr.c ****             }
 321              		.loc 1 1316 0
 322 0026 AB00     		lsls	r3, r5, #2
 323 0028 044A     		ldr	r2, .L27+4
 324 002a 9B58     		ldr	r3, [r3, r2]
 325 002c 9847     		blx	r3
 326              	.LVL14:
 327              	.L25:
1319:Generated_Source\PSoC4/USB_episr.c ****             ++cbIdx;
 328              		.loc 1 1319 0
 329 002e 6408     		lsrs	r4, r4, #1
 330              	.LVL15:
1320:Generated_Source\PSoC4/USB_episr.c ****         }
 331              		.loc 1 1320 0
 332 0030 0135     		adds	r5, r5, #1
 333              	.LVL16:
 334              	.L24:
1312:Generated_Source\PSoC4/USB_episr.c ****         {
 335              		.loc 1 1312 0
 336 0032 002C     		cmp	r4, #0
 337 0034 F5D1     		bne	.L26
 338              	.LBE9:
 339              	.LBE8:
1349:Generated_Source\PSoC4/USB_episr.c ****     }
ARM GAS  C:\Users\psmus\AppData\Local\Temp\ccpTkKC1.s 			page 31


 340              		.loc 1 1349 0
 341              		@ sp needed
 342              	.LVL17:
 343              	.LVL18:
 344 0036 70BD     		pop	{r4, r5, r6, pc}
 345              	.L28:
 346              		.align	2
 347              	.L27:
 348 0038 38202C40 		.word	1076633656
 349 003c 00000000 		.word	.LANCHOR0
 350              		.cfi_endproc
 351              	.LFE7:
 352              		.size	USB_INTR_MED_ISR, .-USB_INTR_MED_ISR
 353              		.section	.text.USB_INTR_LO_ISR,"ax",%progbits
 354              		.align	2
 355              		.global	USB_INTR_LO_ISR
 356              		.code	16
 357              		.thumb_func
 358              		.type	USB_INTR_LO_ISR, %function
 359              	USB_INTR_LO_ISR:
 360              	.LFB8:
1350:Generated_Source\PSoC4/USB_episr.c **** 
1351:Generated_Source\PSoC4/USB_episr.c ****     /***************************************************************************
1352:Generated_Source\PSoC4/USB_episr.c ****     * Function Name: USB_INTR_LO_ISR
1353:Generated_Source\PSoC4/USB_episr.c ****     ************************************************************************//**
1354:Generated_Source\PSoC4/USB_episr.c ****     *
1355:Generated_Source\PSoC4/USB_episr.c ****     *   Interrupt Service Routine for the low group of the interrupt sources.
1356:Generated_Source\PSoC4/USB_episr.c ****     *
1357:Generated_Source\PSoC4/USB_episr.c ****     *
1358:Generated_Source\PSoC4/USB_episr.c ****     ***************************************************************************/
1359:Generated_Source\PSoC4/USB_episr.c ****     CY_ISR(USB_INTR_LO_ISR)
1360:Generated_Source\PSoC4/USB_episr.c ****     {
 361              		.loc 1 1360 0
 362              		.cfi_startproc
 363              		@ args = 0, pretend = 0, frame = 0
 364              		@ frame_needed = 0, uses_anonymous_args = 0
 365 0000 70B5     		push	{r4, r5, r6, lr}
 366              		.cfi_def_cfa_offset 16
 367              		.cfi_offset 4, -16
 368              		.cfi_offset 5, -12
 369              		.cfi_offset 6, -8
 370              		.cfi_offset 14, -4
1361:Generated_Source\PSoC4/USB_episr.c ****         USB_IntrHandler(USB_INTR_CAUSE_LO_REG);
 371              		.loc 1 1361 0
 372 0002 0D4B     		ldr	r3, .L34
 373 0004 1D68     		ldr	r5, [r3]
 374              	.LVL19:
 375              	.LBB12:
 376              	.LBB13:
1301:Generated_Source\PSoC4/USB_episr.c ****         {
 377              		.loc 1 1301 0
 378 0006 2B06     		lsls	r3, r5, #24
 379 0008 01D5     		bpl	.L30
1303:Generated_Source\PSoC4/USB_episr.c ****         }
 380              		.loc 1 1303 0
 381 000a 0023     		movs	r3, #0
 382 000c 9847     		blx	r3
ARM GAS  C:\Users\psmus\AppData\Local\Temp\ccpTkKC1.s 			page 32


 383              	.LVL20:
 384              	.L30:
1307:Generated_Source\PSoC4/USB_episr.c ****                     ((intrCause & USB_INTR_CAUSE_EP1_8_INTR_MASK) >>
 385              		.loc 1 1307 0
 386 000e 0F24     		movs	r4, #15
 387 0010 2200     		movs	r2, r4
 388 0012 2A40     		ands	r2, r5
1308:Generated_Source\PSoC4/USB_episr.c ****                                   USB_INTR_CAUSE_EP_INTR_SHIFT);
 389              		.loc 1 1308 0
 390 0014 EC08     		lsrs	r4, r5, #3
 391 0016 FF23     		movs	r3, #255
 392 0018 5B01     		lsls	r3, r3, #5
 393 001a 1C40     		ands	r4, r3
1307:Generated_Source\PSoC4/USB_episr.c ****                     ((intrCause & USB_INTR_CAUSE_EP1_8_INTR_MASK) >>
 394              		.loc 1 1307 0
 395 001c 1443     		orrs	r4, r2
 396              	.LVL21:
1298:Generated_Source\PSoC4/USB_episr.c **** 
 397              		.loc 1 1298 0
 398 001e 0025     		movs	r5, #0
 399 0020 07E0     		b	.L31
 400              	.LVL22:
 401              	.L33:
1314:Generated_Source\PSoC4/USB_episr.c ****             {
 402              		.loc 1 1314 0
 403 0022 E307     		lsls	r3, r4, #31
 404 0024 03D5     		bpl	.L32
1316:Generated_Source\PSoC4/USB_episr.c ****             }
 405              		.loc 1 1316 0
 406 0026 AB00     		lsls	r3, r5, #2
 407 0028 044A     		ldr	r2, .L34+4
 408 002a 9B58     		ldr	r3, [r3, r2]
 409 002c 9847     		blx	r3
 410              	.LVL23:
 411              	.L32:
1319:Generated_Source\PSoC4/USB_episr.c ****             ++cbIdx;
 412              		.loc 1 1319 0
 413 002e 6408     		lsrs	r4, r4, #1
 414              	.LVL24:
1320:Generated_Source\PSoC4/USB_episr.c ****         }
 415              		.loc 1 1320 0
 416 0030 0135     		adds	r5, r5, #1
 417              	.LVL25:
 418              	.L31:
1312:Generated_Source\PSoC4/USB_episr.c ****         {
 419              		.loc 1 1312 0
 420 0032 002C     		cmp	r4, #0
 421 0034 F5D1     		bne	.L33
 422              	.LBE13:
 423              	.LBE12:
1362:Generated_Source\PSoC4/USB_episr.c ****     }
 424              		.loc 1 1362 0
 425              		@ sp needed
 426              	.LVL26:
 427              	.LVL27:
 428 0036 70BD     		pop	{r4, r5, r6, pc}
 429              	.L35:
ARM GAS  C:\Users\psmus\AppData\Local\Temp\ccpTkKC1.s 			page 33


 430              		.align	2
 431              	.L34:
 432 0038 3C202C40 		.word	1076633660
 433 003c 00000000 		.word	.LANCHOR0
 434              		.cfi_endproc
 435              	.LFE8:
 436              		.size	USB_INTR_LO_ISR, .-USB_INTR_LO_ISR
 437              		.section	.rodata
 438              		.align	2
 439              		.set	.LANCHOR0,. + 0
 440              		.type	USB_isrCallbacks.5226, %object
 441              		.size	USB_isrCallbacks.5226, 52
 442              	USB_isrCallbacks.5226:
 443 0000 00000000 		.word	USB_SOF_ISR
 444 0004 00000000 		.word	USB_BUS_RESET_ISR
 445 0008 00000000 		.word	USB_EP_0_ISR
 446 000c 00000000 		.word	0
 447 0010 00000000 		.word	0
 448 0014 00000000 		.word	USB_EP_1_ISR
 449 0018 00000000 		.word	USB_EP_2_ISR
 450 001c 00000000 		.word	0
 451 0020 00000000 		.word	0
 452 0024 00000000 		.word	0
 453 0028 00000000 		.word	0
 454 002c 00000000 		.word	0
 455 0030 00000000 		.word	0
 456              		.text
 457              	.Letext0:
 458              		.file 2 "Generated_Source\\PSoC4\\cytypes.h"
 459              		.file 3 "Generated_Source\\PSoC4\\USB.h"
 460              		.file 4 "Generated_Source\\PSoC4\\USB_pvt.h"