ARM GAS  C:\Users\psmus\AppData\Local\Temp\ccX8E8QF.s 			page 1


   1              		.syntax unified
   2              		.cpu cortex-m0
   3              		.fpu softvfp
   4              		.eabi_attribute 20, 1
   5              		.eabi_attribute 21, 1
   6              		.eabi_attribute 23, 3
   7              		.eabi_attribute 24, 1
   8              		.eabi_attribute 25, 1
   9              		.eabi_attribute 26, 1
  10              		.eabi_attribute 30, 1
  11              		.eabi_attribute 34, 0
  12              		.eabi_attribute 18, 4
  13              		.thumb
  14              		.syntax unified
  15              		.file	"USBFS_1.c"
  16              		.text
  17              	.Ltext0:
  18              		.cfi_sections	.debug_frame
  19              		.section	.text.USBFS_1_Init,"ax",%progbits
  20              		.align	2
  21              		.global	USBFS_1_Init
  22              		.code	16
  23              		.thumb_func
  24              		.type	USBFS_1_Init, %function
  25              	USBFS_1_Init:
  26              	.LFB2:
  27              		.file 1 "Generated_Source\\PSoC4\\USBFS_1.c"
   1:Generated_Source\PSoC4/USBFS_1.c **** /***************************************************************************//**
   2:Generated_Source\PSoC4/USBFS_1.c **** * \file USBFS_1.c
   3:Generated_Source\PSoC4/USBFS_1.c **** * \version 3.20
   4:Generated_Source\PSoC4/USBFS_1.c **** *
   5:Generated_Source\PSoC4/USBFS_1.c **** * \brief
   6:Generated_Source\PSoC4/USBFS_1.c **** *  This file contains the global USBFS API functions.
   7:Generated_Source\PSoC4/USBFS_1.c **** *
   8:Generated_Source\PSoC4/USBFS_1.c **** * Note:
   9:Generated_Source\PSoC4/USBFS_1.c **** *  Many of the functions use an endpoint number. SRAM arrays are sized with 9
  10:Generated_Source\PSoC4/USBFS_1.c **** *  elements, so they are indexed directly by epNumber.  The SIE and ARB
  11:Generated_Source\PSoC4/USBFS_1.c **** *  registers are indexed by variations of epNumber - 1.
  12:Generated_Source\PSoC4/USBFS_1.c **** *
  13:Generated_Source\PSoC4/USBFS_1.c **** ********************************************************************************
  14:Generated_Source\PSoC4/USBFS_1.c **** * \copyright
  15:Generated_Source\PSoC4/USBFS_1.c **** * Copyright 2008-2016, Cypress Semiconductor Corporation.  All rights reserved.
  16:Generated_Source\PSoC4/USBFS_1.c **** * You may use this file only in accordance with the license, terms, conditions,
  17:Generated_Source\PSoC4/USBFS_1.c **** * disclaimers, and limitations in the end user license agreement accompanying
  18:Generated_Source\PSoC4/USBFS_1.c **** * the software package with which this file was provided.
  19:Generated_Source\PSoC4/USBFS_1.c **** *******************************************************************************/
  20:Generated_Source\PSoC4/USBFS_1.c **** 
  21:Generated_Source\PSoC4/USBFS_1.c **** #include "USBFS_1_pvt.h"
  22:Generated_Source\PSoC4/USBFS_1.c **** #include "USBFS_1_cydmac.h"
  23:Generated_Source\PSoC4/USBFS_1.c **** #include "USBFS_1_hid.h"
  24:Generated_Source\PSoC4/USBFS_1.c **** #include "USBFS_1_Dp.h"
  25:Generated_Source\PSoC4/USBFS_1.c **** 
  26:Generated_Source\PSoC4/USBFS_1.c **** 
  27:Generated_Source\PSoC4/USBFS_1.c **** /***************************************
  28:Generated_Source\PSoC4/USBFS_1.c **** * Global data allocation
  29:Generated_Source\PSoC4/USBFS_1.c **** ***************************************/
  30:Generated_Source\PSoC4/USBFS_1.c **** 
ARM GAS  C:\Users\psmus\AppData\Local\Temp\ccX8E8QF.s 			page 2


  31:Generated_Source\PSoC4/USBFS_1.c **** /** Indicates whether the USBFS has been initialized. The variable is
  32:Generated_Source\PSoC4/USBFS_1.c **** * initialized to 0 after device reset and set to 1 the first time USBFS_Start()
  33:Generated_Source\PSoC4/USBFS_1.c **** * is called. This allows the Component to restart without reinitialization after
  34:Generated_Source\PSoC4/USBFS_1.c **** * the first call to the USBFS_Start() routine.
  35:Generated_Source\PSoC4/USBFS_1.c **** * If re-initialization of the Component is required, the variable should be set
  36:Generated_Source\PSoC4/USBFS_1.c **** * to 0 before the USBFS_Start() routine is called. Alternatively, the USBFS can
  37:Generated_Source\PSoC4/USBFS_1.c **** * be reinitialized by calling both USBFS_Init() and USBFS_InitComponent()
  38:Generated_Source\PSoC4/USBFS_1.c **** * functions.
  39:Generated_Source\PSoC4/USBFS_1.c **** */
  40:Generated_Source\PSoC4/USBFS_1.c **** uint8 USBFS_1_initVar = 0u;
  41:Generated_Source\PSoC4/USBFS_1.c **** 
  42:Generated_Source\PSoC4/USBFS_1.c **** #if (USBFS_1_EP_MANAGEMENT_DMA)
  43:Generated_Source\PSoC4/USBFS_1.c ****     #if (CY_PSOC4)
  44:Generated_Source\PSoC4/USBFS_1.c ****         static void USBFS_1_InitEpDma(void);
  45:Generated_Source\PSoC4/USBFS_1.c **** 
  46:Generated_Source\PSoC4/USBFS_1.c ****         /* DMA chanels assigend for endpoints. */
  47:Generated_Source\PSoC4/USBFS_1.c ****         const uint8 USBFS_1_DmaChan[USBFS_1_MAX_EP] =
  48:Generated_Source\PSoC4/USBFS_1.c ****         {
  49:Generated_Source\PSoC4/USBFS_1.c ****             0u,
  50:Generated_Source\PSoC4/USBFS_1.c ****             0u,
  51:Generated_Source\PSoC4/USBFS_1.c ****             0u,
  52:Generated_Source\PSoC4/USBFS_1.c ****             0u,
  53:Generated_Source\PSoC4/USBFS_1.c ****             0u,
  54:Generated_Source\PSoC4/USBFS_1.c ****             0u,
  55:Generated_Source\PSoC4/USBFS_1.c ****             0u,
  56:Generated_Source\PSoC4/USBFS_1.c ****             0u,
  57:Generated_Source\PSoC4/USBFS_1.c ****             0u,
  58:Generated_Source\PSoC4/USBFS_1.c ****         };        
  59:Generated_Source\PSoC4/USBFS_1.c ****     #else
  60:Generated_Source\PSoC4/USBFS_1.c ****         /* DMA chanels assigend for endpoints. */
  61:Generated_Source\PSoC4/USBFS_1.c ****         uint8 USBFS_1_DmaChan[USBFS_1_MAX_EP];
  62:Generated_Source\PSoC4/USBFS_1.c ****         
  63:Generated_Source\PSoC4/USBFS_1.c ****         /* DMA TDs require for PSoC 3/5LP operation. */
  64:Generated_Source\PSoC4/USBFS_1.c ****         uint8 USBFS_1_DmaTd[USBFS_1_MAX_EP];
  65:Generated_Source\PSoC4/USBFS_1.c ****     #endif /* (CY_PSOC4) */
  66:Generated_Source\PSoC4/USBFS_1.c **** #endif /* (USBFS_1_EP_MANAGEMENT_DMA) */
  67:Generated_Source\PSoC4/USBFS_1.c **** 
  68:Generated_Source\PSoC4/USBFS_1.c **** #if (USBFS_1_EP_MANAGEMENT_DMA_AUTO)
  69:Generated_Source\PSoC4/USBFS_1.c **** #if (CY_PSOC4)
  70:Generated_Source\PSoC4/USBFS_1.c ****     /* Number of DMA bursts. */
  71:Generated_Source\PSoC4/USBFS_1.c ****     uint8  USBFS_1_DmaEpBurstCnt   [USBFS_1_MAX_EP];
  72:Generated_Source\PSoC4/USBFS_1.c ****     
  73:Generated_Source\PSoC4/USBFS_1.c ****     /* Number of bytes to transfer in last DMA burst. */
  74:Generated_Source\PSoC4/USBFS_1.c ****     uint8  USBFS_1_DmaEpLastBurstEl[USBFS_1_MAX_EP];
  75:Generated_Source\PSoC4/USBFS_1.c **** 
  76:Generated_Source\PSoC4/USBFS_1.c ****     /* Storage for arrays above. */
  77:Generated_Source\PSoC4/USBFS_1.c ****     uint8  USBFS_1_DmaEpBurstCntBackup  [USBFS_1_MAX_EP];
  78:Generated_Source\PSoC4/USBFS_1.c ****     uint32 USBFS_1_DmaEpBufferAddrBackup[USBFS_1_MAX_EP];
  79:Generated_Source\PSoC4/USBFS_1.c ****      
  80:Generated_Source\PSoC4/USBFS_1.c ****     /* DMA trigger mux output for usb.dma_req[0-7]. */
  81:Generated_Source\PSoC4/USBFS_1.c ****     const uint8 USBFS_1_DmaReqOut[USBFS_1_MAX_EP] =
  82:Generated_Source\PSoC4/USBFS_1.c ****     {
  83:Generated_Source\PSoC4/USBFS_1.c ****         0u,
  84:Generated_Source\PSoC4/USBFS_1.c ****         USBFS_1_ep1_dma__TR_OUTPUT,
  85:Generated_Source\PSoC4/USBFS_1.c ****         0u,
  86:Generated_Source\PSoC4/USBFS_1.c ****         0u,
  87:Generated_Source\PSoC4/USBFS_1.c ****         0u,
ARM GAS  C:\Users\psmus\AppData\Local\Temp\ccX8E8QF.s 			page 3


  88:Generated_Source\PSoC4/USBFS_1.c ****         0u,
  89:Generated_Source\PSoC4/USBFS_1.c ****         0u,
  90:Generated_Source\PSoC4/USBFS_1.c ****         0u,
  91:Generated_Source\PSoC4/USBFS_1.c ****         0u,
  92:Generated_Source\PSoC4/USBFS_1.c ****     };
  93:Generated_Source\PSoC4/USBFS_1.c **** 
  94:Generated_Source\PSoC4/USBFS_1.c ****     /* DMA trigger mux output for usb.dma_burstend[0-7]. */
  95:Generated_Source\PSoC4/USBFS_1.c ****     const uint8 USBFS_1_DmaBurstEndOut[USBFS_1_MAX_EP] =
  96:Generated_Source\PSoC4/USBFS_1.c ****     {
  97:Generated_Source\PSoC4/USBFS_1.c ****         0u,
  98:Generated_Source\PSoC4/USBFS_1.c ****         USBFS_1_BURSTEND_0_TR_OUTPUT,
  99:Generated_Source\PSoC4/USBFS_1.c ****         USBFS_1_BURSTEND_1_TR_OUTPUT,
 100:Generated_Source\PSoC4/USBFS_1.c ****         USBFS_1_BURSTEND_2_TR_OUTPUT,
 101:Generated_Source\PSoC4/USBFS_1.c ****         USBFS_1_BURSTEND_3_TR_OUTPUT,
 102:Generated_Source\PSoC4/USBFS_1.c ****         USBFS_1_BURSTEND_4_TR_OUTPUT,
 103:Generated_Source\PSoC4/USBFS_1.c ****         USBFS_1_BURSTEND_5_TR_OUTPUT,
 104:Generated_Source\PSoC4/USBFS_1.c ****         USBFS_1_BURSTEND_6_TR_OUTPUT,
 105:Generated_Source\PSoC4/USBFS_1.c ****         USBFS_1_BURSTEND_7_TR_OUTPUT
 106:Generated_Source\PSoC4/USBFS_1.c ****     };
 107:Generated_Source\PSoC4/USBFS_1.c ****     
 108:Generated_Source\PSoC4/USBFS_1.c **** #else
 109:Generated_Source\PSoC4/USBFS_1.c ****     #if (USBFS_1_EP_DMA_AUTO_OPT == 0u)
 110:Generated_Source\PSoC4/USBFS_1.c ****         static uint8 clearInDataRdyStatus = USBFS_1_ARB_EPX_CFG_DEFAULT;
 111:Generated_Source\PSoC4/USBFS_1.c ****         uint8 USBFS_1_DmaNextTd[USBFS_1_MAX_EP];
 112:Generated_Source\PSoC4/USBFS_1.c ****         const uint8 USBFS_1_epX_TD_TERMOUT_EN[USBFS_1_MAX_EP] =
 113:Generated_Source\PSoC4/USBFS_1.c ****         {
 114:Generated_Source\PSoC4/USBFS_1.c ****             0u,
 115:Generated_Source\PSoC4/USBFS_1.c ****             0u,
 116:Generated_Source\PSoC4/USBFS_1.c ****             0u,
 117:Generated_Source\PSoC4/USBFS_1.c ****             0u,
 118:Generated_Source\PSoC4/USBFS_1.c ****             0u,
 119:Generated_Source\PSoC4/USBFS_1.c ****             0u,
 120:Generated_Source\PSoC4/USBFS_1.c ****             0u,
 121:Generated_Source\PSoC4/USBFS_1.c ****             0u,
 122:Generated_Source\PSoC4/USBFS_1.c ****             0u,
 123:Generated_Source\PSoC4/USBFS_1.c ****         };
 124:Generated_Source\PSoC4/USBFS_1.c **** 
 125:Generated_Source\PSoC4/USBFS_1.c ****         volatile uint16 USBFS_1_inLength[USBFS_1_MAX_EP];
 126:Generated_Source\PSoC4/USBFS_1.c ****         const uint8 *USBFS_1_inDataPointer[USBFS_1_MAX_EP];
 127:Generated_Source\PSoC4/USBFS_1.c ****         volatile uint8 USBFS_1_inBufFull[USBFS_1_MAX_EP];
 128:Generated_Source\PSoC4/USBFS_1.c ****     #endif /* (USBFS_1_EP_DMA_AUTO_OPT == 0u) */
 129:Generated_Source\PSoC4/USBFS_1.c **** #endif /* (CY_PSOC4) */
 130:Generated_Source\PSoC4/USBFS_1.c **** #endif /* (USBFS_1_EP_MANAGEMENT_DMA_AUTO) */
 131:Generated_Source\PSoC4/USBFS_1.c **** 
 132:Generated_Source\PSoC4/USBFS_1.c **** 
 133:Generated_Source\PSoC4/USBFS_1.c **** /*******************************************************************************
 134:Generated_Source\PSoC4/USBFS_1.c **** * Function Name: USBFS_1_Start
 135:Generated_Source\PSoC4/USBFS_1.c **** ****************************************************************************//**
 136:Generated_Source\PSoC4/USBFS_1.c **** *
 137:Generated_Source\PSoC4/USBFS_1.c **** *   This function performs all required initialization for the USBFS component.
 138:Generated_Source\PSoC4/USBFS_1.c **** *   After this function call, the USB device initiates communication with the
 139:Generated_Source\PSoC4/USBFS_1.c **** *   host by pull-up D+ line. This is the preferred method to begin component
 140:Generated_Source\PSoC4/USBFS_1.c **** *   operation.
 141:Generated_Source\PSoC4/USBFS_1.c **** *
 142:Generated_Source\PSoC4/USBFS_1.c **** *   Note that global interrupts have to be enabled because interrupts are
 143:Generated_Source\PSoC4/USBFS_1.c **** *   required for USBFS component operation.
 144:Generated_Source\PSoC4/USBFS_1.c **** *
ARM GAS  C:\Users\psmus\AppData\Local\Temp\ccX8E8QF.s 			page 4


 145:Generated_Source\PSoC4/USBFS_1.c **** *   PSoC 4200L devices: when USBFS component configured to DMA with Automatic
 146:Generated_Source\PSoC4/USBFS_1.c **** *   Buffer Management, the DMA interrupt priority is changed to the highest
 147:Generated_Source\PSoC4/USBFS_1.c **** *   (priority 0) inside this function.
 148:Generated_Source\PSoC4/USBFS_1.c **** *
 149:Generated_Source\PSoC4/USBFS_1.c **** *   PSoC 3/PSoC 5LP devices: when USBFS component configured to DMA with
 150:Generated_Source\PSoC4/USBFS_1.c **** *   Automatic Buffer Management, the Arbiter interrupt priority is changed to
 151:Generated_Source\PSoC4/USBFS_1.c **** *   the highest (priority 0) inside this function.
 152:Generated_Source\PSoC4/USBFS_1.c **** *
 153:Generated_Source\PSoC4/USBFS_1.c **** *  \param device
 154:Generated_Source\PSoC4/USBFS_1.c **** *          Contains the device number of the desired device descriptor.
 155:Generated_Source\PSoC4/USBFS_1.c **** *          The device number can be found in the Device Descriptor Tab of
 156:Generated_Source\PSoC4/USBFS_1.c **** *          "Configure" dialog, under the settings of desired Device Descriptor,
 157:Generated_Source\PSoC4/USBFS_1.c **** *          in the "Device Number" field.
 158:Generated_Source\PSoC4/USBFS_1.c **** *  \param mode:
 159:Generated_Source\PSoC4/USBFS_1.c **** *   The operating voltage. This determines whether the voltage regulator
 160:Generated_Source\PSoC4/USBFS_1.c **** *   is enabled for 5V operation or if pass through mode is used for 3.3V
 161:Generated_Source\PSoC4/USBFS_1.c **** *   operation. Symbolic names and their associated values are given in the
 162:Generated_Source\PSoC4/USBFS_1.c **** *   following list.
 163:Generated_Source\PSoC4/USBFS_1.c **** *
 164:Generated_Source\PSoC4/USBFS_1.c **** *       *USBFS_1_3V_OPERATION* - Disable voltage regulator and pass-
 165:Generated_Source\PSoC4/USBFS_1.c **** *                                      through Vcc for pull-up
 166:Generated_Source\PSoC4/USBFS_1.c **** *
 167:Generated_Source\PSoC4/USBFS_1.c **** *       *USBFS_1_5V_OPERATION* - Enable voltage regulator and use
 168:Generated_Source\PSoC4/USBFS_1.c **** *                                      regulator for pull-up
 169:Generated_Source\PSoC4/USBFS_1.c **** *
 170:Generated_Source\PSoC4/USBFS_1.c **** *       *USBFS_1_DWR_POWER_OPERATION* - Enable or disable the voltage
 171:Generated_Source\PSoC4/USBFS_1.c **** *                                      regulator depending on the power supply
 172:Generated_Source\PSoC4/USBFS_1.c **** *                                      voltage configuration in the DWR tab.
 173:Generated_Source\PSoC4/USBFS_1.c **** *                                      For PSoC 3/5LP devices, the VDDD supply
 174:Generated_Source\PSoC4/USBFS_1.c **** *                                      voltage is considered and for PSoC 4A-L,
 175:Generated_Source\PSoC4/USBFS_1.c **** *                                      the VBUS supply voltage is considered.*
 176:Generated_Source\PSoC4/USBFS_1.c **** * \globalvars
 177:Generated_Source\PSoC4/USBFS_1.c **** *  \ref USBFS_1_initVar
 178:Generated_Source\PSoC4/USBFS_1.c **** *
 179:Generated_Source\PSoC4/USBFS_1.c **** * \sideeffect
 180:Generated_Source\PSoC4/USBFS_1.c **** *   This function will reset all communication states to default.
 181:Generated_Source\PSoC4/USBFS_1.c **** *
 182:Generated_Source\PSoC4/USBFS_1.c **** * \reentrant
 183:Generated_Source\PSoC4/USBFS_1.c **** *  No.
 184:Generated_Source\PSoC4/USBFS_1.c **** *
 185:Generated_Source\PSoC4/USBFS_1.c **** *******************************************************************************/
 186:Generated_Source\PSoC4/USBFS_1.c **** void USBFS_1_Start(uint8 device, uint8 mode) 
 187:Generated_Source\PSoC4/USBFS_1.c **** {
 188:Generated_Source\PSoC4/USBFS_1.c ****     if (0u == USBFS_1_initVar)
 189:Generated_Source\PSoC4/USBFS_1.c ****     {
 190:Generated_Source\PSoC4/USBFS_1.c ****         USBFS_1_Init();
 191:Generated_Source\PSoC4/USBFS_1.c ****         USBFS_1_initVar = 1u;
 192:Generated_Source\PSoC4/USBFS_1.c ****     }
 193:Generated_Source\PSoC4/USBFS_1.c **** 
 194:Generated_Source\PSoC4/USBFS_1.c ****     USBFS_1_InitComponent(device, mode);
 195:Generated_Source\PSoC4/USBFS_1.c **** }
 196:Generated_Source\PSoC4/USBFS_1.c **** 
 197:Generated_Source\PSoC4/USBFS_1.c **** 
 198:Generated_Source\PSoC4/USBFS_1.c **** /*******************************************************************************
 199:Generated_Source\PSoC4/USBFS_1.c **** * Function Name: USBFS_1_Init
 200:Generated_Source\PSoC4/USBFS_1.c **** ****************************************************************************//**
 201:Generated_Source\PSoC4/USBFS_1.c **** *
ARM GAS  C:\Users\psmus\AppData\Local\Temp\ccX8E8QF.s 			page 5


 202:Generated_Source\PSoC4/USBFS_1.c **** * This function initializes or restores the component according to the
 203:Generated_Source\PSoC4/USBFS_1.c **** * customizer Configure dialog settings. It is not necessary to call
 204:Generated_Source\PSoC4/USBFS_1.c **** * USBFS_1_Init() because the USBFS_1_Start() routine calls
 205:Generated_Source\PSoC4/USBFS_1.c **** * this function and is the preferred method to begin component operation.
 206:Generated_Source\PSoC4/USBFS_1.c **** *
 207:Generated_Source\PSoC4/USBFS_1.c **** * \reentrant
 208:Generated_Source\PSoC4/USBFS_1.c **** *  No.
 209:Generated_Source\PSoC4/USBFS_1.c **** *
 210:Generated_Source\PSoC4/USBFS_1.c **** *******************************************************************************/
 211:Generated_Source\PSoC4/USBFS_1.c **** void USBFS_1_Init(void) 
 212:Generated_Source\PSoC4/USBFS_1.c **** {
  28              		.loc 1 212 0
  29              		.cfi_startproc
  30              		@ args = 0, pretend = 0, frame = 0
  31              		@ frame_needed = 0, uses_anonymous_args = 0
  32 0000 10B5     		push	{r4, lr}
  33              		.cfi_def_cfa_offset 8
  34              		.cfi_offset 4, -8
  35              		.cfi_offset 14, -4
 213:Generated_Source\PSoC4/USBFS_1.c **** #if (CY_PSOC4)
 214:Generated_Source\PSoC4/USBFS_1.c ****     /* Enable clock to USB IP. */
 215:Generated_Source\PSoC4/USBFS_1.c ****     USBFS_1_USB_CLK_EN_REG = USBFS_1_USB_CLK_CSR_CLK_EN;
  36              		.loc 1 215 0
  37 0002 0122     		movs	r2, #1
  38 0004 244B     		ldr	r3, .L3
  39 0006 1A60     		str	r2, [r3]
 216:Generated_Source\PSoC4/USBFS_1.c **** 
 217:Generated_Source\PSoC4/USBFS_1.c ****     /* The internal regulator (CR1.REG_ENABLE) is enabled in
 218:Generated_Source\PSoC4/USBFS_1.c ****     * USBFS_1_InitComponent() if it is required.
 219:Generated_Source\PSoC4/USBFS_1.c ****     */
 220:Generated_Source\PSoC4/USBFS_1.c **** 
 221:Generated_Source\PSoC4/USBFS_1.c ****     /* Enable USBIO control on drive mode of D+ and D- pins. */
 222:Generated_Source\PSoC4/USBFS_1.c ****     USBFS_1_USBIO_CR1_REG &= ~ (uint32) USBFS_1_USBIO_CR1_IOMODE;
  40              		.loc 1 222 0
  41 0008 244A     		ldr	r2, .L3+4
  42 000a 1368     		ldr	r3, [r2]
  43 000c 2021     		movs	r1, #32
  44 000e 8B43     		bics	r3, r1
  45 0010 1360     		str	r3, [r2]
 223:Generated_Source\PSoC4/USBFS_1.c **** 
 224:Generated_Source\PSoC4/USBFS_1.c ****     /* Set number of LF CLK to detect UBS bus reset. */
 225:Generated_Source\PSoC4/USBFS_1.c ****     USBFS_1_BUS_RST_CNT_REG = USBFS_1_DEFUALT_BUS_RST_CNT;
  46              		.loc 1 225 0
  47 0012 0A22     		movs	r2, #10
  48 0014 224B     		ldr	r3, .L3+8
  49 0016 1A60     		str	r2, [r3]
 226:Generated_Source\PSoC4/USBFS_1.c **** 
 227:Generated_Source\PSoC4/USBFS_1.c ****     /* Select VBUS detection source and clear PHY isolate. The application level
 228:Generated_Source\PSoC4/USBFS_1.c ****     * must ensure that VBUS is valid. There is no need to wait 2us before VBUS is valid.
 229:Generated_Source\PSoC4/USBFS_1.c ****     */
 230:Generated_Source\PSoC4/USBFS_1.c ****     USBFS_1_POWER_CTRL_REG = USBFS_1_DEFAULT_POWER_CTRL_VBUS;
  50              		.loc 1 230 0
  51 0018 224C     		ldr	r4, .L3+12
  52 001a 234B     		ldr	r3, .L3+16
  53 001c 2360     		str	r3, [r4]
 231:Generated_Source\PSoC4/USBFS_1.c **** 
 232:Generated_Source\PSoC4/USBFS_1.c ****     /* Enable PHY detector and single-ended and differential receivers. */
ARM GAS  C:\Users\psmus\AppData\Local\Temp\ccX8E8QF.s 			page 6


 233:Generated_Source\PSoC4/USBFS_1.c ****     USBFS_1_POWER_CTRL_REG |= USBFS_1_DEFAULT_POWER_CTRL_PHY;
  54              		.loc 1 233 0
  55 001e 2368     		ldr	r3, [r4]
  56 0020 224A     		ldr	r2, .L3+20
  57 0022 1343     		orrs	r3, r2
  58 0024 2360     		str	r3, [r4]
 234:Generated_Source\PSoC4/USBFS_1.c **** 
 235:Generated_Source\PSoC4/USBFS_1.c ****     /* Suspend clear sequence. */
 236:Generated_Source\PSoC4/USBFS_1.c ****     USBFS_1_POWER_CTRL_REG &= (uint32) ~USBFS_1_POWER_CTRL_SUSPEND;
  59              		.loc 1 236 0
  60 0026 2368     		ldr	r3, [r4]
  61 0028 0422     		movs	r2, #4
  62 002a 9343     		bics	r3, r2
  63 002c 2360     		str	r3, [r4]
 237:Generated_Source\PSoC4/USBFS_1.c ****     CyDelayUs(USBFS_1_WAIT_SUSPEND_DEL_DISABLE);
  64              		.loc 1 237 0
  65 002e 0220     		movs	r0, #2
  66 0030 FFF7FEFF 		bl	CyDelayUs
  67              	.LVL0:
 238:Generated_Source\PSoC4/USBFS_1.c ****     USBFS_1_POWER_CTRL_REG &= (uint32) ~USBFS_1_POWER_CTRL_SUSPEND_DEL;
  68              		.loc 1 238 0
  69 0034 2368     		ldr	r3, [r4]
  70 0036 0822     		movs	r2, #8
  71 0038 9343     		bics	r3, r2
  72 003a 2360     		str	r3, [r4]
 239:Generated_Source\PSoC4/USBFS_1.c **** 
 240:Generated_Source\PSoC4/USBFS_1.c ****     /* Sets IMO lock options and clear all other bits. */
 241:Generated_Source\PSoC4/USBFS_1.c ****     USBFS_1_CR1_REG = USBFS_1_DEFUALT_CR1;
  73              		.loc 1 241 0
  74 003c FFF7FEFF 		bl	CySysClkImoGetUsbLock
  75              	.LVL1:
  76 0040 0028     		cmp	r0, #0
  77 0042 00D0     		beq	.L2
  78 0044 0220     		movs	r0, #2
  79              	.L2:
  80              		.loc 1 241 0 is_stmt 0 discriminator 4
  81 0046 1A4B     		ldr	r3, .L3+24
  82 0048 1860     		str	r0, [r3]
 242:Generated_Source\PSoC4/USBFS_1.c **** 
 243:Generated_Source\PSoC4/USBFS_1.c ****     /* Configure level (hi, lo, med) for each interrupt source. */
 244:Generated_Source\PSoC4/USBFS_1.c ****     USBFS_1_INTR_LVL_SEL_REG = USBFS_1_DEFAULT_INTR_LVL_SEL;
  83              		.loc 1 244 0 is_stmt 1 discriminator 4
  84 004a 1A4A     		ldr	r2, .L3+28
  85 004c 1A4B     		ldr	r3, .L3+32
  86 004e 1A60     		str	r2, [r3]
 245:Generated_Source\PSoC4/USBFS_1.c **** 
 246:Generated_Source\PSoC4/USBFS_1.c ****     /* Configure interrupt sources from: SOF, Bus Reset and EP0. */
 247:Generated_Source\PSoC4/USBFS_1.c ****     USBFS_1_INTR_SIE_MASK_REG = USBFS_1_DEFAULT_INTR_SIE_MASK;
  87              		.loc 1 247 0 discriminator 4
  88 0050 0622     		movs	r2, #6
  89 0052 1A4B     		ldr	r3, .L3+36
  90 0054 1A60     		str	r2, [r3]
 248:Generated_Source\PSoC4/USBFS_1.c **** 
 249:Generated_Source\PSoC4/USBFS_1.c **** #else
 250:Generated_Source\PSoC4/USBFS_1.c ****     uint8 enableInterrupts = CyEnterCriticalSection();
 251:Generated_Source\PSoC4/USBFS_1.c **** 
 252:Generated_Source\PSoC4/USBFS_1.c **** #if (USBFS_1_EP_MANAGEMENT_DMA)
ARM GAS  C:\Users\psmus\AppData\Local\Temp\ccX8E8QF.s 			page 7


 253:Generated_Source\PSoC4/USBFS_1.c ****     uint16 i;
 254:Generated_Source\PSoC4/USBFS_1.c **** #endif /* (USBFS_1_EP_MANAGEMENT_DMA) */
 255:Generated_Source\PSoC4/USBFS_1.c **** 
 256:Generated_Source\PSoC4/USBFS_1.c ****     /* Enable USB block. */
 257:Generated_Source\PSoC4/USBFS_1.c ****     USBFS_1_PM_ACT_CFG_REG |= USBFS_1_PM_ACT_EN_FSUSB;
 258:Generated_Source\PSoC4/USBFS_1.c ****     /* Enable USB block for Standby Power Mode. */
 259:Generated_Source\PSoC4/USBFS_1.c ****     USBFS_1_PM_STBY_CFG_REG |= USBFS_1_PM_STBY_EN_FSUSB;
 260:Generated_Source\PSoC4/USBFS_1.c **** 
 261:Generated_Source\PSoC4/USBFS_1.c ****     /* Enable core clock. */
 262:Generated_Source\PSoC4/USBFS_1.c ****     USBFS_1_USB_CLK_EN_REG = USBFS_1_USB_CLK_ENABLE;
 263:Generated_Source\PSoC4/USBFS_1.c **** 
 264:Generated_Source\PSoC4/USBFS_1.c ****     USBFS_1_CR1_REG = USBFS_1_CR1_ENABLE_LOCK;
 265:Generated_Source\PSoC4/USBFS_1.c **** 
 266:Generated_Source\PSoC4/USBFS_1.c ****     /* ENABLING USBIO PADS IN USB MODE FROM I/O MODE. */
 267:Generated_Source\PSoC4/USBFS_1.c ****     /* Ensure USB transmit enable is low (USB_USBIO_CR0.ten). - Manual Transmission - Disabled. */
 268:Generated_Source\PSoC4/USBFS_1.c ****     USBFS_1_USBIO_CR0_REG &= (uint8) ~USBFS_1_USBIO_CR0_TEN;
 269:Generated_Source\PSoC4/USBFS_1.c ****     CyDelayUs(USBFS_1_WAIT_REG_STABILITY_50NS);  /* ~50ns delay. */
 270:Generated_Source\PSoC4/USBFS_1.c ****     /* Disable USBIO by asserting PM.USB_CR0.fsusbio_pd_n(Inverted.
 271:Generated_Source\PSoC4/USBFS_1.c ****     *  high. These bits will be set low by the power manager out-of-reset.
 272:Generated_Source\PSoC4/USBFS_1.c ****     *  Also confirm USBIO pull-up is disabled.
 273:Generated_Source\PSoC4/USBFS_1.c ****     */
 274:Generated_Source\PSoC4/USBFS_1.c ****     USBFS_1_PM_USB_CR0_REG &= (uint8) ~(USBFS_1_PM_USB_CR0_PD_N |
 275:Generated_Source\PSoC4/USBFS_1.c ****                                                  USBFS_1_PM_USB_CR0_PD_PULLUP_N);
 276:Generated_Source\PSoC4/USBFS_1.c **** 
 277:Generated_Source\PSoC4/USBFS_1.c ****     /* Select IOMODE to USB mode. */
 278:Generated_Source\PSoC4/USBFS_1.c ****     USBFS_1_USBIO_CR1_REG &= (uint8) ~USBFS_1_USBIO_CR1_IOMODE;
 279:Generated_Source\PSoC4/USBFS_1.c **** 
 280:Generated_Source\PSoC4/USBFS_1.c ****     /* Enable USBIO reference by setting PM.USB_CR0.fsusbio_ref_en. */
 281:Generated_Source\PSoC4/USBFS_1.c ****     USBFS_1_PM_USB_CR0_REG |= USBFS_1_PM_USB_CR0_REF_EN;
 282:Generated_Source\PSoC4/USBFS_1.c ****     /* Reference is available for 1us after regulator is enabled. */
 283:Generated_Source\PSoC4/USBFS_1.c ****     CyDelayUs(USBFS_1_WAIT_REG_STABILITY_1US);
 284:Generated_Source\PSoC4/USBFS_1.c ****     /* OR 40us after power is restored. */
 285:Generated_Source\PSoC4/USBFS_1.c ****     CyDelayUs(USBFS_1_WAIT_VREF_RESTORE);
 286:Generated_Source\PSoC4/USBFS_1.c ****     /* Ensure single-ended disable bits are low (PRT15.INP_DIS[7:6])(input receiver enabled). */
 287:Generated_Source\PSoC4/USBFS_1.c ****     USBFS_1_DM_INP_DIS_REG &= (uint8) ~USBFS_1_DM_MASK;
 288:Generated_Source\PSoC4/USBFS_1.c ****     USBFS_1_DP_INP_DIS_REG &= (uint8) ~USBFS_1_DP_MASK;
 289:Generated_Source\PSoC4/USBFS_1.c **** 
 290:Generated_Source\PSoC4/USBFS_1.c ****     /* Enable USBIO. */
 291:Generated_Source\PSoC4/USBFS_1.c ****     USBFS_1_PM_USB_CR0_REG |= USBFS_1_PM_USB_CR0_PD_N;
 292:Generated_Source\PSoC4/USBFS_1.c ****     CyDelayUs(USBFS_1_WAIT_PD_PULLUP_N_ENABLE);
 293:Generated_Source\PSoC4/USBFS_1.c ****     /* Set USBIO pull-up enable. */
 294:Generated_Source\PSoC4/USBFS_1.c ****     USBFS_1_PM_USB_CR0_REG |= USBFS_1_PM_USB_CR0_PD_PULLUP_N;
 295:Generated_Source\PSoC4/USBFS_1.c **** 
 296:Generated_Source\PSoC4/USBFS_1.c ****     /* Reset Arbiter Write Address register for endpoint 1. */
 297:Generated_Source\PSoC4/USBFS_1.c ****     CY_SET_REG8(USBFS_1_ARB_RW1_WA_PTR,     0u);
 298:Generated_Source\PSoC4/USBFS_1.c ****     CY_SET_REG8(USBFS_1_ARB_RW1_WA_MSB_PTR, 0u);
 299:Generated_Source\PSoC4/USBFS_1.c **** 
 300:Generated_Source\PSoC4/USBFS_1.c **** #if (USBFS_1_EP_MANAGEMENT_DMA)
 301:Generated_Source\PSoC4/USBFS_1.c ****     /* Initialize transfer descriptor. This will be used to detect DMA state - initialized or not. 
 302:Generated_Source\PSoC4/USBFS_1.c ****     for (i = 0u; i < USBFS_1_MAX_EP; ++i)
 303:Generated_Source\PSoC4/USBFS_1.c ****     {
 304:Generated_Source\PSoC4/USBFS_1.c ****         USBFS_1_DmaTd[i] = DMA_INVALID_TD;
 305:Generated_Source\PSoC4/USBFS_1.c **** 
 306:Generated_Source\PSoC4/USBFS_1.c ****     #if (USBFS_1_EP_MANAGEMENT_DMA_AUTO && (USBFS_1_EP_DMA_AUTO_OPT == 0u))
 307:Generated_Source\PSoC4/USBFS_1.c ****         USBFS_1_DmaNextTd[i] = DMA_INVALID_TD;
 308:Generated_Source\PSoC4/USBFS_1.c ****     #endif /* (USBFS_1_EP_MANAGEMENT_DMA_AUTO && (USBFS_1_EP_DMA_AUTO_OPT == 0u)) */
 309:Generated_Source\PSoC4/USBFS_1.c ****     }
ARM GAS  C:\Users\psmus\AppData\Local\Temp\ccX8E8QF.s 			page 8


 310:Generated_Source\PSoC4/USBFS_1.c **** #endif /* (USBFS_1_EP_MANAGEMENT_DMA) */
 311:Generated_Source\PSoC4/USBFS_1.c **** 
 312:Generated_Source\PSoC4/USBFS_1.c ****     CyExitCriticalSection(enableInterrupts);
 313:Generated_Source\PSoC4/USBFS_1.c **** #endif /* (CY_PSOC4) */
 314:Generated_Source\PSoC4/USBFS_1.c **** 
 315:Generated_Source\PSoC4/USBFS_1.c ****     /* Configure interrupts from USB block. */
 316:Generated_Source\PSoC4/USBFS_1.c **** #if (CY_PSOC4)
 317:Generated_Source\PSoC4/USBFS_1.c ****     /* Configure hi_int: set handler and priority. */
 318:Generated_Source\PSoC4/USBFS_1.c ****     CyIntSetPriority     (USBFS_1_INTR_HI_VECT_NUM,  USBFS_1_INTR_HI_PRIORITY);
  91              		.loc 1 318 0 discriminator 4
  92 0056 0321     		movs	r1, #3
  93 0058 1E20     		movs	r0, #30
  94 005a FFF7FEFF 		bl	CyIntSetPriority
  95              	.LVL2:
 319:Generated_Source\PSoC4/USBFS_1.c ****     (void) CyIntSetVector(USBFS_1_INTR_HI_VECT_NUM, &USBFS_1_INTR_HI_ISR);
  96              		.loc 1 319 0 discriminator 4
  97 005e 1849     		ldr	r1, .L3+40
  98 0060 1E20     		movs	r0, #30
  99 0062 FFF7FEFF 		bl	CyIntSetVector
 100              	.LVL3:
 320:Generated_Source\PSoC4/USBFS_1.c **** 
 321:Generated_Source\PSoC4/USBFS_1.c ****     /* Configure lo_int: set handler and priority. */
 322:Generated_Source\PSoC4/USBFS_1.c ****     CyIntSetPriority     (USBFS_1_INTR_LO_VECT_NUM,  USBFS_1_INTR_LO_PRIORITY);
 101              		.loc 1 322 0 discriminator 4
 102 0066 0321     		movs	r1, #3
 103 0068 1F20     		movs	r0, #31
 104 006a FFF7FEFF 		bl	CyIntSetPriority
 105              	.LVL4:
 323:Generated_Source\PSoC4/USBFS_1.c ****     (void) CyIntSetVector(USBFS_1_INTR_LO_VECT_NUM, &USBFS_1_INTR_LO_ISR);
 106              		.loc 1 323 0 discriminator 4
 107 006e 1549     		ldr	r1, .L3+44
 108 0070 1F20     		movs	r0, #31
 109 0072 FFF7FEFF 		bl	CyIntSetVector
 110              	.LVL5:
 324:Generated_Source\PSoC4/USBFS_1.c **** 
 325:Generated_Source\PSoC4/USBFS_1.c ****     /* Configure med_int: set handler and priority (routed through DSI). */
 326:Generated_Source\PSoC4/USBFS_1.c ****     CyIntSetPriority     (USBFS_1_INTR_MED_VECT_NUM,  USBFS_1_INTR_MED_PRIORITY);
 111              		.loc 1 326 0 discriminator 4
 112 0076 0321     		movs	r1, #3
 113 0078 0020     		movs	r0, #0
 114 007a FFF7FEFF 		bl	CyIntSetPriority
 115              	.LVL6:
 327:Generated_Source\PSoC4/USBFS_1.c ****     (void) CyIntSetVector(USBFS_1_INTR_MED_VECT_NUM, &USBFS_1_INTR_MED_ISR);
 116              		.loc 1 327 0 discriminator 4
 117 007e 1249     		ldr	r1, .L3+48
 118 0080 0020     		movs	r0, #0
 119 0082 FFF7FEFF 		bl	CyIntSetVector
 120              	.LVL7:
 328:Generated_Source\PSoC4/USBFS_1.c **** 
 329:Generated_Source\PSoC4/USBFS_1.c **** #else
 330:Generated_Source\PSoC4/USBFS_1.c ****     /* Set bus reset interrupt. */
 331:Generated_Source\PSoC4/USBFS_1.c ****     CyIntSetPriority(USBFS_1_BUS_RESET_VECT_NUM, USBFS_1_BUS_RESET_PRIOR);
 332:Generated_Source\PSoC4/USBFS_1.c ****     (void) CyIntSetVector(USBFS_1_BUS_RESET_VECT_NUM,   &USBFS_1_BUS_RESET_ISR);
 333:Generated_Source\PSoC4/USBFS_1.c **** 
 334:Generated_Source\PSoC4/USBFS_1.c ****     /* Set Control Endpoint Interrupt. */
 335:Generated_Source\PSoC4/USBFS_1.c ****     CyIntSetPriority(USBFS_1_EP_0_VECT_NUM, USBFS_1_EP_0_PRIOR);
 336:Generated_Source\PSoC4/USBFS_1.c ****     (void) CyIntSetVector(USBFS_1_EP_0_VECT_NUM,   &USBFS_1_EP_0_ISR);
ARM GAS  C:\Users\psmus\AppData\Local\Temp\ccX8E8QF.s 			page 9


 337:Generated_Source\PSoC4/USBFS_1.c **** 
 338:Generated_Source\PSoC4/USBFS_1.c ****     /* Set SOF interrupt. */
 339:Generated_Source\PSoC4/USBFS_1.c ****     #if (USBFS_1_SOF_ISR_ACTIVE)
 340:Generated_Source\PSoC4/USBFS_1.c ****         CyIntSetPriority     (USBFS_1_SOF_VECT_NUM,  USBFS_1_SOF_PRIOR);
 341:Generated_Source\PSoC4/USBFS_1.c ****         (void) CyIntSetVector(USBFS_1_SOF_VECT_NUM, &USBFS_1_SOF_ISR);
 342:Generated_Source\PSoC4/USBFS_1.c ****     #endif /* (USBFS_1_SOF_ISR_ACTIVE) */
 343:Generated_Source\PSoC4/USBFS_1.c **** 
 344:Generated_Source\PSoC4/USBFS_1.c ****     /* Set Data Endpoint 1 Interrupt. */
 345:Generated_Source\PSoC4/USBFS_1.c ****     #if (USBFS_1_EP1_ISR_ACTIVE)
 346:Generated_Source\PSoC4/USBFS_1.c ****         CyIntSetPriority     (USBFS_1_EP_1_VECT_NUM,  USBFS_1_EP_1_PRIOR);
 347:Generated_Source\PSoC4/USBFS_1.c ****         (void) CyIntSetVector(USBFS_1_EP_1_VECT_NUM,  &USBFS_1_EP_1_ISR);
 348:Generated_Source\PSoC4/USBFS_1.c ****     #endif /* (USBFS_1_EP1_ISR_ACTIVE) */
 349:Generated_Source\PSoC4/USBFS_1.c **** 
 350:Generated_Source\PSoC4/USBFS_1.c ****     /* Set Data Endpoint 2 Interrupt. */
 351:Generated_Source\PSoC4/USBFS_1.c ****     #if (USBFS_1_EP2_ISR_ACTIVE)
 352:Generated_Source\PSoC4/USBFS_1.c ****         CyIntSetPriority     (USBFS_1_EP_2_VECT_NUM,  USBFS_1_EP_2_PRIOR);
 353:Generated_Source\PSoC4/USBFS_1.c ****         (void) CyIntSetVector(USBFS_1_EP_2_VECT_NUM, &USBFS_1_EP_2_ISR);
 354:Generated_Source\PSoC4/USBFS_1.c ****     #endif /* (USBFS_1_EP2_ISR_ACTIVE) */
 355:Generated_Source\PSoC4/USBFS_1.c **** 
 356:Generated_Source\PSoC4/USBFS_1.c ****     /* Set Data Endpoint 3 Interrupt. */
 357:Generated_Source\PSoC4/USBFS_1.c ****     #if (USBFS_1_EP3_ISR_ACTIVE)
 358:Generated_Source\PSoC4/USBFS_1.c ****         CyIntSetPriority     (USBFS_1_EP_3_VECT_NUM,  USBFS_1_EP_3_PRIOR);
 359:Generated_Source\PSoC4/USBFS_1.c ****         (void) CyIntSetVector(USBFS_1_EP_3_VECT_NUM, &USBFS_1_EP_3_ISR);
 360:Generated_Source\PSoC4/USBFS_1.c ****     #endif /* (USBFS_1_EP3_ISR_ACTIVE) */
 361:Generated_Source\PSoC4/USBFS_1.c **** 
 362:Generated_Source\PSoC4/USBFS_1.c ****     /* Set Data Endpoint 4 Interrupt. */
 363:Generated_Source\PSoC4/USBFS_1.c ****     #if (USBFS_1_EP4_ISR_ACTIVE)
 364:Generated_Source\PSoC4/USBFS_1.c ****         CyIntSetPriority     (USBFS_1_EP_4_VECT_NUM,  USBFS_1_EP_4_PRIOR);
 365:Generated_Source\PSoC4/USBFS_1.c ****         (void) CyIntSetVector(USBFS_1_EP_4_VECT_NUM, &USBFS_1_EP_4_ISR);
 366:Generated_Source\PSoC4/USBFS_1.c ****     #endif /* (USBFS_1_EP4_ISR_ACTIVE) */
 367:Generated_Source\PSoC4/USBFS_1.c **** 
 368:Generated_Source\PSoC4/USBFS_1.c ****     /* Set Data Endpoint 5 Interrupt. */
 369:Generated_Source\PSoC4/USBFS_1.c ****     #if (USBFS_1_EP5_ISR_ACTIVE)
 370:Generated_Source\PSoC4/USBFS_1.c ****         CyIntSetPriority     (USBFS_1_EP_5_VECT_NUM,  USBFS_1_EP_5_PRIOR);
 371:Generated_Source\PSoC4/USBFS_1.c ****         (void) CyIntSetVector(USBFS_1_EP_5_VECT_NUM, &USBFS_1_EP_5_ISR);
 372:Generated_Source\PSoC4/USBFS_1.c ****     #endif /* (USBFS_1_EP5_ISR_ACTIVE) */
 373:Generated_Source\PSoC4/USBFS_1.c **** 
 374:Generated_Source\PSoC4/USBFS_1.c ****     /* Set Data Endpoint 6 Interrupt. */
 375:Generated_Source\PSoC4/USBFS_1.c ****     #if (USBFS_1_EP6_ISR_ACTIVE)
 376:Generated_Source\PSoC4/USBFS_1.c ****         CyIntSetPriority     (USBFS_1_EP_6_VECT_NUM,  USBFS_1_EP_6_PRIOR);
 377:Generated_Source\PSoC4/USBFS_1.c ****         (void) CyIntSetVector(USBFS_1_EP_6_VECT_NUM, &USBFS_1_EP_6_ISR);
 378:Generated_Source\PSoC4/USBFS_1.c ****     #endif /* (USBFS_1_EP6_ISR_ACTIVE) */
 379:Generated_Source\PSoC4/USBFS_1.c **** 
 380:Generated_Source\PSoC4/USBFS_1.c ****      /* Set Data Endpoint 7 Interrupt. */
 381:Generated_Source\PSoC4/USBFS_1.c ****     #if (USBFS_1_EP7_ISR_ACTIVE)
 382:Generated_Source\PSoC4/USBFS_1.c ****         CyIntSetPriority     (USBFS_1_EP_7_VECT_NUM,  USBFS_1_EP_7_PRIOR);
 383:Generated_Source\PSoC4/USBFS_1.c ****         (void) CyIntSetVector(USBFS_1_EP_7_VECT_NUM, &USBFS_1_EP_7_ISR);
 384:Generated_Source\PSoC4/USBFS_1.c ****     #endif /* (USBFS_1_EP7_ISR_ACTIVE) */
 385:Generated_Source\PSoC4/USBFS_1.c **** 
 386:Generated_Source\PSoC4/USBFS_1.c ****     /* Set Data Endpoint 8 Interrupt. */
 387:Generated_Source\PSoC4/USBFS_1.c ****     #if (USBFS_1_EP8_ISR_ACTIVE)
 388:Generated_Source\PSoC4/USBFS_1.c ****         CyIntSetPriority     (USBFS_1_EP_8_VECT_NUM,  USBFS_1_EP_8_PRIOR);
 389:Generated_Source\PSoC4/USBFS_1.c ****         (void) CyIntSetVector(USBFS_1_EP_8_VECT_NUM, &USBFS_1_EP_8_ISR);
 390:Generated_Source\PSoC4/USBFS_1.c ****     #endif /* (USBFS_1_EP8_ISR_ACTIVE) */
 391:Generated_Source\PSoC4/USBFS_1.c **** 
 392:Generated_Source\PSoC4/USBFS_1.c ****     /* Set ARB Interrupt. */
 393:Generated_Source\PSoC4/USBFS_1.c ****     #if (USBFS_1_EP_MANAGEMENT_DMA && USBFS_1_ARB_ISR_ACTIVE)
ARM GAS  C:\Users\psmus\AppData\Local\Temp\ccX8E8QF.s 			page 10


 394:Generated_Source\PSoC4/USBFS_1.c ****         CyIntSetPriority     (USBFS_1_ARB_VECT_NUM,  USBFS_1_ARB_PRIOR);
 395:Generated_Source\PSoC4/USBFS_1.c ****         (void) CyIntSetVector(USBFS_1_ARB_VECT_NUM, &USBFS_1_ARB_ISR);
 396:Generated_Source\PSoC4/USBFS_1.c ****     #endif /* (USBFS_1_EP_MANAGEMENT_DMA && USBFS_1_ARB_ISR_ACTIVE) */
 397:Generated_Source\PSoC4/USBFS_1.c **** #endif /* (CY_PSOC4) */
 398:Generated_Source\PSoC4/USBFS_1.c **** 
 399:Generated_Source\PSoC4/USBFS_1.c ****     /* Common: Configure GPIO interrupt for wakeup. */
 400:Generated_Source\PSoC4/USBFS_1.c **** #if (USBFS_1_DP_ISR_ACTIVE)
 401:Generated_Source\PSoC4/USBFS_1.c ****     CyIntSetPriority     (USBFS_1_DP_INTC_VECT_NUM,  USBFS_1_DP_INTC_PRIORITY);
 121              		.loc 1 401 0 discriminator 4
 122 0086 0321     		movs	r1, #3
 123 0088 0520     		movs	r0, #5
 124 008a FFF7FEFF 		bl	CyIntSetPriority
 125              	.LVL8:
 402:Generated_Source\PSoC4/USBFS_1.c ****     (void) CyIntSetVector(USBFS_1_DP_INTC_VECT_NUM, &USBFS_1_DP_ISR);
 126              		.loc 1 402 0 discriminator 4
 127 008e 0F49     		ldr	r1, .L3+52
 128 0090 0520     		movs	r0, #5
 129 0092 FFF7FEFF 		bl	CyIntSetVector
 130              	.LVL9:
 403:Generated_Source\PSoC4/USBFS_1.c **** #endif /* (USBFS_1_DP_ISR_ACTIVE) */
 404:Generated_Source\PSoC4/USBFS_1.c **** 
 405:Generated_Source\PSoC4/USBFS_1.c **** #if (USBFS_1_EP_MANAGEMENT_DMA && CY_PSOC4)
 406:Generated_Source\PSoC4/USBFS_1.c ****     /* Initialize DMA channels. */
 407:Generated_Source\PSoC4/USBFS_1.c ****     USBFS_1_InitEpDma();
 408:Generated_Source\PSoC4/USBFS_1.c **** #endif /* (USBFS_1_EP_MANAGEMENT_DMA && CY_PSOC4) */
 409:Generated_Source\PSoC4/USBFS_1.c **** }
 131              		.loc 1 409 0 discriminator 4
 132              		@ sp needed
 133 0096 10BD     		pop	{r4, pc}
 134              	.L4:
 135              		.align	2
 136              	.L3:
 137 0098 74022C40 		.word	1076626036
 138 009c 48002C40 		.word	1076625480
 139 00a0 30032C40 		.word	1076626224
 140 00a4 00202C40 		.word	1076633600
 141 00a8 01000004 		.word	67108865
 142 00ac 0C0000B8 		.word	-1207959540
 143 00b0 24002C40 		.word	1076625444
 144 00b4 18000100 		.word	65560
 145 00b8 30202C40 		.word	1076633648
 146 00bc 28202C40 		.word	1076633640
 147 00c0 00000000 		.word	USBFS_1_INTR_HI_ISR
 148 00c4 00000000 		.word	USBFS_1_INTR_LO_ISR
 149 00c8 00000000 		.word	USBFS_1_INTR_MED_ISR
 150 00cc 00000000 		.word	USBFS_1_DP_ISR
 151              		.cfi_endproc
 152              	.LFE2:
 153              		.size	USBFS_1_Init, .-USBFS_1_Init
 154              		.section	.text.USBFS_1_InitComponent,"ax",%progbits
 155              		.align	2
 156              		.global	USBFS_1_InitComponent
 157              		.code	16
 158              		.thumb_func
 159              		.type	USBFS_1_InitComponent, %function
 160              	USBFS_1_InitComponent:
 161              	.LFB3:
ARM GAS  C:\Users\psmus\AppData\Local\Temp\ccX8E8QF.s 			page 11


 410:Generated_Source\PSoC4/USBFS_1.c **** 
 411:Generated_Source\PSoC4/USBFS_1.c **** 
 412:Generated_Source\PSoC4/USBFS_1.c **** /*******************************************************************************
 413:Generated_Source\PSoC4/USBFS_1.c **** * Function Name: USBFS_1_InitComponent
 414:Generated_Source\PSoC4/USBFS_1.c **** ****************************************************************************//**
 415:Generated_Source\PSoC4/USBFS_1.c **** *
 416:Generated_Source\PSoC4/USBFS_1.c **** *   This function initializes the component’s global variables and initiates
 417:Generated_Source\PSoC4/USBFS_1.c **** *   communication with the host by pull-up D+ line.
 418:Generated_Source\PSoC4/USBFS_1.c **** *
 419:Generated_Source\PSoC4/USBFS_1.c **** * \param device:
 420:Generated_Source\PSoC4/USBFS_1.c **** *   Contains the device number of the desired device descriptor. The device
 421:Generated_Source\PSoC4/USBFS_1.c **** *   number can be found in the Device Descriptor Tab of "Configure" dialog,
 422:Generated_Source\PSoC4/USBFS_1.c **** *   under the settings of desired Device Descriptor, in the *Device Number*
 423:Generated_Source\PSoC4/USBFS_1.c **** *   field.
 424:Generated_Source\PSoC4/USBFS_1.c **** *  \param mode:
 425:Generated_Source\PSoC4/USBFS_1.c **** *   The operating voltage. This determines whether the voltage regulator
 426:Generated_Source\PSoC4/USBFS_1.c **** *   is enabled for 5V operation or if pass through mode is used for 3.3V
 427:Generated_Source\PSoC4/USBFS_1.c **** *   operation. Symbolic names and their associated values are given in the
 428:Generated_Source\PSoC4/USBFS_1.c **** *   following list.
 429:Generated_Source\PSoC4/USBFS_1.c **** *
 430:Generated_Source\PSoC4/USBFS_1.c **** *       *USBFS_1_3V_OPERATION* - Disable voltage regulator and pass-
 431:Generated_Source\PSoC4/USBFS_1.c **** *                                      through Vcc for pull-up
 432:Generated_Source\PSoC4/USBFS_1.c **** *
 433:Generated_Source\PSoC4/USBFS_1.c **** *       *USBFS_1_5V_OPERATION* - Enable voltage regulator and use
 434:Generated_Source\PSoC4/USBFS_1.c **** *                                      regulator for pull-up
 435:Generated_Source\PSoC4/USBFS_1.c **** *
 436:Generated_Source\PSoC4/USBFS_1.c **** *       *USBFS_1_DWR_POWER_OPERATION* - Enable or disable the voltage
 437:Generated_Source\PSoC4/USBFS_1.c **** *                                      regulator depending on the power supply
 438:Generated_Source\PSoC4/USBFS_1.c **** *                                      voltage configuration in the DWR tab.
 439:Generated_Source\PSoC4/USBFS_1.c **** *                                      For PSoC 3/5LP devices, the VDDD supply
 440:Generated_Source\PSoC4/USBFS_1.c **** *                                      voltage is considered and for PSoC 4A-L,
 441:Generated_Source\PSoC4/USBFS_1.c **** *                                      the VBUS supply voltage is considered.
 442:Generated_Source\PSoC4/USBFS_1.c **** *
 443:Generated_Source\PSoC4/USBFS_1.c **** * \globalvars
 444:Generated_Source\PSoC4/USBFS_1.c **** *   \ref USBFS_1_device
 445:Generated_Source\PSoC4/USBFS_1.c **** *   \ref USBFS_1_transferState
 446:Generated_Source\PSoC4/USBFS_1.c **** *   \ref USBFS_1_configuration
 447:Generated_Source\PSoC4/USBFS_1.c **** *   \ref USBFS_1_deviceStatus
 448:Generated_Source\PSoC4/USBFS_1.c **** *
 449:Generated_Source\PSoC4/USBFS_1.c **** *   \ref USBFS_1_deviceAddress - Contains the current device address. This
 450:Generated_Source\PSoC4/USBFS_1.c **** *       variable is initialized to zero in this API. The Host starts to communicate
 451:Generated_Source\PSoC4/USBFS_1.c **** *      to the device with address 0 and then sets it to a whatever value using a
 452:Generated_Source\PSoC4/USBFS_1.c **** *      SET_ADDRESS request.
 453:Generated_Source\PSoC4/USBFS_1.c **** *
 454:Generated_Source\PSoC4/USBFS_1.c **** *   \ref USBFS_1_lastPacketSize - Initialized to 0;
 455:Generated_Source\PSoC4/USBFS_1.c **** *
 456:Generated_Source\PSoC4/USBFS_1.c **** * \reentrant
 457:Generated_Source\PSoC4/USBFS_1.c **** *  No.
 458:Generated_Source\PSoC4/USBFS_1.c **** *
 459:Generated_Source\PSoC4/USBFS_1.c **** *******************************************************************************/
 460:Generated_Source\PSoC4/USBFS_1.c **** void USBFS_1_InitComponent(uint8 device, uint8 mode) 
 461:Generated_Source\PSoC4/USBFS_1.c **** {
 162              		.loc 1 461 0
 163              		.cfi_startproc
 164              		@ args = 0, pretend = 0, frame = 0
 165              		@ frame_needed = 0, uses_anonymous_args = 0
 166              	.LVL10:
ARM GAS  C:\Users\psmus\AppData\Local\Temp\ccX8E8QF.s 			page 12


 167 0000 10B5     		push	{r4, lr}
 168              		.cfi_def_cfa_offset 8
 169              		.cfi_offset 4, -8
 170              		.cfi_offset 14, -4
 171 0002 0C00     		movs	r4, r1
 462:Generated_Source\PSoC4/USBFS_1.c ****     /* Initialize _hidProtocol variable to comply with
 463:Generated_Source\PSoC4/USBFS_1.c ****     *  HID 7.2.6 Set_Protocol Request:
 464:Generated_Source\PSoC4/USBFS_1.c ****     *  "When initialized, all devices default to report protocol."
 465:Generated_Source\PSoC4/USBFS_1.c ****     */
 466:Generated_Source\PSoC4/USBFS_1.c **** #if defined(USBFS_1_ENABLE_HID_CLASS)
 467:Generated_Source\PSoC4/USBFS_1.c ****     uint8 i;
 468:Generated_Source\PSoC4/USBFS_1.c **** 
 469:Generated_Source\PSoC4/USBFS_1.c ****     for (i = 0u; i < USBFS_1_MAX_INTERFACES_NUMBER; i++)
 470:Generated_Source\PSoC4/USBFS_1.c ****     {
 471:Generated_Source\PSoC4/USBFS_1.c ****         USBFS_1_hidProtocol[i] = USBFS_1_PROTOCOL_REPORT;
 472:Generated_Source\PSoC4/USBFS_1.c ****     }
 473:Generated_Source\PSoC4/USBFS_1.c **** #endif /* USBFS_1_ENABLE_HID_CLASS */
 474:Generated_Source\PSoC4/USBFS_1.c **** 
 475:Generated_Source\PSoC4/USBFS_1.c ****     /* Store device number to access descriptor. */
 476:Generated_Source\PSoC4/USBFS_1.c ****     USBFS_1_device = device;
 172              		.loc 1 476 0
 173 0004 204B     		ldr	r3, .L11
 174 0006 1870     		strb	r0, [r3]
 477:Generated_Source\PSoC4/USBFS_1.c **** 
 478:Generated_Source\PSoC4/USBFS_1.c ****     /* Reset component internal variables. */
 479:Generated_Source\PSoC4/USBFS_1.c ****     USBFS_1_transferState   = USBFS_1_TRANS_STATE_IDLE;
 175              		.loc 1 479 0
 176 0008 0023     		movs	r3, #0
 177 000a 204A     		ldr	r2, .L11+4
 178 000c 1370     		strb	r3, [r2]
 480:Generated_Source\PSoC4/USBFS_1.c ****     USBFS_1_configurationChanged = 0u;
 179              		.loc 1 480 0
 180 000e 204A     		ldr	r2, .L11+8
 181 0010 1370     		strb	r3, [r2]
 481:Generated_Source\PSoC4/USBFS_1.c ****     USBFS_1_configuration   = 0u;
 182              		.loc 1 481 0
 183 0012 204A     		ldr	r2, .L11+12
 184 0014 1370     		strb	r3, [r2]
 482:Generated_Source\PSoC4/USBFS_1.c ****     USBFS_1_interfaceNumber = 0u;
 185              		.loc 1 482 0
 186 0016 204A     		ldr	r2, .L11+16
 187 0018 1370     		strb	r3, [r2]
 483:Generated_Source\PSoC4/USBFS_1.c ****     USBFS_1_deviceAddress   = 0u;
 188              		.loc 1 483 0
 189 001a 204A     		ldr	r2, .L11+20
 190 001c 1370     		strb	r3, [r2]
 484:Generated_Source\PSoC4/USBFS_1.c ****     USBFS_1_deviceStatus    = 0u;
 191              		.loc 1 484 0
 192 001e 204A     		ldr	r2, .L11+24
 193 0020 1370     		strb	r3, [r2]
 485:Generated_Source\PSoC4/USBFS_1.c ****     USBFS_1_lastPacketSize  = 0u;
 194              		.loc 1 485 0
 195 0022 204A     		ldr	r2, .L11+28
 196 0024 1370     		strb	r3, [r2]
 486:Generated_Source\PSoC4/USBFS_1.c **** 
 487:Generated_Source\PSoC4/USBFS_1.c ****     /* Enable component interrupts. */
 488:Generated_Source\PSoC4/USBFS_1.c **** #if (CY_PSOC4)
ARM GAS  C:\Users\psmus\AppData\Local\Temp\ccX8E8QF.s 			page 13


 489:Generated_Source\PSoC4/USBFS_1.c ****     CyIntEnable(USBFS_1_INTR_HI_VECT_NUM);
 197              		.loc 1 489 0
 198 0026 1E20     		movs	r0, #30
 199              	.LVL11:
 200 0028 FFF7FEFF 		bl	CyIntEnable
 201              	.LVL12:
 490:Generated_Source\PSoC4/USBFS_1.c ****     CyIntEnable(USBFS_1_INTR_MED_VECT_NUM);
 202              		.loc 1 490 0
 203 002c 0020     		movs	r0, #0
 204 002e FFF7FEFF 		bl	CyIntEnable
 205              	.LVL13:
 491:Generated_Source\PSoC4/USBFS_1.c ****     CyIntEnable(USBFS_1_INTR_LO_VECT_NUM);
 206              		.loc 1 491 0
 207 0032 1F20     		movs	r0, #31
 208 0034 FFF7FEFF 		bl	CyIntEnable
 209              	.LVL14:
 492:Generated_Source\PSoC4/USBFS_1.c **** #else
 493:Generated_Source\PSoC4/USBFS_1.c ****     CyIntEnable(USBFS_1_BUS_RESET_VECT_NUM);
 494:Generated_Source\PSoC4/USBFS_1.c ****     CyIntEnable(USBFS_1_EP_0_VECT_NUM);
 495:Generated_Source\PSoC4/USBFS_1.c **** 
 496:Generated_Source\PSoC4/USBFS_1.c ****     #if (USBFS_1_SOF_ISR_ACTIVE)
 497:Generated_Source\PSoC4/USBFS_1.c ****         CyIntEnable(USBFS_1_SOF_VECT_NUM);
 498:Generated_Source\PSoC4/USBFS_1.c ****     #endif /* (USBFS_1_SOF_ISR_ACTIVE) */
 499:Generated_Source\PSoC4/USBFS_1.c **** 
 500:Generated_Source\PSoC4/USBFS_1.c ****     #if (USBFS_1_EP1_ISR_ACTIVE)
 501:Generated_Source\PSoC4/USBFS_1.c ****         CyIntEnable(USBFS_1_EP_1_VECT_NUM);
 502:Generated_Source\PSoC4/USBFS_1.c ****     #endif /* (USBFS_1_EP1_ISR_ACTIVE) */
 503:Generated_Source\PSoC4/USBFS_1.c **** 
 504:Generated_Source\PSoC4/USBFS_1.c ****     #if (USBFS_1_EP2_ISR_ACTIVE)
 505:Generated_Source\PSoC4/USBFS_1.c ****         CyIntEnable(USBFS_1_EP_2_VECT_NUM);
 506:Generated_Source\PSoC4/USBFS_1.c ****     #endif /* (USBFS_1_EP5_ISR_ACTIVE) */
 507:Generated_Source\PSoC4/USBFS_1.c **** 
 508:Generated_Source\PSoC4/USBFS_1.c ****     #if (USBFS_1_EP3_ISR_ACTIVE)
 509:Generated_Source\PSoC4/USBFS_1.c ****         CyIntEnable(USBFS_1_EP_3_VECT_NUM);
 510:Generated_Source\PSoC4/USBFS_1.c ****     #endif /* (USBFS_1_EP5_ISR_ACTIVE) */
 511:Generated_Source\PSoC4/USBFS_1.c **** 
 512:Generated_Source\PSoC4/USBFS_1.c ****     #if (USBFS_1_EP4_ISR_ACTIVE)
 513:Generated_Source\PSoC4/USBFS_1.c ****         CyIntEnable(USBFS_1_EP_4_VECT_NUM);
 514:Generated_Source\PSoC4/USBFS_1.c ****     #endif /* (USBFS_1_EP5_ISR_ACTIVE) */
 515:Generated_Source\PSoC4/USBFS_1.c **** 
 516:Generated_Source\PSoC4/USBFS_1.c ****     #if (USBFS_1_EP5_ISR_ACTIVE)
 517:Generated_Source\PSoC4/USBFS_1.c ****         CyIntEnable(USBFS_1_EP_5_VECT_NUM);
 518:Generated_Source\PSoC4/USBFS_1.c ****     #endif /* (USBFS_1_EP5_ISR_ACTIVE) */
 519:Generated_Source\PSoC4/USBFS_1.c **** 
 520:Generated_Source\PSoC4/USBFS_1.c ****     #if (USBFS_1_EP6_ISR_ACTIVE)
 521:Generated_Source\PSoC4/USBFS_1.c ****         CyIntEnable(USBFS_1_EP_6_VECT_NUM);
 522:Generated_Source\PSoC4/USBFS_1.c ****     #endif /* USBFS_1_EP6_ISR_REMOVE */
 523:Generated_Source\PSoC4/USBFS_1.c **** 
 524:Generated_Source\PSoC4/USBFS_1.c ****     #if (USBFS_1_EP7_ISR_ACTIVE)
 525:Generated_Source\PSoC4/USBFS_1.c ****         CyIntEnable(USBFS_1_EP_7_VECT_NUM);
 526:Generated_Source\PSoC4/USBFS_1.c ****     #endif /* (USBFS_1_EP7_ISR_ACTIVE) */
 527:Generated_Source\PSoC4/USBFS_1.c **** 
 528:Generated_Source\PSoC4/USBFS_1.c ****     #if (USBFS_1_EP8_ISR_ACTIVE)
 529:Generated_Source\PSoC4/USBFS_1.c ****         CyIntEnable(USBFS_1_EP_8_VECT_NUM);
 530:Generated_Source\PSoC4/USBFS_1.c ****     #endif /* (USBFS_1_EP8_ISR_ACTIVE) */
 531:Generated_Source\PSoC4/USBFS_1.c **** #endif /* (CY_PSOC4) */
 532:Generated_Source\PSoC4/USBFS_1.c **** 
ARM GAS  C:\Users\psmus\AppData\Local\Temp\ccX8E8QF.s 			page 14


 533:Generated_Source\PSoC4/USBFS_1.c **** #if (USBFS_1_EP_MANAGEMENT_DMA && USBFS_1_ARB_ISR_ACTIVE)
 534:Generated_Source\PSoC4/USBFS_1.c ****     /* Enable ARB EP interrupt sources. */
 535:Generated_Source\PSoC4/USBFS_1.c ****     USBFS_1_ARB_INT_EN_REG = USBFS_1_DEFAULT_ARB_INT_EN;
 536:Generated_Source\PSoC4/USBFS_1.c **** 
 537:Generated_Source\PSoC4/USBFS_1.c ****     #if (CY_PSOC3 || CY_PSOC5)
 538:Generated_Source\PSoC4/USBFS_1.c ****         CyIntEnable(USBFS_1_ARB_VECT_NUM);
 539:Generated_Source\PSoC4/USBFS_1.c ****     #endif /* (CY_PSOC3 || CY_PSOC5) */
 540:Generated_Source\PSoC4/USBFS_1.c **** #endif   /* (USBFS_1_EP_MANAGEMENT_DMA && USBFS_1_ARB_ISR_ACTIVE) */
 541:Generated_Source\PSoC4/USBFS_1.c **** 
 542:Generated_Source\PSoC4/USBFS_1.c **** /* Arbiter configuration for DMA transfers. */
 543:Generated_Source\PSoC4/USBFS_1.c **** #if (USBFS_1_EP_MANAGEMENT_DMA)
 544:Generated_Source\PSoC4/USBFS_1.c ****     /* Configure Arbiter for Manual or Auto DMA operation and clear configuration completion. */
 545:Generated_Source\PSoC4/USBFS_1.c ****     USBFS_1_ARB_CFG_REG = USBFS_1_DEFAULT_ARB_CFG;
 546:Generated_Source\PSoC4/USBFS_1.c **** 
 547:Generated_Source\PSoC4/USBFS_1.c ****     #if (CY_PSOC4)
 548:Generated_Source\PSoC4/USBFS_1.c ****         /* Enable DMA operation. */
 549:Generated_Source\PSoC4/USBFS_1.c ****         CyDmaEnable();
 550:Generated_Source\PSoC4/USBFS_1.c **** 
 551:Generated_Source\PSoC4/USBFS_1.c ****         #if (USBFS_1_EP_MANAGEMENT_DMA_AUTO)
 552:Generated_Source\PSoC4/USBFS_1.c ****             /* Change DMA priority to be highest. */
 553:Generated_Source\PSoC4/USBFS_1.c ****              CyIntSetPriority(CYDMA_INTR_NUMBER, USBFS_1_DMA_AUTO_INTR_PRIO);
 554:Generated_Source\PSoC4/USBFS_1.c ****         #endif /* (USBFS_1_EP_MANAGEMENT_DMA_AUTO) */
 555:Generated_Source\PSoC4/USBFS_1.c ****     #endif /* (CY_PSOC4) */
 556:Generated_Source\PSoC4/USBFS_1.c **** 
 557:Generated_Source\PSoC4/USBFS_1.c ****     #if (USBFS_1_EP_MANAGEMENT_DMA_AUTO)
 558:Generated_Source\PSoC4/USBFS_1.c ****         #if (CY_PSOC4)
 559:Generated_Source\PSoC4/USBFS_1.c ****             /* Enable DMA interrupt to handle DMA management. */
 560:Generated_Source\PSoC4/USBFS_1.c ****             CyIntEnable(CYDMA_INTR_NUMBER);
 561:Generated_Source\PSoC4/USBFS_1.c ****         #else
 562:Generated_Source\PSoC4/USBFS_1.c ****             #if (USBFS_1_EP_DMA_AUTO_OPT == 0u)
 563:Generated_Source\PSoC4/USBFS_1.c ****                 /* Initialize interrupts which handle verification of successful DMA transaction. *
 564:Generated_Source\PSoC4/USBFS_1.c ****                 USBFS_1_EP_DMA_Done_isr_StartEx(&USBFS_1_EP_DMA_DONE_ISR);
 565:Generated_Source\PSoC4/USBFS_1.c ****                 USBFS_1_EP17_DMA_Done_SR_InterruptEnable();
 566:Generated_Source\PSoC4/USBFS_1.c ****                 USBFS_1_EP8_DMA_Done_SR_InterruptEnable();
 567:Generated_Source\PSoC4/USBFS_1.c ****             #endif /* (USBFS_1_EP_DMA_AUTO_OPT == 0u) */
 568:Generated_Source\PSoC4/USBFS_1.c ****         #endif /* (CY_PSOC4) */
 569:Generated_Source\PSoC4/USBFS_1.c ****     #endif /* (USBFS_1_EP_MANAGEMENT_DMA_AUTO) */
 570:Generated_Source\PSoC4/USBFS_1.c **** #endif /* (USBFS_1_EP_MANAGEMENT_DMA) */
 571:Generated_Source\PSoC4/USBFS_1.c **** 
 572:Generated_Source\PSoC4/USBFS_1.c ****     /* Enable USB regulator depends on operation voltage. IMO Locking is enabled in Init(). */
 573:Generated_Source\PSoC4/USBFS_1.c ****     switch(mode)
 210              		.loc 1 573 0
 211 0038 002C     		cmp	r4, #0
 212 003a 02D0     		beq	.L7
 213 003c 012C     		cmp	r4, #1
 214 003e 06D0     		beq	.L8
 215 0040 0BE0     		b	.L10
 216              	.L7:
 574:Generated_Source\PSoC4/USBFS_1.c ****     {
 575:Generated_Source\PSoC4/USBFS_1.c ****     case USBFS_1_3V_OPERATION:
 576:Generated_Source\PSoC4/USBFS_1.c ****         /* Disable regulator for 3V operation. */
 577:Generated_Source\PSoC4/USBFS_1.c ****         USBFS_1_CR1_REG &= (uint32) ~USBFS_1_CR1_REG_ENABLE;
 217              		.loc 1 577 0
 218 0042 194A     		ldr	r2, .L11+32
 219 0044 1368     		ldr	r3, [r2]
 220 0046 0121     		movs	r1, #1
 221 0048 8B43     		bics	r3, r1
ARM GAS  C:\Users\psmus\AppData\Local\Temp\ccX8E8QF.s 			page 15


 222 004a 1360     		str	r3, [r2]
 578:Generated_Source\PSoC4/USBFS_1.c ****         break;
 223              		.loc 1 578 0
 224 004c 0AE0     		b	.L9
 225              	.L8:
 579:Generated_Source\PSoC4/USBFS_1.c **** 
 580:Generated_Source\PSoC4/USBFS_1.c ****     case USBFS_1_5V_OPERATION:
 581:Generated_Source\PSoC4/USBFS_1.c ****         /* Enable regulator for 5V operation. */
 582:Generated_Source\PSoC4/USBFS_1.c ****         USBFS_1_CR1_REG |= (uint32)  USBFS_1_CR1_REG_ENABLE;
 226              		.loc 1 582 0
 227 004e 164A     		ldr	r2, .L11+32
 228 0050 1168     		ldr	r1, [r2]
 229 0052 0123     		movs	r3, #1
 230 0054 0B43     		orrs	r3, r1
 231 0056 1360     		str	r3, [r2]
 583:Generated_Source\PSoC4/USBFS_1.c ****         break;
 232              		.loc 1 583 0
 233 0058 04E0     		b	.L9
 234              	.L10:
 584:Generated_Source\PSoC4/USBFS_1.c **** 
 585:Generated_Source\PSoC4/USBFS_1.c ****     default: /* Check DWR settings of USB power supply. */
 586:Generated_Source\PSoC4/USBFS_1.c ****     #if (USBFS_1_VDDD_MV < USBFS_1_3500MV)
 587:Generated_Source\PSoC4/USBFS_1.c ****         /* Disable regulator for 3V operation. */
 588:Generated_Source\PSoC4/USBFS_1.c ****         USBFS_1_CR1_REG &= (uint32) ~USBFS_1_CR1_REG_ENABLE;
 589:Generated_Source\PSoC4/USBFS_1.c ****     #else
 590:Generated_Source\PSoC4/USBFS_1.c ****         /* Enable regulator for 5V operation. */
 591:Generated_Source\PSoC4/USBFS_1.c ****         USBFS_1_CR1_REG |= (uint32)  USBFS_1_CR1_REG_ENABLE;
 235              		.loc 1 591 0
 236 005a 134A     		ldr	r2, .L11+32
 237 005c 1168     		ldr	r1, [r2]
 238 005e 0123     		movs	r3, #1
 239 0060 0B43     		orrs	r3, r1
 240 0062 1360     		str	r3, [r2]
 241              	.L9:
 592:Generated_Source\PSoC4/USBFS_1.c ****     #endif /* (USBFS_1_VDDD_MV < USBFS_1_3500MV) */
 593:Generated_Source\PSoC4/USBFS_1.c ****         break;
 594:Generated_Source\PSoC4/USBFS_1.c ****     }
 595:Generated_Source\PSoC4/USBFS_1.c **** 
 596:Generated_Source\PSoC4/USBFS_1.c **** #if (CY_PSOC4)
 597:Generated_Source\PSoC4/USBFS_1.c ****     /* Clear bus activity. */
 598:Generated_Source\PSoC4/USBFS_1.c ****     USBFS_1_CR1_REG &= (uint32) ~USBFS_1_CR1_BUS_ACTIVITY;
 242              		.loc 1 598 0
 243 0064 1049     		ldr	r1, .L11+32
 244 0066 0B68     		ldr	r3, [r1]
 245 0068 0422     		movs	r2, #4
 246 006a 9343     		bics	r3, r2
 247 006c 0B60     		str	r3, [r1]
 599:Generated_Source\PSoC4/USBFS_1.c **** 
 600:Generated_Source\PSoC4/USBFS_1.c ****     /* Clear EP0 count register. */
 601:Generated_Source\PSoC4/USBFS_1.c ****     USBFS_1_EP0_CNT_REG = USBFS_1_CLEAR_REG;
 248              		.loc 1 601 0
 249 006e 0021     		movs	r1, #0
 250 0070 0E4B     		ldr	r3, .L11+36
 251 0072 1960     		str	r1, [r3]
 602:Generated_Source\PSoC4/USBFS_1.c **** 
 603:Generated_Source\PSoC4/USBFS_1.c ****     /* Set EP0.CR: ACK Setup, NAK IN/OUT. */
 604:Generated_Source\PSoC4/USBFS_1.c ****     USBFS_1_EP0_CR_REG = USBFS_1_MODE_NAK_IN_OUT;
ARM GAS  C:\Users\psmus\AppData\Local\Temp\ccX8E8QF.s 			page 16


 252              		.loc 1 604 0
 253 0074 0131     		adds	r1, r1, #1
 254 0076 0E4B     		ldr	r3, .L11+40
 255 0078 1960     		str	r1, [r3]
 605:Generated_Source\PSoC4/USBFS_1.c **** 
 606:Generated_Source\PSoC4/USBFS_1.c ****     #if (USBFS_1_LPM_ACTIVE)
 607:Generated_Source\PSoC4/USBFS_1.c ****         if (NULL != USBFS_1_GetBOSPtr())
 608:Generated_Source\PSoC4/USBFS_1.c ****         {
 609:Generated_Source\PSoC4/USBFS_1.c ****             /* Enable LPM and acknowledge LPM packets for active device.
 610:Generated_Source\PSoC4/USBFS_1.c ****             * Reset NYET_EN and SUB_RESP bits in the LPM_CTRL register.
 611:Generated_Source\PSoC4/USBFS_1.c ****             */
 612:Generated_Source\PSoC4/USBFS_1.c ****             USBFS_1_LPM_CTRL_REG = (USBFS_1_LPM_CTRL_LPM_EN | \
 613:Generated_Source\PSoC4/USBFS_1.c ****                                              USBFS_1_LPM_CTRL_LPM_ACK_RESP);
 614:Generated_Source\PSoC4/USBFS_1.c ****         }
 615:Generated_Source\PSoC4/USBFS_1.c ****         else
 616:Generated_Source\PSoC4/USBFS_1.c ****         {
 617:Generated_Source\PSoC4/USBFS_1.c ****             /* Disable LPM for active device. */
 618:Generated_Source\PSoC4/USBFS_1.c ****             USBFS_1_LPM_CTRL_REG &= (uint32) ~USBFS_1_LPM_CTRL_LPM_EN;
 619:Generated_Source\PSoC4/USBFS_1.c ****         }
 620:Generated_Source\PSoC4/USBFS_1.c ****     #endif /* (USBFS_1_LPM_ACTIVE) */
 621:Generated_Source\PSoC4/USBFS_1.c **** 
 622:Generated_Source\PSoC4/USBFS_1.c ****     /* Enable device to responds to USB traffic with address 0. */
 623:Generated_Source\PSoC4/USBFS_1.c ****     USBFS_1_CR0_REG = USBFS_1_DEFUALT_CR0;
 256              		.loc 1 623 0
 257 007a 7F31     		adds	r1, r1, #127
 258 007c 0D4B     		ldr	r3, .L11+44
 259 007e 1960     		str	r1, [r3]
 624:Generated_Source\PSoC4/USBFS_1.c **** 
 625:Generated_Source\PSoC4/USBFS_1.c **** #else
 626:Generated_Source\PSoC4/USBFS_1.c ****     /* Set EP0.CR: ACK Setup, STALL IN/OUT. */
 627:Generated_Source\PSoC4/USBFS_1.c ****     USBFS_1_EP0_CR_REG = USBFS_1_MODE_STALL_IN_OUT;
 628:Generated_Source\PSoC4/USBFS_1.c **** 
 629:Generated_Source\PSoC4/USBFS_1.c ****     /* Enable device to respond to USB traffic with address 0. */
 630:Generated_Source\PSoC4/USBFS_1.c ****     USBFS_1_CR0_REG = USBFS_1_DEFUALT_CR0;
 631:Generated_Source\PSoC4/USBFS_1.c ****     CyDelayCycles(USBFS_1_WAIT_CR0_REG_STABILITY);
 632:Generated_Source\PSoC4/USBFS_1.c **** #endif /* (CY_PSOC4) */
 633:Generated_Source\PSoC4/USBFS_1.c **** 
 634:Generated_Source\PSoC4/USBFS_1.c ****     /* Enable D+ pull-up and keep USB control on IO. */
 635:Generated_Source\PSoC4/USBFS_1.c ****     USBFS_1_USBIO_CR1_REG = USBFS_1_USBIO_CR1_USBPUEN;
 260              		.loc 1 635 0
 261 0080 0D4B     		ldr	r3, .L11+48
 262 0082 1A60     		str	r2, [r3]
 636:Generated_Source\PSoC4/USBFS_1.c **** }
 263              		.loc 1 636 0
 264              		@ sp needed
 265 0084 10BD     		pop	{r4, pc}
 266              	.L12:
 267 0086 C046     		.align	2
 268              	.L11:
 269 0088 00000000 		.word	USBFS_1_device
 270 008c 00000000 		.word	USBFS_1_transferState
 271 0090 00000000 		.word	USBFS_1_configurationChanged
 272 0094 00000000 		.word	USBFS_1_configuration
 273 0098 00000000 		.word	USBFS_1_interfaceNumber
 274 009c 00000000 		.word	USBFS_1_deviceAddress
 275 00a0 00000000 		.word	USBFS_1_deviceStatus
 276 00a4 00000000 		.word	USBFS_1_lastPacketSize
ARM GAS  C:\Users\psmus\AppData\Local\Temp\ccX8E8QF.s 			page 17


 277 00a8 24002C40 		.word	1076625444
 278 00ac A4002C40 		.word	1076625572
 279 00b0 A0002C40 		.word	1076625568
 280 00b4 20002C40 		.word	1076625440
 281 00b8 48002C40 		.word	1076625480
 282              		.cfi_endproc
 283              	.LFE3:
 284              		.size	USBFS_1_InitComponent, .-USBFS_1_InitComponent
 285              		.section	.text.USBFS_1_Start,"ax",%progbits
 286              		.align	2
 287              		.global	USBFS_1_Start
 288              		.code	16
 289              		.thumb_func
 290              		.type	USBFS_1_Start, %function
 291              	USBFS_1_Start:
 292              	.LFB1:
 187:Generated_Source\PSoC4/USBFS_1.c ****     if (0u == USBFS_1_initVar)
 293              		.loc 1 187 0
 294              		.cfi_startproc
 295              		@ args = 0, pretend = 0, frame = 0
 296              		@ frame_needed = 0, uses_anonymous_args = 0
 297              	.LVL15:
 298 0000 70B5     		push	{r4, r5, r6, lr}
 299              		.cfi_def_cfa_offset 16
 300              		.cfi_offset 4, -16
 301              		.cfi_offset 5, -12
 302              		.cfi_offset 6, -8
 303              		.cfi_offset 14, -4
 304 0002 0400     		movs	r4, r0
 305 0004 0D00     		movs	r5, r1
 188:Generated_Source\PSoC4/USBFS_1.c ****     {
 306              		.loc 1 188 0
 307 0006 074B     		ldr	r3, .L15
 308 0008 1B78     		ldrb	r3, [r3]
 309 000a 002B     		cmp	r3, #0
 310 000c 04D1     		bne	.L14
 190:Generated_Source\PSoC4/USBFS_1.c ****         USBFS_1_initVar = 1u;
 311              		.loc 1 190 0
 312 000e FFF7FEFF 		bl	USBFS_1_Init
 313              	.LVL16:
 191:Generated_Source\PSoC4/USBFS_1.c ****     }
 314              		.loc 1 191 0
 315 0012 0122     		movs	r2, #1
 316 0014 034B     		ldr	r3, .L15
 317 0016 1A70     		strb	r2, [r3]
 318              	.L14:
 194:Generated_Source\PSoC4/USBFS_1.c **** }
 319              		.loc 1 194 0
 320 0018 2900     		movs	r1, r5
 321 001a 2000     		movs	r0, r4
 322 001c FFF7FEFF 		bl	USBFS_1_InitComponent
 323              	.LVL17:
 195:Generated_Source\PSoC4/USBFS_1.c **** 
 324              		.loc 1 195 0
 325              		@ sp needed
 326 0020 70BD     		pop	{r4, r5, r6, pc}
 327              	.L16:
ARM GAS  C:\Users\psmus\AppData\Local\Temp\ccX8E8QF.s 			page 18


 328 0022 C046     		.align	2
 329              	.L15:
 330 0024 00000000 		.word	.LANCHOR0
 331              		.cfi_endproc
 332              	.LFE1:
 333              		.size	USBFS_1_Start, .-USBFS_1_Start
 334              		.section	.text.USBFS_1_ReInitComponent,"ax",%progbits
 335              		.align	2
 336              		.global	USBFS_1_ReInitComponent
 337              		.code	16
 338              		.thumb_func
 339              		.type	USBFS_1_ReInitComponent, %function
 340              	USBFS_1_ReInitComponent:
 341              	.LFB4:
 637:Generated_Source\PSoC4/USBFS_1.c **** 
 638:Generated_Source\PSoC4/USBFS_1.c **** 
 639:Generated_Source\PSoC4/USBFS_1.c **** /*******************************************************************************
 640:Generated_Source\PSoC4/USBFS_1.c **** * Function Name: USBFS_1_ReInitComponent
 641:Generated_Source\PSoC4/USBFS_1.c **** ****************************************************************************//**
 642:Generated_Source\PSoC4/USBFS_1.c **** *
 643:Generated_Source\PSoC4/USBFS_1.c **** *  This function reinitialize the component configuration and is
 644:Generated_Source\PSoC4/USBFS_1.c **** *  intend to be called from the Reset interrupt.
 645:Generated_Source\PSoC4/USBFS_1.c **** *
 646:Generated_Source\PSoC4/USBFS_1.c **** * \globalvars
 647:Generated_Source\PSoC4/USBFS_1.c **** *   USBFS_1_device - Contains the device number of the desired Device
 648:Generated_Source\PSoC4/USBFS_1.c **** *        Descriptor. The device number can be found in the Device Descriptor tab
 649:Generated_Source\PSoC4/USBFS_1.c **** *       of the Configure dialog, under the settings of the desired Device Descriptor,
 650:Generated_Source\PSoC4/USBFS_1.c **** *       in the Device Number field.
 651:Generated_Source\PSoC4/USBFS_1.c **** *   USBFS_1_transferState - This variable is used by the communication
 652:Generated_Source\PSoC4/USBFS_1.c **** *       functions to handle the current transfer state. Initialized to
 653:Generated_Source\PSoC4/USBFS_1.c **** *       TRANS_STATE_IDLE in this API.
 654:Generated_Source\PSoC4/USBFS_1.c **** *   USBFS_1_configuration - Contains the current configuration number
 655:Generated_Source\PSoC4/USBFS_1.c **** *       set by the Host using a SET_CONFIGURATION request.
 656:Generated_Source\PSoC4/USBFS_1.c **** *       Initialized to zero in this API.
 657:Generated_Source\PSoC4/USBFS_1.c **** *   USBFS_1_deviceAddress - Contains the current device address. This
 658:Generated_Source\PSoC4/USBFS_1.c **** *       variable is initialized to zero in this API. The Host starts to communicate
 659:Generated_Source\PSoC4/USBFS_1.c **** *      to the device with address 0 and then sets it to a whatever value using
 660:Generated_Source\PSoC4/USBFS_1.c **** *      a SET_ADDRESS request.
 661:Generated_Source\PSoC4/USBFS_1.c **** *   USBFS_1_deviceStatus - Initialized to 0.
 662:Generated_Source\PSoC4/USBFS_1.c **** *       This is a two-bit variable which contains the power status in the first bit
 663:Generated_Source\PSoC4/USBFS_1.c **** *       (DEVICE_STATUS_BUS_POWERED or DEVICE_STATUS_SELF_POWERED) and the remote
 664:Generated_Source\PSoC4/USBFS_1.c **** *       wakeup status (DEVICE_STATUS_REMOTE_WAKEUP) in the second bit.
 665:Generated_Source\PSoC4/USBFS_1.c **** *   USBFS_1_lastPacketSize - Initialized to 0;
 666:Generated_Source\PSoC4/USBFS_1.c **** *
 667:Generated_Source\PSoC4/USBFS_1.c **** * \reentrant
 668:Generated_Source\PSoC4/USBFS_1.c **** *  No.
 669:Generated_Source\PSoC4/USBFS_1.c **** *
 670:Generated_Source\PSoC4/USBFS_1.c **** *******************************************************************************/
 671:Generated_Source\PSoC4/USBFS_1.c **** void USBFS_1_ReInitComponent(void) 
 672:Generated_Source\PSoC4/USBFS_1.c **** {
 342              		.loc 1 672 0
 343              		.cfi_startproc
 344              		@ args = 0, pretend = 0, frame = 0
 345              		@ frame_needed = 0, uses_anonymous_args = 0
 346              		@ link register save eliminated.
 673:Generated_Source\PSoC4/USBFS_1.c ****     /* Initialize _hidProtocol variable to comply with HID 7.2.6 Set_Protocol
 674:Generated_Source\PSoC4/USBFS_1.c ****     *  Request: "When initialized, all devices default to report protocol."
ARM GAS  C:\Users\psmus\AppData\Local\Temp\ccX8E8QF.s 			page 19


 675:Generated_Source\PSoC4/USBFS_1.c ****     */
 676:Generated_Source\PSoC4/USBFS_1.c **** #if defined(USBFS_1_ENABLE_HID_CLASS)
 677:Generated_Source\PSoC4/USBFS_1.c ****     uint8 i;
 678:Generated_Source\PSoC4/USBFS_1.c **** 
 679:Generated_Source\PSoC4/USBFS_1.c ****     for (i = 0u; i < USBFS_1_MAX_INTERFACES_NUMBER; i++)
 680:Generated_Source\PSoC4/USBFS_1.c ****     {
 681:Generated_Source\PSoC4/USBFS_1.c ****         USBFS_1_hidProtocol[i] = USBFS_1_PROTOCOL_REPORT;
 682:Generated_Source\PSoC4/USBFS_1.c ****     }
 683:Generated_Source\PSoC4/USBFS_1.c **** #endif /* USBFS_1_ENABLE_HID_CLASS */
 684:Generated_Source\PSoC4/USBFS_1.c **** 
 685:Generated_Source\PSoC4/USBFS_1.c ****     /* Reset component internal variables. */
 686:Generated_Source\PSoC4/USBFS_1.c ****     USBFS_1_transferState   = USBFS_1_TRANS_STATE_IDLE;
 347              		.loc 1 686 0
 348 0000 0023     		movs	r3, #0
 349 0002 0A4A     		ldr	r2, .L18
 350 0004 1370     		strb	r3, [r2]
 687:Generated_Source\PSoC4/USBFS_1.c ****     USBFS_1_configurationChanged = 0u;
 351              		.loc 1 687 0
 352 0006 0A4A     		ldr	r2, .L18+4
 353 0008 1370     		strb	r3, [r2]
 688:Generated_Source\PSoC4/USBFS_1.c ****     USBFS_1_configuration   = 0u;
 354              		.loc 1 688 0
 355 000a 0A4A     		ldr	r2, .L18+8
 356 000c 1370     		strb	r3, [r2]
 689:Generated_Source\PSoC4/USBFS_1.c ****     USBFS_1_interfaceNumber = 0u;
 357              		.loc 1 689 0
 358 000e 0A4A     		ldr	r2, .L18+12
 359 0010 1370     		strb	r3, [r2]
 690:Generated_Source\PSoC4/USBFS_1.c ****     USBFS_1_deviceAddress   = 0u;
 360              		.loc 1 690 0
 361 0012 0A4A     		ldr	r2, .L18+16
 362 0014 1370     		strb	r3, [r2]
 691:Generated_Source\PSoC4/USBFS_1.c ****     USBFS_1_deviceStatus    = 0u;
 363              		.loc 1 691 0
 364 0016 0A4A     		ldr	r2, .L18+20
 365 0018 1370     		strb	r3, [r2]
 692:Generated_Source\PSoC4/USBFS_1.c ****     USBFS_1_lastPacketSize  = 0u;
 366              		.loc 1 692 0
 367 001a 0A4A     		ldr	r2, .L18+24
 368 001c 1370     		strb	r3, [r2]
 693:Generated_Source\PSoC4/USBFS_1.c **** 
 694:Generated_Source\PSoC4/USBFS_1.c **** #if (CY_PSOC4)
 695:Generated_Source\PSoC4/USBFS_1.c ****     /* Set EP0.CR: ACK Setup, NAK IN/OUT. */
 696:Generated_Source\PSoC4/USBFS_1.c ****     USBFS_1_EP0_CR_REG = USBFS_1_MODE_NAK_IN_OUT;
 369              		.loc 1 696 0
 370 001e 0122     		movs	r2, #1
 371 0020 094B     		ldr	r3, .L18+28
 372 0022 1A60     		str	r2, [r3]
 697:Generated_Source\PSoC4/USBFS_1.c **** #else
 698:Generated_Source\PSoC4/USBFS_1.c ****     /* Set EP0.CR: ACK Setup, STALL IN/OUT. */
 699:Generated_Source\PSoC4/USBFS_1.c ****     USBFS_1_EP0_CR_REG = USBFS_1_MODE_STALL_IN_OUT;
 700:Generated_Source\PSoC4/USBFS_1.c **** #endif /* (CY_PSOC4) */
 701:Generated_Source\PSoC4/USBFS_1.c **** 
 702:Generated_Source\PSoC4/USBFS_1.c ****     /* Enable device to respond to USB traffic with address 0. */
 703:Generated_Source\PSoC4/USBFS_1.c ****     USBFS_1_CR0_REG = USBFS_1_DEFUALT_CR0;
 373              		.loc 1 703 0
 374 0024 7F32     		adds	r2, r2, #127
ARM GAS  C:\Users\psmus\AppData\Local\Temp\ccX8E8QF.s 			page 20


 375 0026 094B     		ldr	r3, .L18+32
 376 0028 1A60     		str	r2, [r3]
 704:Generated_Source\PSoC4/USBFS_1.c **** }
 377              		.loc 1 704 0
 378              		@ sp needed
 379 002a 7047     		bx	lr
 380              	.L19:
 381              		.align	2
 382              	.L18:
 383 002c 00000000 		.word	USBFS_1_transferState
 384 0030 00000000 		.word	USBFS_1_configurationChanged
 385 0034 00000000 		.word	USBFS_1_configuration
 386 0038 00000000 		.word	USBFS_1_interfaceNumber
 387 003c 00000000 		.word	USBFS_1_deviceAddress
 388 0040 00000000 		.word	USBFS_1_deviceStatus
 389 0044 00000000 		.word	USBFS_1_lastPacketSize
 390 0048 A0002C40 		.word	1076625568
 391 004c 20002C40 		.word	1076625440
 392              		.cfi_endproc
 393              	.LFE4:
 394              		.size	USBFS_1_ReInitComponent, .-USBFS_1_ReInitComponent
 395              		.section	.text.USBFS_1_Stop,"ax",%progbits
 396              		.align	2
 397              		.global	USBFS_1_Stop
 398              		.code	16
 399              		.thumb_func
 400              		.type	USBFS_1_Stop, %function
 401              	USBFS_1_Stop:
 402              	.LFB5:
 705:Generated_Source\PSoC4/USBFS_1.c **** 
 706:Generated_Source\PSoC4/USBFS_1.c **** 
 707:Generated_Source\PSoC4/USBFS_1.c **** /*******************************************************************************
 708:Generated_Source\PSoC4/USBFS_1.c **** * Function Name: USBFS_1_Stop
 709:Generated_Source\PSoC4/USBFS_1.c **** ****************************************************************************//**
 710:Generated_Source\PSoC4/USBFS_1.c **** *
 711:Generated_Source\PSoC4/USBFS_1.c **** *  This function shuts down the USB function including to release
 712:Generated_Source\PSoC4/USBFS_1.c **** *  the D+ pull-up and disabling the SIE.
 713:Generated_Source\PSoC4/USBFS_1.c **** *
 714:Generated_Source\PSoC4/USBFS_1.c **** * \globalvars
 715:Generated_Source\PSoC4/USBFS_1.c **** *   \ref USBFS_1_configuration
 716:Generated_Source\PSoC4/USBFS_1.c **** *
 717:Generated_Source\PSoC4/USBFS_1.c **** *   USBFS_1_deviceAddress - Contains the current device address. This
 718:Generated_Source\PSoC4/USBFS_1.c **** *       variable is initialized to zero in this API. The Host starts to communicate
 719:Generated_Source\PSoC4/USBFS_1.c **** *      to the device with address 0 and then sets it to a whatever value using
 720:Generated_Source\PSoC4/USBFS_1.c **** *      a SET_ADDRESS request.
 721:Generated_Source\PSoC4/USBFS_1.c **** *
 722:Generated_Source\PSoC4/USBFS_1.c **** *   \ref USBFS_1_deviceStatus
 723:Generated_Source\PSoC4/USBFS_1.c **** *
 724:Generated_Source\PSoC4/USBFS_1.c **** *   \ref USBFS_1_configurationChanged
 725:Generated_Source\PSoC4/USBFS_1.c **** *
 726:Generated_Source\PSoC4/USBFS_1.c **** *   USBFS_1_intiVar -  This variable is set to zero
 727:Generated_Source\PSoC4/USBFS_1.c **** *
 728:Generated_Source\PSoC4/USBFS_1.c **** *******************************************************************************/
 729:Generated_Source\PSoC4/USBFS_1.c **** void USBFS_1_Stop(void) 
 730:Generated_Source\PSoC4/USBFS_1.c **** {
 403              		.loc 1 730 0
 404              		.cfi_startproc
ARM GAS  C:\Users\psmus\AppData\Local\Temp\ccX8E8QF.s 			page 21


 405              		@ args = 0, pretend = 0, frame = 0
 406              		@ frame_needed = 0, uses_anonymous_args = 0
 407 0000 10B5     		push	{r4, lr}
 408              		.cfi_def_cfa_offset 8
 409              		.cfi_offset 4, -8
 410              		.cfi_offset 14, -4
 731:Generated_Source\PSoC4/USBFS_1.c ****     uint8 enableInterrupts;
 732:Generated_Source\PSoC4/USBFS_1.c **** 
 733:Generated_Source\PSoC4/USBFS_1.c **** #if (USBFS_1_EP_MANAGEMENT_DMA)
 734:Generated_Source\PSoC4/USBFS_1.c ****     /* Stop all DMA channels. */
 735:Generated_Source\PSoC4/USBFS_1.c ****     USBFS_1_Stop_DMA(USBFS_1_MAX_EP);
 736:Generated_Source\PSoC4/USBFS_1.c **** #endif /* (USBFS_1_EP_MANAGEMENT_DMA) */
 737:Generated_Source\PSoC4/USBFS_1.c **** 
 738:Generated_Source\PSoC4/USBFS_1.c ****     enableInterrupts = CyEnterCriticalSection();
 411              		.loc 1 738 0
 412 0002 FFF7FEFF 		bl	CyEnterCriticalSection
 413              	.LVL18:
 739:Generated_Source\PSoC4/USBFS_1.c **** 
 740:Generated_Source\PSoC4/USBFS_1.c ****     /* Disable USB IP to respond to USB traffic. */
 741:Generated_Source\PSoC4/USBFS_1.c ****     USBFS_1_CR0_REG &= (uint32) ~USBFS_1_CR0_ENABLE;
 414              		.loc 1 741 0
 415 0006 144A     		ldr	r2, .L21
 416 0008 1368     		ldr	r3, [r2]
 417 000a 8021     		movs	r1, #128
 418 000c 8B43     		bics	r3, r1
 419 000e 1360     		str	r3, [r2]
 742:Generated_Source\PSoC4/USBFS_1.c **** 
 743:Generated_Source\PSoC4/USBFS_1.c ****     /* Disable D+ pull-up. */
 744:Generated_Source\PSoC4/USBFS_1.c ****     USBFS_1_USBIO_CR1_REG &= (uint32) ~ USBFS_1_USBIO_CR1_USBPUEN;
 420              		.loc 1 744 0
 421 0010 124A     		ldr	r2, .L21+4
 422 0012 1368     		ldr	r3, [r2]
 423 0014 7C39     		subs	r1, r1, #124
 424 0016 8B43     		bics	r3, r1
 425 0018 1360     		str	r3, [r2]
 745:Generated_Source\PSoC4/USBFS_1.c **** 
 746:Generated_Source\PSoC4/USBFS_1.c **** #if (CY_PSOC4)
 747:Generated_Source\PSoC4/USBFS_1.c ****     /* Disable USBFS block. */
 748:Generated_Source\PSoC4/USBFS_1.c ****     USBFS_1_POWER_CTRL_REG &= (uint32) ~USBFS_1_POWER_CTRL_ENABLE;
 426              		.loc 1 748 0
 427 001a 114A     		ldr	r2, .L21+8
 428 001c 1368     		ldr	r3, [r2]
 429 001e 5B00     		lsls	r3, r3, #1
 430 0020 5B08     		lsrs	r3, r3, #1
 431 0022 1360     		str	r3, [r2]
 749:Generated_Source\PSoC4/USBFS_1.c **** #else
 750:Generated_Source\PSoC4/USBFS_1.c ****     /* Clear power active and standby mode templates. */
 751:Generated_Source\PSoC4/USBFS_1.c ****     USBFS_1_PM_ACT_CFG_REG  &= (uint8) ~USBFS_1_PM_ACT_EN_FSUSB;
 752:Generated_Source\PSoC4/USBFS_1.c ****     USBFS_1_PM_STBY_CFG_REG &= (uint8) ~USBFS_1_PM_STBY_EN_FSUSB;
 753:Generated_Source\PSoC4/USBFS_1.c **** 
 754:Generated_Source\PSoC4/USBFS_1.c ****     /* Ensure single-ended disable bits are high (PRT15.INP_DIS[7:6])
 755:Generated_Source\PSoC4/USBFS_1.c ****      * (input receiver disabled). */
 756:Generated_Source\PSoC4/USBFS_1.c ****     USBFS_1_DM_INP_DIS_REG |= (uint8) USBFS_1_DM_MASK;
 757:Generated_Source\PSoC4/USBFS_1.c ****     USBFS_1_DP_INP_DIS_REG |= (uint8) USBFS_1_DP_MASK;
 758:Generated_Source\PSoC4/USBFS_1.c **** 
 759:Generated_Source\PSoC4/USBFS_1.c **** #endif /* (CY_PSOC4) */
 760:Generated_Source\PSoC4/USBFS_1.c **** 
ARM GAS  C:\Users\psmus\AppData\Local\Temp\ccX8E8QF.s 			page 22


 761:Generated_Source\PSoC4/USBFS_1.c ****     CyExitCriticalSection(enableInterrupts);
 432              		.loc 1 761 0
 433 0024 FFF7FEFF 		bl	CyExitCriticalSection
 434              	.LVL19:
 762:Generated_Source\PSoC4/USBFS_1.c **** 
 763:Generated_Source\PSoC4/USBFS_1.c ****     /* Disable component interrupts. */
 764:Generated_Source\PSoC4/USBFS_1.c **** #if (CY_PSOC4)
 765:Generated_Source\PSoC4/USBFS_1.c ****     CyIntDisable(USBFS_1_INTR_HI_VECT_NUM);
 435              		.loc 1 765 0
 436 0028 1E20     		movs	r0, #30
 437 002a FFF7FEFF 		bl	CyIntDisable
 438              	.LVL20:
 766:Generated_Source\PSoC4/USBFS_1.c ****     CyIntDisable(USBFS_1_INTR_LO_VECT_NUM);
 439              		.loc 1 766 0
 440 002e 1F20     		movs	r0, #31
 441 0030 FFF7FEFF 		bl	CyIntDisable
 442              	.LVL21:
 767:Generated_Source\PSoC4/USBFS_1.c ****     CyIntDisable(USBFS_1_INTR_MED_VECT_NUM);
 443              		.loc 1 767 0
 444 0034 0020     		movs	r0, #0
 445 0036 FFF7FEFF 		bl	CyIntDisable
 446              	.LVL22:
 768:Generated_Source\PSoC4/USBFS_1.c **** #else
 769:Generated_Source\PSoC4/USBFS_1.c **** 
 770:Generated_Source\PSoC4/USBFS_1.c ****     CyIntDisable(USBFS_1_BUS_RESET_VECT_NUM);
 771:Generated_Source\PSoC4/USBFS_1.c ****     CyIntDisable(USBFS_1_EP_0_VECT_NUM);
 772:Generated_Source\PSoC4/USBFS_1.c **** 
 773:Generated_Source\PSoC4/USBFS_1.c ****     #if (USBFS_1_SOF_ISR_ACTIVE)
 774:Generated_Source\PSoC4/USBFS_1.c ****         CyIntDisable(USBFS_1_SOF_VECT_NUM);
 775:Generated_Source\PSoC4/USBFS_1.c ****     #endif /* (USBFS_1_SOF_ISR_ACTIVE) */
 776:Generated_Source\PSoC4/USBFS_1.c **** 
 777:Generated_Source\PSoC4/USBFS_1.c ****     #if (USBFS_1_EP1_ISR_ACTIVE)
 778:Generated_Source\PSoC4/USBFS_1.c ****         CyIntDisable(USBFS_1_EP_1_VECT_NUM);
 779:Generated_Source\PSoC4/USBFS_1.c ****     #endif /* (USBFS_1_EP1_ISR_ACTIVE) */
 780:Generated_Source\PSoC4/USBFS_1.c **** 
 781:Generated_Source\PSoC4/USBFS_1.c ****     #if (USBFS_1_EP2_ISR_ACTIVE)
 782:Generated_Source\PSoC4/USBFS_1.c ****         CyIntDisable(USBFS_1_EP_2_VECT_NUM);
 783:Generated_Source\PSoC4/USBFS_1.c ****     #endif /* (USBFS_1_EP2_ISR_ACTIVE) */
 784:Generated_Source\PSoC4/USBFS_1.c **** 
 785:Generated_Source\PSoC4/USBFS_1.c ****     #if (USBFS_1_EP3_ISR_ACTIVE)
 786:Generated_Source\PSoC4/USBFS_1.c ****         CyIntDisable(USBFS_1_EP_3_VECT_NUM);
 787:Generated_Source\PSoC4/USBFS_1.c ****     #endif /* (USBFS_1_EP3_ISR_ACTIVE) */
 788:Generated_Source\PSoC4/USBFS_1.c **** 
 789:Generated_Source\PSoC4/USBFS_1.c ****     #if (USBFS_1_EP4_ISR_ACTIVE)
 790:Generated_Source\PSoC4/USBFS_1.c ****         CyIntDisable(USBFS_1_EP_4_VECT_NUM);
 791:Generated_Source\PSoC4/USBFS_1.c ****     #endif /* (USBFS_1_EP4_ISR_ACTIVE) */
 792:Generated_Source\PSoC4/USBFS_1.c **** 
 793:Generated_Source\PSoC4/USBFS_1.c ****     #if (USBFS_1_EP5_ISR_ACTIVE)
 794:Generated_Source\PSoC4/USBFS_1.c ****         CyIntDisable(USBFS_1_EP_5_VECT_NUM);
 795:Generated_Source\PSoC4/USBFS_1.c ****     #endif /* (USBFS_1_EP5_ISR_ACTIVE) */
 796:Generated_Source\PSoC4/USBFS_1.c **** 
 797:Generated_Source\PSoC4/USBFS_1.c ****     #if (USBFS_1_EP6_ISR_ACTIVE)
 798:Generated_Source\PSoC4/USBFS_1.c ****         CyIntDisable(USBFS_1_EP_6_VECT_NUM);
 799:Generated_Source\PSoC4/USBFS_1.c ****     #endif /* USBFS_1_EP6_ISR_REMOVE */
 800:Generated_Source\PSoC4/USBFS_1.c **** 
 801:Generated_Source\PSoC4/USBFS_1.c ****     #if (USBFS_1_EP7_ISR_ACTIVE)
 802:Generated_Source\PSoC4/USBFS_1.c ****         CyIntDisable(USBFS_1_EP_7_VECT_NUM);
ARM GAS  C:\Users\psmus\AppData\Local\Temp\ccX8E8QF.s 			page 23


 803:Generated_Source\PSoC4/USBFS_1.c ****     #endif /* (USBFS_1_EP7_ISR_ACTIVE) */
 804:Generated_Source\PSoC4/USBFS_1.c **** 
 805:Generated_Source\PSoC4/USBFS_1.c ****     #if (USBFS_1_EP8_ISR_ACTIVE)
 806:Generated_Source\PSoC4/USBFS_1.c ****         CyIntDisable(USBFS_1_EP_8_VECT_NUM);
 807:Generated_Source\PSoC4/USBFS_1.c ****     #endif /* (USBFS_1_EP8_ISR_ACTIVE) */
 808:Generated_Source\PSoC4/USBFS_1.c **** 
 809:Generated_Source\PSoC4/USBFS_1.c ****     #if (USBFS_1_DP_ISR_ACTIVE)
 810:Generated_Source\PSoC4/USBFS_1.c ****         /* Clear active mode Dp interrupt source history. */
 811:Generated_Source\PSoC4/USBFS_1.c ****         (void) USBFS_1_Dp_ClearInterrupt();
 812:Generated_Source\PSoC4/USBFS_1.c ****         CyIntClearPending(USBFS_1_DP_INTC_VECT_NUM);
 813:Generated_Source\PSoC4/USBFS_1.c ****     #endif /* (USBFS_1_DP_ISR_ACTIVE). */
 814:Generated_Source\PSoC4/USBFS_1.c **** 
 815:Generated_Source\PSoC4/USBFS_1.c **** #endif /* (CY_PSOC4) */
 816:Generated_Source\PSoC4/USBFS_1.c **** 
 817:Generated_Source\PSoC4/USBFS_1.c ****     /* Reset component internal variables. */
 818:Generated_Source\PSoC4/USBFS_1.c ****     USBFS_1_configurationChanged = 0u;
 447              		.loc 1 818 0
 448 003a 0023     		movs	r3, #0
 449 003c 094A     		ldr	r2, .L21+12
 450 003e 1370     		strb	r3, [r2]
 819:Generated_Source\PSoC4/USBFS_1.c ****     USBFS_1_configuration   = 0u;
 451              		.loc 1 819 0
 452 0040 094A     		ldr	r2, .L21+16
 453 0042 1370     		strb	r3, [r2]
 820:Generated_Source\PSoC4/USBFS_1.c ****     USBFS_1_interfaceNumber = 0u;
 454              		.loc 1 820 0
 455 0044 094A     		ldr	r2, .L21+20
 456 0046 1370     		strb	r3, [r2]
 821:Generated_Source\PSoC4/USBFS_1.c ****     USBFS_1_deviceAddress   = 0u;
 457              		.loc 1 821 0
 458 0048 094A     		ldr	r2, .L21+24
 459 004a 1370     		strb	r3, [r2]
 822:Generated_Source\PSoC4/USBFS_1.c ****     USBFS_1_deviceStatus    = 0u;
 460              		.loc 1 822 0
 461 004c 094A     		ldr	r2, .L21+28
 462 004e 1370     		strb	r3, [r2]
 823:Generated_Source\PSoC4/USBFS_1.c **** 
 824:Generated_Source\PSoC4/USBFS_1.c ****     /* It is mandatory for correct device startup. */
 825:Generated_Source\PSoC4/USBFS_1.c ****     USBFS_1_initVar = 0u;
 463              		.loc 1 825 0
 464 0050 094A     		ldr	r2, .L21+32
 465 0052 1370     		strb	r3, [r2]
 826:Generated_Source\PSoC4/USBFS_1.c **** }
 466              		.loc 1 826 0
 467              		@ sp needed
 468 0054 10BD     		pop	{r4, pc}
 469              	.L22:
 470 0056 C046     		.align	2
 471              	.L21:
 472 0058 20002C40 		.word	1076625440
 473 005c 48002C40 		.word	1076625480
 474 0060 00202C40 		.word	1076633600
 475 0064 00000000 		.word	USBFS_1_configurationChanged
 476 0068 00000000 		.word	USBFS_1_configuration
 477 006c 00000000 		.word	USBFS_1_interfaceNumber
 478 0070 00000000 		.word	USBFS_1_deviceAddress
 479 0074 00000000 		.word	USBFS_1_deviceStatus
ARM GAS  C:\Users\psmus\AppData\Local\Temp\ccX8E8QF.s 			page 24


 480 0078 00000000 		.word	.LANCHOR0
 481              		.cfi_endproc
 482              	.LFE5:
 483              		.size	USBFS_1_Stop, .-USBFS_1_Stop
 484              		.section	.text.USBFS_1_CheckActivity,"ax",%progbits
 485              		.align	2
 486              		.global	USBFS_1_CheckActivity
 487              		.code	16
 488              		.thumb_func
 489              		.type	USBFS_1_CheckActivity, %function
 490              	USBFS_1_CheckActivity:
 491              	.LFB6:
 827:Generated_Source\PSoC4/USBFS_1.c **** 
 828:Generated_Source\PSoC4/USBFS_1.c **** 
 829:Generated_Source\PSoC4/USBFS_1.c **** /*******************************************************************************
 830:Generated_Source\PSoC4/USBFS_1.c **** * Function Name: USBFS_1_CheckActivity
 831:Generated_Source\PSoC4/USBFS_1.c **** ****************************************************************************//**
 832:Generated_Source\PSoC4/USBFS_1.c **** *
 833:Generated_Source\PSoC4/USBFS_1.c **** *  This function returns the activity status of the bus. It clears the hardware
 834:Generated_Source\PSoC4/USBFS_1.c **** *  status to provide updated status on the next call of this function. It
 835:Generated_Source\PSoC4/USBFS_1.c **** *  provides a way to determine whether any USB bus activity occurred. The
 836:Generated_Source\PSoC4/USBFS_1.c **** *  application should use this function to determine if the USB suspend
 837:Generated_Source\PSoC4/USBFS_1.c **** *  conditions are met.
 838:Generated_Source\PSoC4/USBFS_1.c **** *
 839:Generated_Source\PSoC4/USBFS_1.c **** *
 840:Generated_Source\PSoC4/USBFS_1.c **** * \return
 841:Generated_Source\PSoC4/USBFS_1.c **** *  cystatus: Status of the bus since the last call of the function.
 842:Generated_Source\PSoC4/USBFS_1.c **** *  Return Value |   Description
 843:Generated_Source\PSoC4/USBFS_1.c **** *  -------------|---------------------------------------------------------------
 844:Generated_Source\PSoC4/USBFS_1.c **** *  1            |Bus activity was detected since the last call to this function
 845:Generated_Source\PSoC4/USBFS_1.c **** *  0            |Bus activity was not detected since the last call to this function
 846:Generated_Source\PSoC4/USBFS_1.c **** *
 847:Generated_Source\PSoC4/USBFS_1.c **** *
 848:Generated_Source\PSoC4/USBFS_1.c **** *******************************************************************************/
 849:Generated_Source\PSoC4/USBFS_1.c **** uint8 USBFS_1_CheckActivity(void) 
 850:Generated_Source\PSoC4/USBFS_1.c **** {
 492              		.loc 1 850 0
 493              		.cfi_startproc
 494              		@ args = 0, pretend = 0, frame = 0
 495              		@ frame_needed = 0, uses_anonymous_args = 0
 496              		@ link register save eliminated.
 851:Generated_Source\PSoC4/USBFS_1.c ****     uint32 cr1Reg = USBFS_1_CR1_REG;
 497              		.loc 1 851 0
 498 0000 0549     		ldr	r1, .L26
 499 0002 0B68     		ldr	r3, [r1]
 500              	.LVL23:
 852:Generated_Source\PSoC4/USBFS_1.c **** 
 853:Generated_Source\PSoC4/USBFS_1.c ****     /* Clear bus activity. */
 854:Generated_Source\PSoC4/USBFS_1.c ****     USBFS_1_CR1_REG = (cr1Reg & (uint32) ~USBFS_1_CR1_BUS_ACTIVITY);
 501              		.loc 1 854 0
 502 0004 0422     		movs	r2, #4
 503 0006 1800     		movs	r0, r3
 504 0008 9043     		bics	r0, r2
 505 000a 0860     		str	r0, [r1]
 855:Generated_Source\PSoC4/USBFS_1.c **** 
 856:Generated_Source\PSoC4/USBFS_1.c ****     /* Get bus activity. */
 857:Generated_Source\PSoC4/USBFS_1.c ****     return ((0u != (cr1Reg & USBFS_1_CR1_BUS_ACTIVITY)) ? (1u) : (0u));
ARM GAS  C:\Users\psmus\AppData\Local\Temp\ccX8E8QF.s 			page 25


 506              		.loc 1 857 0
 507 000c 1A42     		tst	r2, r3
 508 000e 01D0     		beq	.L25
 509 0010 0120     		movs	r0, #1
 510 0012 00E0     		b	.L24
 511              	.L25:
 512 0014 0020     		movs	r0, #0
 513              	.L24:
 858:Generated_Source\PSoC4/USBFS_1.c **** }
 514              		.loc 1 858 0 discriminator 4
 515              		@ sp needed
 516 0016 7047     		bx	lr
 517              	.L27:
 518              		.align	2
 519              	.L26:
 520 0018 24002C40 		.word	1076625444
 521              		.cfi_endproc
 522              	.LFE6:
 523              		.size	USBFS_1_CheckActivity, .-USBFS_1_CheckActivity
 524              		.section	.text.USBFS_1_GetConfiguration,"ax",%progbits
 525              		.align	2
 526              		.global	USBFS_1_GetConfiguration
 527              		.code	16
 528              		.thumb_func
 529              		.type	USBFS_1_GetConfiguration, %function
 530              	USBFS_1_GetConfiguration:
 531              	.LFB7:
 859:Generated_Source\PSoC4/USBFS_1.c **** 
 860:Generated_Source\PSoC4/USBFS_1.c **** 
 861:Generated_Source\PSoC4/USBFS_1.c **** /*******************************************************************************
 862:Generated_Source\PSoC4/USBFS_1.c **** * Function Name: USBFS_1_GetConfiguration
 863:Generated_Source\PSoC4/USBFS_1.c **** ****************************************************************************//**
 864:Generated_Source\PSoC4/USBFS_1.c **** *
 865:Generated_Source\PSoC4/USBFS_1.c **** *  This function gets the current configuration of the USB device.
 866:Generated_Source\PSoC4/USBFS_1.c **** *
 867:Generated_Source\PSoC4/USBFS_1.c **** * \return
 868:Generated_Source\PSoC4/USBFS_1.c **** *  Returns the currently assigned configuration. Returns 0 if the device
 869:Generated_Source\PSoC4/USBFS_1.c **** *  is not configured
 870:Generated_Source\PSoC4/USBFS_1.c **** *
 871:Generated_Source\PSoC4/USBFS_1.c **** *******************************************************************************/
 872:Generated_Source\PSoC4/USBFS_1.c **** uint8 USBFS_1_GetConfiguration(void) 
 873:Generated_Source\PSoC4/USBFS_1.c **** {
 532              		.loc 1 873 0
 533              		.cfi_startproc
 534              		@ args = 0, pretend = 0, frame = 0
 535              		@ frame_needed = 0, uses_anonymous_args = 0
 536              		@ link register save eliminated.
 874:Generated_Source\PSoC4/USBFS_1.c ****     return (USBFS_1_configuration);
 537              		.loc 1 874 0
 538 0000 014B     		ldr	r3, .L29
 539 0002 1878     		ldrb	r0, [r3]
 540 0004 C0B2     		uxtb	r0, r0
 875:Generated_Source\PSoC4/USBFS_1.c **** }
 541              		.loc 1 875 0
 542              		@ sp needed
 543 0006 7047     		bx	lr
 544              	.L30:
ARM GAS  C:\Users\psmus\AppData\Local\Temp\ccX8E8QF.s 			page 26


 545              		.align	2
 546              	.L29:
 547 0008 00000000 		.word	USBFS_1_configuration
 548              		.cfi_endproc
 549              	.LFE7:
 550              		.size	USBFS_1_GetConfiguration, .-USBFS_1_GetConfiguration
 551              		.section	.text.USBFS_1_IsConfigurationChanged,"ax",%progbits
 552              		.align	2
 553              		.global	USBFS_1_IsConfigurationChanged
 554              		.code	16
 555              		.thumb_func
 556              		.type	USBFS_1_IsConfigurationChanged, %function
 557              	USBFS_1_IsConfigurationChanged:
 558              	.LFB8:
 876:Generated_Source\PSoC4/USBFS_1.c **** 
 877:Generated_Source\PSoC4/USBFS_1.c **** 
 878:Generated_Source\PSoC4/USBFS_1.c **** /*******************************************************************************
 879:Generated_Source\PSoC4/USBFS_1.c **** * Function Name: USBFS_1_IsConfigurationChanged
 880:Generated_Source\PSoC4/USBFS_1.c **** ****************************************************************************//**
 881:Generated_Source\PSoC4/USBFS_1.c **** *
 882:Generated_Source\PSoC4/USBFS_1.c **** *  This function returns the clear-on-read configuration state.  It is useful
 883:Generated_Source\PSoC4/USBFS_1.c **** *  when the host sends double SET_CONFIGURATION request with the same 
 884:Generated_Source\PSoC4/USBFS_1.c **** *  configuration number or changes alternate settings of the interface. 
 885:Generated_Source\PSoC4/USBFS_1.c **** *  After configuration has been changed the OUT endpoints must be enabled and IN 
 886:Generated_Source\PSoC4/USBFS_1.c **** *  endpoint must be loaded with data to start communication with the host.
 887:Generated_Source\PSoC4/USBFS_1.c **** *
 888:Generated_Source\PSoC4/USBFS_1.c **** * \return
 889:Generated_Source\PSoC4/USBFS_1.c **** *  None-zero value when new configuration has been changed, otherwise zero is
 890:Generated_Source\PSoC4/USBFS_1.c **** *  returned.
 891:Generated_Source\PSoC4/USBFS_1.c **** *
 892:Generated_Source\PSoC4/USBFS_1.c **** * \globalvars
 893:Generated_Source\PSoC4/USBFS_1.c **** *
 894:Generated_Source\PSoC4/USBFS_1.c **** *  \ref USBFS_1_configurationChanged - This variable is set to 1 after
 895:Generated_Source\PSoC4/USBFS_1.c **** *   a SET_CONFIGURATION request and cleared in this function.
 896:Generated_Source\PSoC4/USBFS_1.c **** *
 897:Generated_Source\PSoC4/USBFS_1.c **** *******************************************************************************/
 898:Generated_Source\PSoC4/USBFS_1.c **** uint8 USBFS_1_IsConfigurationChanged(void) 
 899:Generated_Source\PSoC4/USBFS_1.c **** {
 559              		.loc 1 899 0
 560              		.cfi_startproc
 561              		@ args = 0, pretend = 0, frame = 0
 562              		@ frame_needed = 0, uses_anonymous_args = 0
 563              		@ link register save eliminated.
 564              	.LVL24:
 900:Generated_Source\PSoC4/USBFS_1.c ****     uint8 res = 0u;
 901:Generated_Source\PSoC4/USBFS_1.c **** 
 902:Generated_Source\PSoC4/USBFS_1.c ****     if (USBFS_1_configurationChanged != 0u)
 565              		.loc 1 902 0
 566 0000 054B     		ldr	r3, .L34
 567 0002 1B78     		ldrb	r3, [r3]
 568 0004 002B     		cmp	r3, #0
 569 0006 05D0     		beq	.L33
 903:Generated_Source\PSoC4/USBFS_1.c ****     {
 904:Generated_Source\PSoC4/USBFS_1.c ****         res = USBFS_1_configurationChanged;
 570              		.loc 1 904 0
 571 0008 034B     		ldr	r3, .L34
 572 000a 1878     		ldrb	r0, [r3]
ARM GAS  C:\Users\psmus\AppData\Local\Temp\ccX8E8QF.s 			page 27


 573 000c C0B2     		uxtb	r0, r0
 574              	.LVL25:
 905:Generated_Source\PSoC4/USBFS_1.c ****         USBFS_1_configurationChanged = 0u;
 575              		.loc 1 905 0
 576 000e 0022     		movs	r2, #0
 577 0010 1A70     		strb	r2, [r3]
 578 0012 00E0     		b	.L32
 579              	.LVL26:
 580              	.L33:
 900:Generated_Source\PSoC4/USBFS_1.c ****     uint8 res = 0u;
 581              		.loc 1 900 0
 582 0014 0020     		movs	r0, #0
 583              	.LVL27:
 584              	.L32:
 906:Generated_Source\PSoC4/USBFS_1.c ****     }
 907:Generated_Source\PSoC4/USBFS_1.c **** 
 908:Generated_Source\PSoC4/USBFS_1.c ****     return (res);
 909:Generated_Source\PSoC4/USBFS_1.c **** }
 585              		.loc 1 909 0
 586              		@ sp needed
 587 0016 7047     		bx	lr
 588              	.L35:
 589              		.align	2
 590              	.L34:
 591 0018 00000000 		.word	USBFS_1_configurationChanged
 592              		.cfi_endproc
 593              	.LFE8:
 594              		.size	USBFS_1_IsConfigurationChanged, .-USBFS_1_IsConfigurationChanged
 595              		.section	.text.USBFS_1_GetInterfaceSetting,"ax",%progbits
 596              		.align	2
 597              		.global	USBFS_1_GetInterfaceSetting
 598              		.code	16
 599              		.thumb_func
 600              		.type	USBFS_1_GetInterfaceSetting, %function
 601              	USBFS_1_GetInterfaceSetting:
 602              	.LFB9:
 910:Generated_Source\PSoC4/USBFS_1.c **** 
 911:Generated_Source\PSoC4/USBFS_1.c **** 
 912:Generated_Source\PSoC4/USBFS_1.c **** /*******************************************************************************
 913:Generated_Source\PSoC4/USBFS_1.c **** * Function Name: USBFS_1_GetInterfaceSetting
 914:Generated_Source\PSoC4/USBFS_1.c **** ****************************************************************************//**
 915:Generated_Source\PSoC4/USBFS_1.c **** *
 916:Generated_Source\PSoC4/USBFS_1.c **** *  This function gets the current alternate setting for the specified interface.
 917:Generated_Source\PSoC4/USBFS_1.c **** *  It is useful to identify which alternate settings are active in the specified 
 918:Generated_Source\PSoC4/USBFS_1.c **** *  interface.
 919:Generated_Source\PSoC4/USBFS_1.c **** *
 920:Generated_Source\PSoC4/USBFS_1.c **** *  \param
 921:Generated_Source\PSoC4/USBFS_1.c **** *  interfaceNumber interface number
 922:Generated_Source\PSoC4/USBFS_1.c **** *
 923:Generated_Source\PSoC4/USBFS_1.c **** * \return
 924:Generated_Source\PSoC4/USBFS_1.c **** *  Returns the current alternate setting for the specified interface.
 925:Generated_Source\PSoC4/USBFS_1.c **** *
 926:Generated_Source\PSoC4/USBFS_1.c **** *******************************************************************************/
 927:Generated_Source\PSoC4/USBFS_1.c **** uint8  USBFS_1_GetInterfaceSetting(uint8 interfaceNumber)
 928:Generated_Source\PSoC4/USBFS_1.c ****                                                     
 929:Generated_Source\PSoC4/USBFS_1.c **** {
 603              		.loc 1 929 0
ARM GAS  C:\Users\psmus\AppData\Local\Temp\ccX8E8QF.s 			page 28


 604              		.cfi_startproc
 605              		@ args = 0, pretend = 0, frame = 0
 606              		@ frame_needed = 0, uses_anonymous_args = 0
 607              		@ link register save eliminated.
 608              	.LVL28:
 930:Generated_Source\PSoC4/USBFS_1.c ****     return (USBFS_1_interfaceSetting[interfaceNumber]);
 609              		.loc 1 930 0
 610 0000 014B     		ldr	r3, .L37
 611 0002 185C     		ldrb	r0, [r3, r0]
 612              	.LVL29:
 613 0004 C0B2     		uxtb	r0, r0
 931:Generated_Source\PSoC4/USBFS_1.c **** }
 614              		.loc 1 931 0
 615              		@ sp needed
 616 0006 7047     		bx	lr
 617              	.L38:
 618              		.align	2
 619              	.L37:
 620 0008 00000000 		.word	USBFS_1_interfaceSetting
 621              		.cfi_endproc
 622              	.LFE9:
 623              		.size	USBFS_1_GetInterfaceSetting, .-USBFS_1_GetInterfaceSetting
 624              		.section	.text.USBFS_1_GetEPState,"ax",%progbits
 625              		.align	2
 626              		.global	USBFS_1_GetEPState
 627              		.code	16
 628              		.thumb_func
 629              		.type	USBFS_1_GetEPState, %function
 630              	USBFS_1_GetEPState:
 631              	.LFB10:
 932:Generated_Source\PSoC4/USBFS_1.c **** 
 933:Generated_Source\PSoC4/USBFS_1.c **** 
 934:Generated_Source\PSoC4/USBFS_1.c **** /*******************************************************************************
 935:Generated_Source\PSoC4/USBFS_1.c **** * Function Name: USBFS_1_GetEPState
 936:Generated_Source\PSoC4/USBFS_1.c **** ****************************************************************************//**
 937:Generated_Source\PSoC4/USBFS_1.c **** *
 938:Generated_Source\PSoC4/USBFS_1.c **** *  This function returns the state of the requested endpoint.
 939:Generated_Source\PSoC4/USBFS_1.c **** *
 940:Generated_Source\PSoC4/USBFS_1.c **** * \param epNumber Data endpoint number
 941:Generated_Source\PSoC4/USBFS_1.c **** *
 942:Generated_Source\PSoC4/USBFS_1.c **** * \return
 943:Generated_Source\PSoC4/USBFS_1.c **** *  Returns the current state of the specified USBFS endpoint. Symbolic names and
 944:Generated_Source\PSoC4/USBFS_1.c **** *  their associated values are given in the following table. Use these constants
 945:Generated_Source\PSoC4/USBFS_1.c **** *  whenever you write code to change the state of the endpoints, such as ISR
 946:Generated_Source\PSoC4/USBFS_1.c **** *  code, to handle data sent or received.
 947:Generated_Source\PSoC4/USBFS_1.c **** *
 948:Generated_Source\PSoC4/USBFS_1.c **** *  Return Value           | Description
 949:Generated_Source\PSoC4/USBFS_1.c **** *  -----------------------|-----------------------------------------------------
 950:Generated_Source\PSoC4/USBFS_1.c **** *  USBFS_NO_EVENT_PENDING |The endpoint is awaiting SIE action
 951:Generated_Source\PSoC4/USBFS_1.c **** *  USBFS_EVENT_PENDING    |The endpoint is awaiting CPU action
 952:Generated_Source\PSoC4/USBFS_1.c **** *  USBFS_NO_EVENT_ALLOWED |The endpoint is locked from access
 953:Generated_Source\PSoC4/USBFS_1.c **** *  USBFS_IN_BUFFER_FULL   |The IN endpoint is loaded and the mode is set to ACK IN
 954:Generated_Source\PSoC4/USBFS_1.c **** *  USBFS_IN_BUFFER_EMPTY  |An IN transaction occurred and more data can be loaded
 955:Generated_Source\PSoC4/USBFS_1.c **** *  USBFS_OUT_BUFFER_EMPTY |The OUT endpoint is set to ACK OUT and is waiting for data
 956:Generated_Source\PSoC4/USBFS_1.c **** *  USBFS_OUT_BUFFER_FULL  |An OUT transaction has occurred and data can be read
 957:Generated_Source\PSoC4/USBFS_1.c **** *
 958:Generated_Source\PSoC4/USBFS_1.c **** *******************************************************************************/
ARM GAS  C:\Users\psmus\AppData\Local\Temp\ccX8E8QF.s 			page 29


 959:Generated_Source\PSoC4/USBFS_1.c **** uint8 USBFS_1_GetEPState(uint8 epNumber) 
 960:Generated_Source\PSoC4/USBFS_1.c **** {
 632              		.loc 1 960 0
 633              		.cfi_startproc
 634              		@ args = 0, pretend = 0, frame = 0
 635              		@ frame_needed = 0, uses_anonymous_args = 0
 636              		@ link register save eliminated.
 637              	.LVL30:
 961:Generated_Source\PSoC4/USBFS_1.c ****     return (USBFS_1_EP[epNumber].apiEpState);
 638              		.loc 1 961 0
 639 0000 4300     		lsls	r3, r0, #1
 640 0002 1818     		adds	r0, r3, r0
 641              	.LVL31:
 642 0004 8300     		lsls	r3, r0, #2
 643 0006 024A     		ldr	r2, .L40
 644 0008 D318     		adds	r3, r2, r3
 645 000a 5878     		ldrb	r0, [r3, #1]
 646 000c C0B2     		uxtb	r0, r0
 962:Generated_Source\PSoC4/USBFS_1.c **** }
 647              		.loc 1 962 0
 648              		@ sp needed
 649 000e 7047     		bx	lr
 650              	.L41:
 651              		.align	2
 652              	.L40:
 653 0010 00000000 		.word	USBFS_1_EP
 654              		.cfi_endproc
 655              	.LFE10:
 656              		.size	USBFS_1_GetEPState, .-USBFS_1_GetEPState
 657              		.section	.text.USBFS_1_GetEPCount,"ax",%progbits
 658              		.align	2
 659              		.global	USBFS_1_GetEPCount
 660              		.code	16
 661              		.thumb_func
 662              		.type	USBFS_1_GetEPCount, %function
 663              	USBFS_1_GetEPCount:
 664              	.LFB11:
 963:Generated_Source\PSoC4/USBFS_1.c **** 
 964:Generated_Source\PSoC4/USBFS_1.c **** 
 965:Generated_Source\PSoC4/USBFS_1.c **** /*******************************************************************************
 966:Generated_Source\PSoC4/USBFS_1.c **** * Function Name: USBFS_1_GetEPCount
 967:Generated_Source\PSoC4/USBFS_1.c **** ****************************************************************************//**
 968:Generated_Source\PSoC4/USBFS_1.c **** *
 969:Generated_Source\PSoC4/USBFS_1.c **** *  This function supports Data Endpoints only(EP1-EP8).
 970:Generated_Source\PSoC4/USBFS_1.c **** *  Returns the transfer count for the requested endpoint.  The value from
 971:Generated_Source\PSoC4/USBFS_1.c **** *  the count registers includes 2 counts for the two byte checksum of the
 972:Generated_Source\PSoC4/USBFS_1.c **** *  packet.  This function subtracts the two counts.
 973:Generated_Source\PSoC4/USBFS_1.c **** *
 974:Generated_Source\PSoC4/USBFS_1.c **** *  \param epNumber Data Endpoint Number.
 975:Generated_Source\PSoC4/USBFS_1.c **** *                   Valid values are between 1 and 8.
 976:Generated_Source\PSoC4/USBFS_1.c **** *
 977:Generated_Source\PSoC4/USBFS_1.c **** * \return
 978:Generated_Source\PSoC4/USBFS_1.c **** *  Returns the current byte count from the specified endpoint or 0 for an
 979:Generated_Source\PSoC4/USBFS_1.c **** *  invalid endpoint.
 980:Generated_Source\PSoC4/USBFS_1.c **** *
 981:Generated_Source\PSoC4/USBFS_1.c **** *******************************************************************************/
 982:Generated_Source\PSoC4/USBFS_1.c **** uint16 USBFS_1_GetEPCount(uint8 epNumber) 
ARM GAS  C:\Users\psmus\AppData\Local\Temp\ccX8E8QF.s 			page 30


 983:Generated_Source\PSoC4/USBFS_1.c **** {
 665              		.loc 1 983 0
 666              		.cfi_startproc
 667              		@ args = 0, pretend = 0, frame = 0
 668              		@ frame_needed = 0, uses_anonymous_args = 0
 669              		@ link register save eliminated.
 670              	.LVL32:
 984:Generated_Source\PSoC4/USBFS_1.c ****     uint16 cntr = 0u;
 985:Generated_Source\PSoC4/USBFS_1.c **** 
 986:Generated_Source\PSoC4/USBFS_1.c ****     if ((epNumber > USBFS_1_EP0) && (epNumber < USBFS_1_MAX_EP))
 671              		.loc 1 986 0
 672 0000 431E     		subs	r3, r0, #1
 673 0002 DBB2     		uxtb	r3, r3
 674 0004 072B     		cmp	r3, #7
 675 0006 10D8     		bhi	.L44
 987:Generated_Source\PSoC4/USBFS_1.c ****     {
 988:Generated_Source\PSoC4/USBFS_1.c ****         /* Get 11-bits EP counter where epCnt0 - 3 bits MSB and epCnt1 - 8 bits LSB. */
 989:Generated_Source\PSoC4/USBFS_1.c ****         cntr  = ((uint16) USBFS_1_SIE_EP_BASE.sieEp[epNumber].epCnt0) & USBFS_1_EPX_CNT0_MASK;
 676              		.loc 1 989 0
 677 0008 8301     		lsls	r3, r0, #6
 678 000a 094A     		ldr	r2, .L45
 679 000c 9858     		ldr	r0, [r3, r2]
 680              	.LVL33:
 681 000e 80B2     		uxth	r0, r0
 682              	.LVL34:
 990:Generated_Source\PSoC4/USBFS_1.c ****         cntr  = ((uint16) (cntr << 8u)) | ((uint16) USBFS_1_SIE_EP_BASE.sieEp[epNumber].epCnt1);
 683              		.loc 1 990 0
 684 0010 0002     		lsls	r0, r0, #8
 685              	.LVL35:
 686 0012 F022     		movs	r2, #240
 687 0014 1201     		lsls	r2, r2, #4
 688 0016 1040     		ands	r0, r2
 689 0018 054A     		ldr	r2, .L45
 690 001a 9446     		mov	ip, r2
 691 001c 6344     		add	r3, r3, ip
 692 001e 5B68     		ldr	r3, [r3, #4]
 693 0020 1843     		orrs	r0, r3
 694 0022 80B2     		uxth	r0, r0
 695              	.LVL36:
 991:Generated_Source\PSoC4/USBFS_1.c ****         cntr -= USBFS_1_EPX_CNTX_CRC_COUNT;
 696              		.loc 1 991 0
 697 0024 0238     		subs	r0, r0, #2
 698              	.LVL37:
 699 0026 80B2     		uxth	r0, r0
 700              	.LVL38:
 701 0028 00E0     		b	.L43
 702              	.LVL39:
 703              	.L44:
 984:Generated_Source\PSoC4/USBFS_1.c **** 
 704              		.loc 1 984 0
 705 002a 0020     		movs	r0, #0
 706              	.LVL40:
 707              	.L43:
 992:Generated_Source\PSoC4/USBFS_1.c ****     }
 993:Generated_Source\PSoC4/USBFS_1.c **** 
 994:Generated_Source\PSoC4/USBFS_1.c ****     return (cntr);
 995:Generated_Source\PSoC4/USBFS_1.c **** }
ARM GAS  C:\Users\psmus\AppData\Local\Temp\ccX8E8QF.s 			page 31


 708              		.loc 1 995 0
 709              		@ sp needed
 710 002c 7047     		bx	lr
 711              	.L46:
 712 002e C046     		.align	2
 713              	.L45:
 714 0030 F0FF2B40 		.word	1076625392
 715              		.cfi_endproc
 716              	.LFE11:
 717              		.size	USBFS_1_GetEPCount, .-USBFS_1_GetEPCount
 718              		.section	.text.USBFS_1_LoadInEP,"ax",%progbits
 719              		.align	2
 720              		.global	USBFS_1_LoadInEP
 721              		.code	16
 722              		.thumb_func
 723              		.type	USBFS_1_LoadInEP, %function
 724              	USBFS_1_LoadInEP:
 725              	.LFB12:
 996:Generated_Source\PSoC4/USBFS_1.c **** 
 997:Generated_Source\PSoC4/USBFS_1.c **** 
 998:Generated_Source\PSoC4/USBFS_1.c **** #if (USBFS_1_EP_MANAGEMENT_DMA)
 999:Generated_Source\PSoC4/USBFS_1.c **** #if (CY_PSOC4)
1000:Generated_Source\PSoC4/USBFS_1.c ****     /*******************************************************************************
1001:Generated_Source\PSoC4/USBFS_1.c ****     * Function Name: USBFS_1_InitEpDma
1002:Generated_Source\PSoC4/USBFS_1.c ****     ****************************************************************************//**
1003:Generated_Source\PSoC4/USBFS_1.c ****     *
1004:Generated_Source\PSoC4/USBFS_1.c ****     *  This function configures priority for all DMA channels utilized by the
1005:Generated_Source\PSoC4/USBFS_1.c ****     *  component. Also sets callbacks for DMA auto mode.
1006:Generated_Source\PSoC4/USBFS_1.c ****     *
1007:Generated_Source\PSoC4/USBFS_1.c ****     *******************************************************************************/
1008:Generated_Source\PSoC4/USBFS_1.c ****     static void USBFS_1_InitEpDma(void)
1009:Generated_Source\PSoC4/USBFS_1.c ****     {
1010:Generated_Source\PSoC4/USBFS_1.c ****     #if (USBFS_1_DMA1_ACTIVE)
1011:Generated_Source\PSoC4/USBFS_1.c ****         CYDMA_CH_CTL_BASE.ctl[USBFS_1_ep1_dma_CHANNEL] = USBFS_1_ep1_dma_CHANNEL_CFG;
1012:Generated_Source\PSoC4/USBFS_1.c ****     #endif /* (USBFS_1_DMA1_ACTIVE) */
1013:Generated_Source\PSoC4/USBFS_1.c **** 
1014:Generated_Source\PSoC4/USBFS_1.c ****     #if (USBFS_1_DMA2_ACTIVE)
1015:Generated_Source\PSoC4/USBFS_1.c ****         CYDMA_CH_CTL_BASE.ctl[USBFS_1_ep2_dma_CHANNEL] = USBFS_1_ep2_dma_CHANNEL_CFG;
1016:Generated_Source\PSoC4/USBFS_1.c ****     #endif /* (USBFS_1_DMA2_ACTIVE) */
1017:Generated_Source\PSoC4/USBFS_1.c **** 
1018:Generated_Source\PSoC4/USBFS_1.c ****     #if (USBFS_1_DMA3_ACTIVE)
1019:Generated_Source\PSoC4/USBFS_1.c ****         CYDMA_CH_CTL_BASE.ctl[USBFS_1_ep3_dma_CHANNEL] = USBFS_1_ep3_dma_CHANNEL_CFG;
1020:Generated_Source\PSoC4/USBFS_1.c ****     #endif /* (USBFS_1_DMA3_ACTIVE) */
1021:Generated_Source\PSoC4/USBFS_1.c **** 
1022:Generated_Source\PSoC4/USBFS_1.c ****     #if (USBFS_1_DMA4_ACTIVE)
1023:Generated_Source\PSoC4/USBFS_1.c ****         CYDMA_CH_CTL_BASE.ctl[USBFS_1_ep4_dma_CHANNEL] = USBFS_1_ep4_dma_CHANNEL_CFG;
1024:Generated_Source\PSoC4/USBFS_1.c ****     #endif /* (USBFS_1_DMA4_ACTIVE) */
1025:Generated_Source\PSoC4/USBFS_1.c **** 
1026:Generated_Source\PSoC4/USBFS_1.c ****     #if (USBFS_1_DMA5_ACTIVE)
1027:Generated_Source\PSoC4/USBFS_1.c ****         CYDMA_CH_CTL_BASE.ctl[USBFS_1_ep5_dma_CHANNEL] = USBFS_1_ep5_dma_CHANNEL_CFG;
1028:Generated_Source\PSoC4/USBFS_1.c ****     #endif /* (USBFS_1_DMA5_ACTIVE) */
1029:Generated_Source\PSoC4/USBFS_1.c **** 
1030:Generated_Source\PSoC4/USBFS_1.c ****     #if (USBFS_1_DMA6_ACTIVE)
1031:Generated_Source\PSoC4/USBFS_1.c ****         CYDMA_CH_CTL_BASE.ctl[USBFS_1_ep6_dma_CHANNEL] = USBFS_1_ep6_dma_CHANNEL_CFG;
1032:Generated_Source\PSoC4/USBFS_1.c ****     #endif /* (USBFS_1_DMA6_ACTIVE) */
1033:Generated_Source\PSoC4/USBFS_1.c **** 
1034:Generated_Source\PSoC4/USBFS_1.c ****     #if (USBFS_1_DMA7_ACTIVE)
ARM GAS  C:\Users\psmus\AppData\Local\Temp\ccX8E8QF.s 			page 32


1035:Generated_Source\PSoC4/USBFS_1.c ****         CYDMA_CH_CTL_BASE.ctl[USBFS_1_ep7_dma_CHANNEL] = USBFS_1_ep7_dma_CHANNEL_CFG;
1036:Generated_Source\PSoC4/USBFS_1.c ****     #endif /* (USBFS_1_DMA7_ACTIVE) */
1037:Generated_Source\PSoC4/USBFS_1.c **** 
1038:Generated_Source\PSoC4/USBFS_1.c ****     #if (USBFS_1_DMA8_ACTIVE)
1039:Generated_Source\PSoC4/USBFS_1.c ****         CYDMA_CH_CTL_BASE.ctl[USBFS_1_ep8_dma_CHANNEL] = USBFS_1_ep8_dma_CHANNEL_CFG;
1040:Generated_Source\PSoC4/USBFS_1.c ****     #endif /* (USBFS_1_DMA8_ACTIVE) */
1041:Generated_Source\PSoC4/USBFS_1.c **** 
1042:Generated_Source\PSoC4/USBFS_1.c ****     #if (USBFS_1_EP_MANAGEMENT_DMA_AUTO)
1043:Generated_Source\PSoC4/USBFS_1.c ****         /* Initialize DMA channel callbacks. */
1044:Generated_Source\PSoC4/USBFS_1.c ****         #if (USBFS_1_DMA1_ACTIVE)
1045:Generated_Source\PSoC4/USBFS_1.c ****             (void) USBFS_1_ep1_dma_SetInterruptCallback(&USBFS_1_EP1_DMA_DONE_ISR);
1046:Generated_Source\PSoC4/USBFS_1.c ****         #endif /* (USBFS_1_DMA1_ACTIVE) */
1047:Generated_Source\PSoC4/USBFS_1.c **** 
1048:Generated_Source\PSoC4/USBFS_1.c ****         #if (USBFS_1_DMA2_ACTIVE)
1049:Generated_Source\PSoC4/USBFS_1.c ****             (void) USBFS_1_ep2_dma_SetInterruptCallback(&USBFS_1_EP2_DMA_DONE_ISR);
1050:Generated_Source\PSoC4/USBFS_1.c ****         #endif /* (USBFS_1_DMA2_ACTIVE) */
1051:Generated_Source\PSoC4/USBFS_1.c **** 
1052:Generated_Source\PSoC4/USBFS_1.c ****         #if (USBFS_1_DMA3_ACTIVE)
1053:Generated_Source\PSoC4/USBFS_1.c ****             (void) USBFS_1_ep3_dma_SetInterruptCallback(&USBFS_1_EP3_DMA_DONE_ISR);
1054:Generated_Source\PSoC4/USBFS_1.c ****         #endif /* (USBFS_1_DMA3_ACTIVE) */
1055:Generated_Source\PSoC4/USBFS_1.c **** 
1056:Generated_Source\PSoC4/USBFS_1.c ****         #if (USBFS_1_DMA4_ACTIVE)
1057:Generated_Source\PSoC4/USBFS_1.c ****             (void) USBFS_1_ep4_dma_SetInterruptCallback(&USBFS_1_EP4_DMA_DONE_ISR);
1058:Generated_Source\PSoC4/USBFS_1.c ****         #endif /* (USBFS_1_DMA4_ACTIVE) */
1059:Generated_Source\PSoC4/USBFS_1.c **** 
1060:Generated_Source\PSoC4/USBFS_1.c ****         #if (USBFS_1_DMA5_ACTIVE)
1061:Generated_Source\PSoC4/USBFS_1.c ****             (void) USBFS_1_ep5_dma_SetInterruptCallback(&USBFS_1_EP5_DMA_DONE_ISR);
1062:Generated_Source\PSoC4/USBFS_1.c ****         #endif /* (USBFS_1_DMA5_ACTIVE) */
1063:Generated_Source\PSoC4/USBFS_1.c **** 
1064:Generated_Source\PSoC4/USBFS_1.c ****         #if (USBFS_1_DMA6_ACTIVE)
1065:Generated_Source\PSoC4/USBFS_1.c ****             (void) USBFS_1_ep6_dma_SetInterruptCallback(&USBFS_1_EP6_DMA_DONE_ISR);
1066:Generated_Source\PSoC4/USBFS_1.c ****         #endif /* (USBFS_1_DMA6_ACTIVE) */
1067:Generated_Source\PSoC4/USBFS_1.c **** 
1068:Generated_Source\PSoC4/USBFS_1.c ****         #if (USBFS_1_DMA7_ACTIVE)
1069:Generated_Source\PSoC4/USBFS_1.c ****             (void) USBFS_1_ep7_dma_SetInterruptCallback(&USBFS_1_EP7_DMA_DONE_ISR);
1070:Generated_Source\PSoC4/USBFS_1.c ****         #endif /* (USBFS_1_DMA7_ACTIVE) */
1071:Generated_Source\PSoC4/USBFS_1.c **** 
1072:Generated_Source\PSoC4/USBFS_1.c ****         #if (USBFS_1_DMA8_ACTIVE)
1073:Generated_Source\PSoC4/USBFS_1.c ****             (void) USBFS_1_ep8_dma_SetInterruptCallback(&USBFS_1_EP8_DMA_DONE_ISR);
1074:Generated_Source\PSoC4/USBFS_1.c ****         #endif /* (USBFS_1_DMA8_ACTIVE) */
1075:Generated_Source\PSoC4/USBFS_1.c ****     #endif /* (USBFS_1_EP_MANAGEMENT_DMA_AUTO) */
1076:Generated_Source\PSoC4/USBFS_1.c ****     }
1077:Generated_Source\PSoC4/USBFS_1.c **** #else
1078:Generated_Source\PSoC4/USBFS_1.c **** 
1079:Generated_Source\PSoC4/USBFS_1.c **** 
1080:Generated_Source\PSoC4/USBFS_1.c ****     /***************************************************************************
1081:Generated_Source\PSoC4/USBFS_1.c ****     * Function Name: USBFS_1_InitEP_DMA
1082:Generated_Source\PSoC4/USBFS_1.c ****     ************************************************************************//**
1083:Generated_Source\PSoC4/USBFS_1.c ****     *
1084:Generated_Source\PSoC4/USBFS_1.c ****     *  This function allocates and initializes a DMA channel to be used by the
1085:Generated_Source\PSoC4/USBFS_1.c ****     *  USBFS_1_LoadInEP() or USBFS_1_ReadOutEP() APIs for data
1086:Generated_Source\PSoC4/USBFS_1.c ****     *  transfer. It is available when the Endpoint Memory Management parameter
1087:Generated_Source\PSoC4/USBFS_1.c ****     *  is set to DMA.
1088:Generated_Source\PSoC4/USBFS_1.c ****     *
1089:Generated_Source\PSoC4/USBFS_1.c ****     *  This function is automatically called from the USBFS_LoadInEP() and USBFS_ReadOutEP() APIs.
1090:Generated_Source\PSoC4/USBFS_1.c ****     *
1091:Generated_Source\PSoC4/USBFS_1.c ****     *  \param epNumber Contains the data endpoint number.
ARM GAS  C:\Users\psmus\AppData\Local\Temp\ccX8E8QF.s 			page 33


1092:Generated_Source\PSoC4/USBFS_1.c ****     *            Valid values are between 1 and 8.
1093:Generated_Source\PSoC4/USBFS_1.c ****     *  \param *pData Pointer to a data array that is related to the EP transfers.
1094:Generated_Source\PSoC4/USBFS_1.c ****     *
1095:Generated_Source\PSoC4/USBFS_1.c ****     * \reentrant No.
1096:Generated_Source\PSoC4/USBFS_1.c ****     *
1097:Generated_Source\PSoC4/USBFS_1.c ****     ***************************************************************************/
1098:Generated_Source\PSoC4/USBFS_1.c ****     void USBFS_1_InitEP_DMA(uint8 epNumber, const uint8 *pData)
1099:Generated_Source\PSoC4/USBFS_1.c ****                                                                     
1100:Generated_Source\PSoC4/USBFS_1.c ****     {
1101:Generated_Source\PSoC4/USBFS_1.c ****         uint16 src;
1102:Generated_Source\PSoC4/USBFS_1.c ****         uint16 dst;
1103:Generated_Source\PSoC4/USBFS_1.c **** 
1104:Generated_Source\PSoC4/USBFS_1.c ****     #if (CY_PSOC3)
1105:Generated_Source\PSoC4/USBFS_1.c ****         src = HI16(CYDEV_SRAM_BASE);
1106:Generated_Source\PSoC4/USBFS_1.c ****         dst = HI16(CYDEV_PERIPH_BASE);
1107:Generated_Source\PSoC4/USBFS_1.c ****         pData = pData;
1108:Generated_Source\PSoC4/USBFS_1.c ****     #else
1109:Generated_Source\PSoC4/USBFS_1.c ****         if ((USBFS_1_EP[epNumber].addr & USBFS_1_DIR_IN) != 0u)
1110:Generated_Source\PSoC4/USBFS_1.c ****         {
1111:Generated_Source\PSoC4/USBFS_1.c ****             /* IN endpoint: source is memory buffer. */
1112:Generated_Source\PSoC4/USBFS_1.c ****             src = HI16(pData);
1113:Generated_Source\PSoC4/USBFS_1.c ****             dst = HI16(CYDEV_PERIPH_BASE);
1114:Generated_Source\PSoC4/USBFS_1.c ****         }
1115:Generated_Source\PSoC4/USBFS_1.c ****         else
1116:Generated_Source\PSoC4/USBFS_1.c ****         {
1117:Generated_Source\PSoC4/USBFS_1.c ****             /* OUT endpoint: source is USB IP memory buffer. */
1118:Generated_Source\PSoC4/USBFS_1.c ****             src = HI16(CYDEV_PERIPH_BASE);
1119:Generated_Source\PSoC4/USBFS_1.c ****             dst = HI16(pData);
1120:Generated_Source\PSoC4/USBFS_1.c ****         }
1121:Generated_Source\PSoC4/USBFS_1.c ****     #endif  /* (CY_PSOC3) */
1122:Generated_Source\PSoC4/USBFS_1.c **** 
1123:Generated_Source\PSoC4/USBFS_1.c ****         switch(epNumber)
1124:Generated_Source\PSoC4/USBFS_1.c ****         {
1125:Generated_Source\PSoC4/USBFS_1.c ****     #if (USBFS_1_DMA1_ACTIVE)
1126:Generated_Source\PSoC4/USBFS_1.c ****         case USBFS_1_EP1:
1127:Generated_Source\PSoC4/USBFS_1.c ****             USBFS_1_DmaChan[epNumber] = USBFS_1_ep1_DmaInitialize(USBFS_1_DMA_BYTES_PER_BURST,
1128:Generated_Source\PSoC4/USBFS_1.c ****                                                                                     USBFS_1_DMA_REQ
1129:Generated_Source\PSoC4/USBFS_1.c ****             break;
1130:Generated_Source\PSoC4/USBFS_1.c ****     #endif /* (USBFS_1_DMA1_ACTIVE) */
1131:Generated_Source\PSoC4/USBFS_1.c **** 
1132:Generated_Source\PSoC4/USBFS_1.c ****     #if (USBFS_1_DMA2_ACTIVE)
1133:Generated_Source\PSoC4/USBFS_1.c ****         case USBFS_1_EP2:
1134:Generated_Source\PSoC4/USBFS_1.c ****             USBFS_1_DmaChan[epNumber] = USBFS_1_ep2_DmaInitialize(USBFS_1_DMA_BYTES_PER_BURST,
1135:Generated_Source\PSoC4/USBFS_1.c ****                                                                                     USBFS_1_DMA_REQ
1136:Generated_Source\PSoC4/USBFS_1.c ****             break;
1137:Generated_Source\PSoC4/USBFS_1.c ****     #endif /* (USBFS_1_DMA2_ACTIVE) */
1138:Generated_Source\PSoC4/USBFS_1.c **** 
1139:Generated_Source\PSoC4/USBFS_1.c ****     #if (USBFS_1_DMA3_ACTIVE)
1140:Generated_Source\PSoC4/USBFS_1.c ****             case USBFS_1_EP3:
1141:Generated_Source\PSoC4/USBFS_1.c ****                 USBFS_1_DmaChan[epNumber] = USBFS_1_ep3_DmaInitialize(USBFS_1_DMA_BYTES_PER_BURST,
1142:Generated_Source\PSoC4/USBFS_1.c ****                                                                                         USBFS_1_DMA
1143:Generated_Source\PSoC4/USBFS_1.c ****             break;
1144:Generated_Source\PSoC4/USBFS_1.c ****     #endif /* (USBFS_1_DMA3_ACTIVE) */
1145:Generated_Source\PSoC4/USBFS_1.c **** 
1146:Generated_Source\PSoC4/USBFS_1.c ****     #if (USBFS_1_DMA4_ACTIVE)
1147:Generated_Source\PSoC4/USBFS_1.c ****             case USBFS_1_EP4:
1148:Generated_Source\PSoC4/USBFS_1.c ****                 USBFS_1_DmaChan[epNumber] = USBFS_1_ep4_DmaInitialize(USBFS_1_DMA_BYTES_PER_BURST,
ARM GAS  C:\Users\psmus\AppData\Local\Temp\ccX8E8QF.s 			page 34


1149:Generated_Source\PSoC4/USBFS_1.c ****                                                                                         USBFS_1_DMA
1150:Generated_Source\PSoC4/USBFS_1.c ****             break;
1151:Generated_Source\PSoC4/USBFS_1.c ****     #endif /* (USBFS_1_DMA4_ACTIVE) */
1152:Generated_Source\PSoC4/USBFS_1.c **** 
1153:Generated_Source\PSoC4/USBFS_1.c ****     #if (USBFS_1_DMA5_ACTIVE)
1154:Generated_Source\PSoC4/USBFS_1.c ****             case USBFS_1_EP5:
1155:Generated_Source\PSoC4/USBFS_1.c ****                 USBFS_1_DmaChan[epNumber] = USBFS_1_ep5_DmaInitialize(USBFS_1_DMA_BYTES_PER_BURST,
1156:Generated_Source\PSoC4/USBFS_1.c ****                                                                                         USBFS_1_DMA
1157:Generated_Source\PSoC4/USBFS_1.c ****             break;
1158:Generated_Source\PSoC4/USBFS_1.c ****     #endif /* (USBFS_1_DMA5_ACTIVE) */
1159:Generated_Source\PSoC4/USBFS_1.c **** 
1160:Generated_Source\PSoC4/USBFS_1.c ****     #if (USBFS_1_DMA6_ACTIVE)
1161:Generated_Source\PSoC4/USBFS_1.c ****         case USBFS_1_EP6:
1162:Generated_Source\PSoC4/USBFS_1.c ****             USBFS_1_DmaChan[epNumber] = USBFS_1_ep6_DmaInitialize(USBFS_1_DMA_BYTES_PER_BURST,
1163:Generated_Source\PSoC4/USBFS_1.c ****                                                                                     USBFS_1_DMA_REQ
1164:Generated_Source\PSoC4/USBFS_1.c ****             break;
1165:Generated_Source\PSoC4/USBFS_1.c ****     #endif /* (USBFS_1_DMA6_ACTIVE) */
1166:Generated_Source\PSoC4/USBFS_1.c **** 
1167:Generated_Source\PSoC4/USBFS_1.c ****     #if (USBFS_1_DMA7_ACTIVE)
1168:Generated_Source\PSoC4/USBFS_1.c ****         case USBFS_1_EP7:
1169:Generated_Source\PSoC4/USBFS_1.c ****                 USBFS_1_DmaChan[epNumber] = USBFS_1_ep7_DmaInitialize(USBFS_1_DMA_BYTES_PER_BURST,
1170:Generated_Source\PSoC4/USBFS_1.c ****                                                                                         USBFS_1_DMA
1171:Generated_Source\PSoC4/USBFS_1.c ****             break;
1172:Generated_Source\PSoC4/USBFS_1.c ****     #endif /* (USBFS_1_DMA7_ACTIVE) */
1173:Generated_Source\PSoC4/USBFS_1.c **** 
1174:Generated_Source\PSoC4/USBFS_1.c ****     #if (USBFS_1_DMA8_ACTIVE)
1175:Generated_Source\PSoC4/USBFS_1.c ****         case USBFS_1_EP8:
1176:Generated_Source\PSoC4/USBFS_1.c ****                 USBFS_1_DmaChan[epNumber] = USBFS_1_ep8_DmaInitialize(USBFS_1_DMA_BYTES_PER_BURST,
1177:Generated_Source\PSoC4/USBFS_1.c ****                                                                                         USBFS_1_DMA
1178:Generated_Source\PSoC4/USBFS_1.c ****             break;
1179:Generated_Source\PSoC4/USBFS_1.c ****     #endif /* (USBFS_1_DMA8_ACTIVE) */
1180:Generated_Source\PSoC4/USBFS_1.c **** 
1181:Generated_Source\PSoC4/USBFS_1.c ****         default:
1182:Generated_Source\PSoC4/USBFS_1.c ****             /* Do nothing for endpoints other than 1-8. */
1183:Generated_Source\PSoC4/USBFS_1.c ****             break;
1184:Generated_Source\PSoC4/USBFS_1.c ****         }
1185:Generated_Source\PSoC4/USBFS_1.c **** 
1186:Generated_Source\PSoC4/USBFS_1.c ****         if ((epNumber > USBFS_1_EP0) && (epNumber < USBFS_1_MAX_EP))
1187:Generated_Source\PSoC4/USBFS_1.c ****         {
1188:Generated_Source\PSoC4/USBFS_1.c ****             USBFS_1_DmaTd[epNumber] = CyDmaTdAllocate();
1189:Generated_Source\PSoC4/USBFS_1.c **** 
1190:Generated_Source\PSoC4/USBFS_1.c ****         #if (USBFS_1_EP_MANAGEMENT_DMA_AUTO && (USBFS_1_EP_DMA_AUTO_OPT == 0u))
1191:Generated_Source\PSoC4/USBFS_1.c ****             USBFS_1_DmaNextTd[epNumber] = CyDmaTdAllocate();
1192:Generated_Source\PSoC4/USBFS_1.c ****         #endif /* (USBFS_1_EP_MANAGEMENT_DMA_AUTO && (USBFS_1_EP_DMA_AUTO_OPT == 0u)) */
1193:Generated_Source\PSoC4/USBFS_1.c ****         }
1194:Generated_Source\PSoC4/USBFS_1.c ****     }
1195:Generated_Source\PSoC4/USBFS_1.c **** #endif /* (CY_PSOC4) */
1196:Generated_Source\PSoC4/USBFS_1.c **** 
1197:Generated_Source\PSoC4/USBFS_1.c ****     /***************************************************************************
1198:Generated_Source\PSoC4/USBFS_1.c ****     * Function Name: USBFS_1_Stop_DMA
1199:Generated_Source\PSoC4/USBFS_1.c ****     ************************************************************************//**
1200:Generated_Source\PSoC4/USBFS_1.c ****     *  
1201:Generated_Source\PSoC4/USBFS_1.c ****     *  This function stops DMA channel associated with endpoint. It is available 
1202:Generated_Source\PSoC4/USBFS_1.c ****     *  when the Endpoint Buffer Management parameter is set to DMA. Call this 
1203:Generated_Source\PSoC4/USBFS_1.c ****     *  function when endpoint direction is changed from IN to OUT or vice versa 
1204:Generated_Source\PSoC4/USBFS_1.c ****     *  to trigger DMA re-configuration when USBFS_1_LoadInEP() or 
1205:Generated_Source\PSoC4/USBFS_1.c ****     *  USBFS_1_ReadOutEP() functions are called the first time. 
ARM GAS  C:\Users\psmus\AppData\Local\Temp\ccX8E8QF.s 			page 35


1206:Generated_Source\PSoC4/USBFS_1.c ****     *  
1207:Generated_Source\PSoC4/USBFS_1.c ****     *  \param epNumber: The data endpoint number for which associated DMA 
1208:Generated_Source\PSoC4/USBFS_1.c ****     *  channel is stopped. The range of valid values is between 1 and 8. To stop 
1209:Generated_Source\PSoC4/USBFS_1.c ****     *  all DMAs associated with endpoints call this function with 
1210:Generated_Source\PSoC4/USBFS_1.c ****     *  USBFS_1_MAX_EP argument.
1211:Generated_Source\PSoC4/USBFS_1.c ****     *
1212:Generated_Source\PSoC4/USBFS_1.c ****     * \reentrant
1213:Generated_Source\PSoC4/USBFS_1.c ****     *  No.
1214:Generated_Source\PSoC4/USBFS_1.c ****     *
1215:Generated_Source\PSoC4/USBFS_1.c ****     ***************************************************************************/
1216:Generated_Source\PSoC4/USBFS_1.c ****     void USBFS_1_Stop_DMA(uint8 epNumber) 
1217:Generated_Source\PSoC4/USBFS_1.c ****     {
1218:Generated_Source\PSoC4/USBFS_1.c ****         uint32 i;
1219:Generated_Source\PSoC4/USBFS_1.c **** 
1220:Generated_Source\PSoC4/USBFS_1.c ****         i = (epNumber < USBFS_1_MAX_EP) ? epNumber : USBFS_1_EP1;
1221:Generated_Source\PSoC4/USBFS_1.c **** 
1222:Generated_Source\PSoC4/USBFS_1.c ****         do
1223:Generated_Source\PSoC4/USBFS_1.c ****         {
1224:Generated_Source\PSoC4/USBFS_1.c ****         #if (CY_PSOC4)
1225:Generated_Source\PSoC4/USBFS_1.c ****             if (0u != USBFS_1_DmaChan[i])
1226:Generated_Source\PSoC4/USBFS_1.c ****             {
1227:Generated_Source\PSoC4/USBFS_1.c ****                 USBFS_1_CyDmaChDisable(USBFS_1_DmaChan[i]);
1228:Generated_Source\PSoC4/USBFS_1.c ****             }
1229:Generated_Source\PSoC4/USBFS_1.c ****         #else
1230:Generated_Source\PSoC4/USBFS_1.c ****             if(USBFS_1_DmaTd[i] != DMA_INVALID_TD)
1231:Generated_Source\PSoC4/USBFS_1.c ****             {
1232:Generated_Source\PSoC4/USBFS_1.c ****                 (void) CyDmaChDisable(USBFS_1_DmaChan[i]);
1233:Generated_Source\PSoC4/USBFS_1.c ****                 CyDmaTdFree(USBFS_1_DmaTd[i]);
1234:Generated_Source\PSoC4/USBFS_1.c ****                 USBFS_1_DmaTd[i] = DMA_INVALID_TD;
1235:Generated_Source\PSoC4/USBFS_1.c ****             }
1236:Generated_Source\PSoC4/USBFS_1.c **** 
1237:Generated_Source\PSoC4/USBFS_1.c ****             #if (USBFS_1_EP_MANAGEMENT_DMA_AUTO && (USBFS_1_EP_DMA_AUTO_OPT == 0u))
1238:Generated_Source\PSoC4/USBFS_1.c ****                 if(USBFS_1_DmaNextTd[i] != DMA_INVALID_TD)
1239:Generated_Source\PSoC4/USBFS_1.c ****                 {
1240:Generated_Source\PSoC4/USBFS_1.c ****                     CyDmaTdFree(USBFS_1_DmaNextTd[i]);
1241:Generated_Source\PSoC4/USBFS_1.c ****                     USBFS_1_DmaNextTd[i] = DMA_INVALID_TD;
1242:Generated_Source\PSoC4/USBFS_1.c ****                 }
1243:Generated_Source\PSoC4/USBFS_1.c ****             #endif /* (USBFS_1_EP_MANAGEMENT_DMA_AUTO && (USBFS_1_EP_DMA_AUTO_OPT == 0u)) */
1244:Generated_Source\PSoC4/USBFS_1.c **** 
1245:Generated_Source\PSoC4/USBFS_1.c ****         #endif /* (CY_PSOC4) */
1246:Generated_Source\PSoC4/USBFS_1.c ****             i++;
1247:Generated_Source\PSoC4/USBFS_1.c ****         }
1248:Generated_Source\PSoC4/USBFS_1.c ****         while ((i < USBFS_1_MAX_EP) && (epNumber == USBFS_1_MAX_EP));
1249:Generated_Source\PSoC4/USBFS_1.c ****     }
1250:Generated_Source\PSoC4/USBFS_1.c **** #endif /* (USBFS_1_EP_MANAGEMENT_DMA) */
1251:Generated_Source\PSoC4/USBFS_1.c **** 
1252:Generated_Source\PSoC4/USBFS_1.c **** 
1253:Generated_Source\PSoC4/USBFS_1.c **** #if (CY_PSOC3 || CY_PSOC5)
1254:Generated_Source\PSoC4/USBFS_1.c **** #if (USBFS_1_EP_MANAGEMENT_DMA_AUTO && (USBFS_1_EP_DMA_AUTO_OPT == 0u))
1255:Generated_Source\PSoC4/USBFS_1.c ****     /***************************************************************************
1256:Generated_Source\PSoC4/USBFS_1.c ****     * Function Name: USBFS_1_LoadNextInEP
1257:Generated_Source\PSoC4/USBFS_1.c ****     ************************************************************************//**
1258:Generated_Source\PSoC4/USBFS_1.c ****     *
1259:Generated_Source\PSoC4/USBFS_1.c ****     * Summary:
1260:Generated_Source\PSoC4/USBFS_1.c ****     *  This internal function is used for IN endpoint DMA reconfiguration in
1261:Generated_Source\PSoC4/USBFS_1.c ****     *  Auto DMA mode.
1262:Generated_Source\PSoC4/USBFS_1.c ****     *
ARM GAS  C:\Users\psmus\AppData\Local\Temp\ccX8E8QF.s 			page 36


1263:Generated_Source\PSoC4/USBFS_1.c ****     * Parameters:
1264:Generated_Source\PSoC4/USBFS_1.c ****     *  epNumber: Contains the data endpoint number.
1265:Generated_Source\PSoC4/USBFS_1.c ****     *  mode:   0 - Configure DMA to send the the rest of data.
1266:Generated_Source\PSoC4/USBFS_1.c ****     *          1 - Configure DMA to repeat 2 last bytes of the first burst.
1267:Generated_Source\PSoC4/USBFS_1.c ****     *
1268:Generated_Source\PSoC4/USBFS_1.c ****     ***************************************************************************/
1269:Generated_Source\PSoC4/USBFS_1.c ****     void USBFS_1_LoadNextInEP(uint8 epNumber, uint8 mode) 
1270:Generated_Source\PSoC4/USBFS_1.c ****     {
1271:Generated_Source\PSoC4/USBFS_1.c ****         reg16 *convert;
1272:Generated_Source\PSoC4/USBFS_1.c **** 
1273:Generated_Source\PSoC4/USBFS_1.c ****         if (mode == 0u)
1274:Generated_Source\PSoC4/USBFS_1.c ****         {
1275:Generated_Source\PSoC4/USBFS_1.c ****             /* Configure DMA to send rest of data. */
1276:Generated_Source\PSoC4/USBFS_1.c ****             /* CyDmaTdSetConfiguration API is optimized to change transfer length only and configur
1277:Generated_Source\PSoC4/USBFS_1.c ****             convert = (reg16 *) &CY_DMA_TDMEM_STRUCT_PTR[USBFS_1_DmaTd[epNumber]].TD0[0u];
1278:Generated_Source\PSoC4/USBFS_1.c ****             /* Set transfer length. */
1279:Generated_Source\PSoC4/USBFS_1.c ****             CY_SET_REG16(convert, USBFS_1_inLength[epNumber] - USBFS_1_DMA_BYTES_PER_BURST);
1280:Generated_Source\PSoC4/USBFS_1.c ****             /* CyDmaTdSetAddress API is optimized to change source address only. */
1281:Generated_Source\PSoC4/USBFS_1.c ****             convert = (reg16 *) &CY_DMA_TDMEM_STRUCT_PTR[USBFS_1_DmaTd[epNumber]].TD1[0u];
1282:Generated_Source\PSoC4/USBFS_1.c ****             CY_SET_REG16(convert, LO16((uint32)USBFS_1_inDataPointer[epNumber] +
1283:Generated_Source\PSoC4/USBFS_1.c ****                                             USBFS_1_DMA_BYTES_PER_BURST));
1284:Generated_Source\PSoC4/USBFS_1.c ****             USBFS_1_inBufFull[epNumber] = 1u;
1285:Generated_Source\PSoC4/USBFS_1.c ****         }
1286:Generated_Source\PSoC4/USBFS_1.c ****         else
1287:Generated_Source\PSoC4/USBFS_1.c ****         {
1288:Generated_Source\PSoC4/USBFS_1.c ****             /* Configure DMA to repeat 2 last bytes of the first burst. */
1289:Generated_Source\PSoC4/USBFS_1.c ****             /* CyDmaTdSetConfiguration API is optimized to change transfer length only and configur
1290:Generated_Source\PSoC4/USBFS_1.c ****             convert = (reg16 *) &CY_DMA_TDMEM_STRUCT_PTR[USBFS_1_DmaTd[epNumber]].TD0[0u];
1291:Generated_Source\PSoC4/USBFS_1.c ****             /* Set transfer length. */
1292:Generated_Source\PSoC4/USBFS_1.c ****             CY_SET_REG16(convert, USBFS_1_DMA_BYTES_REPEAT);
1293:Generated_Source\PSoC4/USBFS_1.c ****             /* CyDmaTdSetAddress API is optimized to change source address only. */
1294:Generated_Source\PSoC4/USBFS_1.c ****             convert = (reg16 *) &CY_DMA_TDMEM_STRUCT_PTR[USBFS_1_DmaTd[epNumber]].TD1[0u];
1295:Generated_Source\PSoC4/USBFS_1.c ****             CY_SET_REG16(convert,  LO16((uint32)USBFS_1_inDataPointer[epNumber] +
1296:Generated_Source\PSoC4/USBFS_1.c ****                                    (USBFS_1_DMA_BYTES_PER_BURST - USBFS_1_DMA_BYTES_REPEAT)));
1297:Generated_Source\PSoC4/USBFS_1.c ****         }
1298:Generated_Source\PSoC4/USBFS_1.c **** 
1299:Generated_Source\PSoC4/USBFS_1.c ****         /* CyDmaChSetInitialTd API is optimized to initialize TD. */
1300:Generated_Source\PSoC4/USBFS_1.c ****         CY_DMA_CH_STRUCT_PTR[USBFS_1_DmaChan[epNumber]].basic_status[1u] = USBFS_1_DmaTd[epNumber];
1301:Generated_Source\PSoC4/USBFS_1.c ****     }
1302:Generated_Source\PSoC4/USBFS_1.c **** #endif /* (USBFS_1_EP_MANAGEMENT_DMA_AUTO && (USBFS_1_EP_DMA_AUTO_OPT == 0u)) */
1303:Generated_Source\PSoC4/USBFS_1.c **** #endif /* (CY_PSOC3 || CY_PSOC5) */
1304:Generated_Source\PSoC4/USBFS_1.c **** 
1305:Generated_Source\PSoC4/USBFS_1.c **** 
1306:Generated_Source\PSoC4/USBFS_1.c **** /*******************************************************************************
1307:Generated_Source\PSoC4/USBFS_1.c **** * Function Name: USBFS_1_LoadInEP
1308:Generated_Source\PSoC4/USBFS_1.c **** ****************************************************************************//**
1309:Generated_Source\PSoC4/USBFS_1.c **** *
1310:Generated_Source\PSoC4/USBFS_1.c **** *  This function performs different functionality depending on the Component’s
1311:Generated_Source\PSoC4/USBFS_1.c **** *  configured Endpoint Buffer Management. This parameter is defined in
1312:Generated_Source\PSoC4/USBFS_1.c **** *  the Descriptor Root in Component Configure window.
1313:Generated_Source\PSoC4/USBFS_1.c **** *
1314:Generated_Source\PSoC4/USBFS_1.c **** *  *Manual (Static/Dynamic Allocation):*
1315:Generated_Source\PSoC4/USBFS_1.c **** *  This function loads and enables the specified USB data endpoint for an IN
1316:Generated_Source\PSoC4/USBFS_1.c **** *  data transfer.
1317:Generated_Source\PSoC4/USBFS_1.c **** *
1318:Generated_Source\PSoC4/USBFS_1.c **** *  *DMA with Manual Buffer Management:*
1319:Generated_Source\PSoC4/USBFS_1.c **** *  Configures DMA for a data transfer from system RAM to endpoint buffer.
ARM GAS  C:\Users\psmus\AppData\Local\Temp\ccX8E8QF.s 			page 37


1320:Generated_Source\PSoC4/USBFS_1.c **** *  Generates request for a transfer.
1321:Generated_Source\PSoC4/USBFS_1.c **** *
1322:Generated_Source\PSoC4/USBFS_1.c **** *  *DMA with Automatic Buffer Management:*
1323:Generated_Source\PSoC4/USBFS_1.c **** *  Configures DMA. This is required only once, so it is done only when parameter
1324:Generated_Source\PSoC4/USBFS_1.c **** *  pData is not NULL. When the pData pointer is NULL, the function skips this
1325:Generated_Source\PSoC4/USBFS_1.c **** *  task. Sets Data ready status: This generates the first DMA transfer and
1326:Generated_Source\PSoC4/USBFS_1.c **** *  prepares data in endpoint buffer.
1327:Generated_Source\PSoC4/USBFS_1.c **** *
1328:Generated_Source\PSoC4/USBFS_1.c **** *  \param epNumber Contains the data endpoint number.
1329:Generated_Source\PSoC4/USBFS_1.c **** *            Valid values are between 1 and 8.
1330:Generated_Source\PSoC4/USBFS_1.c **** *  \param *pData A pointer to a data array from which the data for the endpoint space
1331:Generated_Source\PSoC4/USBFS_1.c **** *          is loaded.
1332:Generated_Source\PSoC4/USBFS_1.c **** *  \param length The number of bytes to transfer from the array and then send as
1333:Generated_Source\PSoC4/USBFS_1.c **** *          a result of an IN request. Valid values are between 0 and 512
1334:Generated_Source\PSoC4/USBFS_1.c **** *          (1023 for DMA with Automatic Buffer Management mode). The value 512
1335:Generated_Source\PSoC4/USBFS_1.c **** *          is applicable if only one endpoint is used.
1336:Generated_Source\PSoC4/USBFS_1.c **** *
1337:Generated_Source\PSoC4/USBFS_1.c **** *
1338:Generated_Source\PSoC4/USBFS_1.c **** * \reentrant
1339:Generated_Source\PSoC4/USBFS_1.c **** *  No.
1340:Generated_Source\PSoC4/USBFS_1.c **** *
1341:Generated_Source\PSoC4/USBFS_1.c **** *******************************************************************************/
1342:Generated_Source\PSoC4/USBFS_1.c **** void USBFS_1_LoadInEP(uint8 epNumber, const uint8 pData[], uint16 length)
1343:Generated_Source\PSoC4/USBFS_1.c ****                                                                         
1344:Generated_Source\PSoC4/USBFS_1.c **** {
 726              		.loc 1 1344 0
 727              		.cfi_startproc
 728              		@ args = 0, pretend = 0, frame = 0
 729              		@ frame_needed = 0, uses_anonymous_args = 0
 730              	.LVL41:
 731 0000 F0B5     		push	{r4, r5, r6, r7, lr}
 732              		.cfi_def_cfa_offset 20
 733              		.cfi_offset 4, -20
 734              		.cfi_offset 5, -16
 735              		.cfi_offset 6, -12
 736              		.cfi_offset 7, -8
 737              		.cfi_offset 14, -4
1345:Generated_Source\PSoC4/USBFS_1.c ****     if ((epNumber > USBFS_1_EP0) && (epNumber < USBFS_1_MAX_EP))
 738              		.loc 1 1345 0
 739 0002 431E     		subs	r3, r0, #1
 740 0004 DBB2     		uxtb	r3, r3
 741 0006 072B     		cmp	r3, #7
 742 0008 41D8     		bhi	.L47
1346:Generated_Source\PSoC4/USBFS_1.c ****     {
1347:Generated_Source\PSoC4/USBFS_1.c ****     #if (!USBFS_1_EP_MANAGEMENT_DMA_AUTO)
1348:Generated_Source\PSoC4/USBFS_1.c ****         /* Limit length to available buffer USB IP buffer size.*/
1349:Generated_Source\PSoC4/USBFS_1.c ****         if (length > (USBFS_1_EPX_DATA_BUF_MAX - USBFS_1_EP[epNumber].buffOffset))
 743              		.loc 1 1349 0
 744 000a 0600     		movs	r6, r0
 745 000c 4400     		lsls	r4, r0, #1
 746 000e 2418     		adds	r4, r4, r0
 747 0010 A300     		lsls	r3, r4, #2
 748 0012 1F4C     		ldr	r4, .L54
 749 0014 E318     		adds	r3, r4, r3
 750 0016 DC88     		ldrh	r4, [r3, #6]
 751 0018 8023     		movs	r3, #128
 752 001a 9B00     		lsls	r3, r3, #2
ARM GAS  C:\Users\psmus\AppData\Local\Temp\ccX8E8QF.s 			page 38


 753 001c 1B1B     		subs	r3, r3, r4
 754 001e 9A42     		cmp	r2, r3
 755 0020 09D9     		bls	.L49
1350:Generated_Source\PSoC4/USBFS_1.c ****         {
1351:Generated_Source\PSoC4/USBFS_1.c ****             length = USBFS_1_EPX_DATA_BUF_MAX - USBFS_1_EP[epNumber].buffOffset;
 756              		.loc 1 1351 0
 757 0022 4200     		lsls	r2, r0, #1
 758              	.LVL42:
 759 0024 1218     		adds	r2, r2, r0
 760 0026 9300     		lsls	r3, r2, #2
 761 0028 194A     		ldr	r2, .L54
 762 002a D318     		adds	r3, r2, r3
 763 002c DA88     		ldrh	r2, [r3, #6]
 764 002e 8023     		movs	r3, #128
 765 0030 9B00     		lsls	r3, r3, #2
 766 0032 9A1A     		subs	r2, r3, r2
 767 0034 92B2     		uxth	r2, r2
 768              	.LVL43:
 769              	.L49:
1352:Generated_Source\PSoC4/USBFS_1.c ****         }
1353:Generated_Source\PSoC4/USBFS_1.c ****     #endif /* (!USBFS_1_EP_MANAGEMENT_DMA_AUTO) */
1354:Generated_Source\PSoC4/USBFS_1.c **** 
1355:Generated_Source\PSoC4/USBFS_1.c ****         /* Set count and data toggle. */
1356:Generated_Source\PSoC4/USBFS_1.c ****         USBFS_1_SIE_EP_BASE.sieEp[epNumber].epCnt0 = (uint32) HI8(length) | USBFS_1_EP[epNumber].ep
 770              		.loc 1 1356 0
 771 0036 130A     		lsrs	r3, r2, #8
 772 0038 4500     		lsls	r5, r0, #1
 773 003a 2D18     		adds	r5, r5, r0
 774 003c AC00     		lsls	r4, r5, #2
 775 003e 144D     		ldr	r5, .L54
 776 0040 2C19     		adds	r4, r5, r4
 777 0042 E478     		ldrb	r4, [r4, #3]
 778 0044 1C43     		orrs	r4, r3
 779 0046 8301     		lsls	r3, r0, #6
 780 0048 124D     		ldr	r5, .L54+4
 781 004a 5C51     		str	r4, [r3, r5]
1357:Generated_Source\PSoC4/USBFS_1.c ****         USBFS_1_SIE_EP_BASE.sieEp[epNumber].epCnt1 = (uint32) LO8(length);
 782              		.loc 1 1357 0
 783 004c D4B2     		uxtb	r4, r2
 784 004e AC46     		mov	ip, r5
 785 0050 6344     		add	r3, r3, ip
 786 0052 5C60     		str	r4, [r3, #4]
1358:Generated_Source\PSoC4/USBFS_1.c **** 
1359:Generated_Source\PSoC4/USBFS_1.c ****     #if (USBFS_1_EP_MANAGEMENT_MANUAL)
1360:Generated_Source\PSoC4/USBFS_1.c ****         if (NULL != pData)
 787              		.loc 1 1360 0
 788 0054 0029     		cmp	r1, #0
 789 0056 09D1     		bne	.L53
 790              	.LBB2:
 791 0058 0BE0     		b	.L51
 792              	.LVL44:
 793              	.L52:
1361:Generated_Source\PSoC4/USBFS_1.c ****         {
1362:Generated_Source\PSoC4/USBFS_1.c **** 			/* Copy data using arbiter data register. */
1363:Generated_Source\PSoC4/USBFS_1.c ****             uint16 i;
1364:Generated_Source\PSoC4/USBFS_1.c ****             for (i = 0u; i < length; ++i)
1365:Generated_Source\PSoC4/USBFS_1.c ****             {
ARM GAS  C:\Users\psmus\AppData\Local\Temp\ccX8E8QF.s 			page 39


1366:Generated_Source\PSoC4/USBFS_1.c ****                 USBFS_1_ARB_EP_BASE.arbEp[epNumber].rwDr = pData[i];
 794              		.loc 1 1366 0 discriminator 3
 795 005a CD5C     		ldrb	r5, [r1, r3]
 796 005c B401     		lsls	r4, r6, #6
 797 005e 0E4F     		ldr	r7, .L54+8
 798 0060 BC46     		mov	ip, r7
 799 0062 6444     		add	r4, r4, ip
 800 0064 2562     		str	r5, [r4, #32]
1364:Generated_Source\PSoC4/USBFS_1.c ****             {
 801              		.loc 1 1364 0 discriminator 3
 802 0066 0133     		adds	r3, r3, #1
 803              	.LVL45:
 804 0068 9BB2     		uxth	r3, r3
 805              	.LVL46:
 806 006a 00E0     		b	.L50
 807              	.LVL47:
 808              	.L53:
 809              	.LBE2:
 810 006c 0023     		movs	r3, #0
 811              	.L50:
 812              	.LVL48:
 813              	.LBB3:
1364:Generated_Source\PSoC4/USBFS_1.c ****             {
 814              		.loc 1 1364 0 is_stmt 0 discriminator 1
 815 006e 9A42     		cmp	r2, r3
 816 0070 F3D8     		bhi	.L52
 817              	.LVL49:
 818              	.L51:
 819              	.LBE3:
1367:Generated_Source\PSoC4/USBFS_1.c ****             }
1368:Generated_Source\PSoC4/USBFS_1.c ****         }
1369:Generated_Source\PSoC4/USBFS_1.c **** 
1370:Generated_Source\PSoC4/USBFS_1.c ****         /* IN endpoint buffer is full - read to be read. */
1371:Generated_Source\PSoC4/USBFS_1.c ****         USBFS_1_EP[epNumber].apiEpState = USBFS_1_NO_EVENT_PENDING;
 820              		.loc 1 1371 0 is_stmt 1
 821 0072 4200     		lsls	r2, r0, #1
 822              	.LVL50:
 823 0074 1218     		adds	r2, r2, r0
 824 0076 9300     		lsls	r3, r2, #2
 825 0078 054A     		ldr	r2, .L54
 826 007a D318     		adds	r3, r2, r3
 827 007c 0022     		movs	r2, #0
 828 007e 5A70     		strb	r2, [r3, #1]
1372:Generated_Source\PSoC4/USBFS_1.c **** 
1373:Generated_Source\PSoC4/USBFS_1.c ****         /* Arm IN endpoint. */
1374:Generated_Source\PSoC4/USBFS_1.c ****         USBFS_1_SIE_EP_BASE.sieEp[epNumber].epCr0 = USBFS_1_EP[epNumber].epMode;
 829              		.loc 1 1374 0
 830 0080 5B79     		ldrb	r3, [r3, #5]
 831 0082 DBB2     		uxtb	r3, r3
 832 0084 8001     		lsls	r0, r0, #6
 833              	.LVL51:
 834 0086 034A     		ldr	r2, .L54+4
 835 0088 9446     		mov	ip, r2
 836 008a 6044     		add	r0, r0, ip
 837 008c 8360     		str	r3, [r0, #8]
 838              	.L47:
1375:Generated_Source\PSoC4/USBFS_1.c **** 
ARM GAS  C:\Users\psmus\AppData\Local\Temp\ccX8E8QF.s 			page 40


1376:Generated_Source\PSoC4/USBFS_1.c ****     #else
1377:Generated_Source\PSoC4/USBFS_1.c **** 
1378:Generated_Source\PSoC4/USBFS_1.c ****         #if (CY_PSOC3 || CY_PSOC5LP)
1379:Generated_Source\PSoC4/USBFS_1.c ****             /* Initialize DMA if it was not initialized. */
1380:Generated_Source\PSoC4/USBFS_1.c ****             if (DMA_INVALID_TD == USBFS_1_DmaTd[epNumber])
1381:Generated_Source\PSoC4/USBFS_1.c ****             {
1382:Generated_Source\PSoC4/USBFS_1.c ****                 USBFS_1_InitEP_DMA(epNumber, pData);
1383:Generated_Source\PSoC4/USBFS_1.c ****             }
1384:Generated_Source\PSoC4/USBFS_1.c ****         #endif /* (CY_PSOC3 || CY_PSOC5LP) */
1385:Generated_Source\PSoC4/USBFS_1.c **** 
1386:Generated_Source\PSoC4/USBFS_1.c ****         #if (USBFS_1_EP_MANAGEMENT_DMA_MANUAL)
1387:Generated_Source\PSoC4/USBFS_1.c ****             /* IN endpoint buffer will be fully loaded by DMA shortly. */
1388:Generated_Source\PSoC4/USBFS_1.c ****             USBFS_1_EP[epNumber].apiEpState = USBFS_1_NO_EVENT_PENDING;
1389:Generated_Source\PSoC4/USBFS_1.c **** 
1390:Generated_Source\PSoC4/USBFS_1.c ****             if ((pData != NULL) && (length > 0u))
1391:Generated_Source\PSoC4/USBFS_1.c ****             {
1392:Generated_Source\PSoC4/USBFS_1.c ****             #if (CY_PSOC4)
1393:Generated_Source\PSoC4/USBFS_1.c ****                 uint32 channelNum = (uint32) USBFS_1_DmaChan[epNumber];
1394:Generated_Source\PSoC4/USBFS_1.c **** 
1395:Generated_Source\PSoC4/USBFS_1.c ****                 /* Disable DMA channel: start configuration. */
1396:Generated_Source\PSoC4/USBFS_1.c ****                 USBFS_1_CyDmaChDisable(channelNum);
1397:Generated_Source\PSoC4/USBFS_1.c **** 
1398:Generated_Source\PSoC4/USBFS_1.c ****                 /* Configure source and destination. */
1399:Generated_Source\PSoC4/USBFS_1.c ****                 USBFS_1_CyDmaSetSrcAddress(channelNum, USBFS_1_DMA_DESCR0, (void*) pData);
1400:Generated_Source\PSoC4/USBFS_1.c ****                 USBFS_1_CyDmaSetDstAddress(channelNum, USBFS_1_DMA_DESCR0, (void*) &USBFS_1_ARB_EP_
1401:Generated_Source\PSoC4/USBFS_1.c **** 
1402:Generated_Source\PSoC4/USBFS_1.c ****                 /* Configure DMA descriptor. */
1403:Generated_Source\PSoC4/USBFS_1.c ****                 --length;
1404:Generated_Source\PSoC4/USBFS_1.c ****                 USBFS_1_CyDmaSetConfiguration(channelNum, USBFS_1_DMA_DESCR0, USBFS_1_DMA_COMMON_CF
1405:Generated_Source\PSoC4/USBFS_1.c ****                                                         CYDMA_BYTE | CYDMA_ELEMENT_WORD | CYDMA_INC
1406:Generated_Source\PSoC4/USBFS_1.c **** 
1407:Generated_Source\PSoC4/USBFS_1.c ****                 /* Validate descriptor to execute on following DMA request. */
1408:Generated_Source\PSoC4/USBFS_1.c ****                 USBFS_1_CyDmaValidateDescriptor(channelNum, USBFS_1_DMA_DESCR0);
1409:Generated_Source\PSoC4/USBFS_1.c **** 
1410:Generated_Source\PSoC4/USBFS_1.c ****                 /* Enable DMA channel: configuration complete. */
1411:Generated_Source\PSoC4/USBFS_1.c ****                 USBFS_1_CyDmaChEnable(channelNum);
1412:Generated_Source\PSoC4/USBFS_1.c ****             #else
1413:Generated_Source\PSoC4/USBFS_1.c ****                 /* Configure DMA to transfer data. */
1414:Generated_Source\PSoC4/USBFS_1.c ****                 (void) CyDmaChDisable(USBFS_1_DmaChan[epNumber]);
1415:Generated_Source\PSoC4/USBFS_1.c ****                 (void) CyDmaTdSetConfiguration(USBFS_1_DmaTd[epNumber], length, CY_DMA_DISABLE_TD, 
1416:Generated_Source\PSoC4/USBFS_1.c ****                 (void) CyDmaTdSetAddress(USBFS_1_DmaTd[epNumber], LO16((uint32) pData), LO16((uint3
1417:Generated_Source\PSoC4/USBFS_1.c **** 
1418:Generated_Source\PSoC4/USBFS_1.c ****                 /* Enable DMA channel. */
1419:Generated_Source\PSoC4/USBFS_1.c ****                 (void) CyDmaChSetInitialTd(USBFS_1_DmaChan[epNumber], USBFS_1_DmaTd[epNumber]);
1420:Generated_Source\PSoC4/USBFS_1.c ****                 (void) CyDmaChEnable(USBFS_1_DmaChan[epNumber], 1u);
1421:Generated_Source\PSoC4/USBFS_1.c ****             #endif /* (CY_PSOC4) */
1422:Generated_Source\PSoC4/USBFS_1.c **** 
1423:Generated_Source\PSoC4/USBFS_1.c ****                 /* Generate DMA request. */
1424:Generated_Source\PSoC4/USBFS_1.c ****                 USBFS_1_ARB_EP_BASE.arbEp[epNumber].epCfg |=  (uint32)  USBFS_1_ARB_EPX_CFG_DMA_REQ
1425:Generated_Source\PSoC4/USBFS_1.c ****                 USBFS_1_ARB_EP_BASE.arbEp[epNumber].epCfg &=  (uint32) ~USBFS_1_ARB_EPX_CFG_DMA_REQ
1426:Generated_Source\PSoC4/USBFS_1.c **** 
1427:Generated_Source\PSoC4/USBFS_1.c ****                 /* IN endpoint will be armed in ARB_ISR(source: IN_BUF_FULL) after first DMA transf
1428:Generated_Source\PSoC4/USBFS_1.c ****             }
1429:Generated_Source\PSoC4/USBFS_1.c ****             else
1430:Generated_Source\PSoC4/USBFS_1.c ****             {
1431:Generated_Source\PSoC4/USBFS_1.c ****                 /* When zero-length packet: arm IN endpoint directly. */
1432:Generated_Source\PSoC4/USBFS_1.c ****                 USBFS_1_SIE_EP_BASE.sieEp[epNumber].epCr0 = USBFS_1_EP[epNumber].epMode;
ARM GAS  C:\Users\psmus\AppData\Local\Temp\ccX8E8QF.s 			page 41


1433:Generated_Source\PSoC4/USBFS_1.c ****             }
1434:Generated_Source\PSoC4/USBFS_1.c ****         #endif /* (USBFS_1_EP_MANAGEMENT_DMA_MANUAL) */
1435:Generated_Source\PSoC4/USBFS_1.c **** 
1436:Generated_Source\PSoC4/USBFS_1.c ****         #if (USBFS_1_EP_MANAGEMENT_DMA_AUTO)
1437:Generated_Source\PSoC4/USBFS_1.c ****             if (pData != NULL)
1438:Generated_Source\PSoC4/USBFS_1.c ****             {
1439:Generated_Source\PSoC4/USBFS_1.c ****             #if (CY_PSOC4)
1440:Generated_Source\PSoC4/USBFS_1.c ****                 uint32 channelNum = (uint32) USBFS_1_DmaChan[epNumber];
1441:Generated_Source\PSoC4/USBFS_1.c **** 
1442:Generated_Source\PSoC4/USBFS_1.c ****                 /* Store address of buffer. */
1443:Generated_Source\PSoC4/USBFS_1.c ****                 USBFS_1_DmaEpBufferAddrBackup[epNumber] = (uint32) pData;
1444:Generated_Source\PSoC4/USBFS_1.c **** 
1445:Generated_Source\PSoC4/USBFS_1.c ****                 /* Disable DMA channel: start configuration. */
1446:Generated_Source\PSoC4/USBFS_1.c ****                 USBFS_1_CyDmaChDisable(channelNum);
1447:Generated_Source\PSoC4/USBFS_1.c **** 
1448:Generated_Source\PSoC4/USBFS_1.c ****                 /* Set destination address. */
1449:Generated_Source\PSoC4/USBFS_1.c ****                 USBFS_1_CyDmaSetDstAddress(channelNum, USBFS_1_DMA_DESCR0, (void*) &USBFS_1_ARB_EP_
1450:Generated_Source\PSoC4/USBFS_1.c ****                 USBFS_1_CyDmaSetDstAddress(channelNum, USBFS_1_DMA_DESCR1, (void*) &USBFS_1_ARB_EP_
1451:Generated_Source\PSoC4/USBFS_1.c **** 
1452:Generated_Source\PSoC4/USBFS_1.c ****                 /* Configure DMA descriptor. */
1453:Generated_Source\PSoC4/USBFS_1.c ****                 USBFS_1_CyDmaSetConfiguration(channelNum, USBFS_1_DMA_DESCR0, USBFS_1_DMA_COMMON_CF
1454:Generated_Source\PSoC4/USBFS_1.c ****                                                         CYDMA_BYTE | CYDMA_ELEMENT_WORD | CYDMA_INC
1455:Generated_Source\PSoC4/USBFS_1.c **** 
1456:Generated_Source\PSoC4/USBFS_1.c ****                 /* Configure DMA descriptor. */
1457:Generated_Source\PSoC4/USBFS_1.c ****                 USBFS_1_CyDmaSetConfiguration(channelNum, USBFS_1_DMA_DESCR1, USBFS_1_DMA_COMMON_CF
1458:Generated_Source\PSoC4/USBFS_1.c ****                                                         CYDMA_BYTE | CYDMA_ELEMENT_WORD | CYDMA_INC
1459:Generated_Source\PSoC4/USBFS_1.c **** 
1460:Generated_Source\PSoC4/USBFS_1.c ****                 /* Enable interrupt from DMA channel. */
1461:Generated_Source\PSoC4/USBFS_1.c ****                 USBFS_1_CyDmaSetInterruptMask(channelNum);
1462:Generated_Source\PSoC4/USBFS_1.c **** 
1463:Generated_Source\PSoC4/USBFS_1.c **** 
1464:Generated_Source\PSoC4/USBFS_1.c ****                 /* Enable DMA channel: configuration complete. */
1465:Generated_Source\PSoC4/USBFS_1.c ****                 USBFS_1_CyDmaChEnable(channelNum);
1466:Generated_Source\PSoC4/USBFS_1.c **** 
1467:Generated_Source\PSoC4/USBFS_1.c ****             #else
1468:Generated_Source\PSoC4/USBFS_1.c ****                 (void) CyDmaChDisable(USBFS_1_DmaChan[epNumber]);
1469:Generated_Source\PSoC4/USBFS_1.c **** 
1470:Generated_Source\PSoC4/USBFS_1.c ****                 #if (USBFS_1_EP_DMA_AUTO_OPT == 0u)
1471:Generated_Source\PSoC4/USBFS_1.c ****                     USBFS_1_inLength[epNumber] = length;
1472:Generated_Source\PSoC4/USBFS_1.c ****                     USBFS_1_inDataPointer[epNumber] = pData;
1473:Generated_Source\PSoC4/USBFS_1.c **** 
1474:Generated_Source\PSoC4/USBFS_1.c ****                     /* Configure DMA to send data only for first burst */
1475:Generated_Source\PSoC4/USBFS_1.c ****                     (void) CyDmaTdSetConfiguration(USBFS_1_DmaTd[epNumber],
1476:Generated_Source\PSoC4/USBFS_1.c ****                         (length > USBFS_1_DMA_BYTES_PER_BURST) ? USBFS_1_DMA_BYTES_PER_BURST : leng
1477:Generated_Source\PSoC4/USBFS_1.c ****                         USBFS_1_DmaNextTd[epNumber], TD_TERMIN_EN | TD_INC_SRC_ADR);
1478:Generated_Source\PSoC4/USBFS_1.c ****                     (void) CyDmaTdSetAddress(USBFS_1_DmaTd[epNumber], LO16((uint32) pData),
1479:Generated_Source\PSoC4/USBFS_1.c ****                                                                                LO16((uint32) &USBFS
1480:Generated_Source\PSoC4/USBFS_1.c **** 
1481:Generated_Source\PSoC4/USBFS_1.c ****                     /* The second TD will be executed only when the first one fails.
1482:Generated_Source\PSoC4/USBFS_1.c ****                     *  The intention of this TD is to generate NRQ interrupt
1483:Generated_Source\PSoC4/USBFS_1.c ****                     *  and repeat 2 last bytes of the first burst.
1484:Generated_Source\PSoC4/USBFS_1.c ****                     */
1485:Generated_Source\PSoC4/USBFS_1.c ****                     (void) CyDmaTdSetConfiguration(USBFS_1_DmaNextTd[epNumber], 1u,
1486:Generated_Source\PSoC4/USBFS_1.c ****                                                    USBFS_1_DmaNextTd[epNumber],
1487:Generated_Source\PSoC4/USBFS_1.c ****                                                    USBFS_1_epX_TD_TERMOUT_EN[epNumber]);
1488:Generated_Source\PSoC4/USBFS_1.c **** 
1489:Generated_Source\PSoC4/USBFS_1.c ****                     /* Configure DmaNextTd to clear Data Ready status. */
ARM GAS  C:\Users\psmus\AppData\Local\Temp\ccX8E8QF.s 			page 42


1490:Generated_Source\PSoC4/USBFS_1.c ****                     (void) CyDmaTdSetAddress(USBFS_1_DmaNextTd[epNumber], LO16((uint32) &clearInDat
1491:Generated_Source\PSoC4/USBFS_1.c ****                                                                                    LO16((uint32) &U
1492:Generated_Source\PSoC4/USBFS_1.c ****                 #else
1493:Generated_Source\PSoC4/USBFS_1.c ****                     /* Configure DMA to send all data. */
1494:Generated_Source\PSoC4/USBFS_1.c ****                     (void) CyDmaTdSetConfiguration(USBFS_1_DmaTd[epNumber], length,
1495:Generated_Source\PSoC4/USBFS_1.c ****                                                    USBFS_1_DmaTd[epNumber], TD_TERMIN_EN | TD_INC_S
1496:Generated_Source\PSoC4/USBFS_1.c ****                     (void) CyDmaTdSetAddress(USBFS_1_DmaTd[epNumber], LO16((uint32) pData),
1497:Generated_Source\PSoC4/USBFS_1.c ****                                                                                LO16((uint32) &USBFS
1498:Generated_Source\PSoC4/USBFS_1.c ****                 #endif /* (USBFS_1_EP_DMA_AUTO_OPT == 0u) */
1499:Generated_Source\PSoC4/USBFS_1.c **** 
1500:Generated_Source\PSoC4/USBFS_1.c ****                 /* Clear any potential pending DMA requests before starting DMA channel to transfer
1501:Generated_Source\PSoC4/USBFS_1.c ****                 (void) CyDmaClearPendingDrq(USBFS_1_DmaChan[epNumber]);
1502:Generated_Source\PSoC4/USBFS_1.c ****                 /* Enable DMA. */
1503:Generated_Source\PSoC4/USBFS_1.c ****                 (void) CyDmaChSetInitialTd(USBFS_1_DmaChan[epNumber], USBFS_1_DmaTd[epNumber]);
1504:Generated_Source\PSoC4/USBFS_1.c ****                 (void) CyDmaChEnable(USBFS_1_DmaChan[epNumber], 1u);
1505:Generated_Source\PSoC4/USBFS_1.c ****             #endif /* (CY_PSOC4) */
1506:Generated_Source\PSoC4/USBFS_1.c ****             }
1507:Generated_Source\PSoC4/USBFS_1.c ****             else
1508:Generated_Source\PSoC4/USBFS_1.c ****             {
1509:Generated_Source\PSoC4/USBFS_1.c ****                 /* IN endpoint buffer (32 bytes) will shortly be preloaded by DMA. */
1510:Generated_Source\PSoC4/USBFS_1.c ****                 USBFS_1_EP[epNumber].apiEpState = USBFS_1_NO_EVENT_PENDING;
1511:Generated_Source\PSoC4/USBFS_1.c **** 
1512:Generated_Source\PSoC4/USBFS_1.c ****                 if (length > 0u)
1513:Generated_Source\PSoC4/USBFS_1.c ****                 {
1514:Generated_Source\PSoC4/USBFS_1.c ****                 #if (CY_PSOC4)
1515:Generated_Source\PSoC4/USBFS_1.c ****                     uint32 lengthDescr0, lengthDescr1;
1516:Generated_Source\PSoC4/USBFS_1.c ****                     uint32 channelNum = (uint32) USBFS_1_DmaChan[epNumber];
1517:Generated_Source\PSoC4/USBFS_1.c **** 
1518:Generated_Source\PSoC4/USBFS_1.c ****                     /* Get number of full bursts. */
1519:Generated_Source\PSoC4/USBFS_1.c ****                     USBFS_1_DmaEpBurstCnt[epNumber] = (uint8) (length / USBFS_1_DMA_BYTES_PER_BURST
1520:Generated_Source\PSoC4/USBFS_1.c **** 
1521:Generated_Source\PSoC4/USBFS_1.c ****                     /* Get number of elements in the last burst. */
1522:Generated_Source\PSoC4/USBFS_1.c ****                     USBFS_1_DmaEpLastBurstEl[epNumber] = (uint8) (length % USBFS_1_DMA_BYTES_PER_BU
1523:Generated_Source\PSoC4/USBFS_1.c **** 
1524:Generated_Source\PSoC4/USBFS_1.c ****                     /* Get total number of bursts. */
1525:Generated_Source\PSoC4/USBFS_1.c ****                     USBFS_1_DmaEpBurstCnt[epNumber] += (0u != USBFS_1_DmaEpLastBurstEl[epNumber]) ?
1526:Generated_Source\PSoC4/USBFS_1.c **** 
1527:Generated_Source\PSoC4/USBFS_1.c ****                     /* Adjust number of data elements transferred in last burst. */
1528:Generated_Source\PSoC4/USBFS_1.c ****                     USBFS_1_DmaEpLastBurstEl[epNumber] = (0u != USBFS_1_DmaEpLastBurstEl[epNumber])
1529:Generated_Source\PSoC4/USBFS_1.c ****                                                                           (USBFS_1_DmaEpLastBurstEl
1530:Generated_Source\PSoC4/USBFS_1.c ****                                                                           (USBFS_1_DMA_BYTES_PER_BU
1531:Generated_Source\PSoC4/USBFS_1.c **** 
1532:Generated_Source\PSoC4/USBFS_1.c ****                     /* Get number of data elements to transfer for descriptor 0 and 1. */
1533:Generated_Source\PSoC4/USBFS_1.c ****                     lengthDescr0 = (1u == USBFS_1_DmaEpBurstCnt[epNumber]) ? USBFS_1_DmaEpLastBurst
1534:Generated_Source\PSoC4/USBFS_1.c ****                     lengthDescr1 = (2u == USBFS_1_DmaEpBurstCnt[epNumber]) ? USBFS_1_DmaEpLastBurst
1535:Generated_Source\PSoC4/USBFS_1.c **** 
1536:Generated_Source\PSoC4/USBFS_1.c **** 
1537:Generated_Source\PSoC4/USBFS_1.c ****                     /* Mark which descriptor is last one to execute. */
1538:Generated_Source\PSoC4/USBFS_1.c ****                     USBFS_1_DmaEpLastBurstEl[epNumber] |= (0u != (USBFS_1_DmaEpBurstCnt[epNumber] &
1539:Generated_Source\PSoC4/USBFS_1.c ****                                                                             USBFS_1_DMA_DESCR0_MASK
1540:Generated_Source\PSoC4/USBFS_1.c **** 
1541:Generated_Source\PSoC4/USBFS_1.c ****                     /* Restore DMA settings for current transfer. */
1542:Generated_Source\PSoC4/USBFS_1.c ****                     USBFS_1_CyDmaChDisable(channelNum);
1543:Generated_Source\PSoC4/USBFS_1.c **** 
1544:Generated_Source\PSoC4/USBFS_1.c ****                     /* Restore destination address for input endpoint. */
1545:Generated_Source\PSoC4/USBFS_1.c ****                     USBFS_1_CyDmaSetSrcAddress(channelNum, USBFS_1_DMA_DESCR0, (void*) ((uint32) US
1546:Generated_Source\PSoC4/USBFS_1.c ****                     USBFS_1_CyDmaSetSrcAddress(channelNum, USBFS_1_DMA_DESCR1, (void*) ((uint32) US
ARM GAS  C:\Users\psmus\AppData\Local\Temp\ccX8E8QF.s 			page 43


1547:Generated_Source\PSoC4/USBFS_1.c ****                                                                                                    
1548:Generated_Source\PSoC4/USBFS_1.c **** 
1549:Generated_Source\PSoC4/USBFS_1.c ****                     /* Set number of elements to transfer. */
1550:Generated_Source\PSoC4/USBFS_1.c ****                     USBFS_1_CyDmaSetNumDataElements(channelNum, USBFS_1_DMA_DESCR0, lengthDescr0);
1551:Generated_Source\PSoC4/USBFS_1.c ****                     USBFS_1_CyDmaSetNumDataElements(channelNum, USBFS_1_DMA_DESCR1, lengthDescr1);
1552:Generated_Source\PSoC4/USBFS_1.c **** 
1553:Generated_Source\PSoC4/USBFS_1.c ****                     /* Validate descriptor 0 and command to start with it. */
1554:Generated_Source\PSoC4/USBFS_1.c ****                     USBFS_1_CyDmaValidateDescriptor(channelNum, USBFS_1_DMA_DESCR0);
1555:Generated_Source\PSoC4/USBFS_1.c ****                     USBFS_1_CyDmaSetDescriptor0Next(channelNum);
1556:Generated_Source\PSoC4/USBFS_1.c **** 
1557:Generated_Source\PSoC4/USBFS_1.c ****                     /* Validate descriptor 1. */
1558:Generated_Source\PSoC4/USBFS_1.c ****                     if (USBFS_1_DmaEpBurstCnt[epNumber] > 1u)
1559:Generated_Source\PSoC4/USBFS_1.c ****                     {
1560:Generated_Source\PSoC4/USBFS_1.c ****                         USBFS_1_CyDmaValidateDescriptor(channelNum, USBFS_1_DMA_DESCR1); 
1561:Generated_Source\PSoC4/USBFS_1.c ****                     }                   
1562:Generated_Source\PSoC4/USBFS_1.c **** 
1563:Generated_Source\PSoC4/USBFS_1.c ****                     /* Adjust burst counter taking to account: 2 valid descriptors and interrupt tr
1564:Generated_Source\PSoC4/USBFS_1.c ****                     USBFS_1_DmaEpBurstCnt[epNumber] = USBFS_1_DMA_GET_BURST_CNT(USBFS_1_DmaEpBurstC
1565:Generated_Source\PSoC4/USBFS_1.c **** 
1566:Generated_Source\PSoC4/USBFS_1.c ****                     /* Enable DMA channel: configuration complete. */
1567:Generated_Source\PSoC4/USBFS_1.c ****                     USBFS_1_CyDmaChEnable(channelNum);
1568:Generated_Source\PSoC4/USBFS_1.c **** 
1569:Generated_Source\PSoC4/USBFS_1.c ****                 #elif (USBFS_1_EP_DMA_AUTO_OPT == 0u)
1570:Generated_Source\PSoC4/USBFS_1.c ****                     USBFS_1_inLength[epNumber]  = length;
1571:Generated_Source\PSoC4/USBFS_1.c ****                     USBFS_1_inBufFull[epNumber] = 0u;
1572:Generated_Source\PSoC4/USBFS_1.c **** 
1573:Generated_Source\PSoC4/USBFS_1.c ****                     (void) CyDmaChDisable(USBFS_1_DmaChan[epNumber]);
1574:Generated_Source\PSoC4/USBFS_1.c ****                     /* Configure DMA to send data only for first burst. */
1575:Generated_Source\PSoC4/USBFS_1.c ****                     (void) CyDmaTdSetConfiguration(
1576:Generated_Source\PSoC4/USBFS_1.c ****                         USBFS_1_DmaTd[epNumber], (length > USBFS_1_DMA_BYTES_PER_BURST) ?
1577:Generated_Source\PSoC4/USBFS_1.c ****                         USBFS_1_DMA_BYTES_PER_BURST : length,
1578:Generated_Source\PSoC4/USBFS_1.c ****                         USBFS_1_DmaNextTd[epNumber], TD_TERMIN_EN | TD_INC_SRC_ADR );
1579:Generated_Source\PSoC4/USBFS_1.c ****                     (void) CyDmaTdSetAddress(USBFS_1_DmaTd[epNumber], LO16((uint32)  USBFS_1_inData
1580:Generated_Source\PSoC4/USBFS_1.c ****                                                                                LO16((uint32) &USBFS
1581:Generated_Source\PSoC4/USBFS_1.c ****                     /* Clear Any potential pending DMA requests before starting DMA channel to tran
1582:Generated_Source\PSoC4/USBFS_1.c ****                     (void) CyDmaClearPendingDrq(USBFS_1_DmaChan[epNumber]);
1583:Generated_Source\PSoC4/USBFS_1.c ****                     /* Enable DMA. */
1584:Generated_Source\PSoC4/USBFS_1.c ****                     (void) CyDmaChSetInitialTd(USBFS_1_DmaChan[epNumber], USBFS_1_DmaTd[epNumber]);
1585:Generated_Source\PSoC4/USBFS_1.c ****                     (void) CyDmaChEnable(USBFS_1_DmaChan[epNumber], 1u);
1586:Generated_Source\PSoC4/USBFS_1.c ****                 #endif /* (CY_PSOC4) */
1587:Generated_Source\PSoC4/USBFS_1.c **** 
1588:Generated_Source\PSoC4/USBFS_1.c ****                 #if !defined (USBFS_1_MANUAL_IN_EP_ARM)
1589:Generated_Source\PSoC4/USBFS_1.c ****                     /* Set IN data ready to generate DMA request to load data into endpoint buffer.
1590:Generated_Source\PSoC4/USBFS_1.c ****                     USBFS_1_ARB_EP_BASE.arbEp[epNumber].epCfg |= USBFS_1_ARB_EPX_CFG_IN_DATA_RDY;
1591:Generated_Source\PSoC4/USBFS_1.c ****                 #endif  /* (USBFS_1_MANUAL_IN_EP_ARM) */
1592:Generated_Source\PSoC4/USBFS_1.c **** 
1593:Generated_Source\PSoC4/USBFS_1.c ****                     /* IN endpoint will be armed in ARB_ISR(source: IN_BUF_FULL) after first DMA tr
1594:Generated_Source\PSoC4/USBFS_1.c ****                 }
1595:Generated_Source\PSoC4/USBFS_1.c ****                 else
1596:Generated_Source\PSoC4/USBFS_1.c ****                 {
1597:Generated_Source\PSoC4/USBFS_1.c ****                     /* When zero-length packet: arm IN endpoint directly. */
1598:Generated_Source\PSoC4/USBFS_1.c ****                     USBFS_1_SIE_EP_BASE.sieEp[epNumber].epCr0 = USBFS_1_EP[epNumber].epMode;
1599:Generated_Source\PSoC4/USBFS_1.c ****                 }
1600:Generated_Source\PSoC4/USBFS_1.c ****             }
1601:Generated_Source\PSoC4/USBFS_1.c ****         #endif /* (USBFS_1_EP_MANAGEMENT_DMA_AUTO) */
1602:Generated_Source\PSoC4/USBFS_1.c ****     #endif /* (USBFS_1_EP_MANAGEMENT_MANUAL) */
1603:Generated_Source\PSoC4/USBFS_1.c ****     }
ARM GAS  C:\Users\psmus\AppData\Local\Temp\ccX8E8QF.s 			page 44


1604:Generated_Source\PSoC4/USBFS_1.c **** }
 839              		.loc 1 1604 0
 840              		@ sp needed
 841 008e F0BD     		pop	{r4, r5, r6, r7, pc}
 842              	.L55:
 843              		.align	2
 844              	.L54:
 845 0090 00000000 		.word	USBFS_1_EP
 846 0094 F0FF2B40 		.word	1076625392
 847 0098 C0012C40 		.word	1076625856
 848              		.cfi_endproc
 849              	.LFE12:
 850              		.size	USBFS_1_LoadInEP, .-USBFS_1_LoadInEP
 851              		.section	.text.USBFS_1_EnableOutEP,"ax",%progbits
 852              		.align	2
 853              		.global	USBFS_1_EnableOutEP
 854              		.code	16
 855              		.thumb_func
 856              		.type	USBFS_1_EnableOutEP, %function
 857              	USBFS_1_EnableOutEP:
 858              	.LFB14:
1605:Generated_Source\PSoC4/USBFS_1.c **** 
1606:Generated_Source\PSoC4/USBFS_1.c **** 
1607:Generated_Source\PSoC4/USBFS_1.c **** /*******************************************************************************
1608:Generated_Source\PSoC4/USBFS_1.c **** * Function Name: USBFS_1_ReadOutEP
1609:Generated_Source\PSoC4/USBFS_1.c **** ****************************************************************************//**
1610:Generated_Source\PSoC4/USBFS_1.c **** *
1611:Generated_Source\PSoC4/USBFS_1.c **** *   This function performs different functionality depending on the Component’s
1612:Generated_Source\PSoC4/USBFS_1.c **** *   configured Endpoint Buffer Management. This parameter is defined in the
1613:Generated_Source\PSoC4/USBFS_1.c **** *   Descriptor Root in Component Configure window.
1614:Generated_Source\PSoC4/USBFS_1.c **** *
1615:Generated_Source\PSoC4/USBFS_1.c **** *   *Manual (Static/Dynamic Allocation):*
1616:Generated_Source\PSoC4/USBFS_1.c **** *   This function moves the specified number of bytes from endpoint buffer to
1617:Generated_Source\PSoC4/USBFS_1.c **** *   system RAM. The number of bytes actually transferred from endpoint buffer to
1618:Generated_Source\PSoC4/USBFS_1.c **** *   system RAM is the lesser of the actual number of bytes sent by the host or
1619:Generated_Source\PSoC4/USBFS_1.c **** *   the number of bytes requested by the length parameter.
1620:Generated_Source\PSoC4/USBFS_1.c **** *
1621:Generated_Source\PSoC4/USBFS_1.c **** *   *DMA with Manual Buffer Management:*
1622:Generated_Source\PSoC4/USBFS_1.c **** *   Configure DMA to transfer data from endpoint buffer to system RAM. Generate
1623:Generated_Source\PSoC4/USBFS_1.c **** *   a DMA request. The firmware must wait until the DMA completes the data
1624:Generated_Source\PSoC4/USBFS_1.c **** *   transfer after calling the USBFS_1_ReadOutEP() API. For example,
1625:Generated_Source\PSoC4/USBFS_1.c **** *   by checking EPstate:
1626:Generated_Source\PSoC4/USBFS_1.c **** *
1627:Generated_Source\PSoC4/USBFS_1.c **** *   \snippet /USBFS_sut_02.cydsn/main.c checking EPstatey
1628:Generated_Source\PSoC4/USBFS_1.c **** *
1629:Generated_Source\PSoC4/USBFS_1.c **** *   The USBFS_EnableOutEP() has to be called to allow host to write data into
1630:Generated_Source\PSoC4/USBFS_1.c **** *   the endpoint buffer after DMA has completed transfer data from OUT endpoint
1631:Generated_Source\PSoC4/USBFS_1.c **** *   buffer to SRAM.
1632:Generated_Source\PSoC4/USBFS_1.c **** *
1633:Generated_Source\PSoC4/USBFS_1.c **** *   *DMA with Automatic Buffer Management:*
1634:Generated_Source\PSoC4/USBFS_1.c **** *   Configure DMA. This is required only once and automatically generates DMA
1635:Generated_Source\PSoC4/USBFS_1.c **** *   requests as data arrives
1636:Generated_Source\PSoC4/USBFS_1.c **** *
1637:Generated_Source\PSoC4/USBFS_1.c **** *  \param epNumber: Contains the data endpoint number.
1638:Generated_Source\PSoC4/USBFS_1.c **** *            Valid values are between 1 and 8.
1639:Generated_Source\PSoC4/USBFS_1.c **** *  \param pData: A pointer to a data array from which the data for the endpoint
1640:Generated_Source\PSoC4/USBFS_1.c **** *         space is loaded.
ARM GAS  C:\Users\psmus\AppData\Local\Temp\ccX8E8QF.s 			page 45


1641:Generated_Source\PSoC4/USBFS_1.c **** *  \param length: The number of bytes to transfer from the USB Out endpoint and
1642:Generated_Source\PSoC4/USBFS_1.c **** *          loads it into data array. Valid values are between 0 and 1023. The
1643:Generated_Source\PSoC4/USBFS_1.c **** *          function moves fewer than the requested number of bytes if the host
1644:Generated_Source\PSoC4/USBFS_1.c **** *          sends fewer bytes than requested.
1645:Generated_Source\PSoC4/USBFS_1.c **** *
1646:Generated_Source\PSoC4/USBFS_1.c **** * \return
1647:Generated_Source\PSoC4/USBFS_1.c **** *  Number of bytes received, 0 for an invalid endpoint.
1648:Generated_Source\PSoC4/USBFS_1.c **** *
1649:Generated_Source\PSoC4/USBFS_1.c **** * \reentrant
1650:Generated_Source\PSoC4/USBFS_1.c **** *  No.
1651:Generated_Source\PSoC4/USBFS_1.c **** *
1652:Generated_Source\PSoC4/USBFS_1.c **** *******************************************************************************/
1653:Generated_Source\PSoC4/USBFS_1.c **** uint16 USBFS_1_ReadOutEP(uint8 epNumber, uint8 pData[], uint16 length)
1654:Generated_Source\PSoC4/USBFS_1.c ****                                                                         
1655:Generated_Source\PSoC4/USBFS_1.c **** {
1656:Generated_Source\PSoC4/USBFS_1.c ****     if ((pData != NULL) && (epNumber > USBFS_1_EP0) && (epNumber < USBFS_1_MAX_EP))
1657:Generated_Source\PSoC4/USBFS_1.c ****     {
1658:Generated_Source\PSoC4/USBFS_1.c ****     #if (!USBFS_1_EP_MANAGEMENT_DMA_AUTO)
1659:Generated_Source\PSoC4/USBFS_1.c ****         /* Adjust requested length to available data. */
1660:Generated_Source\PSoC4/USBFS_1.c ****         length = (length > USBFS_1_GetEPCount(epNumber)) ? USBFS_1_GetEPCount(epNumber) : length;
1661:Generated_Source\PSoC4/USBFS_1.c ****     #endif /* (!USBFS_1_EP_MANAGEMENT_DMA_AUTO) */
1662:Generated_Source\PSoC4/USBFS_1.c **** 
1663:Generated_Source\PSoC4/USBFS_1.c ****     #if (USBFS_1_EP_MANAGEMENT_MANUAL)
1664:Generated_Source\PSoC4/USBFS_1.c ****         {
1665:Generated_Source\PSoC4/USBFS_1.c ****             /* Copy data using arbiter data register. */
1666:Generated_Source\PSoC4/USBFS_1.c ****             uint16 i;
1667:Generated_Source\PSoC4/USBFS_1.c ****             for (i = 0u; i < length; ++i)
1668:Generated_Source\PSoC4/USBFS_1.c ****             {
1669:Generated_Source\PSoC4/USBFS_1.c ****                 pData[i] = (uint8) USBFS_1_ARB_EP_BASE.arbEp[epNumber].rwDr;
1670:Generated_Source\PSoC4/USBFS_1.c ****             }
1671:Generated_Source\PSoC4/USBFS_1.c ****         }
1672:Generated_Source\PSoC4/USBFS_1.c **** 
1673:Generated_Source\PSoC4/USBFS_1.c ****         /* Arm OUT endpoint after data has been copied from endpoint buffer. */
1674:Generated_Source\PSoC4/USBFS_1.c ****         USBFS_1_EnableOutEP(epNumber);
1675:Generated_Source\PSoC4/USBFS_1.c ****     #else
1676:Generated_Source\PSoC4/USBFS_1.c **** 
1677:Generated_Source\PSoC4/USBFS_1.c ****         #if (CY_PSOC3 || CY_PSOC5LP)
1678:Generated_Source\PSoC4/USBFS_1.c ****             /* Initialize DMA if it was not initialized. */
1679:Generated_Source\PSoC4/USBFS_1.c ****             if (DMA_INVALID_TD == USBFS_1_DmaTd[epNumber])
1680:Generated_Source\PSoC4/USBFS_1.c ****             {
1681:Generated_Source\PSoC4/USBFS_1.c ****                 USBFS_1_InitEP_DMA(epNumber, pData);
1682:Generated_Source\PSoC4/USBFS_1.c ****             }
1683:Generated_Source\PSoC4/USBFS_1.c ****         #endif /* (CY_PSOC3 || CY_PSOC5LP) */
1684:Generated_Source\PSoC4/USBFS_1.c **** 
1685:Generated_Source\PSoC4/USBFS_1.c ****         #if (USBFS_1_EP_MANAGEMENT_DMA_MANUAL)
1686:Generated_Source\PSoC4/USBFS_1.c ****         #if (CY_PSOC4)
1687:Generated_Source\PSoC4/USBFS_1.c ****         {
1688:Generated_Source\PSoC4/USBFS_1.c ****             uint32 channelNum = (uint32) USBFS_1_DmaChan[epNumber];
1689:Generated_Source\PSoC4/USBFS_1.c **** 
1690:Generated_Source\PSoC4/USBFS_1.c ****             /* Disable DMA channel: start configuration. */
1691:Generated_Source\PSoC4/USBFS_1.c ****             USBFS_1_CyDmaChDisable(channelNum);
1692:Generated_Source\PSoC4/USBFS_1.c **** 
1693:Generated_Source\PSoC4/USBFS_1.c ****             /* Configure source and destination. */
1694:Generated_Source\PSoC4/USBFS_1.c ****             USBFS_1_CyDmaSetSrcAddress(channelNum, USBFS_1_DMA_DESCR0, (void*) &USBFS_1_ARB_EP_BASE
1695:Generated_Source\PSoC4/USBFS_1.c ****             USBFS_1_CyDmaSetDstAddress(channelNum, USBFS_1_DMA_DESCR0, (void*) pData);
1696:Generated_Source\PSoC4/USBFS_1.c **** 
1697:Generated_Source\PSoC4/USBFS_1.c ****             /* Configure DMA descriptor. */
ARM GAS  C:\Users\psmus\AppData\Local\Temp\ccX8E8QF.s 			page 46


1698:Generated_Source\PSoC4/USBFS_1.c ****             USBFS_1_CyDmaSetConfiguration(channelNum, USBFS_1_DMA_DESCR0, USBFS_1_DMA_COMMON_CFG | 
1699:Generated_Source\PSoC4/USBFS_1.c ****                                                     CYDMA_BYTE | CYDMA_WORD_ELEMENT | CYDMA_INC_DST
1700:Generated_Source\PSoC4/USBFS_1.c **** 
1701:Generated_Source\PSoC4/USBFS_1.c ****             /* Validate descriptor to execute on following DMA request. */
1702:Generated_Source\PSoC4/USBFS_1.c ****             USBFS_1_CyDmaValidateDescriptor(channelNum, USBFS_1_DMA_DESCR0);
1703:Generated_Source\PSoC4/USBFS_1.c **** 
1704:Generated_Source\PSoC4/USBFS_1.c ****             /* Enable DMA channel: configuration complete. */
1705:Generated_Source\PSoC4/USBFS_1.c ****             USBFS_1_CyDmaChEnable(channelNum);
1706:Generated_Source\PSoC4/USBFS_1.c ****         }
1707:Generated_Source\PSoC4/USBFS_1.c ****         #else
1708:Generated_Source\PSoC4/USBFS_1.c ****             /* Configure DMA to transfer data. */
1709:Generated_Source\PSoC4/USBFS_1.c ****             (void) CyDmaChDisable(USBFS_1_DmaChan[epNumber]);
1710:Generated_Source\PSoC4/USBFS_1.c ****             (void) CyDmaTdSetConfiguration(USBFS_1_DmaTd[epNumber], length, CY_DMA_DISABLE_TD, TD_T
1711:Generated_Source\PSoC4/USBFS_1.c ****             (void) CyDmaTdSetAddress(USBFS_1_DmaTd[epNumber], LO16((uint32) &USBFS_1_ARB_EP_BASE.ar
1712:Generated_Source\PSoC4/USBFS_1.c **** 
1713:Generated_Source\PSoC4/USBFS_1.c ****             /* Enable DMA channel. */
1714:Generated_Source\PSoC4/USBFS_1.c ****             (void) CyDmaChSetInitialTd(USBFS_1_DmaChan[epNumber], USBFS_1_DmaTd[epNumber]);
1715:Generated_Source\PSoC4/USBFS_1.c ****             (void) CyDmaChEnable(USBFS_1_DmaChan[epNumber], 1u);
1716:Generated_Source\PSoC4/USBFS_1.c ****         #endif /* (CY_PSOC4) */
1717:Generated_Source\PSoC4/USBFS_1.c **** 
1718:Generated_Source\PSoC4/USBFS_1.c ****             /* Generate DMA request. */
1719:Generated_Source\PSoC4/USBFS_1.c ****             USBFS_1_ARB_EP_BASE.arbEp[epNumber].epCfg |=  (uint32)  USBFS_1_ARB_EPX_CFG_DMA_REQ;
1720:Generated_Source\PSoC4/USBFS_1.c ****             USBFS_1_ARB_EP_BASE.arbEp[epNumber].epCfg &=  (uint32) ~USBFS_1_ARB_EPX_CFG_DMA_REQ;
1721:Generated_Source\PSoC4/USBFS_1.c **** 
1722:Generated_Source\PSoC4/USBFS_1.c ****             /* OUT endpoint has to be armed again by user when DMA transfers have been completed.
1723:Generated_Source\PSoC4/USBFS_1.c ****             * NO_EVENT_PENDING: notifies that data has been copied from endpoint buffer.
1724:Generated_Source\PSoC4/USBFS_1.c ****             */
1725:Generated_Source\PSoC4/USBFS_1.c **** 
1726:Generated_Source\PSoC4/USBFS_1.c ****         #endif /* (USBFS_1_EP_MANAGEMENT_DMA_MANUAL) */
1727:Generated_Source\PSoC4/USBFS_1.c **** 
1728:Generated_Source\PSoC4/USBFS_1.c ****         #if (USBFS_1_EP_MANAGEMENT_DMA_AUTO)
1729:Generated_Source\PSoC4/USBFS_1.c ****         #if (CY_PSOC4)
1730:Generated_Source\PSoC4/USBFS_1.c ****         {
1731:Generated_Source\PSoC4/USBFS_1.c ****             uint32 channelNum = (uint32) USBFS_1_DmaChan[epNumber];
1732:Generated_Source\PSoC4/USBFS_1.c ****             uint32 lengthDescr0, lengthDescr1;
1733:Generated_Source\PSoC4/USBFS_1.c **** 
1734:Generated_Source\PSoC4/USBFS_1.c ****             /* Get number of full bursts. */
1735:Generated_Source\PSoC4/USBFS_1.c ****             USBFS_1_DmaEpBurstCnt[epNumber] = (uint8) (length / USBFS_1_DMA_BYTES_PER_BURST);
1736:Generated_Source\PSoC4/USBFS_1.c **** 
1737:Generated_Source\PSoC4/USBFS_1.c ****             /* Get number of elements in the last burst. */
1738:Generated_Source\PSoC4/USBFS_1.c ****             USBFS_1_DmaEpLastBurstEl[epNumber] = (uint8) (length % USBFS_1_DMA_BYTES_PER_BURST);
1739:Generated_Source\PSoC4/USBFS_1.c **** 
1740:Generated_Source\PSoC4/USBFS_1.c ****             /* Get total number of bursts. */
1741:Generated_Source\PSoC4/USBFS_1.c ****             USBFS_1_DmaEpBurstCnt[epNumber] += (0u != USBFS_1_DmaEpLastBurstEl[epNumber]) ? 1u : 0u
1742:Generated_Source\PSoC4/USBFS_1.c **** 
1743:Generated_Source\PSoC4/USBFS_1.c ****             /* Adjust number of the data elements transfered in last burst. */
1744:Generated_Source\PSoC4/USBFS_1.c ****             USBFS_1_DmaEpLastBurstEl[epNumber] = (0u != USBFS_1_DmaEpLastBurstEl[epNumber]) ?
1745:Generated_Source\PSoC4/USBFS_1.c ****                                                                   (USBFS_1_DmaEpLastBurstEl[epNumbe
1746:Generated_Source\PSoC4/USBFS_1.c ****                                                                   (USBFS_1_DMA_BYTES_PER_BURST - 1u
1747:Generated_Source\PSoC4/USBFS_1.c **** 
1748:Generated_Source\PSoC4/USBFS_1.c ****             /* Get number of data elements to transfer for descriptor 0 and 1. */
1749:Generated_Source\PSoC4/USBFS_1.c ****             lengthDescr0 = (1u == USBFS_1_DmaEpBurstCnt[epNumber]) ? USBFS_1_DmaEpLastBurstEl[epNum
1750:Generated_Source\PSoC4/USBFS_1.c ****             lengthDescr1 = (2u == USBFS_1_DmaEpBurstCnt[epNumber]) ? USBFS_1_DmaEpLastBurstEl[epNum
1751:Generated_Source\PSoC4/USBFS_1.c **** 
1752:Generated_Source\PSoC4/USBFS_1.c ****             /* Mark if revert number of data elements in descriptor after transfer completion. */
1753:Generated_Source\PSoC4/USBFS_1.c ****             USBFS_1_DmaEpLastBurstEl[epNumber] |= (USBFS_1_DmaEpBurstCnt[epNumber] > 2u) ? USBFS_1_
1754:Generated_Source\PSoC4/USBFS_1.c **** 
ARM GAS  C:\Users\psmus\AppData\Local\Temp\ccX8E8QF.s 			page 47


1755:Generated_Source\PSoC4/USBFS_1.c ****             /* Mark last descriptor to be executed. */
1756:Generated_Source\PSoC4/USBFS_1.c ****             USBFS_1_DmaEpLastBurstEl[epNumber] |= (0u != (USBFS_1_DmaEpBurstCnt[epNumber] & 0x1u)) 
1757:Generated_Source\PSoC4/USBFS_1.c ****                                                                     USBFS_1_DMA_DESCR0_MASK : USBFS
1758:Generated_Source\PSoC4/USBFS_1.c **** 
1759:Generated_Source\PSoC4/USBFS_1.c ****             /* Store address of buffer and burst counter for endpoint. */
1760:Generated_Source\PSoC4/USBFS_1.c ****             USBFS_1_DmaEpBufferAddrBackup[epNumber] = (uint32) pData;
1761:Generated_Source\PSoC4/USBFS_1.c ****             USBFS_1_DmaEpBurstCntBackup[epNumber]   = USBFS_1_DmaEpBurstCnt[epNumber];
1762:Generated_Source\PSoC4/USBFS_1.c **** 
1763:Generated_Source\PSoC4/USBFS_1.c ****             /* Adjust burst counter taking to account: 2 valid descriptors and interrupt trigger af
1764:Generated_Source\PSoC4/USBFS_1.c ****             USBFS_1_DmaEpBurstCnt[epNumber] = USBFS_1_DMA_GET_BURST_CNT(USBFS_1_DmaEpBurstCnt[epNum
1765:Generated_Source\PSoC4/USBFS_1.c **** 
1766:Generated_Source\PSoC4/USBFS_1.c ****             /* Disable DMA channel: start configuration. */
1767:Generated_Source\PSoC4/USBFS_1.c ****             USBFS_1_CyDmaChDisable(channelNum);
1768:Generated_Source\PSoC4/USBFS_1.c **** 
1769:Generated_Source\PSoC4/USBFS_1.c ****             /* Set destination address. */
1770:Generated_Source\PSoC4/USBFS_1.c ****             USBFS_1_CyDmaSetSrcAddress(channelNum, USBFS_1_DMA_DESCR0, (void*) &USBFS_1_ARB_EP_BASE
1771:Generated_Source\PSoC4/USBFS_1.c ****             USBFS_1_CyDmaSetSrcAddress(channelNum, USBFS_1_DMA_DESCR1, (void*) &USBFS_1_ARB_EP_BASE
1772:Generated_Source\PSoC4/USBFS_1.c **** 
1773:Generated_Source\PSoC4/USBFS_1.c ****             USBFS_1_CyDmaSetDstAddress(channelNum, USBFS_1_DMA_DESCR0, (void*) ((uint32) pData));
1774:Generated_Source\PSoC4/USBFS_1.c ****             USBFS_1_CyDmaSetDstAddress(channelNum, USBFS_1_DMA_DESCR1, (void*) ((uint32) pData + US
1775:Generated_Source\PSoC4/USBFS_1.c **** 
1776:Generated_Source\PSoC4/USBFS_1.c ****             /* Configure DMA descriptor. */
1777:Generated_Source\PSoC4/USBFS_1.c ****             USBFS_1_CyDmaSetConfiguration(channelNum, USBFS_1_DMA_DESCR0, USBFS_1_DMA_COMMON_CFG  |
1778:Generated_Source\PSoC4/USBFS_1.c ****                                                     CYDMA_BYTE | CYDMA_WORD_ELEMENT | CYDMA_INC_DST
1779:Generated_Source\PSoC4/USBFS_1.c **** 
1780:Generated_Source\PSoC4/USBFS_1.c ****             /* Configure DMA descriptor. */
1781:Generated_Source\PSoC4/USBFS_1.c ****             USBFS_1_CyDmaSetConfiguration(channelNum, USBFS_1_DMA_DESCR1, USBFS_1_DMA_COMMON_CFG  |
1782:Generated_Source\PSoC4/USBFS_1.c ****                                                     CYDMA_BYTE | CYDMA_WORD_ELEMENT | CYDMA_INC_DST
1783:Generated_Source\PSoC4/USBFS_1.c **** 
1784:Generated_Source\PSoC4/USBFS_1.c ****             /* Enable interrupt from DMA channel. */
1785:Generated_Source\PSoC4/USBFS_1.c ****             USBFS_1_CyDmaSetInterruptMask(channelNum);
1786:Generated_Source\PSoC4/USBFS_1.c **** 
1787:Generated_Source\PSoC4/USBFS_1.c ****             /* Validate DMA descriptor 0 and 1. */
1788:Generated_Source\PSoC4/USBFS_1.c ****             USBFS_1_CyDmaValidateDescriptor(channelNum, USBFS_1_DMA_DESCR0);
1789:Generated_Source\PSoC4/USBFS_1.c **** 
1790:Generated_Source\PSoC4/USBFS_1.c ****             if (USBFS_1_DmaEpBurstCntBackup[epNumber] > 1u)
1791:Generated_Source\PSoC4/USBFS_1.c ****             {
1792:Generated_Source\PSoC4/USBFS_1.c ****                 USBFS_1_CyDmaValidateDescriptor(channelNum, USBFS_1_DMA_DESCR1);
1793:Generated_Source\PSoC4/USBFS_1.c ****             }
1794:Generated_Source\PSoC4/USBFS_1.c **** 
1795:Generated_Source\PSoC4/USBFS_1.c ****             /* Enable DMA channel: configuration complete. */
1796:Generated_Source\PSoC4/USBFS_1.c ****             USBFS_1_CyDmaChEnable(channelNum);
1797:Generated_Source\PSoC4/USBFS_1.c ****         }
1798:Generated_Source\PSoC4/USBFS_1.c ****         #else
1799:Generated_Source\PSoC4/USBFS_1.c ****             (void) CyDmaChDisable(USBFS_1_DmaChan[epNumber]);
1800:Generated_Source\PSoC4/USBFS_1.c ****             (void) CyDmaTdSetConfiguration(USBFS_1_DmaTd[epNumber], length,  USBFS_1_DmaTd[epNumber
1801:Generated_Source\PSoC4/USBFS_1.c ****             (void) CyDmaTdSetAddress(USBFS_1_DmaTd[epNumber], LO16((uint32) &USBFS_1_ARB_EP_BASE.ar
1802:Generated_Source\PSoC4/USBFS_1.c **** 
1803:Generated_Source\PSoC4/USBFS_1.c ****             /* Clear Any potential pending DMA requests before starting DMA channel to transfer dat
1804:Generated_Source\PSoC4/USBFS_1.c ****             (void) CyDmaClearPendingDrq(USBFS_1_DmaChan[epNumber]);
1805:Generated_Source\PSoC4/USBFS_1.c **** 
1806:Generated_Source\PSoC4/USBFS_1.c ****             /* Enable DMA channel. */
1807:Generated_Source\PSoC4/USBFS_1.c ****             (void) CyDmaChSetInitialTd(USBFS_1_DmaChan[epNumber], USBFS_1_DmaTd[epNumber]);
1808:Generated_Source\PSoC4/USBFS_1.c ****             (void) CyDmaChEnable(USBFS_1_DmaChan[epNumber], 1u);
1809:Generated_Source\PSoC4/USBFS_1.c ****         #endif /* (CY_PSOC4) */
1810:Generated_Source\PSoC4/USBFS_1.c **** 
1811:Generated_Source\PSoC4/USBFS_1.c ****             /* OUT endpoint has to be armed again by user when DMA transfers have been completed.
ARM GAS  C:\Users\psmus\AppData\Local\Temp\ccX8E8QF.s 			page 48


1812:Generated_Source\PSoC4/USBFS_1.c ****             * NO_EVENT_PENDING: notifies that data has been copied from endpoint buffer.
1813:Generated_Source\PSoC4/USBFS_1.c ****             */
1814:Generated_Source\PSoC4/USBFS_1.c **** 
1815:Generated_Source\PSoC4/USBFS_1.c ****         #endif /* (USBFS_1_EP_MANAGEMENT_DMA_AUTO) */
1816:Generated_Source\PSoC4/USBFS_1.c ****     #endif /* (USBFS_1_EP_MANAGEMENT_MANUAL) */
1817:Generated_Source\PSoC4/USBFS_1.c ****     }
1818:Generated_Source\PSoC4/USBFS_1.c ****     else
1819:Generated_Source\PSoC4/USBFS_1.c ****     {
1820:Generated_Source\PSoC4/USBFS_1.c ****         length = 0u;
1821:Generated_Source\PSoC4/USBFS_1.c ****     }
1822:Generated_Source\PSoC4/USBFS_1.c **** 
1823:Generated_Source\PSoC4/USBFS_1.c ****     return (length);
1824:Generated_Source\PSoC4/USBFS_1.c **** }
1825:Generated_Source\PSoC4/USBFS_1.c **** 
1826:Generated_Source\PSoC4/USBFS_1.c **** 
1827:Generated_Source\PSoC4/USBFS_1.c **** #if (USBFS_1_16BITS_EP_ACCESS_ENABLE)
1828:Generated_Source\PSoC4/USBFS_1.c **** /*******************************************************************************
1829:Generated_Source\PSoC4/USBFS_1.c **** * Function Name: USBFS_1_LoadInEP16
1830:Generated_Source\PSoC4/USBFS_1.c **** ****************************************************************************//**
1831:Generated_Source\PSoC4/USBFS_1.c **** *
1832:Generated_Source\PSoC4/USBFS_1.c **** *  This function performs different functionality depending on the Component’s
1833:Generated_Source\PSoC4/USBFS_1.c **** *  configured Endpoint Buffer Management. This parameter is defined in
1834:Generated_Source\PSoC4/USBFS_1.c **** *  the Descriptor Root in Component Configure window.
1835:Generated_Source\PSoC4/USBFS_1.c **** *
1836:Generated_Source\PSoC4/USBFS_1.c **** *  *Manual (Static/Dynamic Allocation):*
1837:Generated_Source\PSoC4/USBFS_1.c **** *  This function loads and enables the specified USB data endpoint for an IN
1838:Generated_Source\PSoC4/USBFS_1.c **** *  data transfer.
1839:Generated_Source\PSoC4/USBFS_1.c **** *
1840:Generated_Source\PSoC4/USBFS_1.c **** *  *DMA with Manual Buffer Management:*
1841:Generated_Source\PSoC4/USBFS_1.c **** *  Configures DMA for a data transfer from system RAM to endpoint buffer.
1842:Generated_Source\PSoC4/USBFS_1.c **** *  Generates request for a transfer.
1843:Generated_Source\PSoC4/USBFS_1.c **** *
1844:Generated_Source\PSoC4/USBFS_1.c **** *  *DMA with Automatic Buffer Management:*
1845:Generated_Source\PSoC4/USBFS_1.c **** *  Configures DMA. This is required only once, so it is done only when parameter
1846:Generated_Source\PSoC4/USBFS_1.c **** *  pData is not NULL. When the pData pointer is NULL, the function skips this
1847:Generated_Source\PSoC4/USBFS_1.c **** *  task. Sets Data ready status: This generates the first DMA transfer and
1848:Generated_Source\PSoC4/USBFS_1.c **** *  prepares data in endpoint buffer.
1849:Generated_Source\PSoC4/USBFS_1.c **** *
1850:Generated_Source\PSoC4/USBFS_1.c **** *  \param epNumber Contains the data endpoint number.
1851:Generated_Source\PSoC4/USBFS_1.c **** *        Valid values are between 1 and 8.
1852:Generated_Source\PSoC4/USBFS_1.c **** *  \param *pData A pointer to a data array from which the data for the endpoint
1853:Generated_Source\PSoC4/USBFS_1.c **** *        space is loaded. It shall be ensured that this pointer address is even
1854:Generated_Source\PSoC4/USBFS_1.c **** *        to ensure the 16-bit transfer is aligned to even address. Else, a hard
1855:Generated_Source\PSoC4/USBFS_1.c **** *        fault condition can occur.
1856:Generated_Source\PSoC4/USBFS_1.c **** *  \param length The number of bytes to transfer from the array and then send as
1857:Generated_Source\PSoC4/USBFS_1.c **** *        a result of an IN request. Valid values are between 0 and 512 (1023 for
1858:Generated_Source\PSoC4/USBFS_1.c **** *        DMA with Automatic Buffer Management mode). The value 512 is applicable
1859:Generated_Source\PSoC4/USBFS_1.c **** *        if only one endpoint is used.
1860:Generated_Source\PSoC4/USBFS_1.c **** *
1861:Generated_Source\PSoC4/USBFS_1.c **** * \reentrant
1862:Generated_Source\PSoC4/USBFS_1.c **** *  No.
1863:Generated_Source\PSoC4/USBFS_1.c **** *
1864:Generated_Source\PSoC4/USBFS_1.c **** *******************************************************************************/
1865:Generated_Source\PSoC4/USBFS_1.c **** void USBFS_1_LoadInEP16(uint8 epNumber, const uint8 pData[], uint16 length)
1866:Generated_Source\PSoC4/USBFS_1.c **** {
1867:Generated_Source\PSoC4/USBFS_1.c ****     /* Check array alignment on half-word boundary. */
1868:Generated_Source\PSoC4/USBFS_1.c ****     CYASSERT(0u == (((uint32) pData) & 0x01u));
ARM GAS  C:\Users\psmus\AppData\Local\Temp\ccX8E8QF.s 			page 49


1869:Generated_Source\PSoC4/USBFS_1.c **** 
1870:Generated_Source\PSoC4/USBFS_1.c ****     if ((epNumber > USBFS_1_EP0) && (epNumber < USBFS_1_MAX_EP))
1871:Generated_Source\PSoC4/USBFS_1.c ****     {
1872:Generated_Source\PSoC4/USBFS_1.c ****     #if (!USBFS_1_EP_MANAGEMENT_DMA_AUTO)
1873:Generated_Source\PSoC4/USBFS_1.c ****         /* Limit length to available buffer USB IP buffer size. */
1874:Generated_Source\PSoC4/USBFS_1.c ****         if (length > (USBFS_1_EPX_DATA_BUF_MAX - USBFS_1_EP[epNumber].buffOffset))
1875:Generated_Source\PSoC4/USBFS_1.c ****         {
1876:Generated_Source\PSoC4/USBFS_1.c ****             length = USBFS_1_EPX_DATA_BUF_MAX - USBFS_1_EP[epNumber].buffOffset;
1877:Generated_Source\PSoC4/USBFS_1.c ****         }
1878:Generated_Source\PSoC4/USBFS_1.c ****     #endif /* (!USBFS_1_EP_MANAGEMENT_DMA_AUTO) */
1879:Generated_Source\PSoC4/USBFS_1.c **** 
1880:Generated_Source\PSoC4/USBFS_1.c ****         /* Set count and data toggle. */
1881:Generated_Source\PSoC4/USBFS_1.c ****         USBFS_1_SIE_EP_BASE.sieEp[epNumber].epCnt0 = (uint32) HI8(length) | USBFS_1_EP[epNumber].ep
1882:Generated_Source\PSoC4/USBFS_1.c ****         USBFS_1_SIE_EP_BASE.sieEp[epNumber].epCnt1 = (uint32) LO8(length);
1883:Generated_Source\PSoC4/USBFS_1.c **** 
1884:Generated_Source\PSoC4/USBFS_1.c ****         /* Adjust requested length: 2 bytes are handled at one data register access. */
1885:Generated_Source\PSoC4/USBFS_1.c ****         length += (length & 0x01u);
1886:Generated_Source\PSoC4/USBFS_1.c **** 
1887:Generated_Source\PSoC4/USBFS_1.c ****     #if (USBFS_1_EP_MANAGEMENT_MANUAL)
1888:Generated_Source\PSoC4/USBFS_1.c ****         if (NULL != pData)
1889:Generated_Source\PSoC4/USBFS_1.c ****         {
1890:Generated_Source\PSoC4/USBFS_1.c ****             /* Convert uint8 array to uint16. */
1891:Generated_Source\PSoC4/USBFS_1.c ****             const uint16 *dataBuf = (uint16 *) pData;
1892:Generated_Source\PSoC4/USBFS_1.c **** 
1893:Generated_Source\PSoC4/USBFS_1.c ****             /* Copy data using 16-bits arbiter data register. */
1894:Generated_Source\PSoC4/USBFS_1.c ****             uint16 i;
1895:Generated_Source\PSoC4/USBFS_1.c ****             for (i = 0u; i < (length >> 1u); ++i)
1896:Generated_Source\PSoC4/USBFS_1.c ****             {
1897:Generated_Source\PSoC4/USBFS_1.c ****                 USBFS_1_ARB_EP16_BASE.arbEp[epNumber].rwDr16 = dataBuf[i];
1898:Generated_Source\PSoC4/USBFS_1.c ****             }
1899:Generated_Source\PSoC4/USBFS_1.c ****         }
1900:Generated_Source\PSoC4/USBFS_1.c **** 
1901:Generated_Source\PSoC4/USBFS_1.c ****         /* IN endpoint buffer is full - read to be read. */
1902:Generated_Source\PSoC4/USBFS_1.c ****         USBFS_1_EP[epNumber].apiEpState = USBFS_1_NO_EVENT_PENDING;
1903:Generated_Source\PSoC4/USBFS_1.c **** 
1904:Generated_Source\PSoC4/USBFS_1.c ****         /* Arm IN endpoint. */
1905:Generated_Source\PSoC4/USBFS_1.c ****         USBFS_1_SIE_EP_BASE.sieEp[epNumber].epCr0 = USBFS_1_EP[epNumber].epMode;
1906:Generated_Source\PSoC4/USBFS_1.c **** 
1907:Generated_Source\PSoC4/USBFS_1.c ****     #else
1908:Generated_Source\PSoC4/USBFS_1.c **** 
1909:Generated_Source\PSoC4/USBFS_1.c ****         #if (USBFS_1_EP_MANAGEMENT_DMA_MANUAL)
1910:Generated_Source\PSoC4/USBFS_1.c ****             /* IN endpoint buffer will be fully loaded by DMA shortly. */
1911:Generated_Source\PSoC4/USBFS_1.c ****             USBFS_1_EP[epNumber].apiEpState = USBFS_1_NO_EVENT_PENDING;
1912:Generated_Source\PSoC4/USBFS_1.c **** 
1913:Generated_Source\PSoC4/USBFS_1.c ****             if ((pData != NULL) && (length > 0u))
1914:Generated_Source\PSoC4/USBFS_1.c ****             {
1915:Generated_Source\PSoC4/USBFS_1.c ****                 uint32 channelNum = (uint32) USBFS_1_DmaChan[epNumber];
1916:Generated_Source\PSoC4/USBFS_1.c **** 
1917:Generated_Source\PSoC4/USBFS_1.c ****                 /* Disable DMA channel: start configuration. */
1918:Generated_Source\PSoC4/USBFS_1.c ****                 USBFS_1_CyDmaChDisable(channelNum);
1919:Generated_Source\PSoC4/USBFS_1.c **** 
1920:Generated_Source\PSoC4/USBFS_1.c ****                 /* Configure source and destination. */
1921:Generated_Source\PSoC4/USBFS_1.c ****                 USBFS_1_CyDmaSetSrcAddress(channelNum, USBFS_1_DMA_DESCR0, (void*) pData);
1922:Generated_Source\PSoC4/USBFS_1.c ****                 USBFS_1_CyDmaSetDstAddress(channelNum, USBFS_1_DMA_DESCR0, (void*) &USBFS_1_ARB_EP1
1923:Generated_Source\PSoC4/USBFS_1.c **** 
1924:Generated_Source\PSoC4/USBFS_1.c ****                 /* Configure DMA descriptor. */
1925:Generated_Source\PSoC4/USBFS_1.c ****                 length = (length >> 1u) - 1u;
ARM GAS  C:\Users\psmus\AppData\Local\Temp\ccX8E8QF.s 			page 50


1926:Generated_Source\PSoC4/USBFS_1.c ****                 USBFS_1_CyDmaSetConfiguration(channelNum, USBFS_1_DMA_DESCR0, USBFS_1_DMA_COMMON_CF
1927:Generated_Source\PSoC4/USBFS_1.c ****                                                         CYDMA_HALFWORD | CYDMA_ELEMENT_WORD | CYDMA
1928:Generated_Source\PSoC4/USBFS_1.c **** 
1929:Generated_Source\PSoC4/USBFS_1.c ****                 /* Validate descriptor to execute on following DMA request. */
1930:Generated_Source\PSoC4/USBFS_1.c ****                 USBFS_1_CyDmaValidateDescriptor(channelNum, USBFS_1_DMA_DESCR0);
1931:Generated_Source\PSoC4/USBFS_1.c **** 
1932:Generated_Source\PSoC4/USBFS_1.c ****                 /* Enable DMA channel: configuration complete. */
1933:Generated_Source\PSoC4/USBFS_1.c ****                 USBFS_1_CyDmaChEnable(channelNum);
1934:Generated_Source\PSoC4/USBFS_1.c **** 
1935:Generated_Source\PSoC4/USBFS_1.c ****                 /* Generate DMA request. */
1936:Generated_Source\PSoC4/USBFS_1.c ****                 USBFS_1_ARB_EP_BASE.arbEp[epNumber].epCfg |=  (uint32)  USBFS_1_ARB_EPX_CFG_DMA_REQ
1937:Generated_Source\PSoC4/USBFS_1.c ****                 USBFS_1_ARB_EP_BASE.arbEp[epNumber].epCfg &=  (uint32) ~USBFS_1_ARB_EPX_CFG_DMA_REQ
1938:Generated_Source\PSoC4/USBFS_1.c **** 
1939:Generated_Source\PSoC4/USBFS_1.c ****                 /* IN endpoint will be armed in ARB_ISR(source: IN_BUF_FULL) after first DMA transf
1940:Generated_Source\PSoC4/USBFS_1.c ****             }
1941:Generated_Source\PSoC4/USBFS_1.c ****             else
1942:Generated_Source\PSoC4/USBFS_1.c ****             {
1943:Generated_Source\PSoC4/USBFS_1.c ****                 /* When zero-length packet: arm IN endpoint directly. */
1944:Generated_Source\PSoC4/USBFS_1.c ****                 USBFS_1_SIE_EP_BASE.sieEp[epNumber].epCr0 = USBFS_1_EP[epNumber].epMode;
1945:Generated_Source\PSoC4/USBFS_1.c ****             }
1946:Generated_Source\PSoC4/USBFS_1.c ****         #endif /* (USBFS_1_EP_MANAGEMENT_DMA_MANUAL) */
1947:Generated_Source\PSoC4/USBFS_1.c **** 
1948:Generated_Source\PSoC4/USBFS_1.c ****         #if (USBFS_1_EP_MANAGEMENT_DMA_AUTO)
1949:Generated_Source\PSoC4/USBFS_1.c ****             if (pData != NULL)
1950:Generated_Source\PSoC4/USBFS_1.c ****             {
1951:Generated_Source\PSoC4/USBFS_1.c ****                 uint32 channelNum = (uint32) USBFS_1_DmaChan[epNumber];
1952:Generated_Source\PSoC4/USBFS_1.c **** 
1953:Generated_Source\PSoC4/USBFS_1.c ****                 /* Store address of buffer. */
1954:Generated_Source\PSoC4/USBFS_1.c ****                 USBFS_1_DmaEpBufferAddrBackup[epNumber] = (uint32) pData;
1955:Generated_Source\PSoC4/USBFS_1.c **** 
1956:Generated_Source\PSoC4/USBFS_1.c ****                 /* Disable DMA channel: start configuration. */
1957:Generated_Source\PSoC4/USBFS_1.c ****                 USBFS_1_CyDmaChDisable(channelNum);
1958:Generated_Source\PSoC4/USBFS_1.c **** 
1959:Generated_Source\PSoC4/USBFS_1.c ****                 /* Set destination address. */
1960:Generated_Source\PSoC4/USBFS_1.c ****                 USBFS_1_CyDmaSetDstAddress(channelNum, USBFS_1_DMA_DESCR0, (void*) &USBFS_1_ARB_EP1
1961:Generated_Source\PSoC4/USBFS_1.c ****                 USBFS_1_CyDmaSetDstAddress(channelNum, USBFS_1_DMA_DESCR1, (void*) &USBFS_1_ARB_EP1
1962:Generated_Source\PSoC4/USBFS_1.c **** 
1963:Generated_Source\PSoC4/USBFS_1.c ****                 /* Configure DMA descriptor. */
1964:Generated_Source\PSoC4/USBFS_1.c ****                 USBFS_1_CyDmaSetConfiguration(channelNum, USBFS_1_DMA_DESCR0, USBFS_1_DMA_COMMON_CF
1965:Generated_Source\PSoC4/USBFS_1.c ****                                                         CYDMA_HALFWORD | CYDMA_ELEMENT_WORD | CYDMA
1966:Generated_Source\PSoC4/USBFS_1.c **** 
1967:Generated_Source\PSoC4/USBFS_1.c ****                 /* Configure DMA descriptor. */
1968:Generated_Source\PSoC4/USBFS_1.c ****                 USBFS_1_CyDmaSetConfiguration(channelNum, USBFS_1_DMA_DESCR1, USBFS_1_DMA_COMMON_CF
1969:Generated_Source\PSoC4/USBFS_1.c ****                                                         CYDMA_HALFWORD | CYDMA_ELEMENT_WORD | CYDMA
1970:Generated_Source\PSoC4/USBFS_1.c **** 
1971:Generated_Source\PSoC4/USBFS_1.c ****                 /* Enable interrupt from DMA channel. */
1972:Generated_Source\PSoC4/USBFS_1.c ****                 USBFS_1_CyDmaSetInterruptMask(channelNum);
1973:Generated_Source\PSoC4/USBFS_1.c **** 
1974:Generated_Source\PSoC4/USBFS_1.c ****                 /* Enable DMA channel: configuration complete. */
1975:Generated_Source\PSoC4/USBFS_1.c ****                 USBFS_1_CyDmaChEnable(channelNum);
1976:Generated_Source\PSoC4/USBFS_1.c ****             }
1977:Generated_Source\PSoC4/USBFS_1.c ****             else
1978:Generated_Source\PSoC4/USBFS_1.c ****             {
1979:Generated_Source\PSoC4/USBFS_1.c ****                 /* IN endpoint buffer (32 bytes) will shortly be preloaded by DMA. */
1980:Generated_Source\PSoC4/USBFS_1.c ****                 USBFS_1_EP[epNumber].apiEpState = USBFS_1_NO_EVENT_PENDING;
1981:Generated_Source\PSoC4/USBFS_1.c **** 
1982:Generated_Source\PSoC4/USBFS_1.c ****                 if (length > 0u)
ARM GAS  C:\Users\psmus\AppData\Local\Temp\ccX8E8QF.s 			page 51


1983:Generated_Source\PSoC4/USBFS_1.c ****                 {
1984:Generated_Source\PSoC4/USBFS_1.c ****                     uint32 lengthDescr0, lengthDescr1;
1985:Generated_Source\PSoC4/USBFS_1.c ****                     uint32 channelNum = (uint32) USBFS_1_DmaChan[epNumber];
1986:Generated_Source\PSoC4/USBFS_1.c **** 
1987:Generated_Source\PSoC4/USBFS_1.c ****                     /* Get number of full bursts. */
1988:Generated_Source\PSoC4/USBFS_1.c ****                     USBFS_1_DmaEpBurstCnt[epNumber] = (uint8) (length / USBFS_1_DMA_BYTES_PER_BURST
1989:Generated_Source\PSoC4/USBFS_1.c **** 
1990:Generated_Source\PSoC4/USBFS_1.c ****                     /* Get number of elements in the last burst. */
1991:Generated_Source\PSoC4/USBFS_1.c ****                     USBFS_1_DmaEpLastBurstEl[epNumber] = (uint8) (length % USBFS_1_DMA_BYTES_PER_BU
1992:Generated_Source\PSoC4/USBFS_1.c **** 
1993:Generated_Source\PSoC4/USBFS_1.c ****                     /* Get total number of bursts. */
1994:Generated_Source\PSoC4/USBFS_1.c ****                     USBFS_1_DmaEpBurstCnt[epNumber] += (0u != USBFS_1_DmaEpLastBurstEl[epNumber]) ?
1995:Generated_Source\PSoC4/USBFS_1.c **** 
1996:Generated_Source\PSoC4/USBFS_1.c ****                     /* Adjust number of data elements transferred in last burst. */
1997:Generated_Source\PSoC4/USBFS_1.c ****                     USBFS_1_DmaEpLastBurstEl[epNumber] = (0u != USBFS_1_DmaEpLastBurstEl[epNumber])
1998:Generated_Source\PSoC4/USBFS_1.c ****                                                                           ((USBFS_1_DmaEpLastBurstE
1999:Generated_Source\PSoC4/USBFS_1.c ****                                                                            (USBFS_1_DMA_HALFWORDS_P
2000:Generated_Source\PSoC4/USBFS_1.c **** 
2001:Generated_Source\PSoC4/USBFS_1.c ****                     /* Get number of data elements to transfer for descriptor 0 and 1. */
2002:Generated_Source\PSoC4/USBFS_1.c ****                     lengthDescr0 = (1u == USBFS_1_DmaEpBurstCnt[epNumber]) ? USBFS_1_DmaEpLastBurst
2003:Generated_Source\PSoC4/USBFS_1.c ****                     lengthDescr1 = (2u == USBFS_1_DmaEpBurstCnt[epNumber]) ? USBFS_1_DmaEpLastBurst
2004:Generated_Source\PSoC4/USBFS_1.c **** 
2005:Generated_Source\PSoC4/USBFS_1.c ****                     /* Mark which descriptor is last one to execute. */
2006:Generated_Source\PSoC4/USBFS_1.c ****                     USBFS_1_DmaEpLastBurstEl[epNumber] |= (0u != (USBFS_1_DmaEpBurstCnt[epNumber] &
2007:Generated_Source\PSoC4/USBFS_1.c ****                                                                             USBFS_1_DMA_DESCR0_MASK
2008:Generated_Source\PSoC4/USBFS_1.c **** 
2009:Generated_Source\PSoC4/USBFS_1.c ****                     /* Restore DMA settings for current transfer. */
2010:Generated_Source\PSoC4/USBFS_1.c ****                     USBFS_1_CyDmaChDisable(channelNum);
2011:Generated_Source\PSoC4/USBFS_1.c **** 
2012:Generated_Source\PSoC4/USBFS_1.c ****                     /* Restore destination address for input endpoint. */
2013:Generated_Source\PSoC4/USBFS_1.c ****                     USBFS_1_CyDmaSetSrcAddress(channelNum, USBFS_1_DMA_DESCR0, (void*) ((uint32) US
2014:Generated_Source\PSoC4/USBFS_1.c ****                     USBFS_1_CyDmaSetSrcAddress(channelNum, USBFS_1_DMA_DESCR1, (void*) ((uint32) US
2015:Generated_Source\PSoC4/USBFS_1.c ****                                                                                                    
2016:Generated_Source\PSoC4/USBFS_1.c **** 
2017:Generated_Source\PSoC4/USBFS_1.c ****                     /* Set number of elements to transfer. */
2018:Generated_Source\PSoC4/USBFS_1.c ****                     USBFS_1_CyDmaSetNumDataElements(channelNum, USBFS_1_DMA_DESCR0, lengthDescr0);
2019:Generated_Source\PSoC4/USBFS_1.c ****                     USBFS_1_CyDmaSetNumDataElements(channelNum, USBFS_1_DMA_DESCR1, lengthDescr1);
2020:Generated_Source\PSoC4/USBFS_1.c **** 
2021:Generated_Source\PSoC4/USBFS_1.c ****                     /* Validate descriptor 0 and command to start with it. */
2022:Generated_Source\PSoC4/USBFS_1.c ****                     USBFS_1_CyDmaValidateDescriptor(channelNum, USBFS_1_DMA_DESCR0);
2023:Generated_Source\PSoC4/USBFS_1.c ****                     USBFS_1_CyDmaSetDescriptor0Next(channelNum);
2024:Generated_Source\PSoC4/USBFS_1.c **** 
2025:Generated_Source\PSoC4/USBFS_1.c ****                     /* Validate descriptor 1. */
2026:Generated_Source\PSoC4/USBFS_1.c ****                     if (USBFS_1_DmaEpBurstCnt[epNumber] > 1u)
2027:Generated_Source\PSoC4/USBFS_1.c ****                     {
2028:Generated_Source\PSoC4/USBFS_1.c ****                         USBFS_1_CyDmaValidateDescriptor(channelNum, USBFS_1_DMA_DESCR1);
2029:Generated_Source\PSoC4/USBFS_1.c ****                     }
2030:Generated_Source\PSoC4/USBFS_1.c **** 
2031:Generated_Source\PSoC4/USBFS_1.c ****                     /* Adjust burst counter taking to account: 2 valid descriptors and interrupt tr
2032:Generated_Source\PSoC4/USBFS_1.c ****                     USBFS_1_DmaEpBurstCnt[epNumber] = USBFS_1_DMA_GET_BURST_CNT(USBFS_1_DmaEpBurstC
2033:Generated_Source\PSoC4/USBFS_1.c **** 
2034:Generated_Source\PSoC4/USBFS_1.c ****                     /* Enable DMA channel: configuration complete. */
2035:Generated_Source\PSoC4/USBFS_1.c ****                     USBFS_1_CyDmaChEnable(channelNum);
2036:Generated_Source\PSoC4/USBFS_1.c **** 
2037:Generated_Source\PSoC4/USBFS_1.c ****                 #if !defined (USBFS_1_MANUAL_IN_EP_ARM)
2038:Generated_Source\PSoC4/USBFS_1.c ****                     /* Set IN data ready to generate DMA request to load data into endpoint buffer.
2039:Generated_Source\PSoC4/USBFS_1.c ****                     USBFS_1_ARB_EP_BASE.arbEp[epNumber].epCfg |= USBFS_1_ARB_EPX_CFG_IN_DATA_RDY;
ARM GAS  C:\Users\psmus\AppData\Local\Temp\ccX8E8QF.s 			page 52


2040:Generated_Source\PSoC4/USBFS_1.c ****                 #endif  /* (USBFS_1_MANUAL_IN_EP_ARM) */
2041:Generated_Source\PSoC4/USBFS_1.c **** 
2042:Generated_Source\PSoC4/USBFS_1.c ****                     /* IN endpoint will be armed in ARB_ISR(source: IN_BUF_FULL) after first DMA tr
2043:Generated_Source\PSoC4/USBFS_1.c ****                 }
2044:Generated_Source\PSoC4/USBFS_1.c ****                 else
2045:Generated_Source\PSoC4/USBFS_1.c ****                 {
2046:Generated_Source\PSoC4/USBFS_1.c ****                     /* When zero-length packet: arm IN endpoint directly. */
2047:Generated_Source\PSoC4/USBFS_1.c ****                     USBFS_1_SIE_EP_BASE.sieEp[epNumber].epCr0 = USBFS_1_EP[epNumber].epMode;
2048:Generated_Source\PSoC4/USBFS_1.c ****                 }
2049:Generated_Source\PSoC4/USBFS_1.c ****             }
2050:Generated_Source\PSoC4/USBFS_1.c ****         #endif /* (USBFS_1_EP_MANAGEMENT_DMA_AUTO) */
2051:Generated_Source\PSoC4/USBFS_1.c ****     #endif /* (USBFS_1_EP_MANAGEMENT_MANUAL) */
2052:Generated_Source\PSoC4/USBFS_1.c ****     }
2053:Generated_Source\PSoC4/USBFS_1.c **** }
2054:Generated_Source\PSoC4/USBFS_1.c **** 
2055:Generated_Source\PSoC4/USBFS_1.c **** 
2056:Generated_Source\PSoC4/USBFS_1.c **** /*******************************************************************************
2057:Generated_Source\PSoC4/USBFS_1.c **** * Function Name: USBFS_1_ReadOutEP16
2058:Generated_Source\PSoC4/USBFS_1.c **** ****************************************************************************//**
2059:Generated_Source\PSoC4/USBFS_1.c **** *
2060:Generated_Source\PSoC4/USBFS_1.c **** *   This function performs different functionality depending on the Component’s
2061:Generated_Source\PSoC4/USBFS_1.c **** *   configured Endpoint Buffer Management. This parameter is defined in the
2062:Generated_Source\PSoC4/USBFS_1.c **** *   Descriptor Root in Component Configure window.
2063:Generated_Source\PSoC4/USBFS_1.c **** *
2064:Generated_Source\PSoC4/USBFS_1.c **** *   *Manual (Static/Dynamic Allocation):*
2065:Generated_Source\PSoC4/USBFS_1.c **** *   This function moves the specified number of bytes from endpoint buffer to
2066:Generated_Source\PSoC4/USBFS_1.c **** *   system RAM. The number of bytes actually transferred from endpoint buffer to
2067:Generated_Source\PSoC4/USBFS_1.c **** *   system RAM is the lesser of the actual number of bytes sent by the host or
2068:Generated_Source\PSoC4/USBFS_1.c **** *   the number of bytes requested by the length parameter.
2069:Generated_Source\PSoC4/USBFS_1.c **** *
2070:Generated_Source\PSoC4/USBFS_1.c **** *   *DMA with Manual Buffer Management:*
2071:Generated_Source\PSoC4/USBFS_1.c **** *   Configure DMA to transfer data from endpoint buffer to system RAM. Generate
2072:Generated_Source\PSoC4/USBFS_1.c **** *   a DMA request. The firmware must wait until the DMA completes the data
2073:Generated_Source\PSoC4/USBFS_1.c **** *   transfer after calling the USBFS_1_ReadOutEP() API. For example,
2074:Generated_Source\PSoC4/USBFS_1.c **** *   by checking EPstate:
2075:Generated_Source\PSoC4/USBFS_1.c **** *
2076:Generated_Source\PSoC4/USBFS_1.c **** *   \snippet /USBFS_sut_02.cydsn/main.c checking EPstatey
2077:Generated_Source\PSoC4/USBFS_1.c **** *
2078:Generated_Source\PSoC4/USBFS_1.c **** *   The USBFS_EnableOutEP() has to be called to allow host to write data into
2079:Generated_Source\PSoC4/USBFS_1.c **** *   the endpoint buffer after DMA has completed transfer data from OUT endpoint
2080:Generated_Source\PSoC4/USBFS_1.c **** *   buffer to SRAM.
2081:Generated_Source\PSoC4/USBFS_1.c **** *
2082:Generated_Source\PSoC4/USBFS_1.c **** *   *DMA with Automatic Buffer Management:*
2083:Generated_Source\PSoC4/USBFS_1.c **** *   Configure DMA. This is required only once and automatically generates DMA
2084:Generated_Source\PSoC4/USBFS_1.c **** *   requests as data arrives
2085:Generated_Source\PSoC4/USBFS_1.c **** *
2086:Generated_Source\PSoC4/USBFS_1.c **** *  \param epNumber: Contains the data endpoint number.
2087:Generated_Source\PSoC4/USBFS_1.c **** *         Valid values are between 1 and 8.
2088:Generated_Source\PSoC4/USBFS_1.c **** *  \param pData: A pointer to a data array into which the data for the endpoint
2089:Generated_Source\PSoC4/USBFS_1.c **** *         space is copied. It shall be ensured that this pointer address is
2090:Generated_Source\PSoC4/USBFS_1.c **** *         even to ensure the 16-bit transfer is aligned to even address. Else,
2091:Generated_Source\PSoC4/USBFS_1.c **** *         a hard fault condition can occur.
2092:Generated_Source\PSoC4/USBFS_1.c **** *  \param length: The number of bytes to transfer from the USB Out endpoint and
2093:Generated_Source\PSoC4/USBFS_1.c **** *         loads it into data array. Valid values are between 0 and 1023. The
2094:Generated_Source\PSoC4/USBFS_1.c **** *         function moves fewer than the requested number of bytes if the host
2095:Generated_Source\PSoC4/USBFS_1.c **** *         sends fewer bytes than requested.
2096:Generated_Source\PSoC4/USBFS_1.c **** *
ARM GAS  C:\Users\psmus\AppData\Local\Temp\ccX8E8QF.s 			page 53


2097:Generated_Source\PSoC4/USBFS_1.c **** * \return
2098:Generated_Source\PSoC4/USBFS_1.c **** *  Number of bytes received, 0 for an invalid endpoint.
2099:Generated_Source\PSoC4/USBFS_1.c **** *
2100:Generated_Source\PSoC4/USBFS_1.c **** * \reentrant
2101:Generated_Source\PSoC4/USBFS_1.c **** *  No.
2102:Generated_Source\PSoC4/USBFS_1.c **** *
2103:Generated_Source\PSoC4/USBFS_1.c **** *******************************************************************************/
2104:Generated_Source\PSoC4/USBFS_1.c **** uint16 USBFS_1_ReadOutEP16(uint8 epNumber, uint8 pData[], uint16 length)
2105:Generated_Source\PSoC4/USBFS_1.c **** {
2106:Generated_Source\PSoC4/USBFS_1.c ****     uint32 adjLength;
2107:Generated_Source\PSoC4/USBFS_1.c **** 
2108:Generated_Source\PSoC4/USBFS_1.c ****     /* Check array alignment on half-word boundary */
2109:Generated_Source\PSoC4/USBFS_1.c ****     CYASSERT(0u == (((uint32) pData) & 0x01u));
2110:Generated_Source\PSoC4/USBFS_1.c **** 
2111:Generated_Source\PSoC4/USBFS_1.c ****     if ((pData != NULL) && (epNumber > USBFS_1_EP0) && (epNumber < USBFS_1_MAX_EP))
2112:Generated_Source\PSoC4/USBFS_1.c ****     {
2113:Generated_Source\PSoC4/USBFS_1.c ****     #if (!USBFS_1_EP_MANAGEMENT_DMA_AUTO)
2114:Generated_Source\PSoC4/USBFS_1.c ****         /* Adjust requested length to available data. */
2115:Generated_Source\PSoC4/USBFS_1.c ****         length = (length > USBFS_1_GetEPCount(epNumber)) ? USBFS_1_GetEPCount(epNumber) : length;
2116:Generated_Source\PSoC4/USBFS_1.c ****     #endif /* (!USBFS_1_EP_MANAGEMENT_DMA_AUTO) */
2117:Generated_Source\PSoC4/USBFS_1.c **** 
2118:Generated_Source\PSoC4/USBFS_1.c ****     /* Adjust requested length: 2 bytes are handled at one data register access. */
2119:Generated_Source\PSoC4/USBFS_1.c ****     adjLength =  length + ((uint32)length & 1u);
2120:Generated_Source\PSoC4/USBFS_1.c **** 
2121:Generated_Source\PSoC4/USBFS_1.c ****     #if (USBFS_1_EP_MANAGEMENT_MANUAL)
2122:Generated_Source\PSoC4/USBFS_1.c ****         {
2123:Generated_Source\PSoC4/USBFS_1.c ****             /* Convert uint8 array to uint16. */
2124:Generated_Source\PSoC4/USBFS_1.c ****             uint16 *dataBuf = (uint16 *) pData;
2125:Generated_Source\PSoC4/USBFS_1.c **** 
2126:Generated_Source\PSoC4/USBFS_1.c ****             /* Copy data using 16-bits arbiter data register. */
2127:Generated_Source\PSoC4/USBFS_1.c ****             uint16 i;
2128:Generated_Source\PSoC4/USBFS_1.c ****             for (i = 0u; i < (adjLength >> 1u); ++i)
2129:Generated_Source\PSoC4/USBFS_1.c ****             {
2130:Generated_Source\PSoC4/USBFS_1.c ****                 dataBuf[i] = (uint16) USBFS_1_ARB_EP16_BASE.arbEp[epNumber].rwDr16;
2131:Generated_Source\PSoC4/USBFS_1.c ****             }
2132:Generated_Source\PSoC4/USBFS_1.c ****         }
2133:Generated_Source\PSoC4/USBFS_1.c **** 
2134:Generated_Source\PSoC4/USBFS_1.c ****         /* Arm OUT endpoint after data has been read from endpoint buffer. */
2135:Generated_Source\PSoC4/USBFS_1.c ****         USBFS_1_EnableOutEP(epNumber);
2136:Generated_Source\PSoC4/USBFS_1.c ****     #else
2137:Generated_Source\PSoC4/USBFS_1.c **** 
2138:Generated_Source\PSoC4/USBFS_1.c ****         #if (USBFS_1_EP_MANAGEMENT_DMA_MANUAL)
2139:Generated_Source\PSoC4/USBFS_1.c ****         {
2140:Generated_Source\PSoC4/USBFS_1.c ****             uint32 channelNum = (uint32) USBFS_1_DmaChan[epNumber];
2141:Generated_Source\PSoC4/USBFS_1.c **** 
2142:Generated_Source\PSoC4/USBFS_1.c ****             /* Disable DMA channel: start configuration. */
2143:Generated_Source\PSoC4/USBFS_1.c ****             USBFS_1_CyDmaChDisable(channelNum);
2144:Generated_Source\PSoC4/USBFS_1.c **** 
2145:Generated_Source\PSoC4/USBFS_1.c ****             /* Configure source and destination. */
2146:Generated_Source\PSoC4/USBFS_1.c ****             USBFS_1_CyDmaSetSrcAddress(channelNum, USBFS_1_DMA_DESCR0, (void*) &USBFS_1_ARB_EP16_BA
2147:Generated_Source\PSoC4/USBFS_1.c ****             USBFS_1_CyDmaSetDstAddress(channelNum, USBFS_1_DMA_DESCR0, (void*) pData);
2148:Generated_Source\PSoC4/USBFS_1.c **** 
2149:Generated_Source\PSoC4/USBFS_1.c ****             /* Configure DMA descriptor. */
2150:Generated_Source\PSoC4/USBFS_1.c ****             USBFS_1_CyDmaSetConfiguration(channelNum, USBFS_1_DMA_DESCR0, USBFS_1_DMA_COMMON_CFG | 
2151:Generated_Source\PSoC4/USBFS_1.c ****                                                     CYDMA_HALFWORD | CYDMA_WORD_ELEMENT | CYDMA_INC
2152:Generated_Source\PSoC4/USBFS_1.c **** 
2153:Generated_Source\PSoC4/USBFS_1.c ****             /* Validate descriptor to execute on following DMA request. */
ARM GAS  C:\Users\psmus\AppData\Local\Temp\ccX8E8QF.s 			page 54


2154:Generated_Source\PSoC4/USBFS_1.c ****             USBFS_1_CyDmaValidateDescriptor(channelNum, USBFS_1_DMA_DESCR0);
2155:Generated_Source\PSoC4/USBFS_1.c **** 
2156:Generated_Source\PSoC4/USBFS_1.c ****             /* Enable DMA channel: configuration complete. */
2157:Generated_Source\PSoC4/USBFS_1.c ****             USBFS_1_CyDmaChEnable(channelNum);
2158:Generated_Source\PSoC4/USBFS_1.c **** 
2159:Generated_Source\PSoC4/USBFS_1.c ****             /* Generate DMA request. */
2160:Generated_Source\PSoC4/USBFS_1.c ****             USBFS_1_ARB_EP_BASE.arbEp[epNumber].epCfg |=  (uint32)  USBFS_1_ARB_EPX_CFG_DMA_REQ;
2161:Generated_Source\PSoC4/USBFS_1.c ****             USBFS_1_ARB_EP_BASE.arbEp[epNumber].epCfg &=  (uint32) ~USBFS_1_ARB_EPX_CFG_DMA_REQ;
2162:Generated_Source\PSoC4/USBFS_1.c **** 
2163:Generated_Source\PSoC4/USBFS_1.c ****             /* OUT endpoint has to be armed again by user when DMA transfers have been completed.
2164:Generated_Source\PSoC4/USBFS_1.c ****             * NO_EVENT_PENDING: notifies that data has been copied from endpoint buffer.
2165:Generated_Source\PSoC4/USBFS_1.c ****             */
2166:Generated_Source\PSoC4/USBFS_1.c ****         }
2167:Generated_Source\PSoC4/USBFS_1.c ****         #endif /* (USBFS_1_EP_MANAGEMENT_DMA_MANUAL) */
2168:Generated_Source\PSoC4/USBFS_1.c **** 
2169:Generated_Source\PSoC4/USBFS_1.c ****         #if (USBFS_1_EP_MANAGEMENT_DMA_AUTO)
2170:Generated_Source\PSoC4/USBFS_1.c ****         {
2171:Generated_Source\PSoC4/USBFS_1.c ****             uint32 lengthDescr0, lengthDescr1;
2172:Generated_Source\PSoC4/USBFS_1.c ****             uint32 channelNum = (uint32) USBFS_1_DmaChan[epNumber];
2173:Generated_Source\PSoC4/USBFS_1.c **** 
2174:Generated_Source\PSoC4/USBFS_1.c ****             /* Get number of full bursts. */
2175:Generated_Source\PSoC4/USBFS_1.c ****             USBFS_1_DmaEpBurstCnt[epNumber] = (uint8) (adjLength / USBFS_1_DMA_BYTES_PER_BURST);
2176:Generated_Source\PSoC4/USBFS_1.c **** 
2177:Generated_Source\PSoC4/USBFS_1.c ****             /* Get number of elements in last burst. */
2178:Generated_Source\PSoC4/USBFS_1.c ****             USBFS_1_DmaEpLastBurstEl[epNumber] = (uint8) (adjLength % USBFS_1_DMA_BYTES_PER_BURST);
2179:Generated_Source\PSoC4/USBFS_1.c **** 
2180:Generated_Source\PSoC4/USBFS_1.c ****             /* Get total number of bursts. */
2181:Generated_Source\PSoC4/USBFS_1.c ****             USBFS_1_DmaEpBurstCnt[epNumber] += (0u != USBFS_1_DmaEpLastBurstEl[epNumber]) ? 1u : 0u
2182:Generated_Source\PSoC4/USBFS_1.c **** 
2183:Generated_Source\PSoC4/USBFS_1.c ****             /* Adjust number of data elements transferred in last burst. */
2184:Generated_Source\PSoC4/USBFS_1.c ****             USBFS_1_DmaEpLastBurstEl[epNumber] = (0u != USBFS_1_DmaEpLastBurstEl[epNumber]) ?
2185:Generated_Source\PSoC4/USBFS_1.c ****                                                                   ((USBFS_1_DmaEpLastBurstEl[epNumb
2186:Generated_Source\PSoC4/USBFS_1.c ****                                                                    (USBFS_1_DMA_HALFWORDS_PER_BURST
2187:Generated_Source\PSoC4/USBFS_1.c **** 
2188:Generated_Source\PSoC4/USBFS_1.c ****             /* Get number of data elements to transfer for descriptor 0 and 1. */
2189:Generated_Source\PSoC4/USBFS_1.c ****             lengthDescr0 = (1u == USBFS_1_DmaEpBurstCnt[epNumber]) ? USBFS_1_DmaEpLastBurstEl[epNum
2190:Generated_Source\PSoC4/USBFS_1.c ****             lengthDescr1 = (2u == USBFS_1_DmaEpBurstCnt[epNumber]) ? USBFS_1_DmaEpLastBurstEl[epNum
2191:Generated_Source\PSoC4/USBFS_1.c **** 
2192:Generated_Source\PSoC4/USBFS_1.c ****             /* Mark last descriptor to be executed. */
2193:Generated_Source\PSoC4/USBFS_1.c ****             USBFS_1_DmaEpLastBurstEl[epNumber] |= (0u != (USBFS_1_DmaEpBurstCnt[epNumber] & 0x1u)) 
2194:Generated_Source\PSoC4/USBFS_1.c ****                                                                     USBFS_1_DMA_DESCR0_MASK : USBFS
2195:Generated_Source\PSoC4/USBFS_1.c **** 
2196:Generated_Source\PSoC4/USBFS_1.c ****             /* Mark if revert number of data elements in descriptor after transfer completion. */
2197:Generated_Source\PSoC4/USBFS_1.c ****             USBFS_1_DmaEpLastBurstEl[epNumber] |= (USBFS_1_DmaEpBurstCnt[epNumber] > 2u) ? USBFS_1_
2198:Generated_Source\PSoC4/USBFS_1.c **** 
2199:Generated_Source\PSoC4/USBFS_1.c ****             /* Mark that 16-bits access to data register is performed. */
2200:Generated_Source\PSoC4/USBFS_1.c ****             USBFS_1_DmaEpLastBurstEl[epNumber] |= USBFS_1_DMA_DESCR_16BITS;
2201:Generated_Source\PSoC4/USBFS_1.c **** 
2202:Generated_Source\PSoC4/USBFS_1.c ****             /* Store address of buffer and burst counter for endpoint. */
2203:Generated_Source\PSoC4/USBFS_1.c ****             USBFS_1_DmaEpBufferAddrBackup[epNumber] = (uint32) pData;
2204:Generated_Source\PSoC4/USBFS_1.c ****             USBFS_1_DmaEpBurstCntBackup[epNumber]   = USBFS_1_DmaEpBurstCnt[epNumber];
2205:Generated_Source\PSoC4/USBFS_1.c **** 
2206:Generated_Source\PSoC4/USBFS_1.c ****             /* Adjust burst counter taking to account: 2 valid descriptors and interrupt trigger af
2207:Generated_Source\PSoC4/USBFS_1.c ****             USBFS_1_DmaEpBurstCnt[epNumber] = USBFS_1_DMA_GET_BURST_CNT(USBFS_1_DmaEpBurstCnt[epNum
2208:Generated_Source\PSoC4/USBFS_1.c **** 
2209:Generated_Source\PSoC4/USBFS_1.c ****             /* Disable DMA channel: start configuration. */
2210:Generated_Source\PSoC4/USBFS_1.c ****             USBFS_1_CyDmaChDisable(channelNum);
ARM GAS  C:\Users\psmus\AppData\Local\Temp\ccX8E8QF.s 			page 55


2211:Generated_Source\PSoC4/USBFS_1.c **** 
2212:Generated_Source\PSoC4/USBFS_1.c ****             /* Set destination address. */
2213:Generated_Source\PSoC4/USBFS_1.c ****             USBFS_1_CyDmaSetSrcAddress(channelNum, USBFS_1_DMA_DESCR0, (void*) &USBFS_1_ARB_EP16_BA
2214:Generated_Source\PSoC4/USBFS_1.c ****             USBFS_1_CyDmaSetSrcAddress(channelNum, USBFS_1_DMA_DESCR1, (void*) &USBFS_1_ARB_EP16_BA
2215:Generated_Source\PSoC4/USBFS_1.c **** 
2216:Generated_Source\PSoC4/USBFS_1.c ****             USBFS_1_CyDmaSetDstAddress(channelNum, USBFS_1_DMA_DESCR0, (void*) ((uint32) pData));
2217:Generated_Source\PSoC4/USBFS_1.c ****             USBFS_1_CyDmaSetDstAddress(channelNum, USBFS_1_DMA_DESCR1, (void*) ((uint32) pData + US
2218:Generated_Source\PSoC4/USBFS_1.c **** 
2219:Generated_Source\PSoC4/USBFS_1.c ****             /* Configure DMA descriptor 0. */
2220:Generated_Source\PSoC4/USBFS_1.c ****             USBFS_1_CyDmaSetConfiguration(channelNum, USBFS_1_DMA_DESCR0, USBFS_1_DMA_COMMON_CFG  |
2221:Generated_Source\PSoC4/USBFS_1.c ****                                                     CYDMA_HALFWORD | CYDMA_WORD_ELEMENT | CYDMA_INC
2222:Generated_Source\PSoC4/USBFS_1.c **** 
2223:Generated_Source\PSoC4/USBFS_1.c ****             /* Configure DMA descriptor 1. */
2224:Generated_Source\PSoC4/USBFS_1.c ****             USBFS_1_CyDmaSetConfiguration(channelNum, USBFS_1_DMA_DESCR1, USBFS_1_DMA_COMMON_CFG  |
2225:Generated_Source\PSoC4/USBFS_1.c ****                                                     CYDMA_HALFWORD | CYDMA_WORD_ELEMENT | CYDMA_INC
2226:Generated_Source\PSoC4/USBFS_1.c **** 
2227:Generated_Source\PSoC4/USBFS_1.c ****             /* Enable interrupt from DMA channel. */
2228:Generated_Source\PSoC4/USBFS_1.c ****             USBFS_1_CyDmaSetInterruptMask(channelNum);
2229:Generated_Source\PSoC4/USBFS_1.c **** 
2230:Generated_Source\PSoC4/USBFS_1.c ****             /* Validate DMA descriptor 0 and 1. */
2231:Generated_Source\PSoC4/USBFS_1.c ****             USBFS_1_CyDmaValidateDescriptor(channelNum, USBFS_1_DMA_DESCR0);
2232:Generated_Source\PSoC4/USBFS_1.c ****             
2233:Generated_Source\PSoC4/USBFS_1.c ****             if (USBFS_1_DmaEpBurstCntBackup[epNumber] > 1u)
2234:Generated_Source\PSoC4/USBFS_1.c ****             {
2235:Generated_Source\PSoC4/USBFS_1.c ****                 USBFS_1_CyDmaValidateDescriptor(channelNum, USBFS_1_DMA_DESCR1);
2236:Generated_Source\PSoC4/USBFS_1.c ****             }
2237:Generated_Source\PSoC4/USBFS_1.c **** 
2238:Generated_Source\PSoC4/USBFS_1.c ****             /* Enable DMA channel: configuration complete. */
2239:Generated_Source\PSoC4/USBFS_1.c ****             USBFS_1_CyDmaChEnable(channelNum);
2240:Generated_Source\PSoC4/USBFS_1.c **** 
2241:Generated_Source\PSoC4/USBFS_1.c ****             /* OUT endpoint has to be armed again by user when DMA transfers have been completed.
2242:Generated_Source\PSoC4/USBFS_1.c ****             * NO_EVENT_PENDING: notifies that data has been copied from endpoint buffer.
2243:Generated_Source\PSoC4/USBFS_1.c ****             */
2244:Generated_Source\PSoC4/USBFS_1.c ****         }
2245:Generated_Source\PSoC4/USBFS_1.c ****         #endif /* (USBFS_1_EP_MANAGEMENT_DMA_AUTO) */
2246:Generated_Source\PSoC4/USBFS_1.c ****     #endif /* (USBFS_1_EP_MANAGEMENT_MANUAL) */
2247:Generated_Source\PSoC4/USBFS_1.c ****     }
2248:Generated_Source\PSoC4/USBFS_1.c ****     else
2249:Generated_Source\PSoC4/USBFS_1.c ****     {
2250:Generated_Source\PSoC4/USBFS_1.c ****         length = 0u;
2251:Generated_Source\PSoC4/USBFS_1.c ****     }
2252:Generated_Source\PSoC4/USBFS_1.c **** 
2253:Generated_Source\PSoC4/USBFS_1.c ****     return (length);
2254:Generated_Source\PSoC4/USBFS_1.c **** }
2255:Generated_Source\PSoC4/USBFS_1.c **** #endif /* (USBFS_1_16BITS_EP_ACCESS_ENABLE) */
2256:Generated_Source\PSoC4/USBFS_1.c **** 
2257:Generated_Source\PSoC4/USBFS_1.c **** 
2258:Generated_Source\PSoC4/USBFS_1.c **** /*******************************************************************************
2259:Generated_Source\PSoC4/USBFS_1.c **** * Function Name: USBFS_1_EnableOutEP
2260:Generated_Source\PSoC4/USBFS_1.c **** ****************************************************************************//**
2261:Generated_Source\PSoC4/USBFS_1.c **** *
2262:Generated_Source\PSoC4/USBFS_1.c **** *  This function enables the specified endpoint for OUT transfers. Do not call
2263:Generated_Source\PSoC4/USBFS_1.c **** *  this function for IN endpoints.
2264:Generated_Source\PSoC4/USBFS_1.c **** *
2265:Generated_Source\PSoC4/USBFS_1.c **** *  \param epNumber: Contains the data endpoint number. Valid values are between
2266:Generated_Source\PSoC4/USBFS_1.c **** *  1 and 8.
2267:Generated_Source\PSoC4/USBFS_1.c **** *
ARM GAS  C:\Users\psmus\AppData\Local\Temp\ccX8E8QF.s 			page 56


2268:Generated_Source\PSoC4/USBFS_1.c **** * \globalvars
2269:Generated_Source\PSoC4/USBFS_1.c **** *
2270:Generated_Source\PSoC4/USBFS_1.c **** *  \ref USBFS_1_EP[epNumber].apiEpState - set to NO_EVENT_PENDING
2271:Generated_Source\PSoC4/USBFS_1.c **** *
2272:Generated_Source\PSoC4/USBFS_1.c **** * \reentrant
2273:Generated_Source\PSoC4/USBFS_1.c **** *  No.
2274:Generated_Source\PSoC4/USBFS_1.c **** *
2275:Generated_Source\PSoC4/USBFS_1.c **** *******************************************************************************/
2276:Generated_Source\PSoC4/USBFS_1.c **** void USBFS_1_EnableOutEP(uint8 epNumber) 
2277:Generated_Source\PSoC4/USBFS_1.c **** {
 859              		.loc 1 2277 0
 860              		.cfi_startproc
 861              		@ args = 0, pretend = 0, frame = 0
 862              		@ frame_needed = 0, uses_anonymous_args = 0
 863              		@ link register save eliminated.
 864              	.LVL52:
2278:Generated_Source\PSoC4/USBFS_1.c ****     if ((epNumber > USBFS_1_EP0) && (epNumber < USBFS_1_MAX_EP))
 865              		.loc 1 2278 0
 866 0000 431E     		subs	r3, r0, #1
 867 0002 DBB2     		uxtb	r3, r3
 868 0004 072B     		cmp	r3, #7
 869 0006 0DD8     		bhi	.L56
2279:Generated_Source\PSoC4/USBFS_1.c ****     {
2280:Generated_Source\PSoC4/USBFS_1.c ****         USBFS_1_EP[epNumber].apiEpState = USBFS_1_NO_EVENT_PENDING;
 870              		.loc 1 2280 0
 871 0008 4200     		lsls	r2, r0, #1
 872 000a 1218     		adds	r2, r2, r0
 873 000c 9300     		lsls	r3, r2, #2
 874 000e 064A     		ldr	r2, .L58
 875 0010 D318     		adds	r3, r2, r3
 876 0012 0022     		movs	r2, #0
 877 0014 5A70     		strb	r2, [r3, #1]
2281:Generated_Source\PSoC4/USBFS_1.c **** 
2282:Generated_Source\PSoC4/USBFS_1.c ****         /* Enable OUT endpoint to be written by Host. */
2283:Generated_Source\PSoC4/USBFS_1.c ****         USBFS_1_SIE_EP_BASE.sieEp[epNumber].epCr0 = USBFS_1_EP[epNumber].epMode;
 878              		.loc 1 2283 0
 879 0016 5B79     		ldrb	r3, [r3, #5]
 880 0018 DBB2     		uxtb	r3, r3
 881 001a 8001     		lsls	r0, r0, #6
 882              	.LVL53:
 883 001c 034A     		ldr	r2, .L58+4
 884 001e 9446     		mov	ip, r2
 885 0020 6044     		add	r0, r0, ip
 886 0022 8360     		str	r3, [r0, #8]
 887              	.L56:
2284:Generated_Source\PSoC4/USBFS_1.c ****         
2285:Generated_Source\PSoC4/USBFS_1.c ****     }
2286:Generated_Source\PSoC4/USBFS_1.c **** }
 888              		.loc 1 2286 0
 889              		@ sp needed
 890 0024 7047     		bx	lr
 891              	.L59:
 892 0026 C046     		.align	2
 893              	.L58:
 894 0028 00000000 		.word	USBFS_1_EP
 895 002c F0FF2B40 		.word	1076625392
 896              		.cfi_endproc
ARM GAS  C:\Users\psmus\AppData\Local\Temp\ccX8E8QF.s 			page 57


 897              	.LFE14:
 898              		.size	USBFS_1_EnableOutEP, .-USBFS_1_EnableOutEP
 899              		.section	.text.USBFS_1_ReadOutEP,"ax",%progbits
 900              		.align	2
 901              		.global	USBFS_1_ReadOutEP
 902              		.code	16
 903              		.thumb_func
 904              		.type	USBFS_1_ReadOutEP, %function
 905              	USBFS_1_ReadOutEP:
 906              	.LFB13:
1655:Generated_Source\PSoC4/USBFS_1.c ****     if ((pData != NULL) && (epNumber > USBFS_1_EP0) && (epNumber < USBFS_1_MAX_EP))
 907              		.loc 1 1655 0
 908              		.cfi_startproc
 909              		@ args = 0, pretend = 0, frame = 0
 910              		@ frame_needed = 0, uses_anonymous_args = 0
 911              	.LVL54:
 912 0000 70B5     		push	{r4, r5, r6, lr}
 913              		.cfi_def_cfa_offset 16
 914              		.cfi_offset 4, -16
 915              		.cfi_offset 5, -12
 916              		.cfi_offset 6, -8
 917              		.cfi_offset 14, -4
 918 0002 0500     		movs	r5, r0
 919 0004 0E00     		movs	r6, r1
 920 0006 1400     		movs	r4, r2
1656:Generated_Source\PSoC4/USBFS_1.c ****     {
 921              		.loc 1 1656 0
 922 0008 0029     		cmp	r1, #0
 923 000a 1BD0     		beq	.L65
1656:Generated_Source\PSoC4/USBFS_1.c ****     {
 924              		.loc 1 1656 0 is_stmt 0 discriminator 1
 925 000c 0028     		cmp	r0, #0
 926 000e 1BD0     		beq	.L66
1656:Generated_Source\PSoC4/USBFS_1.c ****     {
 927              		.loc 1 1656 0 discriminator 2
 928 0010 0828     		cmp	r0, #8
 929 0012 1BD8     		bhi	.L67
1660:Generated_Source\PSoC4/USBFS_1.c ****     #endif /* (!USBFS_1_EP_MANAGEMENT_DMA_AUTO) */
 930              		.loc 1 1660 0 is_stmt 1
 931 0014 FFF7FEFF 		bl	USBFS_1_GetEPCount
 932              	.LVL55:
 933 0018 A042     		cmp	r0, r4
 934 001a 03D2     		bcs	.L62
1660:Generated_Source\PSoC4/USBFS_1.c ****     #endif /* (!USBFS_1_EP_MANAGEMENT_DMA_AUTO) */
 935              		.loc 1 1660 0 is_stmt 0 discriminator 1
 936 001c 2800     		movs	r0, r5
 937 001e FFF7FEFF 		bl	USBFS_1_GetEPCount
 938              	.LVL56:
 939 0022 0400     		movs	r4, r0
 940              	.L62:
 941              	.LVL57:
 942              	.LBB4:
1667:Generated_Source\PSoC4/USBFS_1.c ****             {
 943              		.loc 1 1667 0 is_stmt 1 discriminator 4
 944 0024 0023     		movs	r3, #0
 945 0026 07E0     		b	.L63
 946              	.LVL58:
ARM GAS  C:\Users\psmus\AppData\Local\Temp\ccX8E8QF.s 			page 58


 947              	.L64:
1669:Generated_Source\PSoC4/USBFS_1.c ****             }
 948              		.loc 1 1669 0 discriminator 3
 949 0028 AA01     		lsls	r2, r5, #6
 950 002a 0A49     		ldr	r1, .L68
 951 002c 8C46     		mov	ip, r1
 952 002e 6244     		add	r2, r2, ip
 953 0030 126A     		ldr	r2, [r2, #32]
 954 0032 F254     		strb	r2, [r6, r3]
1667:Generated_Source\PSoC4/USBFS_1.c ****             {
 955              		.loc 1 1667 0 discriminator 3
 956 0034 0133     		adds	r3, r3, #1
 957              	.LVL59:
 958 0036 9BB2     		uxth	r3, r3
 959              	.LVL60:
 960              	.L63:
1667:Generated_Source\PSoC4/USBFS_1.c ****             {
 961              		.loc 1 1667 0 is_stmt 0 discriminator 1
 962 0038 A342     		cmp	r3, r4
 963 003a F5D3     		bcc	.L64
 964              	.LBE4:
1674:Generated_Source\PSoC4/USBFS_1.c ****     #else
 965              		.loc 1 1674 0 is_stmt 1
 966 003c 2800     		movs	r0, r5
 967 003e FFF7FEFF 		bl	USBFS_1_EnableOutEP
 968              	.LVL61:
 969 0042 04E0     		b	.L61
 970              	.LVL62:
 971              	.L65:
1820:Generated_Source\PSoC4/USBFS_1.c ****     }
 972              		.loc 1 1820 0
 973 0044 0024     		movs	r4, #0
 974 0046 02E0     		b	.L61
 975              	.L66:
 976 0048 0024     		movs	r4, #0
 977 004a 00E0     		b	.L61
 978              	.L67:
 979 004c 0024     		movs	r4, #0
 980              	.LVL63:
 981              	.L61:
1824:Generated_Source\PSoC4/USBFS_1.c **** 
 982              		.loc 1 1824 0
 983 004e 2000     		movs	r0, r4
 984              		@ sp needed
 985              	.LVL64:
 986              	.LVL65:
 987 0050 70BD     		pop	{r4, r5, r6, pc}
 988              	.L69:
 989 0052 C046     		.align	2
 990              	.L68:
 991 0054 C0012C40 		.word	1076625856
 992              		.cfi_endproc
 993              	.LFE13:
 994              		.size	USBFS_1_ReadOutEP, .-USBFS_1_ReadOutEP
 995              		.section	.text.USBFS_1_DisableOutEP,"ax",%progbits
 996              		.align	2
 997              		.global	USBFS_1_DisableOutEP
ARM GAS  C:\Users\psmus\AppData\Local\Temp\ccX8E8QF.s 			page 59


 998              		.code	16
 999              		.thumb_func
 1000              		.type	USBFS_1_DisableOutEP, %function
 1001              	USBFS_1_DisableOutEP:
 1002              	.LFB15:
2287:Generated_Source\PSoC4/USBFS_1.c **** 
2288:Generated_Source\PSoC4/USBFS_1.c **** 
2289:Generated_Source\PSoC4/USBFS_1.c **** /*******************************************************************************
2290:Generated_Source\PSoC4/USBFS_1.c **** * Function Name: USBFS_1_DisableOutEP
2291:Generated_Source\PSoC4/USBFS_1.c **** ****************************************************************************//**
2292:Generated_Source\PSoC4/USBFS_1.c **** *
2293:Generated_Source\PSoC4/USBFS_1.c **** *  This function disables the specified USBFS OUT endpoint. Do not call this
2294:Generated_Source\PSoC4/USBFS_1.c **** *  function for IN endpoints.
2295:Generated_Source\PSoC4/USBFS_1.c **** *
2296:Generated_Source\PSoC4/USBFS_1.c **** *  \param epNumber: Contains the data endpoint number.
2297:Generated_Source\PSoC4/USBFS_1.c **** *            Valid values are between 1 and 8.
2298:Generated_Source\PSoC4/USBFS_1.c **** *
2299:Generated_Source\PSoC4/USBFS_1.c **** *******************************************************************************/
2300:Generated_Source\PSoC4/USBFS_1.c **** void USBFS_1_DisableOutEP(uint8 epNumber) 
2301:Generated_Source\PSoC4/USBFS_1.c **** {
 1003              		.loc 1 2301 0
 1004              		.cfi_startproc
 1005              		@ args = 0, pretend = 0, frame = 0
 1006              		@ frame_needed = 0, uses_anonymous_args = 0
 1007              		@ link register save eliminated.
 1008              	.LVL66:
2302:Generated_Source\PSoC4/USBFS_1.c ****     if ((epNumber > USBFS_1_EP0) && (epNumber < USBFS_1_MAX_EP))
 1009              		.loc 1 2302 0
 1010 0000 431E     		subs	r3, r0, #1
 1011 0002 DBB2     		uxtb	r3, r3
 1012 0004 072B     		cmp	r3, #7
 1013 0006 05D8     		bhi	.L70
2303:Generated_Source\PSoC4/USBFS_1.c ****     {
2304:Generated_Source\PSoC4/USBFS_1.c ****         /* Set NAK response for OUT endpoint. */
2305:Generated_Source\PSoC4/USBFS_1.c ****         USBFS_1_SIE_EP_BASE.sieEp[epNumber].epCr0 = USBFS_1_MODE_NAK_OUT;
 1014              		.loc 1 2305 0
 1015 0008 8001     		lsls	r0, r0, #6
 1016              	.LVL67:
 1017 000a 034B     		ldr	r3, .L72
 1018 000c 9C46     		mov	ip, r3
 1019 000e 6044     		add	r0, r0, ip
 1020 0010 0823     		movs	r3, #8
 1021 0012 8360     		str	r3, [r0, #8]
 1022              	.L70:
2306:Generated_Source\PSoC4/USBFS_1.c ****     }
2307:Generated_Source\PSoC4/USBFS_1.c **** }
 1023              		.loc 1 2307 0
 1024              		@ sp needed
 1025 0014 7047     		bx	lr
 1026              	.L73:
 1027 0016 C046     		.align	2
 1028              	.L72:
 1029 0018 F0FF2B40 		.word	1076625392
 1030              		.cfi_endproc
 1031              	.LFE15:
 1032              		.size	USBFS_1_DisableOutEP, .-USBFS_1_DisableOutEP
 1033              		.section	.text.USBFS_1_Force,"ax",%progbits
ARM GAS  C:\Users\psmus\AppData\Local\Temp\ccX8E8QF.s 			page 60


 1034              		.align	2
 1035              		.global	USBFS_1_Force
 1036              		.code	16
 1037              		.thumb_func
 1038              		.type	USBFS_1_Force, %function
 1039              	USBFS_1_Force:
 1040              	.LFB16:
2308:Generated_Source\PSoC4/USBFS_1.c **** 
2309:Generated_Source\PSoC4/USBFS_1.c **** 
2310:Generated_Source\PSoC4/USBFS_1.c **** /*******************************************************************************
2311:Generated_Source\PSoC4/USBFS_1.c **** * Function Name: USBFS_1_Force
2312:Generated_Source\PSoC4/USBFS_1.c **** ****************************************************************************//**
2313:Generated_Source\PSoC4/USBFS_1.c **** *
2314:Generated_Source\PSoC4/USBFS_1.c **** *  This function forces a USB J, K, or SE0 state on the D+/D– lines. It provides
2315:Generated_Source\PSoC4/USBFS_1.c **** *  the necessary mechanism for a USB device application to perform a USB Remote
2316:Generated_Source\PSoC4/USBFS_1.c **** *  Wakeup. For more information, see the USB 2.0 Specification for details on
2317:Generated_Source\PSoC4/USBFS_1.c **** *  Suspend and Resume.
2318:Generated_Source\PSoC4/USBFS_1.c **** *
2319:Generated_Source\PSoC4/USBFS_1.c **** *  \param state A byte indicating which of the four bus states to enable.
2320:Generated_Source\PSoC4/USBFS_1.c **** *        Symbolic names  and their associated values are listed here:
2321:Generated_Source\PSoC4/USBFS_1.c **** *    State                      |Description
2322:Generated_Source\PSoC4/USBFS_1.c **** *    ---------------------------|----------------------------------------------
2323:Generated_Source\PSoC4/USBFS_1.c **** *    USBFS_1_FORCE_J   | Force a J State onto the D+/D– lines
2324:Generated_Source\PSoC4/USBFS_1.c **** *    USBFS_1_FORCE_K   | Force a K State onto the D+/D– lines
2325:Generated_Source\PSoC4/USBFS_1.c **** *    USBFS_1_FORCE_SE0 | Force a Single Ended 0 onto the D+/D– lines
2326:Generated_Source\PSoC4/USBFS_1.c **** *    USBFS_1_FORCE_NONE| Return bus to SIE control
2327:Generated_Source\PSoC4/USBFS_1.c **** *
2328:Generated_Source\PSoC4/USBFS_1.c **** *
2329:Generated_Source\PSoC4/USBFS_1.c **** *******************************************************************************/
2330:Generated_Source\PSoC4/USBFS_1.c **** void USBFS_1_Force(uint8 bState) 
2331:Generated_Source\PSoC4/USBFS_1.c **** {
 1041              		.loc 1 2331 0
 1042              		.cfi_startproc
 1043              		@ args = 0, pretend = 0, frame = 0
 1044              		@ frame_needed = 0, uses_anonymous_args = 0
 1045              		@ link register save eliminated.
 1046              	.LVL68:
2332:Generated_Source\PSoC4/USBFS_1.c ****     /* This registers is used only for manual control of SIE (no masking is
2333:Generated_Source\PSoC4/USBFS_1.c ****     * needed before write into it).
2334:Generated_Source\PSoC4/USBFS_1.c ****     */
2335:Generated_Source\PSoC4/USBFS_1.c ****     USBFS_1_USBIO_CR0_REG = bState;
 1047              		.loc 1 2335 0
 1048 0000 014B     		ldr	r3, .L75
 1049 0002 1860     		str	r0, [r3]
2336:Generated_Source\PSoC4/USBFS_1.c **** }
 1050              		.loc 1 2336 0
 1051              		@ sp needed
 1052 0004 7047     		bx	lr
 1053              	.L76:
 1054 0006 C046     		.align	2
 1055              	.L75:
 1056 0008 40002C40 		.word	1076625472
 1057              		.cfi_endproc
 1058              	.LFE16:
 1059              		.size	USBFS_1_Force, .-USBFS_1_Force
 1060              		.section	.text.USBFS_1_GetEPAckState,"ax",%progbits
 1061              		.align	2
ARM GAS  C:\Users\psmus\AppData\Local\Temp\ccX8E8QF.s 			page 61


 1062              		.global	USBFS_1_GetEPAckState
 1063              		.code	16
 1064              		.thumb_func
 1065              		.type	USBFS_1_GetEPAckState, %function
 1066              	USBFS_1_GetEPAckState:
 1067              	.LFB17:
2337:Generated_Source\PSoC4/USBFS_1.c **** 
2338:Generated_Source\PSoC4/USBFS_1.c **** 
2339:Generated_Source\PSoC4/USBFS_1.c **** /*******************************************************************************
2340:Generated_Source\PSoC4/USBFS_1.c **** * Function Name: USBFS_1_GetEPAckState
2341:Generated_Source\PSoC4/USBFS_1.c **** ****************************************************************************//**
2342:Generated_Source\PSoC4/USBFS_1.c **** *
2343:Generated_Source\PSoC4/USBFS_1.c **** *  This function determines whether an ACK transaction occurred on this endpoint
2344:Generated_Source\PSoC4/USBFS_1.c **** *  by reading the ACK bit in the control register of the endpoint. It does not
2345:Generated_Source\PSoC4/USBFS_1.c **** *  clear the ACK bit.
2346:Generated_Source\PSoC4/USBFS_1.c **** *
2347:Generated_Source\PSoC4/USBFS_1.c **** *  \param epNumber Contains the data endpoint number.
2348:Generated_Source\PSoC4/USBFS_1.c **** *            Valid values are between 1 and 8.
2349:Generated_Source\PSoC4/USBFS_1.c **** *
2350:Generated_Source\PSoC4/USBFS_1.c **** *  \return
2351:Generated_Source\PSoC4/USBFS_1.c **** *  If an ACKed transaction occurred, this function returns a non-zero value.
2352:Generated_Source\PSoC4/USBFS_1.c **** *  Otherwise, it returns zero.
2353:Generated_Source\PSoC4/USBFS_1.c **** *
2354:Generated_Source\PSoC4/USBFS_1.c **** *******************************************************************************/
2355:Generated_Source\PSoC4/USBFS_1.c **** uint8 USBFS_1_GetEPAckState(uint8 epNumber) 
2356:Generated_Source\PSoC4/USBFS_1.c **** {
 1068              		.loc 1 2356 0
 1069              		.cfi_startproc
 1070              		@ args = 0, pretend = 0, frame = 0
 1071              		@ frame_needed = 0, uses_anonymous_args = 0
 1072              		@ link register save eliminated.
 1073              	.LVL69:
2357:Generated_Source\PSoC4/USBFS_1.c ****     uint32 cr = 0u;
2358:Generated_Source\PSoC4/USBFS_1.c **** 
2359:Generated_Source\PSoC4/USBFS_1.c ****     if ((epNumber > USBFS_1_EP0) && (epNumber < USBFS_1_MAX_EP))
 1074              		.loc 1 2359 0
 1075 0000 431E     		subs	r3, r0, #1
 1076 0002 DBB2     		uxtb	r3, r3
 1077 0004 072B     		cmp	r3, #7
 1078 0006 07D8     		bhi	.L79
2360:Generated_Source\PSoC4/USBFS_1.c ****     {
2361:Generated_Source\PSoC4/USBFS_1.c ****         cr = USBFS_1_SIE_EP_BASE.sieEp[epNumber].epCr0 & USBFS_1_MODE_ACKD;
 1079              		.loc 1 2361 0
 1080 0008 8001     		lsls	r0, r0, #6
 1081              	.LVL70:
 1082 000a 054B     		ldr	r3, .L80
 1083 000c 9C46     		mov	ip, r3
 1084 000e 6044     		add	r0, r0, ip
 1085 0010 8368     		ldr	r3, [r0, #8]
 1086 0012 1020     		movs	r0, #16
 1087 0014 1840     		ands	r0, r3
 1088              	.LVL71:
 1089 0016 00E0     		b	.L78
 1090              	.LVL72:
 1091              	.L79:
2357:Generated_Source\PSoC4/USBFS_1.c ****     uint32 cr = 0u;
 1092              		.loc 1 2357 0
ARM GAS  C:\Users\psmus\AppData\Local\Temp\ccX8E8QF.s 			page 62


 1093 0018 0020     		movs	r0, #0
 1094              	.LVL73:
 1095              	.L78:
2362:Generated_Source\PSoC4/USBFS_1.c ****     }
2363:Generated_Source\PSoC4/USBFS_1.c **** 
2364:Generated_Source\PSoC4/USBFS_1.c ****     return ((uint8) cr);
 1096              		.loc 1 2364 0
 1097 001a C0B2     		uxtb	r0, r0
 1098              	.LVL74:
2365:Generated_Source\PSoC4/USBFS_1.c **** }
 1099              		.loc 1 2365 0
 1100              		@ sp needed
 1101 001c 7047     		bx	lr
 1102              	.L81:
 1103 001e C046     		.align	2
 1104              	.L80:
 1105 0020 F0FF2B40 		.word	1076625392
 1106              		.cfi_endproc
 1107              	.LFE17:
 1108              		.size	USBFS_1_GetEPAckState, .-USBFS_1_GetEPAckState
 1109              		.section	.text.USBFS_1_SetPowerStatus,"ax",%progbits
 1110              		.align	2
 1111              		.global	USBFS_1_SetPowerStatus
 1112              		.code	16
 1113              		.thumb_func
 1114              		.type	USBFS_1_SetPowerStatus, %function
 1115              	USBFS_1_SetPowerStatus:
 1116              	.LFB18:
2366:Generated_Source\PSoC4/USBFS_1.c **** 
2367:Generated_Source\PSoC4/USBFS_1.c **** 
2368:Generated_Source\PSoC4/USBFS_1.c **** /*******************************************************************************
2369:Generated_Source\PSoC4/USBFS_1.c **** * Function Name: USBFS_1_SetPowerStatus
2370:Generated_Source\PSoC4/USBFS_1.c **** ****************************************************************************//**
2371:Generated_Source\PSoC4/USBFS_1.c **** *
2372:Generated_Source\PSoC4/USBFS_1.c **** *  This function sets the current power status. The device replies to USB
2373:Generated_Source\PSoC4/USBFS_1.c **** *  GET_STATUS requests based on this value. This allows the device to properly
2374:Generated_Source\PSoC4/USBFS_1.c **** *  report its status for USB Chapter 9 compliance. Devices can change their
2375:Generated_Source\PSoC4/USBFS_1.c **** *  power source from self powered to bus powered at any time and report their
2376:Generated_Source\PSoC4/USBFS_1.c **** *  current power source as part of the device status. You should call this
2377:Generated_Source\PSoC4/USBFS_1.c **** *  function any time your device changes from self powered to bus powered or
2378:Generated_Source\PSoC4/USBFS_1.c **** *  vice versa, and set the status appropriately.
2379:Generated_Source\PSoC4/USBFS_1.c **** *
2380:Generated_Source\PSoC4/USBFS_1.c **** *  \param powerStatus: Contains the desired power status, one for self powered
2381:Generated_Source\PSoC4/USBFS_1.c **** *        or zero for bus powered. Symbolic names and their associated values are
2382:Generated_Source\PSoC4/USBFS_1.c **** *        given here:
2383:Generated_Source\PSoC4/USBFS_1.c **** *  Power Status                                |Description
2384:Generated_Source\PSoC4/USBFS_1.c **** *  --------------------------------------------|---------------------------
2385:Generated_Source\PSoC4/USBFS_1.c **** *  USBFS_1_DEVICE_STATUS_BUS_POWERED  | Set the device to bus powered
2386:Generated_Source\PSoC4/USBFS_1.c **** *  USBFS_1_DEVICE_STATUS_SELF_POWERED | Set the device to self powered
2387:Generated_Source\PSoC4/USBFS_1.c **** *
2388:Generated_Source\PSoC4/USBFS_1.c **** * \globalvars
2389:Generated_Source\PSoC4/USBFS_1.c **** *
2390:Generated_Source\PSoC4/USBFS_1.c **** *  \ref USBFS_1_deviceStatus - set power status
2391:Generated_Source\PSoC4/USBFS_1.c **** *
2392:Generated_Source\PSoC4/USBFS_1.c **** * \reentrant
2393:Generated_Source\PSoC4/USBFS_1.c **** *  No.
2394:Generated_Source\PSoC4/USBFS_1.c **** *
ARM GAS  C:\Users\psmus\AppData\Local\Temp\ccX8E8QF.s 			page 63


2395:Generated_Source\PSoC4/USBFS_1.c **** *******************************************************************************/
2396:Generated_Source\PSoC4/USBFS_1.c **** void USBFS_1_SetPowerStatus(uint8 powerStatus) 
2397:Generated_Source\PSoC4/USBFS_1.c **** {
 1117              		.loc 1 2397 0
 1118              		.cfi_startproc
 1119              		@ args = 0, pretend = 0, frame = 0
 1120              		@ frame_needed = 0, uses_anonymous_args = 0
 1121              		@ link register save eliminated.
 1122              	.LVL75:
2398:Generated_Source\PSoC4/USBFS_1.c ****     if (powerStatus != USBFS_1_DEVICE_STATUS_BUS_POWERED)
 1123              		.loc 1 2398 0
 1124 0000 0028     		cmp	r0, #0
 1125 0002 06D0     		beq	.L83
2399:Generated_Source\PSoC4/USBFS_1.c ****     {
2400:Generated_Source\PSoC4/USBFS_1.c ****         USBFS_1_deviceStatus |= (uint8)  USBFS_1_DEVICE_STATUS_SELF_POWERED;
 1126              		.loc 1 2400 0
 1127 0004 064A     		ldr	r2, .L85
 1128 0006 1178     		ldrb	r1, [r2]
 1129 0008 0123     		movs	r3, #1
 1130 000a 0B43     		orrs	r3, r1
 1131 000c DBB2     		uxtb	r3, r3
 1132 000e 1370     		strb	r3, [r2]
 1133 0010 04E0     		b	.L82
 1134              	.L83:
2401:Generated_Source\PSoC4/USBFS_1.c ****     }
2402:Generated_Source\PSoC4/USBFS_1.c ****     else
2403:Generated_Source\PSoC4/USBFS_1.c ****     {
2404:Generated_Source\PSoC4/USBFS_1.c ****         USBFS_1_deviceStatus &= (uint8) ~USBFS_1_DEVICE_STATUS_SELF_POWERED;
 1135              		.loc 1 2404 0
 1136 0012 034A     		ldr	r2, .L85
 1137 0014 1378     		ldrb	r3, [r2]
 1138 0016 0121     		movs	r1, #1
 1139 0018 8B43     		bics	r3, r1
 1140 001a 1370     		strb	r3, [r2]
 1141              	.L82:
2405:Generated_Source\PSoC4/USBFS_1.c ****     }
2406:Generated_Source\PSoC4/USBFS_1.c **** }
 1142              		.loc 1 2406 0
 1143              		@ sp needed
 1144 001c 7047     		bx	lr
 1145              	.L86:
 1146 001e C046     		.align	2
 1147              	.L85:
 1148 0020 00000000 		.word	USBFS_1_deviceStatus
 1149              		.cfi_endproc
 1150              	.LFE18:
 1151              		.size	USBFS_1_SetPowerStatus, .-USBFS_1_SetPowerStatus
 1152              		.section	.text.USBFS_1_RWUEnabled,"ax",%progbits
 1153              		.align	2
 1154              		.global	USBFS_1_RWUEnabled
 1155              		.code	16
 1156              		.thumb_func
 1157              		.type	USBFS_1_RWUEnabled, %function
 1158              	USBFS_1_RWUEnabled:
 1159              	.LFB19:
2407:Generated_Source\PSoC4/USBFS_1.c **** 
2408:Generated_Source\PSoC4/USBFS_1.c **** 
ARM GAS  C:\Users\psmus\AppData\Local\Temp\ccX8E8QF.s 			page 64


2409:Generated_Source\PSoC4/USBFS_1.c **** #if (USBFS_1_VBUS_MONITORING_ENABLE)
2410:Generated_Source\PSoC4/USBFS_1.c ****     /***************************************************************************
2411:Generated_Source\PSoC4/USBFS_1.c ****     * Function Name: USBFS_1_VBusPresent
2412:Generated_Source\PSoC4/USBFS_1.c ****     ************************************************************************//**
2413:Generated_Source\PSoC4/USBFS_1.c ****     *
2414:Generated_Source\PSoC4/USBFS_1.c ****     *  Determines VBUS presence for self-powered devices. This function is
2415:Generated_Source\PSoC4/USBFS_1.c ****     *  available when the VBUS Monitoring option is enabled in the Advanced tab.
2416:Generated_Source\PSoC4/USBFS_1.c ****     *
2417:Generated_Source\PSoC4/USBFS_1.c ****     * \return
2418:Generated_Source\PSoC4/USBFS_1.c ****     *  The return value can be the following:
2419:Generated_Source\PSoC4/USBFS_1.c ****     *  Return Value | Description
2420:Generated_Source\PSoC4/USBFS_1.c ****     *  -------------|-----------------
2421:Generated_Source\PSoC4/USBFS_1.c ****     *  1            | VBUS is present
2422:Generated_Source\PSoC4/USBFS_1.c ****     *  0            | VBUS is absent
2423:Generated_Source\PSoC4/USBFS_1.c ****     *
2424:Generated_Source\PSoC4/USBFS_1.c ****     *
2425:Generated_Source\PSoC4/USBFS_1.c ****     ***************************************************************************/
2426:Generated_Source\PSoC4/USBFS_1.c ****     uint8 USBFS_1_VBusPresent(void) 
2427:Generated_Source\PSoC4/USBFS_1.c ****     {
2428:Generated_Source\PSoC4/USBFS_1.c ****         return ((0u != (USBFS_1_VBUS_STATUS_REG & USBFS_1_VBUS_VALID)) ? (uint8) 1u : (uint8) 0u);
2429:Generated_Source\PSoC4/USBFS_1.c ****     }
2430:Generated_Source\PSoC4/USBFS_1.c **** #endif /* (USBFS_1_VBUS_MONITORING_ENABLE) */
2431:Generated_Source\PSoC4/USBFS_1.c **** 
2432:Generated_Source\PSoC4/USBFS_1.c **** 
2433:Generated_Source\PSoC4/USBFS_1.c **** /*******************************************************************************
2434:Generated_Source\PSoC4/USBFS_1.c **** * Function Name: USBFS_1_RWUEnabled
2435:Generated_Source\PSoC4/USBFS_1.c **** ****************************************************************************//**
2436:Generated_Source\PSoC4/USBFS_1.c **** *
2437:Generated_Source\PSoC4/USBFS_1.c **** *  This function returns the current remote wakeup status.
2438:Generated_Source\PSoC4/USBFS_1.c **** *  If the device supports remote wakeup, the application should use this
2439:Generated_Source\PSoC4/USBFS_1.c **** *  function to determine if remote wakeup was enabled by the host. When the
2440:Generated_Source\PSoC4/USBFS_1.c **** *  device is suspended and it determines the conditions to initiate a remote
2441:Generated_Source\PSoC4/USBFS_1.c **** *  wakeup are met, the application should use the USBFS_Force() function to
2442:Generated_Source\PSoC4/USBFS_1.c **** *  force the appropriate J and K states onto the USB bus, signaling a remote
2443:Generated_Source\PSoC4/USBFS_1.c **** *  wakeup.
2444:Generated_Source\PSoC4/USBFS_1.c **** *
2445:Generated_Source\PSoC4/USBFS_1.c **** *
2446:Generated_Source\PSoC4/USBFS_1.c **** * \return
2447:Generated_Source\PSoC4/USBFS_1.c **** *  Returns non-zero value if remote wakeup is enabled and zero otherwise.
2448:Generated_Source\PSoC4/USBFS_1.c **** *
2449:Generated_Source\PSoC4/USBFS_1.c **** * \globalvars
2450:Generated_Source\PSoC4/USBFS_1.c **** *  USBFS_1_deviceStatus - checked to determine remote status
2451:Generated_Source\PSoC4/USBFS_1.c **** *
2452:Generated_Source\PSoC4/USBFS_1.c **** *******************************************************************************/
2453:Generated_Source\PSoC4/USBFS_1.c **** uint8 USBFS_1_RWUEnabled(void) 
2454:Generated_Source\PSoC4/USBFS_1.c **** {
 1160              		.loc 1 2454 0
 1161              		.cfi_startproc
 1162              		@ args = 0, pretend = 0, frame = 0
 1163              		@ frame_needed = 0, uses_anonymous_args = 0
 1164              		@ link register save eliminated.
 1165              	.LVL76:
2455:Generated_Source\PSoC4/USBFS_1.c ****     uint8 result = USBFS_1_FALSE;
2456:Generated_Source\PSoC4/USBFS_1.c **** 
2457:Generated_Source\PSoC4/USBFS_1.c ****     if (0u != (USBFS_1_deviceStatus & USBFS_1_DEVICE_STATUS_REMOTE_WAKEUP))
 1166              		.loc 1 2457 0
 1167 0000 034B     		ldr	r3, .L90
ARM GAS  C:\Users\psmus\AppData\Local\Temp\ccX8E8QF.s 			page 65


 1168 0002 1B78     		ldrb	r3, [r3]
 1169 0004 9B07     		lsls	r3, r3, #30
 1170 0006 01D4     		bmi	.L89
2455:Generated_Source\PSoC4/USBFS_1.c ****     uint8 result = USBFS_1_FALSE;
 1171              		.loc 1 2455 0
 1172 0008 0020     		movs	r0, #0
 1173 000a 00E0     		b	.L88
 1174              	.L89:
2458:Generated_Source\PSoC4/USBFS_1.c ****     {
2459:Generated_Source\PSoC4/USBFS_1.c ****         result = USBFS_1_TRUE;
 1175              		.loc 1 2459 0
 1176 000c 0120     		movs	r0, #1
 1177              	.L88:
 1178              	.LVL77:
2460:Generated_Source\PSoC4/USBFS_1.c ****     }
2461:Generated_Source\PSoC4/USBFS_1.c **** 
2462:Generated_Source\PSoC4/USBFS_1.c ****     return (result);
2463:Generated_Source\PSoC4/USBFS_1.c **** }
 1179              		.loc 1 2463 0
 1180              		@ sp needed
 1181 000e 7047     		bx	lr
 1182              	.L91:
 1183              		.align	2
 1184              	.L90:
 1185 0010 00000000 		.word	USBFS_1_deviceStatus
 1186              		.cfi_endproc
 1187              	.LFE19:
 1188              		.size	USBFS_1_RWUEnabled, .-USBFS_1_RWUEnabled
 1189              		.section	.text.USBFS_1_GetDeviceAddress,"ax",%progbits
 1190              		.align	2
 1191              		.global	USBFS_1_GetDeviceAddress
 1192              		.code	16
 1193              		.thumb_func
 1194              		.type	USBFS_1_GetDeviceAddress, %function
 1195              	USBFS_1_GetDeviceAddress:
 1196              	.LFB20:
2464:Generated_Source\PSoC4/USBFS_1.c **** 
2465:Generated_Source\PSoC4/USBFS_1.c **** 
2466:Generated_Source\PSoC4/USBFS_1.c **** /*******************************************************************************
2467:Generated_Source\PSoC4/USBFS_1.c **** * Function Name: USBFS_1_GetDeviceAddress
2468:Generated_Source\PSoC4/USBFS_1.c **** ****************************************************************************//**
2469:Generated_Source\PSoC4/USBFS_1.c **** *
2470:Generated_Source\PSoC4/USBFS_1.c **** *  This function returns the currently assigned address for the USB device.
2471:Generated_Source\PSoC4/USBFS_1.c **** *
2472:Generated_Source\PSoC4/USBFS_1.c **** * \return
2473:Generated_Source\PSoC4/USBFS_1.c **** *  Returns the currently assigned address.
2474:Generated_Source\PSoC4/USBFS_1.c **** *  Returns 0 if the device has not yet been assigned an address.
2475:Generated_Source\PSoC4/USBFS_1.c **** *
2476:Generated_Source\PSoC4/USBFS_1.c **** *******************************************************************************/
2477:Generated_Source\PSoC4/USBFS_1.c **** uint8 USBFS_1_GetDeviceAddress(void) 
2478:Generated_Source\PSoC4/USBFS_1.c **** {
 1197              		.loc 1 2478 0
 1198              		.cfi_startproc
 1199              		@ args = 0, pretend = 0, frame = 0
 1200              		@ frame_needed = 0, uses_anonymous_args = 0
 1201              		@ link register save eliminated.
2479:Generated_Source\PSoC4/USBFS_1.c ****     return (uint8)(USBFS_1_CR0_REG & USBFS_1_CR0_DEVICE_ADDRESS_MASK);
ARM GAS  C:\Users\psmus\AppData\Local\Temp\ccX8E8QF.s 			page 66


 1202              		.loc 1 2479 0
 1203 0000 024B     		ldr	r3, .L93
 1204 0002 1B68     		ldr	r3, [r3]
 1205 0004 7F20     		movs	r0, #127
 1206 0006 1840     		ands	r0, r3
2480:Generated_Source\PSoC4/USBFS_1.c **** }
 1207              		.loc 1 2480 0
 1208              		@ sp needed
 1209 0008 7047     		bx	lr
 1210              	.L94:
 1211 000a C046     		.align	2
 1212              	.L93:
 1213 000c 20002C40 		.word	1076625440
 1214              		.cfi_endproc
 1215              	.LFE20:
 1216              		.size	USBFS_1_GetDeviceAddress, .-USBFS_1_GetDeviceAddress
 1217              		.section	.text.USBFS_1_EnableSofInt,"ax",%progbits
 1218              		.align	2
 1219              		.global	USBFS_1_EnableSofInt
 1220              		.code	16
 1221              		.thumb_func
 1222              		.type	USBFS_1_EnableSofInt, %function
 1223              	USBFS_1_EnableSofInt:
 1224              	.LFB21:
2481:Generated_Source\PSoC4/USBFS_1.c **** 
2482:Generated_Source\PSoC4/USBFS_1.c **** 
2483:Generated_Source\PSoC4/USBFS_1.c **** /*******************************************************************************
2484:Generated_Source\PSoC4/USBFS_1.c **** * Function Name: USBFS_1_EnableSofInt
2485:Generated_Source\PSoC4/USBFS_1.c **** ****************************************************************************//**
2486:Generated_Source\PSoC4/USBFS_1.c **** *
2487:Generated_Source\PSoC4/USBFS_1.c **** *  This function enables interrupt generation when a Start-of-Frame (SOF)
2488:Generated_Source\PSoC4/USBFS_1.c **** *  packet is received from the host.
2489:Generated_Source\PSoC4/USBFS_1.c **** *
2490:Generated_Source\PSoC4/USBFS_1.c **** *******************************************************************************/
2491:Generated_Source\PSoC4/USBFS_1.c **** void USBFS_1_EnableSofInt(void) 
2492:Generated_Source\PSoC4/USBFS_1.c **** {
 1225              		.loc 1 2492 0
 1226              		.cfi_startproc
 1227              		@ args = 0, pretend = 0, frame = 0
 1228              		@ frame_needed = 0, uses_anonymous_args = 0
 1229              		@ link register save eliminated.
2493:Generated_Source\PSoC4/USBFS_1.c **** #if (CY_PSOC4)
2494:Generated_Source\PSoC4/USBFS_1.c ****     /* Enable SOF interrupt interrupt source. */
2495:Generated_Source\PSoC4/USBFS_1.c ****     USBFS_1_INTR_SIE_MASK_REG |= (uint32) USBFS_1_INTR_SIE_SOF_INTR;
 1230              		.loc 1 2495 0
 1231 0000 024A     		ldr	r2, .L96
 1232 0002 1168     		ldr	r1, [r2]
 1233 0004 0123     		movs	r3, #1
 1234 0006 0B43     		orrs	r3, r1
 1235 0008 1360     		str	r3, [r2]
2496:Generated_Source\PSoC4/USBFS_1.c **** #else
2497:Generated_Source\PSoC4/USBFS_1.c ****     /* Enable SOF interrupt if it is present. */
2498:Generated_Source\PSoC4/USBFS_1.c ****     #if (USBFS_1_SOF_ISR_ACTIVE)
2499:Generated_Source\PSoC4/USBFS_1.c ****         CyIntEnable(USBFS_1_SOF_VECT_NUM);
2500:Generated_Source\PSoC4/USBFS_1.c ****     #endif /* (USBFS_1_SOF_ISR_ACTIVE) */
2501:Generated_Source\PSoC4/USBFS_1.c **** #endif /* (CY_PSOC4) */
2502:Generated_Source\PSoC4/USBFS_1.c **** }
ARM GAS  C:\Users\psmus\AppData\Local\Temp\ccX8E8QF.s 			page 67


 1236              		.loc 1 2502 0
 1237              		@ sp needed
 1238 000a 7047     		bx	lr
 1239              	.L97:
 1240              		.align	2
 1241              	.L96:
 1242 000c 28202C40 		.word	1076633640
 1243              		.cfi_endproc
 1244              	.LFE21:
 1245              		.size	USBFS_1_EnableSofInt, .-USBFS_1_EnableSofInt
 1246              		.section	.text.USBFS_1_DisableSofInt,"ax",%progbits
 1247              		.align	2
 1248              		.global	USBFS_1_DisableSofInt
 1249              		.code	16
 1250              		.thumb_func
 1251              		.type	USBFS_1_DisableSofInt, %function
 1252              	USBFS_1_DisableSofInt:
 1253              	.LFB22:
2503:Generated_Source\PSoC4/USBFS_1.c **** 
2504:Generated_Source\PSoC4/USBFS_1.c **** 
2505:Generated_Source\PSoC4/USBFS_1.c **** /*******************************************************************************
2506:Generated_Source\PSoC4/USBFS_1.c **** * Function Name: USBFS_1_DisableSofInt
2507:Generated_Source\PSoC4/USBFS_1.c **** ****************************************************************************//**
2508:Generated_Source\PSoC4/USBFS_1.c **** *
2509:Generated_Source\PSoC4/USBFS_1.c **** *  This function disables interrupt generation when a Start-of-Frame (SOF)
2510:Generated_Source\PSoC4/USBFS_1.c **** *  packet is received from the host.
2511:Generated_Source\PSoC4/USBFS_1.c **** *
2512:Generated_Source\PSoC4/USBFS_1.c **** *******************************************************************************/
2513:Generated_Source\PSoC4/USBFS_1.c **** void USBFS_1_DisableSofInt(void) 
2514:Generated_Source\PSoC4/USBFS_1.c **** {
 1254              		.loc 1 2514 0
 1255              		.cfi_startproc
 1256              		@ args = 0, pretend = 0, frame = 0
 1257              		@ frame_needed = 0, uses_anonymous_args = 0
 1258              		@ link register save eliminated.
2515:Generated_Source\PSoC4/USBFS_1.c **** #if (CY_PSOC4)
2516:Generated_Source\PSoC4/USBFS_1.c ****     /* Disable SOF interrupt interrupt source. */
2517:Generated_Source\PSoC4/USBFS_1.c ****     USBFS_1_INTR_SIE_MASK_REG &= (uint32) ~USBFS_1_INTR_SIE_SOF_INTR;
 1259              		.loc 1 2517 0
 1260 0000 024A     		ldr	r2, .L99
 1261 0002 1368     		ldr	r3, [r2]
 1262 0004 0121     		movs	r1, #1
 1263 0006 8B43     		bics	r3, r1
 1264 0008 1360     		str	r3, [r2]
2518:Generated_Source\PSoC4/USBFS_1.c **** #else
2519:Generated_Source\PSoC4/USBFS_1.c ****     /* Disable SOF interrupt if it is present. */
2520:Generated_Source\PSoC4/USBFS_1.c ****     #if (USBFS_1_SOF_ISR_ACTIVE)
2521:Generated_Source\PSoC4/USBFS_1.c ****         CyIntDisable(USBFS_1_SOF_VECT_NUM);
2522:Generated_Source\PSoC4/USBFS_1.c ****     #endif /* (USBFS_1_SOF_ISR_ACTIVE) */
2523:Generated_Source\PSoC4/USBFS_1.c **** #endif /* (CY_PSOC4) */
2524:Generated_Source\PSoC4/USBFS_1.c **** }
 1265              		.loc 1 2524 0
 1266              		@ sp needed
 1267 000a 7047     		bx	lr
 1268              	.L100:
 1269              		.align	2
 1270              	.L99:
ARM GAS  C:\Users\psmus\AppData\Local\Temp\ccX8E8QF.s 			page 68


 1271 000c 28202C40 		.word	1076633640
 1272              		.cfi_endproc
 1273              	.LFE22:
 1274              		.size	USBFS_1_DisableSofInt, .-USBFS_1_DisableSofInt
 1275              		.global	USBFS_1_initVar
 1276              		.bss
 1277              		.set	.LANCHOR0,. + 0
 1278              		.type	USBFS_1_initVar, %object
 1279              		.size	USBFS_1_initVar, 1
 1280              	USBFS_1_initVar:
 1281 0000 00       		.space	1
 1282              		.text
 1283              	.Letext0:
 1284              		.file 2 "Generated_Source\\PSoC4\\cytypes.h"
 1285              		.file 3 "Generated_Source\\PSoC4\\USBFS_1.h"
 1286              		.file 4 "Generated_Source\\PSoC4\\USBFS_1_pvt.h"
 1287              		.file 5 "Generated_Source\\PSoC4\\CyLib.h"
 1288              		.section	.debug_info,"",%progbits
 1289              	.Ldebug_info0:
 1290 0000 FC080000 		.4byte	0x8fc
 1291 0004 0400     		.2byte	0x4
 1292 0006 00000000 		.4byte	.Ldebug_abbrev0
 1293 000a 04       		.byte	0x4
 1294 000b 01       		.uleb128 0x1
 1295 000c 4D000000 		.4byte	.LASF99
 1296 0010 0C       		.byte	0xc
 1297 0011 FA050000 		.4byte	.LASF100
 1298 0015 5D010000 		.4byte	.LASF101
 1299 0019 18000000 		.4byte	.Ldebug_ranges0+0x18
 1300 001d 00000000 		.4byte	0
 1301 0021 00000000 		.4byte	.Ldebug_line0
 1302 0025 02       		.uleb128 0x2
 1303 0026 01       		.byte	0x1
 1304 0027 06       		.byte	0x6
 1305 0028 4C010000 		.4byte	.LASF0
 1306 002c 02       		.uleb128 0x2
 1307 002d 01       		.byte	0x1
 1308 002e 08       		.byte	0x8
 1309 002f C4040000 		.4byte	.LASF1
 1310 0033 02       		.uleb128 0x2
 1311 0034 02       		.byte	0x2
 1312 0035 05       		.byte	0x5
 1313 0036 D2040000 		.4byte	.LASF2
 1314 003a 02       		.uleb128 0x2
 1315 003b 02       		.byte	0x2
 1316 003c 07       		.byte	0x7
 1317 003d 26030000 		.4byte	.LASF3
 1318 0041 02       		.uleb128 0x2
 1319 0042 04       		.byte	0x4
 1320 0043 05       		.byte	0x5
 1321 0044 44000000 		.4byte	.LASF4
 1322 0048 02       		.uleb128 0x2
 1323 0049 04       		.byte	0x4
 1324 004a 07       		.byte	0x7
 1325 004b 9B020000 		.4byte	.LASF5
 1326 004f 02       		.uleb128 0x2
 1327 0050 08       		.byte	0x8
ARM GAS  C:\Users\psmus\AppData\Local\Temp\ccX8E8QF.s 			page 69


 1328 0051 05       		.byte	0x5
 1329 0052 3E010000 		.4byte	.LASF6
 1330 0056 02       		.uleb128 0x2
 1331 0057 08       		.byte	0x8
 1332 0058 07       		.byte	0x7
 1333 0059 EB000000 		.4byte	.LASF7
 1334 005d 03       		.uleb128 0x3
 1335 005e 04       		.byte	0x4
 1336 005f 05       		.byte	0x5
 1337 0060 696E7400 		.ascii	"int\000"
 1338 0064 02       		.uleb128 0x2
 1339 0065 04       		.byte	0x4
 1340 0066 07       		.byte	0x7
 1341 0067 62020000 		.4byte	.LASF8
 1342 006b 04       		.uleb128 0x4
 1343 006c C0010000 		.4byte	.LASF9
 1344 0070 02       		.byte	0x2
 1345 0071 E401     		.2byte	0x1e4
 1346 0073 2C000000 		.4byte	0x2c
 1347 0077 04       		.uleb128 0x4
 1348 0078 00000000 		.4byte	.LASF10
 1349 007c 02       		.byte	0x2
 1350 007d E501     		.2byte	0x1e5
 1351 007f 3A000000 		.4byte	0x3a
 1352 0083 04       		.uleb128 0x4
 1353 0084 12020000 		.4byte	.LASF11
 1354 0088 02       		.byte	0x2
 1355 0089 E601     		.2byte	0x1e6
 1356 008b 48000000 		.4byte	0x48
 1357 008f 02       		.uleb128 0x2
 1358 0090 04       		.byte	0x4
 1359 0091 04       		.byte	0x4
 1360 0092 71040000 		.4byte	.LASF12
 1361 0096 02       		.uleb128 0x2
 1362 0097 08       		.byte	0x8
 1363 0098 04       		.byte	0x4
 1364 0099 E5010000 		.4byte	.LASF13
 1365 009d 02       		.uleb128 0x2
 1366 009e 01       		.byte	0x1
 1367 009f 08       		.byte	0x8
 1368 00a0 59050000 		.4byte	.LASF14
 1369 00a4 05       		.uleb128 0x5
 1370 00a5 6B000000 		.4byte	0x6b
 1371 00a9 04       		.uleb128 0x4
 1372 00aa C8030000 		.4byte	.LASF15
 1373 00ae 02       		.byte	0x2
 1374 00af 9002     		.2byte	0x290
 1375 00b1 B5000000 		.4byte	0xb5
 1376 00b5 05       		.uleb128 0x5
 1377 00b6 83000000 		.4byte	0x83
 1378 00ba 02       		.uleb128 0x2
 1379 00bb 08       		.byte	0x8
 1380 00bc 04       		.byte	0x4
 1381 00bd 0D040000 		.4byte	.LASF16
 1382 00c1 02       		.uleb128 0x2
 1383 00c2 04       		.byte	0x4
 1384 00c3 07       		.byte	0x7
ARM GAS  C:\Users\psmus\AppData\Local\Temp\ccX8E8QF.s 			page 70


 1385 00c4 F1030000 		.4byte	.LASF17
 1386 00c8 06       		.uleb128 0x6
 1387 00c9 0C       		.byte	0xc
 1388 00ca 03       		.byte	0x3
 1389 00cb 89       		.byte	0x89
 1390 00cc 3D010000 		.4byte	0x13d
 1391 00d0 07       		.uleb128 0x7
 1392 00d1 19040000 		.4byte	.LASF18
 1393 00d5 03       		.byte	0x3
 1394 00d6 8B       		.byte	0x8b
 1395 00d7 6B000000 		.4byte	0x6b
 1396 00db 00       		.byte	0
 1397 00dc 07       		.uleb128 0x7
 1398 00dd 8D040000 		.4byte	.LASF19
 1399 00e1 03       		.byte	0x3
 1400 00e2 8C       		.byte	0x8c
 1401 00e3 6B000000 		.4byte	0x6b
 1402 00e7 01       		.byte	0x1
 1403 00e8 07       		.uleb128 0x7
 1404 00e9 CE030000 		.4byte	.LASF20
 1405 00ed 03       		.byte	0x3
 1406 00ee 8D       		.byte	0x8d
 1407 00ef 6B000000 		.4byte	0x6b
 1408 00f3 02       		.byte	0x2
 1409 00f4 07       		.uleb128 0x7
 1410 00f5 C6010000 		.4byte	.LASF21
 1411 00f9 03       		.byte	0x3
 1412 00fa 8E       		.byte	0x8e
 1413 00fb 6B000000 		.4byte	0x6b
 1414 00ff 03       		.byte	0x3
 1415 0100 07       		.uleb128 0x7
 1416 0101 18010000 		.4byte	.LASF22
 1417 0105 03       		.byte	0x3
 1418 0106 8F       		.byte	0x8f
 1419 0107 6B000000 		.4byte	0x6b
 1420 010b 04       		.byte	0x4
 1421 010c 07       		.uleb128 0x7
 1422 010d 25020000 		.4byte	.LASF23
 1423 0111 03       		.byte	0x3
 1424 0112 90       		.byte	0x90
 1425 0113 6B000000 		.4byte	0x6b
 1426 0117 05       		.byte	0x5
 1427 0118 07       		.uleb128 0x7
 1428 0119 6E050000 		.4byte	.LASF24
 1429 011d 03       		.byte	0x3
 1430 011e 91       		.byte	0x91
 1431 011f 77000000 		.4byte	0x77
 1432 0123 06       		.byte	0x6
 1433 0124 07       		.uleb128 0x7
 1434 0125 63050000 		.4byte	.LASF25
 1435 0129 03       		.byte	0x3
 1436 012a 92       		.byte	0x92
 1437 012b 77000000 		.4byte	0x77
 1438 012f 08       		.byte	0x8
 1439 0130 07       		.uleb128 0x7
 1440 0131 B7030000 		.4byte	.LASF26
 1441 0135 03       		.byte	0x3
ARM GAS  C:\Users\psmus\AppData\Local\Temp\ccX8E8QF.s 			page 71


 1442 0136 93       		.byte	0x93
 1443 0137 6B000000 		.4byte	0x6b
 1444 013b 0A       		.byte	0xa
 1445 013c 00       		.byte	0
 1446 013d 08       		.uleb128 0x8
 1447 013e 48030000 		.4byte	.LASF27
 1448 0142 03       		.byte	0x3
 1449 0143 94       		.byte	0x94
 1450 0144 C8000000 		.4byte	0xc8
 1451 0148 06       		.uleb128 0x6
 1452 0149 40       		.byte	0x40
 1453 014a 03       		.byte	0x3
 1454 014b D0       		.byte	0xd0
 1455 014c 81010000 		.4byte	0x181
 1456 0150 07       		.uleb128 0x7
 1457 0151 47040000 		.4byte	.LASF28
 1458 0155 03       		.byte	0x3
 1459 0156 D2       		.byte	0xd2
 1460 0157 83000000 		.4byte	0x83
 1461 015b 00       		.byte	0
 1462 015c 07       		.uleb128 0x7
 1463 015d 4E040000 		.4byte	.LASF29
 1464 0161 03       		.byte	0x3
 1465 0162 D3       		.byte	0xd3
 1466 0163 83000000 		.4byte	0x83
 1467 0167 04       		.byte	0x4
 1468 0168 07       		.uleb128 0x7
 1469 0169 6B040000 		.4byte	.LASF30
 1470 016d 03       		.byte	0x3
 1471 016e D4       		.byte	0xd4
 1472 016f 83000000 		.4byte	0x83
 1473 0173 08       		.byte	0x8
 1474 0174 09       		.uleb128 0x9
 1475 0175 67617000 		.ascii	"gap\000"
 1476 0179 03       		.byte	0x3
 1477 017a D5       		.byte	0xd5
 1478 017b 81010000 		.4byte	0x181
 1479 017f 0C       		.byte	0xc
 1480 0180 00       		.byte	0
 1481 0181 0A       		.uleb128 0xa
 1482 0182 83000000 		.4byte	0x83
 1483 0186 91010000 		.4byte	0x191
 1484 018a 0B       		.uleb128 0xb
 1485 018b C1000000 		.4byte	0xc1
 1486 018f 0C       		.byte	0xc
 1487 0190 00       		.byte	0
 1488 0191 08       		.uleb128 0x8
 1489 0192 55040000 		.4byte	.LASF31
 1490 0196 03       		.byte	0x3
 1491 0197 D6       		.byte	0xd6
 1492 0198 48010000 		.4byte	0x148
 1493 019c 06       		.uleb128 0x6
 1494 019d 40       		.byte	0x40
 1495 019e 03       		.byte	0x3
 1496 019f E2       		.byte	0xe2
 1497 01a0 1D020000 		.4byte	0x21d
 1498 01a4 07       		.uleb128 0x7
ARM GAS  C:\Users\psmus\AppData\Local\Temp\ccX8E8QF.s 			page 72


 1499 01a5 1D010000 		.4byte	.LASF32
 1500 01a9 03       		.byte	0x3
 1501 01aa E4       		.byte	0xe4
 1502 01ab 83000000 		.4byte	0x83
 1503 01af 00       		.byte	0
 1504 01b0 07       		.uleb128 0x7
 1505 01b1 1B060000 		.4byte	.LASF33
 1506 01b5 03       		.byte	0x3
 1507 01b6 E5       		.byte	0xe5
 1508 01b7 83000000 		.4byte	0x83
 1509 01bb 04       		.byte	0x4
 1510 01bc 07       		.uleb128 0x7
 1511 01bd 0D020000 		.4byte	.LASF34
 1512 01c1 03       		.byte	0x3
 1513 01c2 E6       		.byte	0xe6
 1514 01c3 83000000 		.4byte	0x83
 1515 01c7 08       		.byte	0x8
 1516 01c8 07       		.uleb128 0x7
 1517 01c9 44020000 		.4byte	.LASF35
 1518 01cd 03       		.byte	0x3
 1519 01ce E7       		.byte	0xe7
 1520 01cf 83000000 		.4byte	0x83
 1521 01d3 0C       		.byte	0xc
 1522 01d4 07       		.uleb128 0x7
 1523 01d5 CF010000 		.4byte	.LASF36
 1524 01d9 03       		.byte	0x3
 1525 01da E8       		.byte	0xe8
 1526 01db 83000000 		.4byte	0x83
 1527 01df 10       		.byte	0x10
 1528 01e0 07       		.uleb128 0x7
 1529 01e1 0A050000 		.4byte	.LASF37
 1530 01e5 03       		.byte	0x3
 1531 01e6 E9       		.byte	0xe9
 1532 01e7 83000000 		.4byte	0x83
 1533 01eb 14       		.byte	0x14
 1534 01ec 07       		.uleb128 0x7
 1535 01ed 05050000 		.4byte	.LASF38
 1536 01f1 03       		.byte	0x3
 1537 01f2 EA       		.byte	0xea
 1538 01f3 83000000 		.4byte	0x83
 1539 01f7 18       		.byte	0x18
 1540 01f8 07       		.uleb128 0x7
 1541 01f9 3F040000 		.4byte	.LASF39
 1542 01fd 03       		.byte	0x3
 1543 01fe EB       		.byte	0xeb
 1544 01ff 83000000 		.4byte	0x83
 1545 0203 1C       		.byte	0x1c
 1546 0204 07       		.uleb128 0x7
 1547 0205 E0050000 		.4byte	.LASF40
 1548 0209 03       		.byte	0x3
 1549 020a EC       		.byte	0xec
 1550 020b 83000000 		.4byte	0x83
 1551 020f 20       		.byte	0x20
 1552 0210 09       		.uleb128 0x9
 1553 0211 67617000 		.ascii	"gap\000"
 1554 0215 03       		.byte	0x3
 1555 0216 ED       		.byte	0xed
ARM GAS  C:\Users\psmus\AppData\Local\Temp\ccX8E8QF.s 			page 73


 1556 0217 1D020000 		.4byte	0x21d
 1557 021b 24       		.byte	0x24
 1558 021c 00       		.byte	0
 1559 021d 0A       		.uleb128 0xa
 1560 021e 83000000 		.4byte	0x83
 1561 0222 2D020000 		.4byte	0x22d
 1562 0226 0B       		.uleb128 0xb
 1563 0227 C1000000 		.4byte	0xc1
 1564 022b 06       		.byte	0x6
 1565 022c 00       		.byte	0
 1566 022d 08       		.uleb128 0x8
 1567 022e 85020000 		.4byte	.LASF41
 1568 0232 03       		.byte	0x3
 1569 0233 EE       		.byte	0xee
 1570 0234 9C010000 		.4byte	0x19c
 1571 0238 0C       		.uleb128 0xc
 1572 0239 4002     		.2byte	0x240
 1573 023b 03       		.byte	0x3
 1574 023c 0A01     		.2byte	0x10a
 1575 023e 50020000 		.4byte	0x250
 1576 0242 0D       		.uleb128 0xd
 1577 0243 1F020000 		.4byte	.LASF42
 1578 0247 03       		.byte	0x3
 1579 0248 0C01     		.2byte	0x10c
 1580 024a 50020000 		.4byte	0x250
 1581 024e 00       		.byte	0
 1582 024f 00       		.byte	0
 1583 0250 0A       		.uleb128 0xa
 1584 0251 91010000 		.4byte	0x191
 1585 0255 60020000 		.4byte	0x260
 1586 0259 0B       		.uleb128 0xb
 1587 025a C1000000 		.4byte	0xc1
 1588 025e 08       		.byte	0x8
 1589 025f 00       		.byte	0
 1590 0260 04       		.uleb128 0x4
 1591 0261 D1020000 		.4byte	.LASF43
 1592 0265 03       		.byte	0x3
 1593 0266 0D01     		.2byte	0x10d
 1594 0268 38020000 		.4byte	0x238
 1595 026c 0C       		.uleb128 0xc
 1596 026d 4002     		.2byte	0x240
 1597 026f 03       		.byte	0x3
 1598 0270 1001     		.2byte	0x110
 1599 0272 84020000 		.4byte	0x284
 1600 0276 0D       		.uleb128 0xd
 1601 0277 B1030000 		.4byte	.LASF44
 1602 027b 03       		.byte	0x3
 1603 027c 1201     		.2byte	0x112
 1604 027e 84020000 		.4byte	0x284
 1605 0282 00       		.byte	0
 1606 0283 00       		.byte	0
 1607 0284 0A       		.uleb128 0xa
 1608 0285 2D020000 		.4byte	0x22d
 1609 0289 94020000 		.4byte	0x294
 1610 028d 0B       		.uleb128 0xb
 1611 028e C1000000 		.4byte	0xc1
 1612 0292 08       		.byte	0x8
ARM GAS  C:\Users\psmus\AppData\Local\Temp\ccX8E8QF.s 			page 74


 1613 0293 00       		.byte	0
 1614 0294 04       		.uleb128 0x4
 1615 0295 E8020000 		.4byte	.LASF45
 1616 0299 03       		.byte	0x3
 1617 029a 1301     		.2byte	0x113
 1618 029c 6C020000 		.4byte	0x26c
 1619 02a0 0E       		.uleb128 0xe
 1620 02a1 4C050000 		.4byte	.LASF46
 1621 02a5 01       		.byte	0x1
 1622 02a6 D3       		.byte	0xd3
 1623 02a7 00000000 		.4byte	.LFB2
 1624 02ab D0000000 		.4byte	.LFE2-.LFB2
 1625 02af 01       		.uleb128 0x1
 1626 02b0 9C       		.byte	0x9c
 1627 02b1 7A030000 		.4byte	0x37a
 1628 02b5 0F       		.uleb128 0xf
 1629 02b6 34000000 		.4byte	.LVL0
 1630 02ba A7080000 		.4byte	0x8a7
 1631 02be C8020000 		.4byte	0x2c8
 1632 02c2 10       		.uleb128 0x10
 1633 02c3 01       		.uleb128 0x1
 1634 02c4 50       		.byte	0x50
 1635 02c5 01       		.uleb128 0x1
 1636 02c6 32       		.byte	0x32
 1637 02c7 00       		.byte	0
 1638 02c8 11       		.uleb128 0x11
 1639 02c9 40000000 		.4byte	.LVL1
 1640 02cd B2080000 		.4byte	0x8b2
 1641 02d1 0F       		.uleb128 0xf
 1642 02d2 5E000000 		.4byte	.LVL2
 1643 02d6 BD080000 		.4byte	0x8bd
 1644 02da E9020000 		.4byte	0x2e9
 1645 02de 10       		.uleb128 0x10
 1646 02df 01       		.uleb128 0x1
 1647 02e0 50       		.byte	0x50
 1648 02e1 01       		.uleb128 0x1
 1649 02e2 4E       		.byte	0x4e
 1650 02e3 10       		.uleb128 0x10
 1651 02e4 01       		.uleb128 0x1
 1652 02e5 51       		.byte	0x51
 1653 02e6 01       		.uleb128 0x1
 1654 02e7 33       		.byte	0x33
 1655 02e8 00       		.byte	0
 1656 02e9 0F       		.uleb128 0xf
 1657 02ea 66000000 		.4byte	.LVL3
 1658 02ee C8080000 		.4byte	0x8c8
 1659 02f2 FC020000 		.4byte	0x2fc
 1660 02f6 10       		.uleb128 0x10
 1661 02f7 01       		.uleb128 0x1
 1662 02f8 50       		.byte	0x50
 1663 02f9 01       		.uleb128 0x1
 1664 02fa 4E       		.byte	0x4e
 1665 02fb 00       		.byte	0
 1666 02fc 0F       		.uleb128 0xf
 1667 02fd 6E000000 		.4byte	.LVL4
 1668 0301 BD080000 		.4byte	0x8bd
 1669 0305 14030000 		.4byte	0x314
ARM GAS  C:\Users\psmus\AppData\Local\Temp\ccX8E8QF.s 			page 75


 1670 0309 10       		.uleb128 0x10
 1671 030a 01       		.uleb128 0x1
 1672 030b 50       		.byte	0x50
 1673 030c 01       		.uleb128 0x1
 1674 030d 4F       		.byte	0x4f
 1675 030e 10       		.uleb128 0x10
 1676 030f 01       		.uleb128 0x1
 1677 0310 51       		.byte	0x51
 1678 0311 01       		.uleb128 0x1
 1679 0312 33       		.byte	0x33
 1680 0313 00       		.byte	0
 1681 0314 0F       		.uleb128 0xf
 1682 0315 76000000 		.4byte	.LVL5
 1683 0319 C8080000 		.4byte	0x8c8
 1684 031d 27030000 		.4byte	0x327
 1685 0321 10       		.uleb128 0x10
 1686 0322 01       		.uleb128 0x1
 1687 0323 50       		.byte	0x50
 1688 0324 01       		.uleb128 0x1
 1689 0325 4F       		.byte	0x4f
 1690 0326 00       		.byte	0
 1691 0327 0F       		.uleb128 0xf
 1692 0328 7E000000 		.4byte	.LVL6
 1693 032c BD080000 		.4byte	0x8bd
 1694 0330 3F030000 		.4byte	0x33f
 1695 0334 10       		.uleb128 0x10
 1696 0335 01       		.uleb128 0x1
 1697 0336 50       		.byte	0x50
 1698 0337 01       		.uleb128 0x1
 1699 0338 30       		.byte	0x30
 1700 0339 10       		.uleb128 0x10
 1701 033a 01       		.uleb128 0x1
 1702 033b 51       		.byte	0x51
 1703 033c 01       		.uleb128 0x1
 1704 033d 33       		.byte	0x33
 1705 033e 00       		.byte	0
 1706 033f 0F       		.uleb128 0xf
 1707 0340 86000000 		.4byte	.LVL7
 1708 0344 C8080000 		.4byte	0x8c8
 1709 0348 52030000 		.4byte	0x352
 1710 034c 10       		.uleb128 0x10
 1711 034d 01       		.uleb128 0x1
 1712 034e 50       		.byte	0x50
 1713 034f 01       		.uleb128 0x1
 1714 0350 30       		.byte	0x30
 1715 0351 00       		.byte	0
 1716 0352 0F       		.uleb128 0xf
 1717 0353 8E000000 		.4byte	.LVL8
 1718 0357 BD080000 		.4byte	0x8bd
 1719 035b 6A030000 		.4byte	0x36a
 1720 035f 10       		.uleb128 0x10
 1721 0360 01       		.uleb128 0x1
 1722 0361 50       		.byte	0x50
 1723 0362 01       		.uleb128 0x1
 1724 0363 35       		.byte	0x35
 1725 0364 10       		.uleb128 0x10
 1726 0365 01       		.uleb128 0x1
ARM GAS  C:\Users\psmus\AppData\Local\Temp\ccX8E8QF.s 			page 76


 1727 0366 51       		.byte	0x51
 1728 0367 01       		.uleb128 0x1
 1729 0368 33       		.byte	0x33
 1730 0369 00       		.byte	0
 1731 036a 12       		.uleb128 0x12
 1732 036b 96000000 		.4byte	.LVL9
 1733 036f C8080000 		.4byte	0x8c8
 1734 0373 10       		.uleb128 0x10
 1735 0374 01       		.uleb128 0x1
 1736 0375 50       		.byte	0x50
 1737 0376 01       		.uleb128 0x1
 1738 0377 35       		.byte	0x35
 1739 0378 00       		.byte	0
 1740 0379 00       		.byte	0
 1741 037a 13       		.uleb128 0x13
 1742 037b 36050000 		.4byte	.LASF47
 1743 037f 01       		.byte	0x1
 1744 0380 CC01     		.2byte	0x1cc
 1745 0382 00000000 		.4byte	.LFB3
 1746 0386 BC000000 		.4byte	.LFE3-.LFB3
 1747 038a 01       		.uleb128 0x1
 1748 038b 9C       		.byte	0x9c
 1749 038c E6030000 		.4byte	0x3e6
 1750 0390 14       		.uleb128 0x14
 1751 0391 37010000 		.4byte	.LASF48
 1752 0395 01       		.byte	0x1
 1753 0396 CC01     		.2byte	0x1cc
 1754 0398 6B000000 		.4byte	0x6b
 1755 039c 00000000 		.4byte	.LLST0
 1756 03a0 14       		.uleb128 0x14
 1757 03a1 5E050000 		.4byte	.LASF49
 1758 03a5 01       		.byte	0x1
 1759 03a6 CC01     		.2byte	0x1cc
 1760 03a8 6B000000 		.4byte	0x6b
 1761 03ac 21000000 		.4byte	.LLST1
 1762 03b0 0F       		.uleb128 0xf
 1763 03b1 2C000000 		.4byte	.LVL12
 1764 03b5 D3080000 		.4byte	0x8d3
 1765 03b9 C3030000 		.4byte	0x3c3
 1766 03bd 10       		.uleb128 0x10
 1767 03be 01       		.uleb128 0x1
 1768 03bf 50       		.byte	0x50
 1769 03c0 01       		.uleb128 0x1
 1770 03c1 4E       		.byte	0x4e
 1771 03c2 00       		.byte	0
 1772 03c3 0F       		.uleb128 0xf
 1773 03c4 32000000 		.4byte	.LVL13
 1774 03c8 D3080000 		.4byte	0x8d3
 1775 03cc D6030000 		.4byte	0x3d6
 1776 03d0 10       		.uleb128 0x10
 1777 03d1 01       		.uleb128 0x1
 1778 03d2 50       		.byte	0x50
 1779 03d3 01       		.uleb128 0x1
 1780 03d4 30       		.byte	0x30
 1781 03d5 00       		.byte	0
 1782 03d6 12       		.uleb128 0x12
 1783 03d7 38000000 		.4byte	.LVL14
ARM GAS  C:\Users\psmus\AppData\Local\Temp\ccX8E8QF.s 			page 77


 1784 03db D3080000 		.4byte	0x8d3
 1785 03df 10       		.uleb128 0x10
 1786 03e0 01       		.uleb128 0x1
 1787 03e1 50       		.byte	0x50
 1788 03e2 01       		.uleb128 0x1
 1789 03e3 4F       		.byte	0x4f
 1790 03e4 00       		.byte	0
 1791 03e5 00       		.byte	0
 1792 03e6 0E       		.uleb128 0xe
 1793 03e7 18030000 		.4byte	.LASF50
 1794 03eb 01       		.byte	0x1
 1795 03ec BA       		.byte	0xba
 1796 03ed 00000000 		.4byte	.LFB1
 1797 03f1 28000000 		.4byte	.LFE1-.LFB1
 1798 03f5 01       		.uleb128 0x1
 1799 03f6 9C       		.byte	0x9c
 1800 03f7 39040000 		.4byte	0x439
 1801 03fb 15       		.uleb128 0x15
 1802 03fc 37010000 		.4byte	.LASF48
 1803 0400 01       		.byte	0x1
 1804 0401 BA       		.byte	0xba
 1805 0402 6B000000 		.4byte	0x6b
 1806 0406 42000000 		.4byte	.LLST2
 1807 040a 15       		.uleb128 0x15
 1808 040b 5E050000 		.4byte	.LASF49
 1809 040f 01       		.byte	0x1
 1810 0410 BA       		.byte	0xba
 1811 0411 6B000000 		.4byte	0x6b
 1812 0415 63000000 		.4byte	.LLST3
 1813 0419 11       		.uleb128 0x11
 1814 041a 12000000 		.4byte	.LVL16
 1815 041e A0020000 		.4byte	0x2a0
 1816 0422 12       		.uleb128 0x12
 1817 0423 20000000 		.4byte	.LVL17
 1818 0427 7A030000 		.4byte	0x37a
 1819 042b 10       		.uleb128 0x10
 1820 042c 01       		.uleb128 0x1
 1821 042d 50       		.byte	0x50
 1822 042e 02       		.uleb128 0x2
 1823 042f 74       		.byte	0x74
 1824 0430 00       		.sleb128 0
 1825 0431 10       		.uleb128 0x10
 1826 0432 01       		.uleb128 0x1
 1827 0433 51       		.byte	0x51
 1828 0434 02       		.uleb128 0x2
 1829 0435 75       		.byte	0x75
 1830 0436 00       		.sleb128 0
 1831 0437 00       		.byte	0
 1832 0438 00       		.byte	0
 1833 0439 16       		.uleb128 0x16
 1834 043a 56060000 		.4byte	.LASF77
 1835 043e 01       		.byte	0x1
 1836 043f 9F02     		.2byte	0x29f
 1837 0441 00000000 		.4byte	.LFB4
 1838 0445 50000000 		.4byte	.LFE4-.LFB4
 1839 0449 01       		.uleb128 0x1
 1840 044a 9C       		.byte	0x9c
ARM GAS  C:\Users\psmus\AppData\Local\Temp\ccX8E8QF.s 			page 78


 1841 044b 13       		.uleb128 0x13
 1842 044c AD020000 		.4byte	.LASF51
 1843 0450 01       		.byte	0x1
 1844 0451 D902     		.2byte	0x2d9
 1845 0453 00000000 		.4byte	.LFB5
 1846 0457 7C000000 		.4byte	.LFE5-.LFB5
 1847 045b 01       		.uleb128 0x1
 1848 045c 9C       		.byte	0x9c
 1849 045d B9040000 		.4byte	0x4b9
 1850 0461 17       		.uleb128 0x17
 1851 0462 CF050000 		.4byte	.LASF52
 1852 0466 01       		.byte	0x1
 1853 0467 DB02     		.2byte	0x2db
 1854 0469 6B000000 		.4byte	0x6b
 1855 046d 84000000 		.4byte	.LLST4
 1856 0471 11       		.uleb128 0x11
 1857 0472 06000000 		.4byte	.LVL18
 1858 0476 DE080000 		.4byte	0x8de
 1859 047a 11       		.uleb128 0x11
 1860 047b 28000000 		.4byte	.LVL19
 1861 047f E9080000 		.4byte	0x8e9
 1862 0483 0F       		.uleb128 0xf
 1863 0484 2E000000 		.4byte	.LVL20
 1864 0488 F4080000 		.4byte	0x8f4
 1865 048c 96040000 		.4byte	0x496
 1866 0490 10       		.uleb128 0x10
 1867 0491 01       		.uleb128 0x1
 1868 0492 50       		.byte	0x50
 1869 0493 01       		.uleb128 0x1
 1870 0494 4E       		.byte	0x4e
 1871 0495 00       		.byte	0
 1872 0496 0F       		.uleb128 0xf
 1873 0497 34000000 		.4byte	.LVL21
 1874 049b F4080000 		.4byte	0x8f4
 1875 049f A9040000 		.4byte	0x4a9
 1876 04a3 10       		.uleb128 0x10
 1877 04a4 01       		.uleb128 0x1
 1878 04a5 50       		.byte	0x50
 1879 04a6 01       		.uleb128 0x1
 1880 04a7 4F       		.byte	0x4f
 1881 04a8 00       		.byte	0
 1882 04a9 12       		.uleb128 0x12
 1883 04aa 3A000000 		.4byte	.LVL22
 1884 04ae F4080000 		.4byte	0x8f4
 1885 04b2 10       		.uleb128 0x10
 1886 04b3 01       		.uleb128 0x1
 1887 04b4 50       		.byte	0x50
 1888 04b5 01       		.uleb128 0x1
 1889 04b6 30       		.byte	0x30
 1890 04b7 00       		.byte	0
 1891 04b8 00       		.byte	0
 1892 04b9 18       		.uleb128 0x18
 1893 04ba 2E000000 		.4byte	.LASF54
 1894 04be 01       		.byte	0x1
 1895 04bf 5103     		.2byte	0x351
 1896 04c1 6B000000 		.4byte	0x6b
 1897 04c5 00000000 		.4byte	.LFB6
ARM GAS  C:\Users\psmus\AppData\Local\Temp\ccX8E8QF.s 			page 79


 1898 04c9 1C000000 		.4byte	.LFE6-.LFB6
 1899 04cd 01       		.uleb128 0x1
 1900 04ce 9C       		.byte	0x9c
 1901 04cf E2040000 		.4byte	0x4e2
 1902 04d3 19       		.uleb128 0x19
 1903 04d4 C1030000 		.4byte	.LASF53
 1904 04d8 01       		.byte	0x1
 1905 04d9 5303     		.2byte	0x353
 1906 04db 83000000 		.4byte	0x83
 1907 04df 01       		.uleb128 0x1
 1908 04e0 53       		.byte	0x53
 1909 04e1 00       		.byte	0
 1910 04e2 1A       		.uleb128 0x1a
 1911 04e3 D8030000 		.4byte	.LASF75
 1912 04e7 01       		.byte	0x1
 1913 04e8 6803     		.2byte	0x368
 1914 04ea 6B000000 		.4byte	0x6b
 1915 04ee 00000000 		.4byte	.LFB7
 1916 04f2 0C000000 		.4byte	.LFE7-.LFB7
 1917 04f6 01       		.uleb128 0x1
 1918 04f7 9C       		.byte	0x9c
 1919 04f8 18       		.uleb128 0x18
 1920 04f9 20040000 		.4byte	.LASF55
 1921 04fd 01       		.byte	0x1
 1922 04fe 8203     		.2byte	0x382
 1923 0500 6B000000 		.4byte	0x6b
 1924 0504 00000000 		.4byte	.LFB8
 1925 0508 1C000000 		.4byte	.LFE8-.LFB8
 1926 050c 01       		.uleb128 0x1
 1927 050d 9C       		.byte	0x9c
 1928 050e 23050000 		.4byte	0x523
 1929 0512 1B       		.uleb128 0x1b
 1930 0513 72657300 		.ascii	"res\000"
 1931 0517 01       		.byte	0x1
 1932 0518 8403     		.2byte	0x384
 1933 051a 6B000000 		.4byte	0x6b
 1934 051e 97000000 		.4byte	.LLST5
 1935 0522 00       		.byte	0
 1936 0523 18       		.uleb128 0x18
 1937 0524 3A060000 		.4byte	.LASF56
 1938 0528 01       		.byte	0x1
 1939 0529 9F03     		.2byte	0x39f
 1940 052b 6B000000 		.4byte	0x6b
 1941 052f 00000000 		.4byte	.LFB9
 1942 0533 0C000000 		.4byte	.LFE9-.LFB9
 1943 0537 01       		.uleb128 0x1
 1944 0538 9C       		.byte	0x9c
 1945 0539 4E050000 		.4byte	0x54e
 1946 053d 14       		.uleb128 0x14
 1947 053e 79050000 		.4byte	.LASF57
 1948 0542 01       		.byte	0x1
 1949 0543 9F03     		.2byte	0x39f
 1950 0545 6B000000 		.4byte	0x6b
 1951 0549 CD000000 		.4byte	.LLST6
 1952 054d 00       		.byte	0
 1953 054e 18       		.uleb128 0x18
 1954 054f FA030000 		.4byte	.LASF58
ARM GAS  C:\Users\psmus\AppData\Local\Temp\ccX8E8QF.s 			page 80


 1955 0553 01       		.byte	0x1
 1956 0554 BF03     		.2byte	0x3bf
 1957 0556 6B000000 		.4byte	0x6b
 1958 055a 00000000 		.4byte	.LFB10
 1959 055e 14000000 		.4byte	.LFE10-.LFB10
 1960 0562 01       		.uleb128 0x1
 1961 0563 9C       		.byte	0x9c
 1962 0564 79050000 		.4byte	0x579
 1963 0568 14       		.uleb128 0x14
 1964 0569 2E010000 		.4byte	.LASF59
 1965 056d 01       		.byte	0x1
 1966 056e BF03     		.2byte	0x3bf
 1967 0570 6B000000 		.4byte	0x6b
 1968 0574 EE000000 		.4byte	.LLST7
 1969 0578 00       		.byte	0
 1970 0579 18       		.uleb128 0x18
 1971 057a B1040000 		.4byte	.LASF60
 1972 057e 01       		.byte	0x1
 1973 057f D603     		.2byte	0x3d6
 1974 0581 77000000 		.4byte	0x77
 1975 0585 00000000 		.4byte	.LFB11
 1976 0589 34000000 		.4byte	.LFE11-.LFB11
 1977 058d 01       		.uleb128 0x1
 1978 058e 9C       		.byte	0x9c
 1979 058f B4050000 		.4byte	0x5b4
 1980 0593 14       		.uleb128 0x14
 1981 0594 2E010000 		.4byte	.LASF59
 1982 0598 01       		.byte	0x1
 1983 0599 D603     		.2byte	0x3d6
 1984 059b 6B000000 		.4byte	0x6b
 1985 059f 0F010000 		.4byte	.LLST8
 1986 05a3 17       		.uleb128 0x17
 1987 05a4 58010000 		.4byte	.LASF61
 1988 05a8 01       		.byte	0x1
 1989 05a9 D803     		.2byte	0x3d8
 1990 05ab 77000000 		.4byte	0x77
 1991 05af 49010000 		.4byte	.LLST9
 1992 05b3 00       		.byte	0
 1993 05b4 13       		.uleb128 0x13
 1994 05b5 07000000 		.4byte	.LASF62
 1995 05b9 01       		.byte	0x1
 1996 05ba 3E05     		.2byte	0x53e
 1997 05bc 00000000 		.4byte	.LFB12
 1998 05c0 9C000000 		.4byte	.LFE12-.LFB12
 1999 05c4 01       		.uleb128 0x1
 2000 05c5 9C       		.byte	0x9c
 2001 05c6 0D060000 		.4byte	0x60d
 2002 05ca 14       		.uleb128 0x14
 2003 05cb 2E010000 		.4byte	.LASF59
 2004 05cf 01       		.byte	0x1
 2005 05d0 3E05     		.2byte	0x53e
 2006 05d2 6B000000 		.4byte	0x6b
 2007 05d6 A6010000 		.4byte	.LLST10
 2008 05da 1C       		.uleb128 0x1c
 2009 05db 19020000 		.4byte	.LASF63
 2010 05df 01       		.byte	0x1
 2011 05e0 3E05     		.2byte	0x53e
ARM GAS  C:\Users\psmus\AppData\Local\Temp\ccX8E8QF.s 			page 81


 2012 05e2 0D060000 		.4byte	0x60d
 2013 05e6 01       		.uleb128 0x1
 2014 05e7 51       		.byte	0x51
 2015 05e8 14       		.uleb128 0x14
 2016 05e9 C8050000 		.4byte	.LASF64
 2017 05ed 01       		.byte	0x1
 2018 05ee 3E05     		.2byte	0x53e
 2019 05f0 77000000 		.4byte	0x77
 2020 05f4 C7010000 		.4byte	.LLST11
 2021 05f8 1D       		.uleb128 0x1d
 2022 05f9 00000000 		.4byte	.Ldebug_ranges0+0
 2023 05fd 1B       		.uleb128 0x1b
 2024 05fe 6900     		.ascii	"i\000"
 2025 0600 01       		.byte	0x1
 2026 0601 5305     		.2byte	0x553
 2027 0603 77000000 		.4byte	0x77
 2028 0607 F3010000 		.4byte	.LLST12
 2029 060b 00       		.byte	0
 2030 060c 00       		.byte	0
 2031 060d 1E       		.uleb128 0x1e
 2032 060e 04       		.byte	0x4
 2033 060f 13060000 		.4byte	0x613
 2034 0613 1F       		.uleb128 0x1f
 2035 0614 6B000000 		.4byte	0x6b
 2036 0618 13       		.uleb128 0x13
 2037 0619 76030000 		.4byte	.LASF65
 2038 061d 01       		.byte	0x1
 2039 061e E408     		.2byte	0x8e4
 2040 0620 00000000 		.4byte	.LFB14
 2041 0624 30000000 		.4byte	.LFE14-.LFB14
 2042 0628 01       		.uleb128 0x1
 2043 0629 9C       		.byte	0x9c
 2044 062a 3F060000 		.4byte	0x63f
 2045 062e 14       		.uleb128 0x14
 2046 062f 2E010000 		.4byte	.LASF59
 2047 0633 01       		.byte	0x1
 2048 0634 E408     		.2byte	0x8e4
 2049 0636 6B000000 		.4byte	0x6b
 2050 063a 1C020000 		.4byte	.LLST13
 2051 063e 00       		.byte	0
 2052 063f 18       		.uleb128 0x18
 2053 0640 AE010000 		.4byte	.LASF66
 2054 0644 01       		.byte	0x1
 2055 0645 7506     		.2byte	0x675
 2056 0647 77000000 		.4byte	0x77
 2057 064b 00000000 		.4byte	.LFB13
 2058 064f 58000000 		.4byte	.LFE13-.LFB13
 2059 0653 01       		.uleb128 0x1
 2060 0654 9C       		.byte	0x9c
 2061 0655 DE060000 		.4byte	0x6de
 2062 0659 14       		.uleb128 0x14
 2063 065a 2E010000 		.4byte	.LASF59
 2064 065e 01       		.byte	0x1
 2065 065f 7506     		.2byte	0x675
 2066 0661 6B000000 		.4byte	0x6b
 2067 0665 3D020000 		.4byte	.LLST14
 2068 0669 14       		.uleb128 0x14
ARM GAS  C:\Users\psmus\AppData\Local\Temp\ccX8E8QF.s 			page 82


 2069 066a 19020000 		.4byte	.LASF63
 2070 066e 01       		.byte	0x1
 2071 066f 7506     		.2byte	0x675
 2072 0671 DE060000 		.4byte	0x6de
 2073 0675 77020000 		.4byte	.LLST15
 2074 0679 14       		.uleb128 0x14
 2075 067a C8050000 		.4byte	.LASF64
 2076 067e 01       		.byte	0x1
 2077 067f 7506     		.2byte	0x675
 2078 0681 77000000 		.4byte	0x77
 2079 0685 B9020000 		.4byte	.LLST16
 2080 0689 20       		.uleb128 0x20
 2081 068a 24000000 		.4byte	.LBB4
 2082 068e 18000000 		.4byte	.LBE4-.LBB4
 2083 0692 A5060000 		.4byte	0x6a5
 2084 0696 1B       		.uleb128 0x1b
 2085 0697 6900     		.ascii	"i\000"
 2086 0699 01       		.byte	0x1
 2087 069a 8206     		.2byte	0x682
 2088 069c 77000000 		.4byte	0x77
 2089 06a0 FB020000 		.4byte	.LLST17
 2090 06a4 00       		.byte	0
 2091 06a5 0F       		.uleb128 0xf
 2092 06a6 18000000 		.4byte	.LVL55
 2093 06aa 79050000 		.4byte	0x579
 2094 06ae B9060000 		.4byte	0x6b9
 2095 06b2 10       		.uleb128 0x10
 2096 06b3 01       		.uleb128 0x1
 2097 06b4 50       		.byte	0x50
 2098 06b5 02       		.uleb128 0x2
 2099 06b6 75       		.byte	0x75
 2100 06b7 00       		.sleb128 0
 2101 06b8 00       		.byte	0
 2102 06b9 0F       		.uleb128 0xf
 2103 06ba 22000000 		.4byte	.LVL56
 2104 06be 79050000 		.4byte	0x579
 2105 06c2 CD060000 		.4byte	0x6cd
 2106 06c6 10       		.uleb128 0x10
 2107 06c7 01       		.uleb128 0x1
 2108 06c8 50       		.byte	0x50
 2109 06c9 02       		.uleb128 0x2
 2110 06ca 75       		.byte	0x75
 2111 06cb 00       		.sleb128 0
 2112 06cc 00       		.byte	0
 2113 06cd 12       		.uleb128 0x12
 2114 06ce 42000000 		.4byte	.LVL61
 2115 06d2 18060000 		.4byte	0x618
 2116 06d6 10       		.uleb128 0x10
 2117 06d7 01       		.uleb128 0x1
 2118 06d8 50       		.byte	0x50
 2119 06d9 02       		.uleb128 0x2
 2120 06da 75       		.byte	0x75
 2121 06db 00       		.sleb128 0
 2122 06dc 00       		.byte	0
 2123 06dd 00       		.byte	0
 2124 06de 1E       		.uleb128 0x1e
 2125 06df 04       		.byte	0x4
ARM GAS  C:\Users\psmus\AppData\Local\Temp\ccX8E8QF.s 			page 83


 2126 06e0 6B000000 		.4byte	0x6b
 2127 06e4 13       		.uleb128 0x13
 2128 06e5 4D020000 		.4byte	.LASF67
 2129 06e9 01       		.byte	0x1
 2130 06ea FC08     		.2byte	0x8fc
 2131 06ec 00000000 		.4byte	.LFB15
 2132 06f0 1C000000 		.4byte	.LFE15-.LFB15
 2133 06f4 01       		.uleb128 0x1
 2134 06f5 9C       		.byte	0x9c
 2135 06f6 0B070000 		.4byte	0x70b
 2136 06fa 14       		.uleb128 0x14
 2137 06fb 2E010000 		.4byte	.LASF59
 2138 06ff 01       		.byte	0x1
 2139 0700 FC08     		.2byte	0x8fc
 2140 0702 6B000000 		.4byte	0x6b
 2141 0706 25030000 		.4byte	.LLST18
 2142 070a 00       		.byte	0
 2143 070b 13       		.uleb128 0x13
 2144 070c F7040000 		.4byte	.LASF68
 2145 0710 01       		.byte	0x1
 2146 0711 1A09     		.2byte	0x91a
 2147 0713 00000000 		.4byte	.LFB16
 2148 0717 0C000000 		.4byte	.LFE16-.LFB16
 2149 071b 01       		.uleb128 0x1
 2150 071c 9C       		.byte	0x9c
 2151 071d 30070000 		.4byte	0x730
 2152 0721 1C       		.uleb128 0x1c
 2153 0722 12050000 		.4byte	.LASF69
 2154 0726 01       		.byte	0x1
 2155 0727 1A09     		.2byte	0x91a
 2156 0729 6B000000 		.4byte	0x6b
 2157 072d 01       		.uleb128 0x1
 2158 072e 50       		.byte	0x50
 2159 072f 00       		.byte	0
 2160 0730 18       		.uleb128 0x18
 2161 0731 18000000 		.4byte	.LASF70
 2162 0735 01       		.byte	0x1
 2163 0736 3309     		.2byte	0x933
 2164 0738 6B000000 		.4byte	0x6b
 2165 073c 00000000 		.4byte	.LFB17
 2166 0740 24000000 		.4byte	.LFE17-.LFB17
 2167 0744 01       		.uleb128 0x1
 2168 0745 9C       		.byte	0x9c
 2169 0746 6A070000 		.4byte	0x76a
 2170 074a 14       		.uleb128 0x14
 2171 074b 2E010000 		.4byte	.LASF59
 2172 074f 01       		.byte	0x1
 2173 0750 3309     		.2byte	0x933
 2174 0752 6B000000 		.4byte	0x6b
 2175 0756 46030000 		.4byte	.LLST19
 2176 075a 1B       		.uleb128 0x1b
 2177 075b 637200   		.ascii	"cr\000"
 2178 075e 01       		.byte	0x1
 2179 075f 3509     		.2byte	0x935
 2180 0761 83000000 		.4byte	0x83
 2181 0765 80030000 		.4byte	.LLST20
 2182 0769 00       		.byte	0
ARM GAS  C:\Users\psmus\AppData\Local\Temp\ccX8E8QF.s 			page 84


 2183 076a 13       		.uleb128 0x13
 2184 076b 5F030000 		.4byte	.LASF71
 2185 076f 01       		.byte	0x1
 2186 0770 5C09     		.2byte	0x95c
 2187 0772 00000000 		.4byte	.LFB18
 2188 0776 24000000 		.4byte	.LFE18-.LFB18
 2189 077a 01       		.uleb128 0x1
 2190 077b 9C       		.byte	0x9c
 2191 077c 8F070000 		.4byte	0x78f
 2192 0780 1C       		.uleb128 0x1c
 2193 0781 EC010000 		.4byte	.LASF72
 2194 0785 01       		.byte	0x1
 2195 0786 5C09     		.2byte	0x95c
 2196 0788 6B000000 		.4byte	0x6b
 2197 078c 01       		.uleb128 0x1
 2198 078d 50       		.byte	0x50
 2199 078e 00       		.byte	0
 2200 078f 18       		.uleb128 0x18
 2201 0790 9F050000 		.4byte	.LASF73
 2202 0794 01       		.byte	0x1
 2203 0795 9509     		.2byte	0x995
 2204 0797 6B000000 		.4byte	0x6b
 2205 079b 00000000 		.4byte	.LFB19
 2206 079f 14000000 		.4byte	.LFE19-.LFB19
 2207 07a3 01       		.uleb128 0x1
 2208 07a4 9C       		.byte	0x9c
 2209 07a5 BA070000 		.4byte	0x7ba
 2210 07a9 17       		.uleb128 0x17
 2211 07aa D4010000 		.4byte	.LASF74
 2212 07ae 01       		.byte	0x1
 2213 07af 9709     		.2byte	0x997
 2214 07b1 6B000000 		.4byte	0x6b
 2215 07b5 B6030000 		.4byte	.LLST21
 2216 07b9 00       		.byte	0
 2217 07ba 1A       		.uleb128 0x1a
 2218 07bb FF020000 		.4byte	.LASF76
 2219 07bf 01       		.byte	0x1
 2220 07c0 AD09     		.2byte	0x9ad
 2221 07c2 6B000000 		.4byte	0x6b
 2222 07c6 00000000 		.4byte	.LFB20
 2223 07ca 10000000 		.4byte	.LFE20-.LFB20
 2224 07ce 01       		.uleb128 0x1
 2225 07cf 9C       		.byte	0x9c
 2226 07d0 16       		.uleb128 0x16
 2227 07d1 E5050000 		.4byte	.LASF78
 2228 07d5 01       		.byte	0x1
 2229 07d6 BB09     		.2byte	0x9bb
 2230 07d8 00000000 		.4byte	.LFB21
 2231 07dc 10000000 		.4byte	.LFE21-.LFB21
 2232 07e0 01       		.uleb128 0x1
 2233 07e1 9C       		.byte	0x9c
 2234 07e2 16       		.uleb128 0x16
 2235 07e3 02010000 		.4byte	.LASF79
 2236 07e7 01       		.byte	0x1
 2237 07e8 D109     		.2byte	0x9d1
 2238 07ea 00000000 		.4byte	.LFB22
 2239 07ee 10000000 		.4byte	.LFE22-.LFB22
ARM GAS  C:\Users\psmus\AppData\Local\Temp\ccX8E8QF.s 			page 85


 2240 07f2 01       		.uleb128 0x1
 2241 07f3 9C       		.byte	0x9c
 2242 07f4 21       		.uleb128 0x21
 2243 07f5 DB000000 		.4byte	.LASF80
 2244 07f9 01       		.byte	0x1
 2245 07fa 28       		.byte	0x28
 2246 07fb 6B000000 		.4byte	0x6b
 2247 07ff 05       		.uleb128 0x5
 2248 0800 03       		.byte	0x3
 2249 0801 00000000 		.4byte	USBFS_1_initVar
 2250 0805 22       		.uleb128 0x22
 2251 0806 E8040000 		.4byte	.LASF81
 2252 080a 03       		.byte	0x3
 2253 080b CE02     		.2byte	0x2ce
 2254 080d A4000000 		.4byte	0xa4
 2255 0811 22       		.uleb128 0x22
 2256 0812 89050000 		.4byte	.LASF82
 2257 0816 03       		.byte	0x3
 2258 0817 CF02     		.2byte	0x2cf
 2259 0819 A4000000 		.4byte	0xa4
 2260 081d 22       		.uleb128 0x22
 2261 081e 6F020000 		.4byte	.LASF83
 2262 0822 03       		.byte	0x3
 2263 0823 D002     		.2byte	0x2d0
 2264 0825 A4000000 		.4byte	0xa4
 2265 0829 22       		.uleb128 0x22
 2266 082a 19050000 		.4byte	.LASF84
 2267 082e 03       		.byte	0x3
 2268 082f D102     		.2byte	0x2d1
 2269 0831 A4000000 		.4byte	0xa4
 2270 0835 22       		.uleb128 0x22
 2271 0836 F8010000 		.4byte	.LASF85
 2272 083a 03       		.byte	0x3
 2273 083b D202     		.2byte	0x2d2
 2274 083d A4000000 		.4byte	0xa4
 2275 0841 23       		.uleb128 0x23
 2276 0842 2C020000 		.4byte	.LASF86
 2277 0846 04       		.byte	0x4
 2278 0847 70       		.byte	0x70
 2279 0848 A4000000 		.4byte	0xa4
 2280 084c 0A       		.uleb128 0xa
 2281 084d A4000000 		.4byte	0xa4
 2282 0851 5C080000 		.4byte	0x85c
 2283 0855 0B       		.uleb128 0xb
 2284 0856 C1000000 		.4byte	0xc1
 2285 085a 00       		.byte	0
 2286 085b 00       		.byte	0
 2287 085c 23       		.uleb128 0x23
 2288 085d 98040000 		.4byte	.LASF87
 2289 0861 04       		.byte	0x4
 2290 0862 71       		.byte	0x71
 2291 0863 67080000 		.4byte	0x867
 2292 0867 05       		.uleb128 0x5
 2293 0868 4C080000 		.4byte	0x84c
 2294 086c 23       		.uleb128 0x23
 2295 086d B2050000 		.4byte	.LASF88
 2296 0871 04       		.byte	0x4
ARM GAS  C:\Users\psmus\AppData\Local\Temp\ccX8E8QF.s 			page 86


 2297 0872 73       		.byte	0x73
 2298 0873 A4000000 		.4byte	0xa4
 2299 0877 0A       		.uleb128 0xa
 2300 0878 87080000 		.4byte	0x887
 2301 087c 87080000 		.4byte	0x887
 2302 0880 0B       		.uleb128 0xb
 2303 0881 C1000000 		.4byte	0xc1
 2304 0885 08       		.byte	0x8
 2305 0886 00       		.byte	0
 2306 0887 05       		.uleb128 0x5
 2307 0888 3D010000 		.4byte	0x13d
 2308 088c 23       		.uleb128 0x23
 2309 088d 23010000 		.4byte	.LASF89
 2310 0891 04       		.byte	0x4
 2311 0892 77       		.byte	0x77
 2312 0893 97080000 		.4byte	0x897
 2313 0897 05       		.uleb128 0x5
 2314 0898 77080000 		.4byte	0x877
 2315 089c 23       		.uleb128 0x23
 2316 089d 23060000 		.4byte	.LASF90
 2317 08a1 04       		.byte	0x4
 2318 08a2 99       		.byte	0x99
 2319 08a3 A4000000 		.4byte	0xa4
 2320 08a7 24       		.uleb128 0x24
 2321 08a8 DB010000 		.4byte	.LASF91
 2322 08ac DB010000 		.4byte	.LASF91
 2323 08b0 05       		.byte	0x5
 2324 08b1 DA       		.byte	0xda
 2325 08b2 24       		.uleb128 0x24
 2326 08b3 9B030000 		.4byte	.LASF92
 2327 08b7 9B030000 		.4byte	.LASF92
 2328 08bb 05       		.byte	0x5
 2329 08bc 64       		.byte	0x64
 2330 08bd 24       		.uleb128 0x24
 2331 08be 8A030000 		.4byte	.LASF93
 2332 08c2 8A030000 		.4byte	.LASF93
 2333 08c6 05       		.byte	0x5
 2334 08c7 C0       		.byte	0xc0
 2335 08c8 24       		.uleb128 0x24
 2336 08c9 39030000 		.4byte	.LASF94
 2337 08cd 39030000 		.4byte	.LASF94
 2338 08d1 05       		.byte	0x5
 2339 08d2 BD       		.byte	0xbd
 2340 08d3 24       		.uleb128 0x24
 2341 08d4 DC040000 		.4byte	.LASF95
 2342 08d8 DC040000 		.4byte	.LASF95
 2343 08dc 05       		.byte	0x5
 2344 08dd C3       		.byte	0xc3
 2345 08de 24       		.uleb128 0x24
 2346 08df BA020000 		.4byte	.LASF96
 2347 08e3 BA020000 		.4byte	.LASF96
 2348 08e7 05       		.byte	0x5
 2349 08e8 E5       		.byte	0xe5
 2350 08e9 24       		.uleb128 0x24
 2351 08ea 77040000 		.4byte	.LASF97
 2352 08ee 77040000 		.4byte	.LASF97
 2353 08f2 05       		.byte	0x5
ARM GAS  C:\Users\psmus\AppData\Local\Temp\ccX8E8QF.s 			page 87


 2354 08f3 E6       		.byte	0xe6
 2355 08f4 24       		.uleb128 0x24
 2356 08f5 A1010000 		.4byte	.LASF98
 2357 08f9 A1010000 		.4byte	.LASF98
 2358 08fd 05       		.byte	0x5
 2359 08fe C5       		.byte	0xc5
 2360 08ff 00       		.byte	0
 2361              		.section	.debug_abbrev,"",%progbits
 2362              	.Ldebug_abbrev0:
 2363 0000 01       		.uleb128 0x1
 2364 0001 11       		.uleb128 0x11
 2365 0002 01       		.byte	0x1
 2366 0003 25       		.uleb128 0x25
 2367 0004 0E       		.uleb128 0xe
 2368 0005 13       		.uleb128 0x13
 2369 0006 0B       		.uleb128 0xb
 2370 0007 03       		.uleb128 0x3
 2371 0008 0E       		.uleb128 0xe
 2372 0009 1B       		.uleb128 0x1b
 2373 000a 0E       		.uleb128 0xe
 2374 000b 55       		.uleb128 0x55
 2375 000c 17       		.uleb128 0x17
 2376 000d 11       		.uleb128 0x11
 2377 000e 01       		.uleb128 0x1
 2378 000f 10       		.uleb128 0x10
 2379 0010 17       		.uleb128 0x17
 2380 0011 00       		.byte	0
 2381 0012 00       		.byte	0
 2382 0013 02       		.uleb128 0x2
 2383 0014 24       		.uleb128 0x24
 2384 0015 00       		.byte	0
 2385 0016 0B       		.uleb128 0xb
 2386 0017 0B       		.uleb128 0xb
 2387 0018 3E       		.uleb128 0x3e
 2388 0019 0B       		.uleb128 0xb
 2389 001a 03       		.uleb128 0x3
 2390 001b 0E       		.uleb128 0xe
 2391 001c 00       		.byte	0
 2392 001d 00       		.byte	0
 2393 001e 03       		.uleb128 0x3
 2394 001f 24       		.uleb128 0x24
 2395 0020 00       		.byte	0
 2396 0021 0B       		.uleb128 0xb
 2397 0022 0B       		.uleb128 0xb
 2398 0023 3E       		.uleb128 0x3e
 2399 0024 0B       		.uleb128 0xb
 2400 0025 03       		.uleb128 0x3
 2401 0026 08       		.uleb128 0x8
 2402 0027 00       		.byte	0
 2403 0028 00       		.byte	0
 2404 0029 04       		.uleb128 0x4
 2405 002a 16       		.uleb128 0x16
 2406 002b 00       		.byte	0
 2407 002c 03       		.uleb128 0x3
 2408 002d 0E       		.uleb128 0xe
 2409 002e 3A       		.uleb128 0x3a
 2410 002f 0B       		.uleb128 0xb
ARM GAS  C:\Users\psmus\AppData\Local\Temp\ccX8E8QF.s 			page 88


 2411 0030 3B       		.uleb128 0x3b
 2412 0031 05       		.uleb128 0x5
 2413 0032 49       		.uleb128 0x49
 2414 0033 13       		.uleb128 0x13
 2415 0034 00       		.byte	0
 2416 0035 00       		.byte	0
 2417 0036 05       		.uleb128 0x5
 2418 0037 35       		.uleb128 0x35
 2419 0038 00       		.byte	0
 2420 0039 49       		.uleb128 0x49
 2421 003a 13       		.uleb128 0x13
 2422 003b 00       		.byte	0
 2423 003c 00       		.byte	0
 2424 003d 06       		.uleb128 0x6
 2425 003e 13       		.uleb128 0x13
 2426 003f 01       		.byte	0x1
 2427 0040 0B       		.uleb128 0xb
 2428 0041 0B       		.uleb128 0xb
 2429 0042 3A       		.uleb128 0x3a
 2430 0043 0B       		.uleb128 0xb
 2431 0044 3B       		.uleb128 0x3b
 2432 0045 0B       		.uleb128 0xb
 2433 0046 01       		.uleb128 0x1
 2434 0047 13       		.uleb128 0x13
 2435 0048 00       		.byte	0
 2436 0049 00       		.byte	0
 2437 004a 07       		.uleb128 0x7
 2438 004b 0D       		.uleb128 0xd
 2439 004c 00       		.byte	0
 2440 004d 03       		.uleb128 0x3
 2441 004e 0E       		.uleb128 0xe
 2442 004f 3A       		.uleb128 0x3a
 2443 0050 0B       		.uleb128 0xb
 2444 0051 3B       		.uleb128 0x3b
 2445 0052 0B       		.uleb128 0xb
 2446 0053 49       		.uleb128 0x49
 2447 0054 13       		.uleb128 0x13
 2448 0055 38       		.uleb128 0x38
 2449 0056 0B       		.uleb128 0xb
 2450 0057 00       		.byte	0
 2451 0058 00       		.byte	0
 2452 0059 08       		.uleb128 0x8
 2453 005a 16       		.uleb128 0x16
 2454 005b 00       		.byte	0
 2455 005c 03       		.uleb128 0x3
 2456 005d 0E       		.uleb128 0xe
 2457 005e 3A       		.uleb128 0x3a
 2458 005f 0B       		.uleb128 0xb
 2459 0060 3B       		.uleb128 0x3b
 2460 0061 0B       		.uleb128 0xb
 2461 0062 49       		.uleb128 0x49
 2462 0063 13       		.uleb128 0x13
 2463 0064 00       		.byte	0
 2464 0065 00       		.byte	0
 2465 0066 09       		.uleb128 0x9
 2466 0067 0D       		.uleb128 0xd
 2467 0068 00       		.byte	0
ARM GAS  C:\Users\psmus\AppData\Local\Temp\ccX8E8QF.s 			page 89


 2468 0069 03       		.uleb128 0x3
 2469 006a 08       		.uleb128 0x8
 2470 006b 3A       		.uleb128 0x3a
 2471 006c 0B       		.uleb128 0xb
 2472 006d 3B       		.uleb128 0x3b
 2473 006e 0B       		.uleb128 0xb
 2474 006f 49       		.uleb128 0x49
 2475 0070 13       		.uleb128 0x13
 2476 0071 38       		.uleb128 0x38
 2477 0072 0B       		.uleb128 0xb
 2478 0073 00       		.byte	0
 2479 0074 00       		.byte	0
 2480 0075 0A       		.uleb128 0xa
 2481 0076 01       		.uleb128 0x1
 2482 0077 01       		.byte	0x1
 2483 0078 49       		.uleb128 0x49
 2484 0079 13       		.uleb128 0x13
 2485 007a 01       		.uleb128 0x1
 2486 007b 13       		.uleb128 0x13
 2487 007c 00       		.byte	0
 2488 007d 00       		.byte	0
 2489 007e 0B       		.uleb128 0xb
 2490 007f 21       		.uleb128 0x21
 2491 0080 00       		.byte	0
 2492 0081 49       		.uleb128 0x49
 2493 0082 13       		.uleb128 0x13
 2494 0083 2F       		.uleb128 0x2f
 2495 0084 0B       		.uleb128 0xb
 2496 0085 00       		.byte	0
 2497 0086 00       		.byte	0
 2498 0087 0C       		.uleb128 0xc
 2499 0088 13       		.uleb128 0x13
 2500 0089 01       		.byte	0x1
 2501 008a 0B       		.uleb128 0xb
 2502 008b 05       		.uleb128 0x5
 2503 008c 3A       		.uleb128 0x3a
 2504 008d 0B       		.uleb128 0xb
 2505 008e 3B       		.uleb128 0x3b
 2506 008f 05       		.uleb128 0x5
 2507 0090 01       		.uleb128 0x1
 2508 0091 13       		.uleb128 0x13
 2509 0092 00       		.byte	0
 2510 0093 00       		.byte	0
 2511 0094 0D       		.uleb128 0xd
 2512 0095 0D       		.uleb128 0xd
 2513 0096 00       		.byte	0
 2514 0097 03       		.uleb128 0x3
 2515 0098 0E       		.uleb128 0xe
 2516 0099 3A       		.uleb128 0x3a
 2517 009a 0B       		.uleb128 0xb
 2518 009b 3B       		.uleb128 0x3b
 2519 009c 05       		.uleb128 0x5
 2520 009d 49       		.uleb128 0x49
 2521 009e 13       		.uleb128 0x13
 2522 009f 38       		.uleb128 0x38
 2523 00a0 0B       		.uleb128 0xb
 2524 00a1 00       		.byte	0
ARM GAS  C:\Users\psmus\AppData\Local\Temp\ccX8E8QF.s 			page 90


 2525 00a2 00       		.byte	0
 2526 00a3 0E       		.uleb128 0xe
 2527 00a4 2E       		.uleb128 0x2e
 2528 00a5 01       		.byte	0x1
 2529 00a6 3F       		.uleb128 0x3f
 2530 00a7 19       		.uleb128 0x19
 2531 00a8 03       		.uleb128 0x3
 2532 00a9 0E       		.uleb128 0xe
 2533 00aa 3A       		.uleb128 0x3a
 2534 00ab 0B       		.uleb128 0xb
 2535 00ac 3B       		.uleb128 0x3b
 2536 00ad 0B       		.uleb128 0xb
 2537 00ae 27       		.uleb128 0x27
 2538 00af 19       		.uleb128 0x19
 2539 00b0 11       		.uleb128 0x11
 2540 00b1 01       		.uleb128 0x1
 2541 00b2 12       		.uleb128 0x12
 2542 00b3 06       		.uleb128 0x6
 2543 00b4 40       		.uleb128 0x40
 2544 00b5 18       		.uleb128 0x18
 2545 00b6 9742     		.uleb128 0x2117
 2546 00b8 19       		.uleb128 0x19
 2547 00b9 01       		.uleb128 0x1
 2548 00ba 13       		.uleb128 0x13
 2549 00bb 00       		.byte	0
 2550 00bc 00       		.byte	0
 2551 00bd 0F       		.uleb128 0xf
 2552 00be 898201   		.uleb128 0x4109
 2553 00c1 01       		.byte	0x1
 2554 00c2 11       		.uleb128 0x11
 2555 00c3 01       		.uleb128 0x1
 2556 00c4 31       		.uleb128 0x31
 2557 00c5 13       		.uleb128 0x13
 2558 00c6 01       		.uleb128 0x1
 2559 00c7 13       		.uleb128 0x13
 2560 00c8 00       		.byte	0
 2561 00c9 00       		.byte	0
 2562 00ca 10       		.uleb128 0x10
 2563 00cb 8A8201   		.uleb128 0x410a
 2564 00ce 00       		.byte	0
 2565 00cf 02       		.uleb128 0x2
 2566 00d0 18       		.uleb128 0x18
 2567 00d1 9142     		.uleb128 0x2111
 2568 00d3 18       		.uleb128 0x18
 2569 00d4 00       		.byte	0
 2570 00d5 00       		.byte	0
 2571 00d6 11       		.uleb128 0x11
 2572 00d7 898201   		.uleb128 0x4109
 2573 00da 00       		.byte	0
 2574 00db 11       		.uleb128 0x11
 2575 00dc 01       		.uleb128 0x1
 2576 00dd 31       		.uleb128 0x31
 2577 00de 13       		.uleb128 0x13
 2578 00df 00       		.byte	0
 2579 00e0 00       		.byte	0
 2580 00e1 12       		.uleb128 0x12
 2581 00e2 898201   		.uleb128 0x4109
ARM GAS  C:\Users\psmus\AppData\Local\Temp\ccX8E8QF.s 			page 91


 2582 00e5 01       		.byte	0x1
 2583 00e6 11       		.uleb128 0x11
 2584 00e7 01       		.uleb128 0x1
 2585 00e8 31       		.uleb128 0x31
 2586 00e9 13       		.uleb128 0x13
 2587 00ea 00       		.byte	0
 2588 00eb 00       		.byte	0
 2589 00ec 13       		.uleb128 0x13
 2590 00ed 2E       		.uleb128 0x2e
 2591 00ee 01       		.byte	0x1
 2592 00ef 3F       		.uleb128 0x3f
 2593 00f0 19       		.uleb128 0x19
 2594 00f1 03       		.uleb128 0x3
 2595 00f2 0E       		.uleb128 0xe
 2596 00f3 3A       		.uleb128 0x3a
 2597 00f4 0B       		.uleb128 0xb
 2598 00f5 3B       		.uleb128 0x3b
 2599 00f6 05       		.uleb128 0x5
 2600 00f7 27       		.uleb128 0x27
 2601 00f8 19       		.uleb128 0x19
 2602 00f9 11       		.uleb128 0x11
 2603 00fa 01       		.uleb128 0x1
 2604 00fb 12       		.uleb128 0x12
 2605 00fc 06       		.uleb128 0x6
 2606 00fd 40       		.uleb128 0x40
 2607 00fe 18       		.uleb128 0x18
 2608 00ff 9742     		.uleb128 0x2117
 2609 0101 19       		.uleb128 0x19
 2610 0102 01       		.uleb128 0x1
 2611 0103 13       		.uleb128 0x13
 2612 0104 00       		.byte	0
 2613 0105 00       		.byte	0
 2614 0106 14       		.uleb128 0x14
 2615 0107 05       		.uleb128 0x5
 2616 0108 00       		.byte	0
 2617 0109 03       		.uleb128 0x3
 2618 010a 0E       		.uleb128 0xe
 2619 010b 3A       		.uleb128 0x3a
 2620 010c 0B       		.uleb128 0xb
 2621 010d 3B       		.uleb128 0x3b
 2622 010e 05       		.uleb128 0x5
 2623 010f 49       		.uleb128 0x49
 2624 0110 13       		.uleb128 0x13
 2625 0111 02       		.uleb128 0x2
 2626 0112 17       		.uleb128 0x17
 2627 0113 00       		.byte	0
 2628 0114 00       		.byte	0
 2629 0115 15       		.uleb128 0x15
 2630 0116 05       		.uleb128 0x5
 2631 0117 00       		.byte	0
 2632 0118 03       		.uleb128 0x3
 2633 0119 0E       		.uleb128 0xe
 2634 011a 3A       		.uleb128 0x3a
 2635 011b 0B       		.uleb128 0xb
 2636 011c 3B       		.uleb128 0x3b
 2637 011d 0B       		.uleb128 0xb
 2638 011e 49       		.uleb128 0x49
ARM GAS  C:\Users\psmus\AppData\Local\Temp\ccX8E8QF.s 			page 92


 2639 011f 13       		.uleb128 0x13
 2640 0120 02       		.uleb128 0x2
 2641 0121 17       		.uleb128 0x17
 2642 0122 00       		.byte	0
 2643 0123 00       		.byte	0
 2644 0124 16       		.uleb128 0x16
 2645 0125 2E       		.uleb128 0x2e
 2646 0126 00       		.byte	0
 2647 0127 3F       		.uleb128 0x3f
 2648 0128 19       		.uleb128 0x19
 2649 0129 03       		.uleb128 0x3
 2650 012a 0E       		.uleb128 0xe
 2651 012b 3A       		.uleb128 0x3a
 2652 012c 0B       		.uleb128 0xb
 2653 012d 3B       		.uleb128 0x3b
 2654 012e 05       		.uleb128 0x5
 2655 012f 27       		.uleb128 0x27
 2656 0130 19       		.uleb128 0x19
 2657 0131 11       		.uleb128 0x11
 2658 0132 01       		.uleb128 0x1
 2659 0133 12       		.uleb128 0x12
 2660 0134 06       		.uleb128 0x6
 2661 0135 40       		.uleb128 0x40
 2662 0136 18       		.uleb128 0x18
 2663 0137 9742     		.uleb128 0x2117
 2664 0139 19       		.uleb128 0x19
 2665 013a 00       		.byte	0
 2666 013b 00       		.byte	0
 2667 013c 17       		.uleb128 0x17
 2668 013d 34       		.uleb128 0x34
 2669 013e 00       		.byte	0
 2670 013f 03       		.uleb128 0x3
 2671 0140 0E       		.uleb128 0xe
 2672 0141 3A       		.uleb128 0x3a
 2673 0142 0B       		.uleb128 0xb
 2674 0143 3B       		.uleb128 0x3b
 2675 0144 05       		.uleb128 0x5
 2676 0145 49       		.uleb128 0x49
 2677 0146 13       		.uleb128 0x13
 2678 0147 02       		.uleb128 0x2
 2679 0148 17       		.uleb128 0x17
 2680 0149 00       		.byte	0
 2681 014a 00       		.byte	0
 2682 014b 18       		.uleb128 0x18
 2683 014c 2E       		.uleb128 0x2e
 2684 014d 01       		.byte	0x1
 2685 014e 3F       		.uleb128 0x3f
 2686 014f 19       		.uleb128 0x19
 2687 0150 03       		.uleb128 0x3
 2688 0151 0E       		.uleb128 0xe
 2689 0152 3A       		.uleb128 0x3a
 2690 0153 0B       		.uleb128 0xb
 2691 0154 3B       		.uleb128 0x3b
 2692 0155 05       		.uleb128 0x5
 2693 0156 27       		.uleb128 0x27
 2694 0157 19       		.uleb128 0x19
 2695 0158 49       		.uleb128 0x49
ARM GAS  C:\Users\psmus\AppData\Local\Temp\ccX8E8QF.s 			page 93


 2696 0159 13       		.uleb128 0x13
 2697 015a 11       		.uleb128 0x11
 2698 015b 01       		.uleb128 0x1
 2699 015c 12       		.uleb128 0x12
 2700 015d 06       		.uleb128 0x6
 2701 015e 40       		.uleb128 0x40
 2702 015f 18       		.uleb128 0x18
 2703 0160 9742     		.uleb128 0x2117
 2704 0162 19       		.uleb128 0x19
 2705 0163 01       		.uleb128 0x1
 2706 0164 13       		.uleb128 0x13
 2707 0165 00       		.byte	0
 2708 0166 00       		.byte	0
 2709 0167 19       		.uleb128 0x19
 2710 0168 34       		.uleb128 0x34
 2711 0169 00       		.byte	0
 2712 016a 03       		.uleb128 0x3
 2713 016b 0E       		.uleb128 0xe
 2714 016c 3A       		.uleb128 0x3a
 2715 016d 0B       		.uleb128 0xb
 2716 016e 3B       		.uleb128 0x3b
 2717 016f 05       		.uleb128 0x5
 2718 0170 49       		.uleb128 0x49
 2719 0171 13       		.uleb128 0x13
 2720 0172 02       		.uleb128 0x2
 2721 0173 18       		.uleb128 0x18
 2722 0174 00       		.byte	0
 2723 0175 00       		.byte	0
 2724 0176 1A       		.uleb128 0x1a
 2725 0177 2E       		.uleb128 0x2e
 2726 0178 00       		.byte	0
 2727 0179 3F       		.uleb128 0x3f
 2728 017a 19       		.uleb128 0x19
 2729 017b 03       		.uleb128 0x3
 2730 017c 0E       		.uleb128 0xe
 2731 017d 3A       		.uleb128 0x3a
 2732 017e 0B       		.uleb128 0xb
 2733 017f 3B       		.uleb128 0x3b
 2734 0180 05       		.uleb128 0x5
 2735 0181 27       		.uleb128 0x27
 2736 0182 19       		.uleb128 0x19
 2737 0183 49       		.uleb128 0x49
 2738 0184 13       		.uleb128 0x13
 2739 0185 11       		.uleb128 0x11
 2740 0186 01       		.uleb128 0x1
 2741 0187 12       		.uleb128 0x12
 2742 0188 06       		.uleb128 0x6
 2743 0189 40       		.uleb128 0x40
 2744 018a 18       		.uleb128 0x18
 2745 018b 9742     		.uleb128 0x2117
 2746 018d 19       		.uleb128 0x19
 2747 018e 00       		.byte	0
 2748 018f 00       		.byte	0
 2749 0190 1B       		.uleb128 0x1b
 2750 0191 34       		.uleb128 0x34
 2751 0192 00       		.byte	0
 2752 0193 03       		.uleb128 0x3
ARM GAS  C:\Users\psmus\AppData\Local\Temp\ccX8E8QF.s 			page 94


 2753 0194 08       		.uleb128 0x8
 2754 0195 3A       		.uleb128 0x3a
 2755 0196 0B       		.uleb128 0xb
 2756 0197 3B       		.uleb128 0x3b
 2757 0198 05       		.uleb128 0x5
 2758 0199 49       		.uleb128 0x49
 2759 019a 13       		.uleb128 0x13
 2760 019b 02       		.uleb128 0x2
 2761 019c 17       		.uleb128 0x17
 2762 019d 00       		.byte	0
 2763 019e 00       		.byte	0
 2764 019f 1C       		.uleb128 0x1c
 2765 01a0 05       		.uleb128 0x5
 2766 01a1 00       		.byte	0
 2767 01a2 03       		.uleb128 0x3
 2768 01a3 0E       		.uleb128 0xe
 2769 01a4 3A       		.uleb128 0x3a
 2770 01a5 0B       		.uleb128 0xb
 2771 01a6 3B       		.uleb128 0x3b
 2772 01a7 05       		.uleb128 0x5
 2773 01a8 49       		.uleb128 0x49
 2774 01a9 13       		.uleb128 0x13
 2775 01aa 02       		.uleb128 0x2
 2776 01ab 18       		.uleb128 0x18
 2777 01ac 00       		.byte	0
 2778 01ad 00       		.byte	0
 2779 01ae 1D       		.uleb128 0x1d
 2780 01af 0B       		.uleb128 0xb
 2781 01b0 01       		.byte	0x1
 2782 01b1 55       		.uleb128 0x55
 2783 01b2 17       		.uleb128 0x17
 2784 01b3 00       		.byte	0
 2785 01b4 00       		.byte	0
 2786 01b5 1E       		.uleb128 0x1e
 2787 01b6 0F       		.uleb128 0xf
 2788 01b7 00       		.byte	0
 2789 01b8 0B       		.uleb128 0xb
 2790 01b9 0B       		.uleb128 0xb
 2791 01ba 49       		.uleb128 0x49
 2792 01bb 13       		.uleb128 0x13
 2793 01bc 00       		.byte	0
 2794 01bd 00       		.byte	0
 2795 01be 1F       		.uleb128 0x1f
 2796 01bf 26       		.uleb128 0x26
 2797 01c0 00       		.byte	0
 2798 01c1 49       		.uleb128 0x49
 2799 01c2 13       		.uleb128 0x13
 2800 01c3 00       		.byte	0
 2801 01c4 00       		.byte	0
 2802 01c5 20       		.uleb128 0x20
 2803 01c6 0B       		.uleb128 0xb
 2804 01c7 01       		.byte	0x1
 2805 01c8 11       		.uleb128 0x11
 2806 01c9 01       		.uleb128 0x1
 2807 01ca 12       		.uleb128 0x12
 2808 01cb 06       		.uleb128 0x6
 2809 01cc 01       		.uleb128 0x1
ARM GAS  C:\Users\psmus\AppData\Local\Temp\ccX8E8QF.s 			page 95


 2810 01cd 13       		.uleb128 0x13
 2811 01ce 00       		.byte	0
 2812 01cf 00       		.byte	0
 2813 01d0 21       		.uleb128 0x21
 2814 01d1 34       		.uleb128 0x34
 2815 01d2 00       		.byte	0
 2816 01d3 03       		.uleb128 0x3
 2817 01d4 0E       		.uleb128 0xe
 2818 01d5 3A       		.uleb128 0x3a
 2819 01d6 0B       		.uleb128 0xb
 2820 01d7 3B       		.uleb128 0x3b
 2821 01d8 0B       		.uleb128 0xb
 2822 01d9 49       		.uleb128 0x49
 2823 01da 13       		.uleb128 0x13
 2824 01db 3F       		.uleb128 0x3f
 2825 01dc 19       		.uleb128 0x19
 2826 01dd 02       		.uleb128 0x2
 2827 01de 18       		.uleb128 0x18
 2828 01df 00       		.byte	0
 2829 01e0 00       		.byte	0
 2830 01e1 22       		.uleb128 0x22
 2831 01e2 34       		.uleb128 0x34
 2832 01e3 00       		.byte	0
 2833 01e4 03       		.uleb128 0x3
 2834 01e5 0E       		.uleb128 0xe
 2835 01e6 3A       		.uleb128 0x3a
 2836 01e7 0B       		.uleb128 0xb
 2837 01e8 3B       		.uleb128 0x3b
 2838 01e9 05       		.uleb128 0x5
 2839 01ea 49       		.uleb128 0x49
 2840 01eb 13       		.uleb128 0x13
 2841 01ec 3F       		.uleb128 0x3f
 2842 01ed 19       		.uleb128 0x19
 2843 01ee 3C       		.uleb128 0x3c
 2844 01ef 19       		.uleb128 0x19
 2845 01f0 00       		.byte	0
 2846 01f1 00       		.byte	0
 2847 01f2 23       		.uleb128 0x23
 2848 01f3 34       		.uleb128 0x34
 2849 01f4 00       		.byte	0
 2850 01f5 03       		.uleb128 0x3
 2851 01f6 0E       		.uleb128 0xe
 2852 01f7 3A       		.uleb128 0x3a
 2853 01f8 0B       		.uleb128 0xb
 2854 01f9 3B       		.uleb128 0x3b
 2855 01fa 0B       		.uleb128 0xb
 2856 01fb 49       		.uleb128 0x49
 2857 01fc 13       		.uleb128 0x13
 2858 01fd 3F       		.uleb128 0x3f
 2859 01fe 19       		.uleb128 0x19
 2860 01ff 3C       		.uleb128 0x3c
 2861 0200 19       		.uleb128 0x19
 2862 0201 00       		.byte	0
 2863 0202 00       		.byte	0
 2864 0203 24       		.uleb128 0x24
 2865 0204 2E       		.uleb128 0x2e
 2866 0205 00       		.byte	0
ARM GAS  C:\Users\psmus\AppData\Local\Temp\ccX8E8QF.s 			page 96


 2867 0206 3F       		.uleb128 0x3f
 2868 0207 19       		.uleb128 0x19
 2869 0208 3C       		.uleb128 0x3c
 2870 0209 19       		.uleb128 0x19
 2871 020a 6E       		.uleb128 0x6e
 2872 020b 0E       		.uleb128 0xe
 2873 020c 03       		.uleb128 0x3
 2874 020d 0E       		.uleb128 0xe
 2875 020e 3A       		.uleb128 0x3a
 2876 020f 0B       		.uleb128 0xb
 2877 0210 3B       		.uleb128 0x3b
 2878 0211 0B       		.uleb128 0xb
 2879 0212 00       		.byte	0
 2880 0213 00       		.byte	0
 2881 0214 00       		.byte	0
 2882              		.section	.debug_loc,"",%progbits
 2883              	.Ldebug_loc0:
 2884              	.LLST0:
 2885 0000 00000000 		.4byte	.LVL10
 2886 0004 28000000 		.4byte	.LVL11
 2887 0008 0100     		.2byte	0x1
 2888 000a 50       		.byte	0x50
 2889 000b 28000000 		.4byte	.LVL11
 2890 000f BC000000 		.4byte	.LFE3
 2891 0013 0400     		.2byte	0x4
 2892 0015 F3       		.byte	0xf3
 2893 0016 01       		.uleb128 0x1
 2894 0017 50       		.byte	0x50
 2895 0018 9F       		.byte	0x9f
 2896 0019 00000000 		.4byte	0
 2897 001d 00000000 		.4byte	0
 2898              	.LLST1:
 2899 0021 00000000 		.4byte	.LVL10
 2900 0025 2B000000 		.4byte	.LVL12-1
 2901 0029 0100     		.2byte	0x1
 2902 002b 51       		.byte	0x51
 2903 002c 2B000000 		.4byte	.LVL12-1
 2904 0030 BC000000 		.4byte	.LFE3
 2905 0034 0400     		.2byte	0x4
 2906 0036 F3       		.byte	0xf3
 2907 0037 01       		.uleb128 0x1
 2908 0038 51       		.byte	0x51
 2909 0039 9F       		.byte	0x9f
 2910 003a 00000000 		.4byte	0
 2911 003e 00000000 		.4byte	0
 2912              	.LLST2:
 2913 0042 00000000 		.4byte	.LVL15
 2914 0046 11000000 		.4byte	.LVL16-1
 2915 004a 0100     		.2byte	0x1
 2916 004c 50       		.byte	0x50
 2917 004d 11000000 		.4byte	.LVL16-1
 2918 0051 28000000 		.4byte	.LFE1
 2919 0055 0400     		.2byte	0x4
 2920 0057 F3       		.byte	0xf3
 2921 0058 01       		.uleb128 0x1
 2922 0059 50       		.byte	0x50
 2923 005a 9F       		.byte	0x9f
ARM GAS  C:\Users\psmus\AppData\Local\Temp\ccX8E8QF.s 			page 97


 2924 005b 00000000 		.4byte	0
 2925 005f 00000000 		.4byte	0
 2926              	.LLST3:
 2927 0063 00000000 		.4byte	.LVL15
 2928 0067 11000000 		.4byte	.LVL16-1
 2929 006b 0100     		.2byte	0x1
 2930 006d 51       		.byte	0x51
 2931 006e 11000000 		.4byte	.LVL16-1
 2932 0072 28000000 		.4byte	.LFE1
 2933 0076 0400     		.2byte	0x4
 2934 0078 F3       		.byte	0xf3
 2935 0079 01       		.uleb128 0x1
 2936 007a 51       		.byte	0x51
 2937 007b 9F       		.byte	0x9f
 2938 007c 00000000 		.4byte	0
 2939 0080 00000000 		.4byte	0
 2940              	.LLST4:
 2941 0084 06000000 		.4byte	.LVL18
 2942 0088 27000000 		.4byte	.LVL19-1
 2943 008c 0100     		.2byte	0x1
 2944 008e 50       		.byte	0x50
 2945 008f 00000000 		.4byte	0
 2946 0093 00000000 		.4byte	0
 2947              	.LLST5:
 2948 0097 00000000 		.4byte	.LVL24
 2949 009b 0E000000 		.4byte	.LVL25
 2950 009f 0200     		.2byte	0x2
 2951 00a1 30       		.byte	0x30
 2952 00a2 9F       		.byte	0x9f
 2953 00a3 0E000000 		.4byte	.LVL25
 2954 00a7 14000000 		.4byte	.LVL26
 2955 00ab 0100     		.2byte	0x1
 2956 00ad 50       		.byte	0x50
 2957 00ae 14000000 		.4byte	.LVL26
 2958 00b2 16000000 		.4byte	.LVL27
 2959 00b6 0200     		.2byte	0x2
 2960 00b8 30       		.byte	0x30
 2961 00b9 9F       		.byte	0x9f
 2962 00ba 16000000 		.4byte	.LVL27
 2963 00be 1C000000 		.4byte	.LFE8
 2964 00c2 0100     		.2byte	0x1
 2965 00c4 50       		.byte	0x50
 2966 00c5 00000000 		.4byte	0
 2967 00c9 00000000 		.4byte	0
 2968              	.LLST6:
 2969 00cd 00000000 		.4byte	.LVL28
 2970 00d1 04000000 		.4byte	.LVL29
 2971 00d5 0100     		.2byte	0x1
 2972 00d7 50       		.byte	0x50
 2973 00d8 04000000 		.4byte	.LVL29
 2974 00dc 0C000000 		.4byte	.LFE9
 2975 00e0 0400     		.2byte	0x4
 2976 00e2 F3       		.byte	0xf3
 2977 00e3 01       		.uleb128 0x1
 2978 00e4 50       		.byte	0x50
 2979 00e5 9F       		.byte	0x9f
 2980 00e6 00000000 		.4byte	0
ARM GAS  C:\Users\psmus\AppData\Local\Temp\ccX8E8QF.s 			page 98


 2981 00ea 00000000 		.4byte	0
 2982              	.LLST7:
 2983 00ee 00000000 		.4byte	.LVL30
 2984 00f2 04000000 		.4byte	.LVL31
 2985 00f6 0100     		.2byte	0x1
 2986 00f8 50       		.byte	0x50
 2987 00f9 04000000 		.4byte	.LVL31
 2988 00fd 14000000 		.4byte	.LFE10
 2989 0101 0400     		.2byte	0x4
 2990 0103 F3       		.byte	0xf3
 2991 0104 01       		.uleb128 0x1
 2992 0105 50       		.byte	0x50
 2993 0106 9F       		.byte	0x9f
 2994 0107 00000000 		.4byte	0
 2995 010b 00000000 		.4byte	0
 2996              	.LLST8:
 2997 010f 00000000 		.4byte	.LVL32
 2998 0113 0E000000 		.4byte	.LVL33
 2999 0117 0100     		.2byte	0x1
 3000 0119 50       		.byte	0x50
 3001 011a 0E000000 		.4byte	.LVL33
 3002 011e 2A000000 		.4byte	.LVL39
 3003 0122 0400     		.2byte	0x4
 3004 0124 F3       		.byte	0xf3
 3005 0125 01       		.uleb128 0x1
 3006 0126 50       		.byte	0x50
 3007 0127 9F       		.byte	0x9f
 3008 0128 2A000000 		.4byte	.LVL39
 3009 012c 2C000000 		.4byte	.LVL40
 3010 0130 0100     		.2byte	0x1
 3011 0132 50       		.byte	0x50
 3012 0133 2C000000 		.4byte	.LVL40
 3013 0137 34000000 		.4byte	.LFE11
 3014 013b 0400     		.2byte	0x4
 3015 013d F3       		.byte	0xf3
 3016 013e 01       		.uleb128 0x1
 3017 013f 50       		.byte	0x50
 3018 0140 9F       		.byte	0x9f
 3019 0141 00000000 		.4byte	0
 3020 0145 00000000 		.4byte	0
 3021              	.LLST9:
 3022 0149 00000000 		.4byte	.LVL32
 3023 014d 10000000 		.4byte	.LVL34
 3024 0151 0200     		.2byte	0x2
 3025 0153 30       		.byte	0x30
 3026 0154 9F       		.byte	0x9f
 3027 0155 10000000 		.4byte	.LVL34
 3028 0159 12000000 		.4byte	.LVL35
 3029 015d 0500     		.2byte	0x5
 3030 015f 70       		.byte	0x70
 3031 0160 00       		.sleb128 0
 3032 0161 3F       		.byte	0x3f
 3033 0162 1A       		.byte	0x1a
 3034 0163 9F       		.byte	0x9f
 3035 0164 24000000 		.4byte	.LVL36
 3036 0168 26000000 		.4byte	.LVL37
 3037 016c 0100     		.2byte	0x1
ARM GAS  C:\Users\psmus\AppData\Local\Temp\ccX8E8QF.s 			page 99


 3038 016e 50       		.byte	0x50
 3039 016f 26000000 		.4byte	.LVL37
 3040 0173 28000000 		.4byte	.LVL38
 3041 0177 0300     		.2byte	0x3
 3042 0179 70       		.byte	0x70
 3043 017a 02       		.sleb128 2
 3044 017b 9F       		.byte	0x9f
 3045 017c 28000000 		.4byte	.LVL38
 3046 0180 2A000000 		.4byte	.LVL39
 3047 0184 0100     		.2byte	0x1
 3048 0186 50       		.byte	0x50
 3049 0187 2A000000 		.4byte	.LVL39
 3050 018b 2C000000 		.4byte	.LVL40
 3051 018f 0200     		.2byte	0x2
 3052 0191 30       		.byte	0x30
 3053 0192 9F       		.byte	0x9f
 3054 0193 2C000000 		.4byte	.LVL40
 3055 0197 34000000 		.4byte	.LFE11
 3056 019b 0100     		.2byte	0x1
 3057 019d 50       		.byte	0x50
 3058 019e 00000000 		.4byte	0
 3059 01a2 00000000 		.4byte	0
 3060              	.LLST10:
 3061 01a6 00000000 		.4byte	.LVL41
 3062 01aa 86000000 		.4byte	.LVL51
 3063 01ae 0100     		.2byte	0x1
 3064 01b0 50       		.byte	0x50
 3065 01b1 86000000 		.4byte	.LVL51
 3066 01b5 9C000000 		.4byte	.LFE12
 3067 01b9 0400     		.2byte	0x4
 3068 01bb F3       		.byte	0xf3
 3069 01bc 01       		.uleb128 0x1
 3070 01bd 50       		.byte	0x50
 3071 01be 9F       		.byte	0x9f
 3072 01bf 00000000 		.4byte	0
 3073 01c3 00000000 		.4byte	0
 3074              	.LLST11:
 3075 01c7 00000000 		.4byte	.LVL41
 3076 01cb 24000000 		.4byte	.LVL42
 3077 01cf 0100     		.2byte	0x1
 3078 01d1 52       		.byte	0x52
 3079 01d2 24000000 		.4byte	.LVL42
 3080 01d6 36000000 		.4byte	.LVL43
 3081 01da 0400     		.2byte	0x4
 3082 01dc F3       		.byte	0xf3
 3083 01dd 01       		.uleb128 0x1
 3084 01de 52       		.byte	0x52
 3085 01df 9F       		.byte	0x9f
 3086 01e0 36000000 		.4byte	.LVL43
 3087 01e4 74000000 		.4byte	.LVL50
 3088 01e8 0100     		.2byte	0x1
 3089 01ea 52       		.byte	0x52
 3090 01eb 00000000 		.4byte	0
 3091 01ef 00000000 		.4byte	0
 3092              	.LLST12:
 3093 01f3 5A000000 		.4byte	.LVL44
 3094 01f7 68000000 		.4byte	.LVL45
ARM GAS  C:\Users\psmus\AppData\Local\Temp\ccX8E8QF.s 			page 100


 3095 01fb 0100     		.2byte	0x1
 3096 01fd 53       		.byte	0x53
 3097 01fe 6A000000 		.4byte	.LVL46
 3098 0202 6C000000 		.4byte	.LVL47
 3099 0206 0100     		.2byte	0x1
 3100 0208 53       		.byte	0x53
 3101 0209 6E000000 		.4byte	.LVL48
 3102 020d 72000000 		.4byte	.LVL49
 3103 0211 0100     		.2byte	0x1
 3104 0213 53       		.byte	0x53
 3105 0214 00000000 		.4byte	0
 3106 0218 00000000 		.4byte	0
 3107              	.LLST13:
 3108 021c 00000000 		.4byte	.LVL52
 3109 0220 1C000000 		.4byte	.LVL53
 3110 0224 0100     		.2byte	0x1
 3111 0226 50       		.byte	0x50
 3112 0227 1C000000 		.4byte	.LVL53
 3113 022b 30000000 		.4byte	.LFE14
 3114 022f 0400     		.2byte	0x4
 3115 0231 F3       		.byte	0xf3
 3116 0232 01       		.uleb128 0x1
 3117 0233 50       		.byte	0x50
 3118 0234 9F       		.byte	0x9f
 3119 0235 00000000 		.4byte	0
 3120 0239 00000000 		.4byte	0
 3121              	.LLST14:
 3122 023d 00000000 		.4byte	.LVL54
 3123 0241 17000000 		.4byte	.LVL55-1
 3124 0245 0100     		.2byte	0x1
 3125 0247 50       		.byte	0x50
 3126 0248 17000000 		.4byte	.LVL55-1
 3127 024c 44000000 		.4byte	.LVL62
 3128 0250 0400     		.2byte	0x4
 3129 0252 F3       		.byte	0xf3
 3130 0253 01       		.uleb128 0x1
 3131 0254 50       		.byte	0x50
 3132 0255 9F       		.byte	0x9f
 3133 0256 44000000 		.4byte	.LVL62
 3134 025a 4E000000 		.4byte	.LVL63
 3135 025e 0100     		.2byte	0x1
 3136 0260 50       		.byte	0x50
 3137 0261 4E000000 		.4byte	.LVL63
 3138 0265 58000000 		.4byte	.LFE13
 3139 0269 0400     		.2byte	0x4
 3140 026b F3       		.byte	0xf3
 3141 026c 01       		.uleb128 0x1
 3142 026d 50       		.byte	0x50
 3143 026e 9F       		.byte	0x9f
 3144 026f 00000000 		.4byte	0
 3145 0273 00000000 		.4byte	0
 3146              	.LLST15:
 3147 0277 00000000 		.4byte	.LVL54
 3148 027b 17000000 		.4byte	.LVL55-1
 3149 027f 0100     		.2byte	0x1
 3150 0281 51       		.byte	0x51
 3151 0282 17000000 		.4byte	.LVL55-1
ARM GAS  C:\Users\psmus\AppData\Local\Temp\ccX8E8QF.s 			page 101


 3152 0286 44000000 		.4byte	.LVL62
 3153 028a 0100     		.2byte	0x1
 3154 028c 56       		.byte	0x56
 3155 028d 44000000 		.4byte	.LVL62
 3156 0291 4E000000 		.4byte	.LVL63
 3157 0295 0100     		.2byte	0x1
 3158 0297 51       		.byte	0x51
 3159 0298 4E000000 		.4byte	.LVL63
 3160 029c 50000000 		.4byte	.LVL65
 3161 02a0 0100     		.2byte	0x1
 3162 02a2 56       		.byte	0x56
 3163 02a3 50000000 		.4byte	.LVL65
 3164 02a7 58000000 		.4byte	.LFE13
 3165 02ab 0400     		.2byte	0x4
 3166 02ad F3       		.byte	0xf3
 3167 02ae 01       		.uleb128 0x1
 3168 02af 51       		.byte	0x51
 3169 02b0 9F       		.byte	0x9f
 3170 02b1 00000000 		.4byte	0
 3171 02b5 00000000 		.4byte	0
 3172              	.LLST16:
 3173 02b9 00000000 		.4byte	.LVL54
 3174 02bd 17000000 		.4byte	.LVL55-1
 3175 02c1 0100     		.2byte	0x1
 3176 02c3 52       		.byte	0x52
 3177 02c4 17000000 		.4byte	.LVL55-1
 3178 02c8 24000000 		.4byte	.LVL57
 3179 02cc 0400     		.2byte	0x4
 3180 02ce F3       		.byte	0xf3
 3181 02cf 01       		.uleb128 0x1
 3182 02d0 52       		.byte	0x52
 3183 02d1 9F       		.byte	0x9f
 3184 02d2 24000000 		.4byte	.LVL57
 3185 02d6 44000000 		.4byte	.LVL62
 3186 02da 0100     		.2byte	0x1
 3187 02dc 54       		.byte	0x54
 3188 02dd 44000000 		.4byte	.LVL62
 3189 02e1 4E000000 		.4byte	.LVL63
 3190 02e5 0100     		.2byte	0x1
 3191 02e7 52       		.byte	0x52
 3192 02e8 4E000000 		.4byte	.LVL63
 3193 02ec 50000000 		.4byte	.LVL64
 3194 02f0 0100     		.2byte	0x1
 3195 02f2 54       		.byte	0x54
 3196 02f3 00000000 		.4byte	0
 3197 02f7 00000000 		.4byte	0
 3198              	.LLST17:
 3199 02fb 24000000 		.4byte	.LVL57
 3200 02ff 28000000 		.4byte	.LVL58
 3201 0303 0200     		.2byte	0x2
 3202 0305 30       		.byte	0x30
 3203 0306 9F       		.byte	0x9f
 3204 0307 28000000 		.4byte	.LVL58
 3205 030b 36000000 		.4byte	.LVL59
 3206 030f 0100     		.2byte	0x1
 3207 0311 53       		.byte	0x53
 3208 0312 38000000 		.4byte	.LVL60
ARM GAS  C:\Users\psmus\AppData\Local\Temp\ccX8E8QF.s 			page 102


 3209 0316 41000000 		.4byte	.LVL61-1
 3210 031a 0100     		.2byte	0x1
 3211 031c 53       		.byte	0x53
 3212 031d 00000000 		.4byte	0
 3213 0321 00000000 		.4byte	0
 3214              	.LLST18:
 3215 0325 00000000 		.4byte	.LVL66
 3216 0329 0A000000 		.4byte	.LVL67
 3217 032d 0100     		.2byte	0x1
 3218 032f 50       		.byte	0x50
 3219 0330 0A000000 		.4byte	.LVL67
 3220 0334 1C000000 		.4byte	.LFE15
 3221 0338 0400     		.2byte	0x4
 3222 033a F3       		.byte	0xf3
 3223 033b 01       		.uleb128 0x1
 3224 033c 50       		.byte	0x50
 3225 033d 9F       		.byte	0x9f
 3226 033e 00000000 		.4byte	0
 3227 0342 00000000 		.4byte	0
 3228              	.LLST19:
 3229 0346 00000000 		.4byte	.LVL69
 3230 034a 0A000000 		.4byte	.LVL70
 3231 034e 0100     		.2byte	0x1
 3232 0350 50       		.byte	0x50
 3233 0351 0A000000 		.4byte	.LVL70
 3234 0355 18000000 		.4byte	.LVL72
 3235 0359 0400     		.2byte	0x4
 3236 035b F3       		.byte	0xf3
 3237 035c 01       		.uleb128 0x1
 3238 035d 50       		.byte	0x50
 3239 035e 9F       		.byte	0x9f
 3240 035f 18000000 		.4byte	.LVL72
 3241 0363 1A000000 		.4byte	.LVL73
 3242 0367 0100     		.2byte	0x1
 3243 0369 50       		.byte	0x50
 3244 036a 1A000000 		.4byte	.LVL73
 3245 036e 24000000 		.4byte	.LFE17
 3246 0372 0400     		.2byte	0x4
 3247 0374 F3       		.byte	0xf3
 3248 0375 01       		.uleb128 0x1
 3249 0376 50       		.byte	0x50
 3250 0377 9F       		.byte	0x9f
 3251 0378 00000000 		.4byte	0
 3252 037c 00000000 		.4byte	0
 3253              	.LLST20:
 3254 0380 00000000 		.4byte	.LVL69
 3255 0384 16000000 		.4byte	.LVL71
 3256 0388 0200     		.2byte	0x2
 3257 038a 30       		.byte	0x30
 3258 038b 9F       		.byte	0x9f
 3259 038c 16000000 		.4byte	.LVL71
 3260 0390 18000000 		.4byte	.LVL72
 3261 0394 0100     		.2byte	0x1
 3262 0396 50       		.byte	0x50
 3263 0397 18000000 		.4byte	.LVL72
 3264 039b 1A000000 		.4byte	.LVL73
 3265 039f 0200     		.2byte	0x2
ARM GAS  C:\Users\psmus\AppData\Local\Temp\ccX8E8QF.s 			page 103


 3266 03a1 30       		.byte	0x30
 3267 03a2 9F       		.byte	0x9f
 3268 03a3 1A000000 		.4byte	.LVL73
 3269 03a7 1C000000 		.4byte	.LVL74
 3270 03ab 0100     		.2byte	0x1
 3271 03ad 50       		.byte	0x50
 3272 03ae 00000000 		.4byte	0
 3273 03b2 00000000 		.4byte	0
 3274              	.LLST21:
 3275 03b6 00000000 		.4byte	.LVL76
 3276 03ba 0E000000 		.4byte	.LVL77
 3277 03be 0200     		.2byte	0x2
 3278 03c0 30       		.byte	0x30
 3279 03c1 9F       		.byte	0x9f
 3280 03c2 0E000000 		.4byte	.LVL77
 3281 03c6 14000000 		.4byte	.LFE19
 3282 03ca 0100     		.2byte	0x1
 3283 03cc 50       		.byte	0x50
 3284 03cd 00000000 		.4byte	0
 3285 03d1 00000000 		.4byte	0
 3286              		.section	.debug_aranges,"",%progbits
 3287 0000 C4000000 		.4byte	0xc4
 3288 0004 0200     		.2byte	0x2
 3289 0006 00000000 		.4byte	.Ldebug_info0
 3290 000a 04       		.byte	0x4
 3291 000b 00       		.byte	0
 3292 000c 0000     		.2byte	0
 3293 000e 0000     		.2byte	0
 3294 0010 00000000 		.4byte	.LFB2
 3295 0014 D0000000 		.4byte	.LFE2-.LFB2
 3296 0018 00000000 		.4byte	.LFB3
 3297 001c BC000000 		.4byte	.LFE3-.LFB3
 3298 0020 00000000 		.4byte	.LFB1
 3299 0024 28000000 		.4byte	.LFE1-.LFB1
 3300 0028 00000000 		.4byte	.LFB4
 3301 002c 50000000 		.4byte	.LFE4-.LFB4
 3302 0030 00000000 		.4byte	.LFB5
 3303 0034 7C000000 		.4byte	.LFE5-.LFB5
 3304 0038 00000000 		.4byte	.LFB6
 3305 003c 1C000000 		.4byte	.LFE6-.LFB6
 3306 0040 00000000 		.4byte	.LFB7
 3307 0044 0C000000 		.4byte	.LFE7-.LFB7
 3308 0048 00000000 		.4byte	.LFB8
 3309 004c 1C000000 		.4byte	.LFE8-.LFB8
 3310 0050 00000000 		.4byte	.LFB9
 3311 0054 0C000000 		.4byte	.LFE9-.LFB9
 3312 0058 00000000 		.4byte	.LFB10
 3313 005c 14000000 		.4byte	.LFE10-.LFB10
 3314 0060 00000000 		.4byte	.LFB11
 3315 0064 34000000 		.4byte	.LFE11-.LFB11
 3316 0068 00000000 		.4byte	.LFB12
 3317 006c 9C000000 		.4byte	.LFE12-.LFB12
 3318 0070 00000000 		.4byte	.LFB14
 3319 0074 30000000 		.4byte	.LFE14-.LFB14
 3320 0078 00000000 		.4byte	.LFB13
 3321 007c 58000000 		.4byte	.LFE13-.LFB13
 3322 0080 00000000 		.4byte	.LFB15
ARM GAS  C:\Users\psmus\AppData\Local\Temp\ccX8E8QF.s 			page 104


 3323 0084 1C000000 		.4byte	.LFE15-.LFB15
 3324 0088 00000000 		.4byte	.LFB16
 3325 008c 0C000000 		.4byte	.LFE16-.LFB16
 3326 0090 00000000 		.4byte	.LFB17
 3327 0094 24000000 		.4byte	.LFE17-.LFB17
 3328 0098 00000000 		.4byte	.LFB18
 3329 009c 24000000 		.4byte	.LFE18-.LFB18
 3330 00a0 00000000 		.4byte	.LFB19
 3331 00a4 14000000 		.4byte	.LFE19-.LFB19
 3332 00a8 00000000 		.4byte	.LFB20
 3333 00ac 10000000 		.4byte	.LFE20-.LFB20
 3334 00b0 00000000 		.4byte	.LFB21
 3335 00b4 10000000 		.4byte	.LFE21-.LFB21
 3336 00b8 00000000 		.4byte	.LFB22
 3337 00bc 10000000 		.4byte	.LFE22-.LFB22
 3338 00c0 00000000 		.4byte	0
 3339 00c4 00000000 		.4byte	0
 3340              		.section	.debug_ranges,"",%progbits
 3341              	.Ldebug_ranges0:
 3342 0000 58000000 		.4byte	.LBB2
 3343 0004 6C000000 		.4byte	.LBE2
 3344 0008 6E000000 		.4byte	.LBB3
 3345 000c 72000000 		.4byte	.LBE3
 3346 0010 00000000 		.4byte	0
 3347 0014 00000000 		.4byte	0
 3348 0018 00000000 		.4byte	.LFB2
 3349 001c D0000000 		.4byte	.LFE2
 3350 0020 00000000 		.4byte	.LFB3
 3351 0024 BC000000 		.4byte	.LFE3
 3352 0028 00000000 		.4byte	.LFB1
 3353 002c 28000000 		.4byte	.LFE1
 3354 0030 00000000 		.4byte	.LFB4
 3355 0034 50000000 		.4byte	.LFE4
 3356 0038 00000000 		.4byte	.LFB5
 3357 003c 7C000000 		.4byte	.LFE5
 3358 0040 00000000 		.4byte	.LFB6
 3359 0044 1C000000 		.4byte	.LFE6
 3360 0048 00000000 		.4byte	.LFB7
 3361 004c 0C000000 		.4byte	.LFE7
 3362 0050 00000000 		.4byte	.LFB8
 3363 0054 1C000000 		.4byte	.LFE8
 3364 0058 00000000 		.4byte	.LFB9
 3365 005c 0C000000 		.4byte	.LFE9
 3366 0060 00000000 		.4byte	.LFB10
 3367 0064 14000000 		.4byte	.LFE10
 3368 0068 00000000 		.4byte	.LFB11
 3369 006c 34000000 		.4byte	.LFE11
 3370 0070 00000000 		.4byte	.LFB12
 3371 0074 9C000000 		.4byte	.LFE12
 3372 0078 00000000 		.4byte	.LFB14
 3373 007c 30000000 		.4byte	.LFE14
 3374 0080 00000000 		.4byte	.LFB13
 3375 0084 58000000 		.4byte	.LFE13
 3376 0088 00000000 		.4byte	.LFB15
 3377 008c 1C000000 		.4byte	.LFE15
 3378 0090 00000000 		.4byte	.LFB16
 3379 0094 0C000000 		.4byte	.LFE16
ARM GAS  C:\Users\psmus\AppData\Local\Temp\ccX8E8QF.s 			page 105


 3380 0098 00000000 		.4byte	.LFB17
 3381 009c 24000000 		.4byte	.LFE17
 3382 00a0 00000000 		.4byte	.LFB18
 3383 00a4 24000000 		.4byte	.LFE18
 3384 00a8 00000000 		.4byte	.LFB19
 3385 00ac 14000000 		.4byte	.LFE19
 3386 00b0 00000000 		.4byte	.LFB20
 3387 00b4 10000000 		.4byte	.LFE20
 3388 00b8 00000000 		.4byte	.LFB21
 3389 00bc 10000000 		.4byte	.LFE21
 3390 00c0 00000000 		.4byte	.LFB22
 3391 00c4 10000000 		.4byte	.LFE22
 3392 00c8 00000000 		.4byte	0
 3393 00cc 00000000 		.4byte	0
 3394              		.section	.debug_line,"",%progbits
 3395              	.Ldebug_line0:
 3396 0000 ED020000 		.section	.debug_str,"MS",%progbits,1
 3396      02006D00 
 3396      00000201 
 3396      FB0E0D00 
 3396      01010101 
 3397              	.LASF10:
 3398 0000 75696E74 		.ascii	"uint16\000"
 3398      313600
 3399              	.LASF62:
 3400 0007 55534246 		.ascii	"USBFS_1_LoadInEP\000"
 3400      535F315F 
 3400      4C6F6164 
 3400      496E4550 
 3400      00
 3401              	.LASF70:
 3402 0018 55534246 		.ascii	"USBFS_1_GetEPAckState\000"
 3402      535F315F 
 3402      47657445 
 3402      5041636B 
 3402      53746174 
 3403              	.LASF54:
 3404 002e 55534246 		.ascii	"USBFS_1_CheckActivity\000"
 3404      535F315F 
 3404      43686563 
 3404      6B416374 
 3404      69766974 
 3405              	.LASF4:
 3406 0044 6C6F6E67 		.ascii	"long int\000"
 3406      20696E74 
 3406      00
 3407              	.LASF99:
 3408 004d 474E5520 		.ascii	"GNU C11 5.4.1 20160609 (release) [ARM/embedded-5-br"
 3408      43313120 
 3408      352E342E 
 3408      31203230 
 3408      31363036 
 3409 0080 616E6368 		.ascii	"anch revision 237715] -mcpu=cortex-m0 -mthumb -g -O"
 3409      20726576 
 3409      6973696F 
 3409      6E203233 
 3409      37373135 
ARM GAS  C:\Users\psmus\AppData\Local\Temp\ccX8E8QF.s 			page 106


 3410 00b3 67202D66 		.ascii	"g -ffunction-sections -ffat-lto-objects\000"
 3410      66756E63 
 3410      74696F6E 
 3410      2D736563 
 3410      74696F6E 
 3411              	.LASF80:
 3412 00db 55534246 		.ascii	"USBFS_1_initVar\000"
 3412      535F315F 
 3412      696E6974 
 3412      56617200 
 3413              	.LASF7:
 3414 00eb 6C6F6E67 		.ascii	"long long unsigned int\000"
 3414      206C6F6E 
 3414      6720756E 
 3414      7369676E 
 3414      65642069 
 3415              	.LASF79:
 3416 0102 55534246 		.ascii	"USBFS_1_DisableSofInt\000"
 3416      535F315F 
 3416      44697361 
 3416      626C6553 
 3416      6F66496E 
 3417              	.LASF22:
 3418 0118 61646472 		.ascii	"addr\000"
 3418      00
 3419              	.LASF32:
 3420 011d 65704366 		.ascii	"epCfg\000"
 3420      6700
 3421              	.LASF89:
 3422 0123 55534246 		.ascii	"USBFS_1_EP\000"
 3422      535F315F 
 3422      455000
 3423              	.LASF59:
 3424 012e 65704E75 		.ascii	"epNumber\000"
 3424      6D626572 
 3424      00
 3425              	.LASF48:
 3426 0137 64657669 		.ascii	"device\000"
 3426      636500
 3427              	.LASF6:
 3428 013e 6C6F6E67 		.ascii	"long long int\000"
 3428      206C6F6E 
 3428      6720696E 
 3428      7400
 3429              	.LASF0:
 3430 014c 7369676E 		.ascii	"signed char\000"
 3430      65642063 
 3430      68617200 
 3431              	.LASF61:
 3432 0158 636E7472 		.ascii	"cntr\000"
 3432      00
 3433              	.LASF101:
 3434 015d 453A5C44 		.ascii	"E:\\Documents\\Engineering\\Code\\synth-wavetable\\"
 3434      6F63756D 
 3434      656E7473 
 3434      5C456E67 
 3434      696E6565 
ARM GAS  C:\Users\psmus\AppData\Local\Temp\ccX8E8QF.s 			page 107


 3435 018b 73796E74 		.ascii	"synth-wavetable.cydsn\000"
 3435      682D7761 
 3435      76657461 
 3435      626C652E 
 3435      63796473 
 3436              	.LASF98:
 3437 01a1 4379496E 		.ascii	"CyIntDisable\000"
 3437      74446973 
 3437      61626C65 
 3437      00
 3438              	.LASF66:
 3439 01ae 55534246 		.ascii	"USBFS_1_ReadOutEP\000"
 3439      535F315F 
 3439      52656164 
 3439      4F757445 
 3439      5000
 3440              	.LASF9:
 3441 01c0 75696E74 		.ascii	"uint8\000"
 3441      3800
 3442              	.LASF21:
 3443 01c6 6570546F 		.ascii	"epToggle\000"
 3443      67676C65 
 3443      00
 3444              	.LASF36:
 3445 01cf 72775761 		.ascii	"rwWa\000"
 3445      00
 3446              	.LASF74:
 3447 01d4 72657375 		.ascii	"result\000"
 3447      6C7400
 3448              	.LASF91:
 3449 01db 43794465 		.ascii	"CyDelayUs\000"
 3449      6C617955 
 3449      7300
 3450              	.LASF13:
 3451 01e5 646F7562 		.ascii	"double\000"
 3451      6C6500
 3452              	.LASF72:
 3453 01ec 706F7765 		.ascii	"powerStatus\000"
 3453      72537461 
 3453      74757300 
 3454              	.LASF85:
 3455 01f8 55534246 		.ascii	"USBFS_1_deviceStatus\000"
 3455      535F315F 
 3455      64657669 
 3455      63655374 
 3455      61747573 
 3456              	.LASF34:
 3457 020d 65705372 		.ascii	"epSr\000"
 3457      00
 3458              	.LASF11:
 3459 0212 75696E74 		.ascii	"uint32\000"
 3459      333200
 3460              	.LASF63:
 3461 0219 70446174 		.ascii	"pData\000"
 3461      6100
 3462              	.LASF42:
 3463 021f 73696545 		.ascii	"sieEp\000"
ARM GAS  C:\Users\psmus\AppData\Local\Temp\ccX8E8QF.s 			page 108


 3463      7000
 3464              	.LASF23:
 3465 0225 65704D6F 		.ascii	"epMode\000"
 3465      646500
 3466              	.LASF86:
 3467 022c 55534246 		.ascii	"USBFS_1_interfaceNumber\000"
 3467      535F315F 
 3467      696E7465 
 3467      72666163 
 3467      654E756D 
 3468              	.LASF35:
 3469 0244 72657365 		.ascii	"reserved\000"
 3469      72766564 
 3469      00
 3470              	.LASF67:
 3471 024d 55534246 		.ascii	"USBFS_1_DisableOutEP\000"
 3471      535F315F 
 3471      44697361 
 3471      626C654F 
 3471      75744550 
 3472              	.LASF8:
 3473 0262 756E7369 		.ascii	"unsigned int\000"
 3473      676E6564 
 3473      20696E74 
 3473      00
 3474              	.LASF83:
 3475 026f 55534246 		.ascii	"USBFS_1_configuration\000"
 3475      535F315F 
 3475      636F6E66 
 3475      69677572 
 3475      6174696F 
 3476              	.LASF41:
 3477 0285 55534246 		.ascii	"USBFS_1_arb_ep_struct\000"
 3477      535F315F 
 3477      6172625F 
 3477      65705F73 
 3477      74727563 
 3478              	.LASF5:
 3479 029b 6C6F6E67 		.ascii	"long unsigned int\000"
 3479      20756E73 
 3479      69676E65 
 3479      6420696E 
 3479      7400
 3480              	.LASF51:
 3481 02ad 55534246 		.ascii	"USBFS_1_Stop\000"
 3481      535F315F 
 3481      53746F70 
 3481      00
 3482              	.LASF96:
 3483 02ba 4379456E 		.ascii	"CyEnterCriticalSection\000"
 3483      74657243 
 3483      72697469 
 3483      63616C53 
 3483      65637469 
 3484              	.LASF43:
 3485 02d1 55534246 		.ascii	"USBFS_1_sie_eps_struct\000"
 3485      535F315F 
ARM GAS  C:\Users\psmus\AppData\Local\Temp\ccX8E8QF.s 			page 109


 3485      7369655F 
 3485      6570735F 
 3485      73747275 
 3486              	.LASF45:
 3487 02e8 55534246 		.ascii	"USBFS_1_arb_eps_struct\000"
 3487      535F315F 
 3487      6172625F 
 3487      6570735F 
 3487      73747275 
 3488              	.LASF76:
 3489 02ff 55534246 		.ascii	"USBFS_1_GetDeviceAddress\000"
 3489      535F315F 
 3489      47657444 
 3489      65766963 
 3489      65416464 
 3490              	.LASF50:
 3491 0318 55534246 		.ascii	"USBFS_1_Start\000"
 3491      535F315F 
 3491      53746172 
 3491      7400
 3492              	.LASF3:
 3493 0326 73686F72 		.ascii	"short unsigned int\000"
 3493      7420756E 
 3493      7369676E 
 3493      65642069 
 3493      6E7400
 3494              	.LASF94:
 3495 0339 4379496E 		.ascii	"CyIntSetVector\000"
 3495      74536574 
 3495      56656374 
 3495      6F7200
 3496              	.LASF27:
 3497 0348 545F5553 		.ascii	"T_USBFS_1_EP_CTL_BLOCK\000"
 3497      4246535F 
 3497      315F4550 
 3497      5F43544C 
 3497      5F424C4F 
 3498              	.LASF71:
 3499 035f 55534246 		.ascii	"USBFS_1_SetPowerStatus\000"
 3499      535F315F 
 3499      53657450 
 3499      6F776572 
 3499      53746174 
 3500              	.LASF65:
 3501 0376 55534246 		.ascii	"USBFS_1_EnableOutEP\000"
 3501      535F315F 
 3501      456E6162 
 3501      6C654F75 
 3501      74455000 
 3502              	.LASF93:
 3503 038a 4379496E 		.ascii	"CyIntSetPriority\000"
 3503      74536574 
 3503      5072696F 
 3503      72697479 
 3503      00
 3504              	.LASF92:
 3505 039b 43795379 		.ascii	"CySysClkImoGetUsbLock\000"
ARM GAS  C:\Users\psmus\AppData\Local\Temp\ccX8E8QF.s 			page 110


 3505      73436C6B 
 3505      496D6F47 
 3505      65745573 
 3505      624C6F63 
 3506              	.LASF44:
 3507 03b1 61726245 		.ascii	"arbEp\000"
 3507      7000
 3508              	.LASF26:
 3509 03b7 696E7465 		.ascii	"interface\000"
 3509      72666163 
 3509      6500
 3510              	.LASF53:
 3511 03c1 63723152 		.ascii	"cr1Reg\000"
 3511      656700
 3512              	.LASF15:
 3513 03c8 72656733 		.ascii	"reg32\000"
 3513      3200
 3514              	.LASF20:
 3515 03ce 68774570 		.ascii	"hwEpState\000"
 3515      53746174 
 3515      6500
 3516              	.LASF75:
 3517 03d8 55534246 		.ascii	"USBFS_1_GetConfiguration\000"
 3517      535F315F 
 3517      47657443 
 3517      6F6E6669 
 3517      67757261 
 3518              	.LASF17:
 3519 03f1 73697A65 		.ascii	"sizetype\000"
 3519      74797065 
 3519      00
 3520              	.LASF58:
 3521 03fa 55534246 		.ascii	"USBFS_1_GetEPState\000"
 3521      535F315F 
 3521      47657445 
 3521      50537461 
 3521      746500
 3522              	.LASF16:
 3523 040d 6C6F6E67 		.ascii	"long double\000"
 3523      20646F75 
 3523      626C6500 
 3524              	.LASF18:
 3525 0419 61747472 		.ascii	"attrib\000"
 3525      696200
 3526              	.LASF55:
 3527 0420 55534246 		.ascii	"USBFS_1_IsConfigurationChanged\000"
 3527      535F315F 
 3527      4973436F 
 3527      6E666967 
 3527      75726174 
 3528              	.LASF39:
 3529 043f 72775261 		.ascii	"rwRaMsb\000"
 3529      4D736200 
 3530              	.LASF28:
 3531 0447 6570436E 		.ascii	"epCnt0\000"
 3531      743000
 3532              	.LASF29:
ARM GAS  C:\Users\psmus\AppData\Local\Temp\ccX8E8QF.s 			page 111


 3533 044e 6570436E 		.ascii	"epCnt1\000"
 3533      743100
 3534              	.LASF31:
 3535 0455 55534246 		.ascii	"USBFS_1_sie_ep_struct\000"
 3535      535F315F 
 3535      7369655F 
 3535      65705F73 
 3535      74727563 
 3536              	.LASF30:
 3537 046b 65704372 		.ascii	"epCr0\000"
 3537      3000
 3538              	.LASF12:
 3539 0471 666C6F61 		.ascii	"float\000"
 3539      7400
 3540              	.LASF97:
 3541 0477 43794578 		.ascii	"CyExitCriticalSection\000"
 3541      69744372 
 3541      69746963 
 3541      616C5365 
 3541      6374696F 
 3542              	.LASF19:
 3543 048d 61706945 		.ascii	"apiEpState\000"
 3543      70537461 
 3543      746500
 3544              	.LASF87:
 3545 0498 55534246 		.ascii	"USBFS_1_interfaceSetting\000"
 3545      535F315F 
 3545      696E7465 
 3545      72666163 
 3545      65536574 
 3546              	.LASF60:
 3547 04b1 55534246 		.ascii	"USBFS_1_GetEPCount\000"
 3547      535F315F 
 3547      47657445 
 3547      50436F75 
 3547      6E7400
 3548              	.LASF1:
 3549 04c4 756E7369 		.ascii	"unsigned char\000"
 3549      676E6564 
 3549      20636861 
 3549      7200
 3550              	.LASF2:
 3551 04d2 73686F72 		.ascii	"short int\000"
 3551      7420696E 
 3551      7400
 3552              	.LASF95:
 3553 04dc 4379496E 		.ascii	"CyIntEnable\000"
 3553      74456E61 
 3553      626C6500 
 3554              	.LASF81:
 3555 04e8 55534246 		.ascii	"USBFS_1_device\000"
 3555      535F315F 
 3555      64657669 
 3555      636500
 3556              	.LASF68:
 3557 04f7 55534246 		.ascii	"USBFS_1_Force\000"
 3557      535F315F 
ARM GAS  C:\Users\psmus\AppData\Local\Temp\ccX8E8QF.s 			page 112


 3557      466F7263 
 3557      6500
 3558              	.LASF38:
 3559 0505 72775261 		.ascii	"rwRa\000"
 3559      00
 3560              	.LASF37:
 3561 050a 72775761 		.ascii	"rwWaMsb\000"
 3561      4D736200 
 3562              	.LASF69:
 3563 0512 62537461 		.ascii	"bState\000"
 3563      746500
 3564              	.LASF84:
 3565 0519 55534246 		.ascii	"USBFS_1_configurationChanged\000"
 3565      535F315F 
 3565      636F6E66 
 3565      69677572 
 3565      6174696F 
 3566              	.LASF47:
 3567 0536 55534246 		.ascii	"USBFS_1_InitComponent\000"
 3567      535F315F 
 3567      496E6974 
 3567      436F6D70 
 3567      6F6E656E 
 3568              	.LASF46:
 3569 054c 55534246 		.ascii	"USBFS_1_Init\000"
 3569      535F315F 
 3569      496E6974 
 3569      00
 3570              	.LASF14:
 3571 0559 63686172 		.ascii	"char\000"
 3571      00
 3572              	.LASF49:
 3573 055e 6D6F6465 		.ascii	"mode\000"
 3573      00
 3574              	.LASF25:
 3575 0563 62756666 		.ascii	"bufferSize\000"
 3575      65725369 
 3575      7A6500
 3576              	.LASF24:
 3577 056e 62756666 		.ascii	"buffOffset\000"
 3577      4F666673 
 3577      657400
 3578              	.LASF57:
 3579 0579 696E7465 		.ascii	"interfaceNumber\000"
 3579      72666163 
 3579      654E756D 
 3579      62657200 
 3580              	.LASF82:
 3581 0589 55534246 		.ascii	"USBFS_1_transferState\000"
 3581      535F315F 
 3581      7472616E 
 3581      73666572 
 3581      53746174 
 3582              	.LASF73:
 3583 059f 55534246 		.ascii	"USBFS_1_RWUEnabled\000"
 3583      535F315F 
 3583      52575545 
ARM GAS  C:\Users\psmus\AppData\Local\Temp\ccX8E8QF.s 			page 113


 3583      6E61626C 
 3583      656400
 3584              	.LASF88:
 3585 05b2 55534246 		.ascii	"USBFS_1_deviceAddress\000"
 3585      535F315F 
 3585      64657669 
 3585      63654164 
 3585      64726573 
 3586              	.LASF64:
 3587 05c8 6C656E67 		.ascii	"length\000"
 3587      746800
 3588              	.LASF52:
 3589 05cf 656E6162 		.ascii	"enableInterrupts\000"
 3589      6C65496E 
 3589      74657272 
 3589      75707473 
 3589      00
 3590              	.LASF40:
 3591 05e0 72774472 		.ascii	"rwDr\000"
 3591      00
 3592              	.LASF78:
 3593 05e5 55534246 		.ascii	"USBFS_1_EnableSofInt\000"
 3593      535F315F 
 3593      456E6162 
 3593      6C65536F 
 3593      66496E74 
 3594              	.LASF100:
 3595 05fa 47656E65 		.ascii	"Generated_Source\\PSoC4\\USBFS_1.c\000"
 3595      72617465 
 3595      645F536F 
 3595      75726365 
 3595      5C50536F 
 3596              	.LASF33:
 3597 061b 6570496E 		.ascii	"epIntEn\000"
 3597      74456E00 
 3598              	.LASF90:
 3599 0623 55534246 		.ascii	"USBFS_1_lastPacketSize\000"
 3599      535F315F 
 3599      6C617374 
 3599      5061636B 
 3599      65745369 
 3600              	.LASF56:
 3601 063a 55534246 		.ascii	"USBFS_1_GetInterfaceSetting\000"
 3601      535F315F 
 3601      47657449 
 3601      6E746572 
 3601      66616365 
 3602              	.LASF77:
 3603 0656 55534246 		.ascii	"USBFS_1_ReInitComponent\000"
 3603      535F315F 
 3603      5265496E 
 3603      6974436F 
 3603      6D706F6E 
 3604              		.ident	"GCC: (GNU Tools for ARM Embedded Processors) 5.4.1 20160609 (release) [ARM/embedded-5-bran
