ARM GAS  C:\Users\psmus\AppData\Local\Temp\cc5k9kBp.s 			page 1


   1              		.syntax unified
   2              		.cpu cortex-m0
   3              		.fpu softvfp
   4              		.eabi_attribute 20, 1
   5              		.eabi_attribute 21, 1
   6              		.eabi_attribute 23, 3
   7              		.eabi_attribute 24, 1
   8              		.eabi_attribute 25, 1
   9              		.eabi_attribute 26, 1
  10              		.eabi_attribute 30, 1
  11              		.eabi_attribute 34, 0
  12              		.eabi_attribute 18, 4
  13              		.thumb
  14              		.syntax unified
  15              		.file	"waves.c"
  16              		.text
  17              	.Ltext0:
  18              		.cfi_sections	.debug_frame
  19              		.global	__aeabi_i2d
  20              		.global	__aeabi_dmul
  21              		.global	__aeabi_d2iz
  22              		.section	.text.generate_base_sine,"ax",%progbits
  23              		.align	2
  24              		.global	generate_base_sine
  25              		.code	16
  26              		.thumb_func
  27              		.type	generate_base_sine, %function
  28              	generate_base_sine:
  29              	.LFB131:
  30              		.file 1 "waves.c"
   1:waves.c       **** #include <project.h>
   2:waves.c       **** #include <AudioControl.h>
   3:waves.c       **** #include "waves.h"
   4:waves.c       **** #include <math.h>
   5:waves.c       **** 
   6:waves.c       **** void init_wavetable(){   
   7:waves.c       ****     //double * base_sine = malloc(((int)N) * sizeof(double)); // one period's worth of samples at f
   8:waves.c       ****     //double * base_pos_saw = malloc(((int)N) * sizeof(double));
   9:waves.c       ****     //double * base_neg_saw = malloc(((int)N) * sizeof(double));
  10:waves.c       ****     //double * base_tri = malloc(((int)N) * sizeof(double));
  11:waves.c       ****     //double * base_sq = malloc(((int)N) * sizeof(double)); // probably makes no sense to store thi
  12:waves.c       ****     
  13:waves.c       ****     generate_base_sine(base_sine);
  14:waves.c       ****     generate_base_pos_saw(base_pos_saw);
  15:waves.c       ****     //generate_base_neg_saw(base_neg_saw);
  16:waves.c       ****     //generate_base_tri(base_tri);
  17:waves.c       ****     generate_base_sq(base_sq);
  18:waves.c       ****     
  19:waves.c       ****     generate_lfo_sine(lfo_sine);
  20:waves.c       **** }
  21:waves.c       **** 
  22:waves.c       **** void generate_base_sine(int16_t* buffer){
  31              		.loc 1 22 0
  32              		.cfi_startproc
  33              		@ args = 0, pretend = 0, frame = 0
  34              		@ frame_needed = 0, uses_anonymous_args = 0
  35              	.LVL0:
ARM GAS  C:\Users\psmus\AppData\Local\Temp\cc5k9kBp.s 			page 2


  36 0000 70B5     		push	{r4, r5, r6, lr}
  37              		.cfi_def_cfa_offset 16
  38              		.cfi_offset 4, -16
  39              		.cfi_offset 5, -12
  40              		.cfi_offset 6, -8
  41              		.cfi_offset 14, -4
  42 0002 0600     		movs	r6, r0
  43              	.LVL1:
  44              	.LBB2:
  23:waves.c       ****   for(int i = 0; i < N; i++){
  45              		.loc 1 23 0
  46 0004 0024     		movs	r4, #0
  47 0006 12E0     		b	.L2
  48              	.LVL2:
  49              	.L3:
  50              	.LBB3:
  24:waves.c       ****     double delta = 2*M_PI/N;
  25:waves.c       ****     double x = delta * i;
  51              		.loc 1 25 0 discriminator 3
  52 0008 2000     		movs	r0, r4
  53 000a FFF7FEFF 		bl	__aeabi_i2d
  54              	.LVL3:
  55 000e 0A4A     		ldr	r2, .L4
  56 0010 0A4B     		ldr	r3, .L4+4
  57 0012 FFF7FEFF 		bl	__aeabi_dmul
  58              	.LVL4:
  26:waves.c       ****     buffer[i] = AMPLITUDE * sin(x);
  59              		.loc 1 26 0 discriminator 3
  60 0016 6500     		lsls	r5, r4, #1
  61 0018 7519     		adds	r5, r6, r5
  62 001a FFF7FEFF 		bl	sin
  63              	.LVL5:
  64 001e 0022     		movs	r2, #0
  65 0020 074B     		ldr	r3, .L4+8
  66 0022 FFF7FEFF 		bl	__aeabi_dmul
  67              	.LVL6:
  68 0026 FFF7FEFF 		bl	__aeabi_d2iz
  69              	.LVL7:
  70 002a 2880     		strh	r0, [r5]
  71              	.LBE3:
  23:waves.c       ****   for(int i = 0; i < N; i++){
  72              		.loc 1 23 0 discriminator 3
  73 002c 0134     		adds	r4, r4, #1
  74              	.LVL8:
  75              	.L2:
  23:waves.c       ****   for(int i = 0; i < N; i++){
  76              		.loc 1 23 0 is_stmt 0 discriminator 1
  77 002e 054B     		ldr	r3, .L4+12
  78 0030 9C42     		cmp	r4, r3
  79 0032 E9DD     		ble	.L3
  80              	.LBE2:
  27:waves.c       ****   }
  28:waves.c       **** }
  81              		.loc 1 28 0 is_stmt 1
  82              		@ sp needed
  83              	.LVL9:
  84              	.LVL10:
ARM GAS  C:\Users\psmus\AppData\Local\Temp\cc5k9kBp.s 			page 3


  85 0034 70BD     		pop	{r4, r5, r6, pc}
  86              	.L5:
  87 0036 C046     		.align	2
  88              	.L4:
  89 0038 182D4454 		.word	1413754136
  90 003c FB21593F 		.word	1062806011
  91 0040 00805F40 		.word	1080000512
  92 0044 FF0F0000 		.word	4095
  93              		.cfi_endproc
  94              	.LFE131:
  95              		.size	generate_base_sine, .-generate_base_sine
  96              		.section	.text.generate_base_pos_saw,"ax",%progbits
  97              		.align	2
  98              		.global	generate_base_pos_saw
  99              		.code	16
 100              		.thumb_func
 101              		.type	generate_base_pos_saw, %function
 102              	generate_base_pos_saw:
 103              	.LFB132:
  29:waves.c       **** 
  30:waves.c       **** void generate_base_pos_saw(int8_t* buffer){
 104              		.loc 1 30 0
 105              		.cfi_startproc
 106              		@ args = 0, pretend = 0, frame = 0
 107              		@ frame_needed = 0, uses_anonymous_args = 0
 108              		@ link register save eliminated.
 109              	.LVL11:
 110              	.LBB4:
  31:waves.c       ****   for(int i = 0; i < N; i++){
 111              		.loc 1 31 0
 112 0000 0022     		movs	r2, #0
 113 0002 09E0     		b	.L7
 114              	.LVL12:
 115              	.L8:
  32:waves.c       ****     buffer[i] = (AMPLITUDE * i)/N;
 116              		.loc 1 32 0 discriminator 3
 117 0004 9101     		lsls	r1, r2, #6
 118 0006 891A     		subs	r1, r1, r2
 119 0008 4B00     		lsls	r3, r1, #1
 120 000a D917     		asrs	r1, r3, #31
 121 000c 0905     		lsls	r1, r1, #20
 122 000e 090D     		lsrs	r1, r1, #20
 123 0010 CB18     		adds	r3, r1, r3
 124 0012 1B13     		asrs	r3, r3, #12
 125 0014 8354     		strb	r3, [r0, r2]
  31:waves.c       ****   for(int i = 0; i < N; i++){
 126              		.loc 1 31 0 discriminator 3
 127 0016 0132     		adds	r2, r2, #1
 128              	.LVL13:
 129              	.L7:
  31:waves.c       ****   for(int i = 0; i < N; i++){
 130              		.loc 1 31 0 is_stmt 0 discriminator 1
 131 0018 014B     		ldr	r3, .L9
 132 001a 9A42     		cmp	r2, r3
 133 001c F2DD     		ble	.L8
 134              	.LBE4:
  33:waves.c       ****   }
ARM GAS  C:\Users\psmus\AppData\Local\Temp\cc5k9kBp.s 			page 4


  34:waves.c       **** }
 135              		.loc 1 34 0 is_stmt 1
 136              		@ sp needed
 137 001e 7047     		bx	lr
 138              	.L10:
 139              		.align	2
 140              	.L9:
 141 0020 FF0F0000 		.word	4095
 142              		.cfi_endproc
 143              	.LFE132:
 144              		.size	generate_base_pos_saw, .-generate_base_pos_saw
 145              		.section	.text.generate_base_neg_saw,"ax",%progbits
 146              		.align	2
 147              		.global	generate_base_neg_saw
 148              		.code	16
 149              		.thumb_func
 150              		.type	generate_base_neg_saw, %function
 151              	generate_base_neg_saw:
 152              	.LFB133:
  35:waves.c       **** 
  36:waves.c       **** void generate_base_neg_saw(int8_t* buffer){
 153              		.loc 1 36 0
 154              		.cfi_startproc
 155              		@ args = 0, pretend = 0, frame = 0
 156              		@ frame_needed = 0, uses_anonymous_args = 0
 157              	.LVL14:
 158 0000 10B5     		push	{r4, lr}
 159              		.cfi_def_cfa_offset 8
 160              		.cfi_offset 4, -8
 161              		.cfi_offset 14, -4
 162              	.LVL15:
 163              	.LBB5:
  37:waves.c       ****   for(int i = 0; i < N; i++){
 164              		.loc 1 37 0
 165 0002 0022     		movs	r2, #0
 166 0004 0BE0     		b	.L12
 167              	.LVL16:
 168              	.L13:
  38:waves.c       ****     buffer[(int)N-i-1] = (AMPLITUDE * i)/N;
 169              		.loc 1 38 0 discriminator 3
 170 0006 084C     		ldr	r4, .L14
 171 0008 A41A     		subs	r4, r4, r2
 172 000a 9101     		lsls	r1, r2, #6
 173 000c 891A     		subs	r1, r1, r2
 174 000e 4B00     		lsls	r3, r1, #1
 175 0010 D917     		asrs	r1, r3, #31
 176 0012 0905     		lsls	r1, r1, #20
 177 0014 090D     		lsrs	r1, r1, #20
 178 0016 CB18     		adds	r3, r1, r3
 179 0018 1B13     		asrs	r3, r3, #12
 180 001a 0355     		strb	r3, [r0, r4]
  37:waves.c       ****   for(int i = 0; i < N; i++){
 181              		.loc 1 37 0 discriminator 3
 182 001c 0132     		adds	r2, r2, #1
 183              	.LVL17:
 184              	.L12:
  37:waves.c       ****   for(int i = 0; i < N; i++){
ARM GAS  C:\Users\psmus\AppData\Local\Temp\cc5k9kBp.s 			page 5


 185              		.loc 1 37 0 is_stmt 0 discriminator 1
 186 001e 024B     		ldr	r3, .L14
 187 0020 9A42     		cmp	r2, r3
 188 0022 F0DD     		ble	.L13
 189              	.LBE5:
  39:waves.c       ****   }
  40:waves.c       **** }
 190              		.loc 1 40 0 is_stmt 1
 191              		@ sp needed
 192 0024 10BD     		pop	{r4, pc}
 193              	.L15:
 194 0026 C046     		.align	2
 195              	.L14:
 196 0028 FF0F0000 		.word	4095
 197              		.cfi_endproc
 198              	.LFE133:
 199              		.size	generate_base_neg_saw, .-generate_base_neg_saw
 200              		.section	.text.generate_base_tri,"ax",%progbits
 201              		.align	2
 202              		.global	generate_base_tri
 203              		.code	16
 204              		.thumb_func
 205              		.type	generate_base_tri, %function
 206              	generate_base_tri:
 207              	.LFB134:
  41:waves.c       **** 
  42:waves.c       **** void generate_base_tri(int8_t* buffer){
 208              		.loc 1 42 0
 209              		.cfi_startproc
 210              		@ args = 0, pretend = 0, frame = 0
 211              		@ frame_needed = 0, uses_anonymous_args = 0
 212              		@ link register save eliminated.
 213              	.LVL18:
 214              	.LBB6:
  43:waves.c       ****   for(int i = 0; i < N/2; i++){
 215              		.loc 1 43 0
 216 0000 0022     		movs	r2, #0
 217 0002 09E0     		b	.L17
 218              	.LVL19:
 219              	.L18:
  44:waves.c       ****     buffer[i] = (AMPLITUDE * 2*i)/N;
 220              		.loc 1 44 0 discriminator 3
 221 0004 9101     		lsls	r1, r2, #6
 222 0006 891A     		subs	r1, r1, r2
 223 0008 8B00     		lsls	r3, r1, #2
 224 000a D917     		asrs	r1, r3, #31
 225 000c 0905     		lsls	r1, r1, #20
 226 000e 090D     		lsrs	r1, r1, #20
 227 0010 CB18     		adds	r3, r1, r3
 228 0012 1B13     		asrs	r3, r3, #12
 229 0014 8354     		strb	r3, [r0, r2]
  43:waves.c       ****   for(int i = 0; i < N/2; i++){
 230              		.loc 1 43 0 discriminator 3
 231 0016 0132     		adds	r2, r2, #1
 232              	.LVL20:
 233              	.L17:
  43:waves.c       ****   for(int i = 0; i < N/2; i++){
ARM GAS  C:\Users\psmus\AppData\Local\Temp\cc5k9kBp.s 			page 6


 234              		.loc 1 43 0 is_stmt 0 discriminator 1
 235 0018 0B4B     		ldr	r3, .L21
 236 001a 9A42     		cmp	r2, r3
 237 001c F2DD     		ble	.L18
 238 001e 8021     		movs	r1, #128
 239 0020 0901     		lsls	r1, r1, #4
 240 0022 0CE0     		b	.L19
 241              	.LVL21:
 242              	.L20:
 243              	.LBE6:
 244              	.LBB7:
  45:waves.c       ****   }
  46:waves.c       ****   for(int i = N/2; i < N; i++){
  47:waves.c       ****     buffer[i] = (AMPLITUDE * 2*(N-i))/N;
 245              		.loc 1 47 0 is_stmt 1 discriminator 3
 246 0024 8022     		movs	r2, #128
 247 0026 5201     		lsls	r2, r2, #5
 248 0028 521A     		subs	r2, r2, r1
 249 002a 9301     		lsls	r3, r2, #6
 250 002c 9A1A     		subs	r2, r3, r2
 251 002e 9300     		lsls	r3, r2, #2
 252 0030 DA17     		asrs	r2, r3, #31
 253 0032 1205     		lsls	r2, r2, #20
 254 0034 120D     		lsrs	r2, r2, #20
 255 0036 D318     		adds	r3, r2, r3
 256 0038 1B13     		asrs	r3, r3, #12
 257 003a 4354     		strb	r3, [r0, r1]
  46:waves.c       ****     buffer[i] = (AMPLITUDE * 2*(N-i))/N;
 258              		.loc 1 46 0 discriminator 3
 259 003c 0131     		adds	r1, r1, #1
 260              	.LVL22:
 261              	.L19:
  46:waves.c       ****     buffer[i] = (AMPLITUDE * 2*(N-i))/N;
 262              		.loc 1 46 0 is_stmt 0 discriminator 1
 263 003e 034B     		ldr	r3, .L21+4
 264 0040 9942     		cmp	r1, r3
 265 0042 EFDD     		ble	.L20
 266              	.LBE7:
  48:waves.c       ****   }
  49:waves.c       **** }
 267              		.loc 1 49 0 is_stmt 1
 268              		@ sp needed
 269 0044 7047     		bx	lr
 270              	.L22:
 271 0046 C046     		.align	2
 272              	.L21:
 273 0048 FF070000 		.word	2047
 274 004c FF0F0000 		.word	4095
 275              		.cfi_endproc
 276              	.LFE134:
 277              		.size	generate_base_tri, .-generate_base_tri
 278              		.section	.text.generate_base_sq,"ax",%progbits
 279              		.align	2
 280              		.global	generate_base_sq
 281              		.code	16
 282              		.thumb_func
 283              		.type	generate_base_sq, %function
ARM GAS  C:\Users\psmus\AppData\Local\Temp\cc5k9kBp.s 			page 7


 284              	generate_base_sq:
 285              	.LFB135:
  50:waves.c       **** 
  51:waves.c       **** void generate_base_sq(int8_t* buffer){
 286              		.loc 1 51 0
 287              		.cfi_startproc
 288              		@ args = 0, pretend = 0, frame = 0
 289              		@ frame_needed = 0, uses_anonymous_args = 0
 290              		@ link register save eliminated.
 291              	.LVL23:
 292              	.LBB8:
  52:waves.c       ****   for(int i = 0; i < N; i++){
 293              		.loc 1 52 0
 294 0000 0023     		movs	r3, #0
 295 0002 08E0     		b	.L24
 296              	.LVL24:
 297              	.L27:
  53:waves.c       ****     if(i < N/2){
 298              		.loc 1 53 0
 299 0004 064A     		ldr	r2, .L28
 300 0006 9342     		cmp	r3, r2
 301 0008 02DC     		bgt	.L25
  54:waves.c       ****       buffer[i] = AMPLITUDE;
 302              		.loc 1 54 0
 303 000a 7E22     		movs	r2, #126
 304 000c C254     		strb	r2, [r0, r3]
 305 000e 01E0     		b	.L26
 306              	.L25:
  55:waves.c       ****     }
  56:waves.c       ****     else{
  57:waves.c       ****       buffer[i] = -AMPLITUDE;
 307              		.loc 1 57 0
 308 0010 8222     		movs	r2, #130
 309 0012 C254     		strb	r2, [r0, r3]
 310              	.L26:
  52:waves.c       ****     if(i < N/2){
 311              		.loc 1 52 0 discriminator 2
 312 0014 0133     		adds	r3, r3, #1
 313              	.LVL25:
 314              	.L24:
  52:waves.c       ****     if(i < N/2){
 315              		.loc 1 52 0 is_stmt 0 discriminator 1
 316 0016 034A     		ldr	r2, .L28+4
 317 0018 9342     		cmp	r3, r2
 318 001a F3DD     		ble	.L27
 319              	.LBE8:
  58:waves.c       ****     }
  59:waves.c       ****   }
  60:waves.c       **** }
 320              		.loc 1 60 0 is_stmt 1
 321              		@ sp needed
 322 001c 7047     		bx	lr
 323              	.L29:
 324 001e C046     		.align	2
 325              	.L28:
 326 0020 FF070000 		.word	2047
 327 0024 FF0F0000 		.word	4095
ARM GAS  C:\Users\psmus\AppData\Local\Temp\cc5k9kBp.s 			page 8


 328              		.cfi_endproc
 329              	.LFE135:
 330              		.size	generate_base_sq, .-generate_base_sq
 331              		.global	__aeabi_dadd
 332              		.global	__aeabi_d2uiz
 333              		.section	.text.generate_lfo_sine,"ax",%progbits
 334              		.align	2
 335              		.global	generate_lfo_sine
 336              		.code	16
 337              		.thumb_func
 338              		.type	generate_lfo_sine, %function
 339              	generate_lfo_sine:
 340              	.LFB136:
  61:waves.c       **** 
  62:waves.c       **** void generate_lfo_sine(uint8_t* buffer){
 341              		.loc 1 62 0
 342              		.cfi_startproc
 343              		@ args = 0, pretend = 0, frame = 0
 344              		@ frame_needed = 0, uses_anonymous_args = 0
 345              	.LVL26:
 346 0000 70B5     		push	{r4, r5, r6, lr}
 347              		.cfi_def_cfa_offset 16
 348              		.cfi_offset 4, -16
 349              		.cfi_offset 5, -12
 350              		.cfi_offset 6, -8
 351              		.cfi_offset 14, -4
 352 0002 0600     		movs	r6, r0
 353              	.LVL27:
 354              	.LBB9:
  63:waves.c       ****     for(int i = 0; i < 256; i++){
 355              		.loc 1 63 0
 356 0004 0024     		movs	r4, #0
 357 0006 15E0     		b	.L31
 358              	.LVL28:
 359              	.L32:
 360              	.LBB10:
  64:waves.c       ****         double delta = 2*M_PI/256;
  65:waves.c       ****         double x = delta * i;
 361              		.loc 1 65 0 discriminator 3
 362 0008 2000     		movs	r0, r4
 363 000a FFF7FEFF 		bl	__aeabi_i2d
 364              	.LVL29:
 365 000e 0B4A     		ldr	r2, .L33
 366 0010 0B4B     		ldr	r3, .L33+4
 367 0012 FFF7FEFF 		bl	__aeabi_dmul
 368              	.LVL30:
  66:waves.c       ****         buffer[i] = sin(x) * 126 + 126;
 369              		.loc 1 66 0 discriminator 3
 370 0016 3519     		adds	r5, r6, r4
 371 0018 FFF7FEFF 		bl	sin
 372              	.LVL31:
 373 001c 0022     		movs	r2, #0
 374 001e 094B     		ldr	r3, .L33+8
 375 0020 FFF7FEFF 		bl	__aeabi_dmul
 376              	.LVL32:
 377 0024 0022     		movs	r2, #0
 378 0026 074B     		ldr	r3, .L33+8
ARM GAS  C:\Users\psmus\AppData\Local\Temp\cc5k9kBp.s 			page 9


 379 0028 FFF7FEFF 		bl	__aeabi_dadd
 380              	.LVL33:
 381 002c FFF7FEFF 		bl	__aeabi_d2uiz
 382              	.LVL34:
 383 0030 2870     		strb	r0, [r5]
 384              	.LBE10:
  63:waves.c       ****     for(int i = 0; i < 256; i++){
 385              		.loc 1 63 0 discriminator 3
 386 0032 0134     		adds	r4, r4, #1
 387              	.LVL35:
 388              	.L31:
  63:waves.c       ****     for(int i = 0; i < 256; i++){
 389              		.loc 1 63 0 is_stmt 0 discriminator 1
 390 0034 FF2C     		cmp	r4, #255
 391 0036 E7DD     		ble	.L32
 392              	.LBE9:
  67:waves.c       ****     }
  68:waves.c       **** }
 393              		.loc 1 68 0 is_stmt 1
 394              		@ sp needed
 395              	.LVL36:
 396              	.LVL37:
 397 0038 70BD     		pop	{r4, r5, r6, pc}
 398              	.L34:
 399 003a C046     		.align	2
 400              	.L33:
 401 003c 182D4454 		.word	1413754136
 402 0040 FB21993F 		.word	1067000315
 403 0044 00805F40 		.word	1080000512
 404              		.cfi_endproc
 405              	.LFE136:
 406              		.size	generate_lfo_sine, .-generate_lfo_sine
 407              		.section	.text.init_wavetable,"ax",%progbits
 408              		.align	2
 409              		.global	init_wavetable
 410              		.code	16
 411              		.thumb_func
 412              		.type	init_wavetable, %function
 413              	init_wavetable:
 414              	.LFB130:
   6:waves.c       ****     //double * base_sine = malloc(((int)N) * sizeof(double)); // one period's worth of samples at f
 415              		.loc 1 6 0
 416              		.cfi_startproc
 417              		@ args = 0, pretend = 0, frame = 0
 418              		@ frame_needed = 0, uses_anonymous_args = 0
 419 0000 10B5     		push	{r4, lr}
 420              		.cfi_def_cfa_offset 8
 421              		.cfi_offset 4, -8
 422              		.cfi_offset 14, -4
  13:waves.c       ****     generate_base_pos_saw(base_pos_saw);
 423              		.loc 1 13 0
 424 0002 0648     		ldr	r0, .L36
 425 0004 FFF7FEFF 		bl	generate_base_sine
 426              	.LVL38:
  14:waves.c       ****     //generate_base_neg_saw(base_neg_saw);
 427              		.loc 1 14 0
 428 0008 0548     		ldr	r0, .L36+4
ARM GAS  C:\Users\psmus\AppData\Local\Temp\cc5k9kBp.s 			page 10


 429 000a FFF7FEFF 		bl	generate_base_pos_saw
 430              	.LVL39:
  17:waves.c       ****     
 431              		.loc 1 17 0
 432 000e 0548     		ldr	r0, .L36+8
 433 0010 FFF7FEFF 		bl	generate_base_sq
 434              	.LVL40:
  19:waves.c       **** }
 435              		.loc 1 19 0
 436 0014 0448     		ldr	r0, .L36+12
 437 0016 FFF7FEFF 		bl	generate_lfo_sine
 438              	.LVL41:
  20:waves.c       **** 
 439              		.loc 1 20 0
 440              		@ sp needed
 441 001a 10BD     		pop	{r4, pc}
 442              	.L37:
 443              		.align	2
 444              	.L36:
 445 001c 00000000 		.word	base_sine
 446 0020 00000000 		.word	base_pos_saw
 447 0024 00000000 		.word	base_sq
 448 0028 00000000 		.word	lfo_sine
 449              		.cfi_endproc
 450              	.LFE130:
 451              		.size	init_wavetable, .-init_wavetable
 452              		.comm	lfo_sine,256,4
 453              		.comm	base_sq,4096,4
 454              		.comm	base_pos_saw,4096,4
 455              		.comm	base_sine,8192,4
 456              		.text
 457              	.Letext0:
 458              		.file 2 "c:\\program files (x86)\\cypress\\psoc creator\\4.2\\psoc creator\\import\\gnu\\arm\\5.4.
 459              		.file 3 "c:\\program files (x86)\\cypress\\psoc creator\\4.2\\psoc creator\\import\\gnu\\arm\\5.4.
 460              		.file 4 "waves.h"
 461              		.file 5 "c:\\program files (x86)\\cypress\\psoc creator\\4.2\\psoc creator\\import\\gnu\\arm\\5.4.