ARM GAS  /tmp/ccqz7oVG.s 			page 1


   1              		.cpu cortex-m4
   2              		.eabi_attribute 27, 1
   3              		.eabi_attribute 28, 1
   4              		.eabi_attribute 20, 1
   5              		.eabi_attribute 21, 1
   6              		.eabi_attribute 23, 3
   7              		.eabi_attribute 24, 1
   8              		.eabi_attribute 25, 1
   9              		.eabi_attribute 26, 1
  10              		.eabi_attribute 30, 1
  11              		.eabi_attribute 34, 1
  12              		.eabi_attribute 18, 4
  13              		.file	"envelopes.c"
  14              		.text
  15              	.Ltext0:
  16              		.cfi_sections	.debug_frame
  17              		.global	__aeabi_i2d
  18              		.global	__aeabi_dmul
  19              		.global	__aeabi_d2uiz
  20              		.section	.text.update_envelope,"ax",%progbits
  21              		.align	1
  22              		.global	update_envelope
  23              		.syntax unified
  24              		.thumb
  25              		.thumb_func
  26              		.fpu fpv4-sp-d16
  28              	update_envelope:
  29              	.LFB130:
  30              		.file 1 "Src/envelopes.c"
   1:Src/envelopes.c **** #include "globals.h"
   2:Src/envelopes.c **** #include "envelopes.h"
   3:Src/envelopes.c **** #include "waves.h"
   4:Src/envelopes.c **** #include "midi.h"
   5:Src/envelopes.c **** 
   6:Src/envelopes.c **** volatile uint32_t envelope_index[VOICES] = {0};
   7:Src/envelopes.c **** volatile float envelope[VOICES] = {0};
   8:Src/envelopes.c **** volatile uint8_t env_state[VOICES];
   9:Src/envelopes.c **** volatile uint8_t note_on[88] = {0};
  10:Src/envelopes.c **** volatile uint8_t note_freq[VOICES] = {0};
  11:Src/envelopes.c **** uint8_t attack = 255;
  12:Src/envelopes.c **** uint8_t decay = 255;
  13:Src/envelopes.c **** uint8_t sustain = 200;
  14:Src/envelopes.c **** uint8_t release = 255;
  15:Src/envelopes.c **** 
  16:Src/envelopes.c **** void update_envelope() {
  31              		.loc 1 16 0
  32              		.cfi_startproc
  33              		@ args = 0, pretend = 0, frame = 0
  34              		@ frame_needed = 0, uses_anonymous_args = 0
  35 0000 70B5     		push	{r4, r5, r6, lr}
  36              	.LCFI0:
  37              		.cfi_def_cfa_offset 16
  38              		.cfi_offset 4, -16
  39              		.cfi_offset 5, -12
  40              		.cfi_offset 6, -8
  41              		.cfi_offset 14, -4
  42              	.LVL0:
ARM GAS  /tmp/ccqz7oVG.s 			page 2


  43              	.LBB2:
  17:Src/envelopes.c ****   for(int i = 0; i < VOICES; i++){
  44              		.loc 1 17 0
  45 0002 0024     		movs	r4, #0
  46 0004 09E0     		b	.L2
  47              	.LVL1:
  48              	.L4:
  18:Src/envelopes.c ****     //if(note_on[i] == MIDI_NOTE_OFF){
  19:Src/envelopes.c ****     //  env_state[i] = RELEASE_MODE;
  20:Src/envelopes.c ****     //}
  21:Src/envelopes.c **** 
  22:Src/envelopes.c ****     switch(env_state[i]){
  23:Src/envelopes.c ****     case NOT_TRIGGERED:
  24:Src/envelopes.c ****       envelope_index[i] = 0;
  49              		.loc 1 24 0
  50 0006 0022     		movs	r2, #0
  51 0008 5F4B     		ldr	r3, .L15+8
  52 000a 43F82420 		str	r2, [r3, r4, lsl #2]
  25:Src/envelopes.c ****       envelope[i] = 0;
  53              		.loc 1 25 0
  54 000e 5F4B     		ldr	r3, .L15+12
  55 0010 03EB8403 		add	r3, r3, r4, lsl #2
  56 0014 0022     		movs	r2, #0
  57 0016 1A60     		str	r2, [r3]	@ float
  58              	.L3:
  17:Src/envelopes.c ****   for(int i = 0; i < VOICES; i++){
  59              		.loc 1 17 0 discriminator 2
  60 0018 0134     		adds	r4, r4, #1
  61              	.LVL2:
  62              	.L2:
  17:Src/envelopes.c ****   for(int i = 0; i < VOICES; i++){
  63              		.loc 1 17 0 is_stmt 0 discriminator 1
  64 001a 0F2C     		cmp	r4, #15
  65 001c 00F3AE80 		bgt	.L14
  22:Src/envelopes.c ****     case NOT_TRIGGERED:
  66              		.loc 1 22 0 is_stmt 1
  67 0020 5B4B     		ldr	r3, .L15+16
  68 0022 1B5D     		ldrb	r3, [r3, r4]	@ zero_extendqisi2
  69 0024 DBB2     		uxtb	r3, r3
  70 0026 042B     		cmp	r3, #4
  71 0028 F6D8     		bhi	.L3
  72 002a 01A2     		adr	r2, .L5
  73 002c 52F823F0 		ldr	pc, [r2, r3, lsl #2]
  74              		.p2align 2
  75              	.L5:
  76 0030 07000000 		.word	.L4+1
  77 0034 45000000 		.word	.L6+1
  78 0038 A3000000 		.word	.L7+1
  79 003c 19000000 		.word	.L3+1
  80 0040 07010000 		.word	.L8+1
  81              		.p2align 1
  82              	.L6:
  26:Src/envelopes.c ****       break;
  27:Src/envelopes.c ****     case ATTACK_MODE:
  28:Src/envelopes.c ****       //    if((UINT32_MAX - envelope_index) < DDS_SCALE_FACTOR){
  29:Src/envelopes.c ****       if(envelope_index[i] <= 4200000) {
  83              		.loc 1 29 0
ARM GAS  /tmp/ccqz7oVG.s 			page 3


  84 0044 504B     		ldr	r3, .L15+8
  85 0046 53F82420 		ldr	r2, [r3, r4, lsl #2]
  86 004a 524B     		ldr	r3, .L15+20
  87 004c 9A42     		cmp	r2, r3
  88 004e 20D8     		bhi	.L9
  30:Src/envelopes.c ****         envelope_index[i] += (uint32_t)(attack * DDS_SCALE_FACTOR);
  89              		.loc 1 30 0
  90 0050 4D4D     		ldr	r5, .L15+8
  91 0052 55F82460 		ldr	r6, [r5, r4, lsl #2]
  92 0056 504B     		ldr	r3, .L15+24
  93 0058 1878     		ldrb	r0, [r3]	@ zero_extendqisi2
  94 005a FFF7FEFF 		bl	__aeabi_i2d
  95              	.LVL3:
  96 005e 48A3     		adr	r3, .L15
  97 0060 D3E90023 		ldrd	r2, [r3]
  98 0064 FFF7FEFF 		bl	__aeabi_dmul
  99              	.LVL4:
 100 0068 FFF7FEFF 		bl	__aeabi_d2uiz
 101              	.LVL5:
 102 006c 3044     		add	r0, r0, r6
 103 006e 45F82400 		str	r0, [r5, r4, lsl #2]
  31:Src/envelopes.c ****         envelope[i] = base_pos_saw[(envelope_index[i]>>10)%4096];
 104              		.loc 1 31 0
 105 0072 55F82430 		ldr	r3, [r5, r4, lsl #2]
 106 0076 C3F38B23 		ubfx	r3, r3, #10, #12
 107 007a 484A     		ldr	r2, .L15+28
 108 007c D35C     		ldrb	r3, [r2, r3]	@ zero_extendqisi2
 109 007e 07EE903A 		vmov	s15, r3	@ int
 110 0082 F8EE677A 		vcvt.f32.u32	s15, s15
 111 0086 414B     		ldr	r3, .L15+12
 112 0088 03EB8403 		add	r3, r3, r4, lsl #2
 113 008c C3ED007A 		vstr.32	s15, [r3]
 114 0090 C2E7     		b	.L3
 115              	.L9:
  32:Src/envelopes.c ****       }
  33:Src/envelopes.c ****       else {
  34:Src/envelopes.c ****         // env_state++;
  35:Src/envelopes.c ****         envelope_index[i] = 0;
 116              		.loc 1 35 0
 117 0092 0022     		movs	r2, #0
 118 0094 3C4B     		ldr	r3, .L15+8
 119 0096 43F82420 		str	r2, [r3, r4, lsl #2]
  36:Src/envelopes.c ****         env_state[i] = DECAY_MODE;
 120              		.loc 1 36 0
 121 009a 0222     		movs	r2, #2
 122 009c 3C4B     		ldr	r3, .L15+16
 123 009e 1A55     		strb	r2, [r3, r4]
 124 00a0 BAE7     		b	.L3
 125              	.L7:
  37:Src/envelopes.c ****       }
  38:Src/envelopes.c ****       break;
  39:Src/envelopes.c ****     case DECAY_MODE:
  40:Src/envelopes.c ****       if(base_neg_saw[(envelope_index[i]>>10)%4096] >= sustain){
 126              		.loc 1 40 0
 127 00a2 394B     		ldr	r3, .L15+8
 128 00a4 53F82430 		ldr	r3, [r3, r4, lsl #2]
 129 00a8 C3F38B23 		ubfx	r3, r3, #10, #12
ARM GAS  /tmp/ccqz7oVG.s 			page 4


 130 00ac 3C4A     		ldr	r2, .L15+32
 131 00ae D25C     		ldrb	r2, [r2, r3]	@ zero_extendqisi2
 132 00b0 3C4B     		ldr	r3, .L15+36
 133 00b2 1B78     		ldrb	r3, [r3]	@ zero_extendqisi2
 134 00b4 9A42     		cmp	r2, r3
 135 00b6 20D3     		bcc	.L10
  41:Src/envelopes.c ****         envelope_index[i] += (uint32_t)(decay * DDS_SCALE_FACTOR);
 136              		.loc 1 41 0
 137 00b8 334D     		ldr	r5, .L15+8
 138 00ba 55F82460 		ldr	r6, [r5, r4, lsl #2]
 139 00be 3A4B     		ldr	r3, .L15+40
 140 00c0 1878     		ldrb	r0, [r3]	@ zero_extendqisi2
 141 00c2 FFF7FEFF 		bl	__aeabi_i2d
 142              	.LVL6:
 143 00c6 2EA3     		adr	r3, .L15
 144 00c8 D3E90023 		ldrd	r2, [r3]
 145 00cc FFF7FEFF 		bl	__aeabi_dmul
 146              	.LVL7:
 147 00d0 FFF7FEFF 		bl	__aeabi_d2uiz
 148              	.LVL8:
 149 00d4 3044     		add	r0, r0, r6
 150 00d6 45F82400 		str	r0, [r5, r4, lsl #2]
  42:Src/envelopes.c ****         envelope[i] = base_neg_saw[(envelope_index[i]>>10)%4096];
 151              		.loc 1 42 0
 152 00da 55F82430 		ldr	r3, [r5, r4, lsl #2]
 153 00de C3F38B23 		ubfx	r3, r3, #10, #12
 154 00e2 2F4A     		ldr	r2, .L15+32
 155 00e4 D35C     		ldrb	r3, [r2, r3]	@ zero_extendqisi2
 156 00e6 07EE903A 		vmov	s15, r3	@ int
 157 00ea F8EE677A 		vcvt.f32.u32	s15, s15
 158 00ee 274B     		ldr	r3, .L15+12
 159 00f0 03EB8403 		add	r3, r3, r4, lsl #2
 160 00f4 C3ED007A 		vstr.32	s15, [r3]
 161 00f8 8EE7     		b	.L3
 162              	.L10:
  43:Src/envelopes.c ****       }
  44:Src/envelopes.c ****       else {
  45:Src/envelopes.c ****         //envelope_index[i] = 0;
  46:Src/envelopes.c ****         env_state[i]++;
 163              		.loc 1 46 0
 164 00fa 254A     		ldr	r2, .L15+16
 165 00fc 135D     		ldrb	r3, [r2, r4]	@ zero_extendqisi2
 166 00fe 0133     		adds	r3, r3, #1
 167 0100 DBB2     		uxtb	r3, r3
 168 0102 1355     		strb	r3, [r2, r4]
 169 0104 88E7     		b	.L3
 170              	.L8:
  47:Src/envelopes.c ****         //env_state[i] = RELEASE_MODE;
  48:Src/envelopes.c ****       }
  49:Src/envelopes.c ****       break;
  50:Src/envelopes.c ****     case SUSTAIN_MODE:
  51:Src/envelopes.c ****       //env_state[i]++;
  52:Src/envelopes.c ****       break;
  53:Src/envelopes.c ****     case RELEASE_MODE:
  54:Src/envelopes.c ****       //      if((UINT32_MAX - envelope_index) < DDS_SCALE_FACTOR){
  55:Src/envelopes.c ****       if(envelope_index[i] <= 4200000){
 171              		.loc 1 55 0
ARM GAS  /tmp/ccqz7oVG.s 			page 5


 172 0106 204B     		ldr	r3, .L15+8
 173 0108 53F82420 		ldr	r2, [r3, r4, lsl #2]
 174 010c 214B     		ldr	r3, .L15+20
 175 010e 9A42     		cmp	r2, r3
 176 0110 20D8     		bhi	.L11
  56:Src/envelopes.c ****         envelope_index[i] += (uint32_t)(release * DDS_SCALE_FACTOR);
 177              		.loc 1 56 0
 178 0112 1D4D     		ldr	r5, .L15+8
 179 0114 55F82460 		ldr	r6, [r5, r4, lsl #2]
 180 0118 244B     		ldr	r3, .L15+44
 181 011a 1878     		ldrb	r0, [r3]	@ zero_extendqisi2
 182 011c FFF7FEFF 		bl	__aeabi_i2d
 183              	.LVL9:
 184 0120 17A3     		adr	r3, .L15
 185 0122 D3E90023 		ldrd	r2, [r3]
 186 0126 FFF7FEFF 		bl	__aeabi_dmul
 187              	.LVL10:
 188 012a FFF7FEFF 		bl	__aeabi_d2uiz
 189              	.LVL11:
 190 012e 3044     		add	r0, r0, r6
 191 0130 45F82400 		str	r0, [r5, r4, lsl #2]
  57:Src/envelopes.c ****         envelope[i] = base_neg_saw[(envelope_index[i]>>10)%4096];
 192              		.loc 1 57 0
 193 0134 55F82430 		ldr	r3, [r5, r4, lsl #2]
 194 0138 C3F38B23 		ubfx	r3, r3, #10, #12
 195 013c 184A     		ldr	r2, .L15+32
 196 013e D35C     		ldrb	r3, [r2, r3]	@ zero_extendqisi2
 197 0140 07EE903A 		vmov	s15, r3	@ int
 198 0144 F8EE677A 		vcvt.f32.u32	s15, s15
 199 0148 104B     		ldr	r3, .L15+12
 200 014a 03EB8403 		add	r3, r3, r4, lsl #2
 201 014e C3ED007A 		vstr.32	s15, [r3]
 202 0152 61E7     		b	.L3
 203              	.L11:
  58:Src/envelopes.c ****       }
  59:Src/envelopes.c ****       else {
  60:Src/envelopes.c ****         env_state[i] = NOT_TRIGGERED;
 204              		.loc 1 60 0
 205 0154 0023     		movs	r3, #0
 206 0156 0E4A     		ldr	r2, .L15+16
 207 0158 1355     		strb	r3, [r2, r4]
  61:Src/envelopes.c ****         note_on[i] = MIDI_NOTE_OFF;
 208              		.loc 1 61 0
 209 015a 8021     		movs	r1, #128
 210 015c 144A     		ldr	r2, .L15+48
 211 015e 1155     		strb	r1, [r2, r4]
  62:Src/envelopes.c ****         envelope_index[i] = 0;
 212              		.loc 1 62 0
 213 0160 094A     		ldr	r2, .L15+8
 214 0162 42F82430 		str	r3, [r2, r4, lsl #2]
  63:Src/envelopes.c ****         envelope[i] = 0;
 215              		.loc 1 63 0
 216 0166 094A     		ldr	r2, .L15+12
 217 0168 02EB8402 		add	r2, r2, r4, lsl #2
 218 016c 0021     		movs	r1, #0
 219 016e 1160     		str	r1, [r2]	@ float
  64:Src/envelopes.c ****         lfo_phase_accumulator[i] = 0;
ARM GAS  /tmp/ccqz7oVG.s 			page 6


 220              		.loc 1 64 0
 221 0170 104A     		ldr	r2, .L15+52
 222 0172 42F82430 		str	r3, [r2, r4, lsl #2]
  65:Src/envelopes.c ****         lfo[i] = 0;
 223              		.loc 1 65 0
 224 0176 104A     		ldr	r2, .L15+56
 225 0178 1355     		strb	r3, [r2, r4]
 226 017a 4DE7     		b	.L3
 227              	.L14:
 228              	.LBE2:
  66:Src/envelopes.c ****       }
  67:Src/envelopes.c ****       break;
  68:Src/envelopes.c ****     }
  69:Src/envelopes.c ****   }
  70:Src/envelopes.c **** }
 229              		.loc 1 70 0
 230 017c 70BD     		pop	{r4, r5, r6, pc}
 231              	.LVL12:
 232              	.L16:
 233 017e 00BF     		.align	3
 234              	.L15:
 235 0180 942EA292 		.word	2460102292
 236 0184 5F5E5640 		.word	1079402079
 237 0188 00000000 		.word	.LANCHOR0
 238 018c 00000000 		.word	.LANCHOR1
 239 0190 00000000 		.word	env_state
 240 0194 40164000 		.word	4200000
 241 0198 00000000 		.word	.LANCHOR2
 242 019c 00000000 		.word	base_pos_saw
 243 01a0 00000000 		.word	base_neg_saw
 244 01a4 00000000 		.word	.LANCHOR3
 245 01a8 00000000 		.word	.LANCHOR4
 246 01ac 00000000 		.word	.LANCHOR5
 247 01b0 00000000 		.word	.LANCHOR6
 248 01b4 00000000 		.word	lfo_phase_accumulator
 249 01b8 00000000 		.word	lfo
 250              		.cfi_endproc
 251              	.LFE130:
 253              		.section	.text.UART_PrintADSR,"ax",%progbits
 254              		.align	1
 255              		.global	UART_PrintADSR
 256              		.syntax unified
 257              		.thumb
 258              		.thumb_func
 259              		.fpu fpv4-sp-d16
 261              	UART_PrintADSR:
 262              	.LFB131:
  71:Src/envelopes.c **** 
  72:Src/envelopes.c **** 
  73:Src/envelopes.c **** void UART_PrintADSR(UART_HandleTypeDef* huart){
 263              		.loc 1 73 0
 264              		.cfi_startproc
 265              		@ args = 0, pretend = 0, frame = 8
 266              		@ frame_needed = 0, uses_anonymous_args = 0
 267              	.LVL13:
 268 0000 70B5     		push	{r4, r5, r6, lr}
 269              	.LCFI1:
ARM GAS  /tmp/ccqz7oVG.s 			page 7


 270              		.cfi_def_cfa_offset 16
 271              		.cfi_offset 4, -16
 272              		.cfi_offset 5, -12
 273              		.cfi_offset 6, -8
 274              		.cfi_offset 14, -4
 275 0002 82B0     		sub	sp, sp, #8
 276              	.LCFI2:
 277              		.cfi_def_cfa_offset 24
 278 0004 0546     		mov	r5, r0
  74:Src/envelopes.c ****   uint8_t uart_tx_buffer;
  75:Src/envelopes.c ****   uart_tx_buffer = attack;
 279              		.loc 1 75 0
 280 0006 264B     		ldr	r3, .L19
 281 0008 1B78     		ldrb	r3, [r3]	@ zero_extendqisi2
 282 000a 02AC     		add	r4, sp, #8
 283 000c 04F8013D 		strb	r3, [r4, #-1]!
  76:Src/envelopes.c ****   HAL_UART_Transmit(huart, &uart_tx_buffer, 1, 50);
 284              		.loc 1 76 0
 285 0010 3223     		movs	r3, #50
 286 0012 0122     		movs	r2, #1
 287 0014 2146     		mov	r1, r4
 288 0016 FFF7FEFF 		bl	HAL_UART_Transmit
 289              	.LVL14:
  77:Src/envelopes.c ****   uart_tx_buffer = ' ';
 290              		.loc 1 77 0
 291 001a 2026     		movs	r6, #32
 292 001c 8DF80760 		strb	r6, [sp, #7]
  78:Src/envelopes.c ****   HAL_UART_Transmit(huart, &uart_tx_buffer, 1, 50);
 293              		.loc 1 78 0
 294 0020 3223     		movs	r3, #50
 295 0022 0122     		movs	r2, #1
 296 0024 2146     		mov	r1, r4
 297 0026 2846     		mov	r0, r5
 298 0028 FFF7FEFF 		bl	HAL_UART_Transmit
 299              	.LVL15:
  79:Src/envelopes.c ****   uart_tx_buffer = decay;
 300              		.loc 1 79 0
 301 002c 1D4B     		ldr	r3, .L19+4
 302 002e 1B78     		ldrb	r3, [r3]	@ zero_extendqisi2
 303 0030 8DF80730 		strb	r3, [sp, #7]
  80:Src/envelopes.c ****   HAL_UART_Transmit(huart, &uart_tx_buffer, 1, 50);
 304              		.loc 1 80 0
 305 0034 3223     		movs	r3, #50
 306 0036 0122     		movs	r2, #1
 307 0038 2146     		mov	r1, r4
 308 003a 2846     		mov	r0, r5
 309 003c FFF7FEFF 		bl	HAL_UART_Transmit
 310              	.LVL16:
  81:Src/envelopes.c ****   uart_tx_buffer = ' ';
 311              		.loc 1 81 0
 312 0040 8DF80760 		strb	r6, [sp, #7]
  82:Src/envelopes.c ****   HAL_UART_Transmit(huart, &uart_tx_buffer, 1, 50);
 313              		.loc 1 82 0
 314 0044 3223     		movs	r3, #50
 315 0046 0122     		movs	r2, #1
 316 0048 2146     		mov	r1, r4
 317 004a 2846     		mov	r0, r5
ARM GAS  /tmp/ccqz7oVG.s 			page 8


 318 004c FFF7FEFF 		bl	HAL_UART_Transmit
 319              	.LVL17:
  83:Src/envelopes.c ****   uart_tx_buffer = sustain;
 320              		.loc 1 83 0
 321 0050 154B     		ldr	r3, .L19+8
 322 0052 1B78     		ldrb	r3, [r3]	@ zero_extendqisi2
 323 0054 8DF80730 		strb	r3, [sp, #7]
  84:Src/envelopes.c ****   HAL_UART_Transmit(huart, &uart_tx_buffer, 1, 50);
 324              		.loc 1 84 0
 325 0058 3223     		movs	r3, #50
 326 005a 0122     		movs	r2, #1
 327 005c 2146     		mov	r1, r4
 328 005e 2846     		mov	r0, r5
 329 0060 FFF7FEFF 		bl	HAL_UART_Transmit
 330              	.LVL18:
  85:Src/envelopes.c ****   uart_tx_buffer = ' ';
 331              		.loc 1 85 0
 332 0064 8DF80760 		strb	r6, [sp, #7]
  86:Src/envelopes.c ****   HAL_UART_Transmit(huart, &uart_tx_buffer, 1, 50);
 333              		.loc 1 86 0
 334 0068 3223     		movs	r3, #50
 335 006a 0122     		movs	r2, #1
 336 006c 2146     		mov	r1, r4
 337 006e 2846     		mov	r0, r5
 338 0070 FFF7FEFF 		bl	HAL_UART_Transmit
 339              	.LVL19:
  87:Src/envelopes.c ****   uart_tx_buffer = release;
 340              		.loc 1 87 0
 341 0074 0D4B     		ldr	r3, .L19+12
 342 0076 1B78     		ldrb	r3, [r3]	@ zero_extendqisi2
 343 0078 8DF80730 		strb	r3, [sp, #7]
  88:Src/envelopes.c ****   HAL_UART_Transmit(huart, &uart_tx_buffer, 1, 50);
 344              		.loc 1 88 0
 345 007c 3223     		movs	r3, #50
 346 007e 0122     		movs	r2, #1
 347 0080 2146     		mov	r1, r4
 348 0082 2846     		mov	r0, r5
 349 0084 FFF7FEFF 		bl	HAL_UART_Transmit
 350              	.LVL20:
  89:Src/envelopes.c ****   uart_tx_buffer = '\n';
 351              		.loc 1 89 0
 352 0088 0A23     		movs	r3, #10
 353 008a 8DF80730 		strb	r3, [sp, #7]
  90:Src/envelopes.c ****   HAL_UART_Transmit(huart, &uart_tx_buffer, 1, 50);
 354              		.loc 1 90 0
 355 008e 3223     		movs	r3, #50
 356 0090 0122     		movs	r2, #1
 357 0092 2146     		mov	r1, r4
 358 0094 2846     		mov	r0, r5
 359 0096 FFF7FEFF 		bl	HAL_UART_Transmit
 360              	.LVL21:
  91:Src/envelopes.c **** }
 361              		.loc 1 91 0
 362 009a 02B0     		add	sp, sp, #8
 363              	.LCFI3:
 364              		.cfi_def_cfa_offset 16
 365              		@ sp needed
ARM GAS  /tmp/ccqz7oVG.s 			page 9


 366 009c 70BD     		pop	{r4, r5, r6, pc}
 367              	.LVL22:
 368              	.L20:
 369 009e 00BF     		.align	2
 370              	.L19:
 371 00a0 00000000 		.word	.LANCHOR2
 372 00a4 00000000 		.word	.LANCHOR4
 373 00a8 00000000 		.word	.LANCHOR3
 374 00ac 00000000 		.word	.LANCHOR5
 375              		.cfi_endproc
 376              	.LFE131:
 378              		.global	release
 379              		.global	sustain
 380              		.global	decay
 381              		.global	attack
 382              		.global	note_freq
 383              		.global	note_on
 384              		.comm	env_state,16,4
 385              		.global	envelope
 386              		.global	envelope_index
 387              		.comm	lfo_sine,256,4
 388              		.comm	base_sq,4096,4
 389              		.comm	base_tri,4096,4
 390              		.comm	base_neg_saw,4096,4
 391              		.comm	base_pos_saw,4096,4
 392              		.comm	base_sine,4096,4
 393              		.section	.bss.envelope,"aw",%nobits
 394              		.align	2
 395              		.set	.LANCHOR1,. + 0
 398              	envelope:
 399 0000 00000000 		.space	64
 399      00000000 
 399      00000000 
 399      00000000 
 399      00000000 
 400              		.section	.bss.envelope_index,"aw",%nobits
 401              		.align	2
 402              		.set	.LANCHOR0,. + 0
 405              	envelope_index:
 406 0000 00000000 		.space	64
 406      00000000 
 406      00000000 
 406      00000000 
 406      00000000 
 407              		.section	.bss.note_freq,"aw",%nobits
 408              		.align	2
 411              	note_freq:
 412 0000 00000000 		.space	16
 412      00000000 
 412      00000000 
 412      00000000 
 413              		.section	.bss.note_on,"aw",%nobits
 414              		.align	2
 415              		.set	.LANCHOR6,. + 0
 418              	note_on:
 419 0000 00000000 		.space	88
 419      00000000 
ARM GAS  /tmp/ccqz7oVG.s 			page 10


 419      00000000 
 419      00000000 
 419      00000000 
 420              		.section	.data.attack,"aw",%progbits
 421              		.set	.LANCHOR2,. + 0
 424              	attack:
 425 0000 FF       		.byte	-1
 426              		.section	.data.decay,"aw",%progbits
 427              		.set	.LANCHOR4,. + 0
 430              	decay:
 431 0000 FF       		.byte	-1
 432              		.section	.data.release,"aw",%progbits
 433              		.set	.LANCHOR5,. + 0
 436              	release:
 437 0000 FF       		.byte	-1
 438              		.section	.data.sustain,"aw",%progbits
 439              		.set	.LANCHOR3,. + 0
 442              	sustain:
 443 0000 C8       		.byte	-56
 444              		.text
 445              	.Letext0:
 446              		.file 2 "/usr/include/newlib/machine/_default_types.h"
 447              		.file 3 "/usr/include/newlib/sys/_stdint.h"
 448              		.file 4 "Drivers/CMSIS/Include/core_cm4.h"
 449              		.file 5 "Drivers/CMSIS/Device/ST/STM32F4xx/Include/system_stm32f4xx.h"
 450              		.file 6 "Drivers/CMSIS/Device/ST/STM32F4xx/Include/stm32f429xx.h"
 451              		.file 7 "Drivers/STM32F4xx_HAL_Driver/Inc/stm32f4xx_hal_def.h"
 452              		.file 8 "Drivers/STM32F4xx_HAL_Driver/Inc/stm32f4xx_hal_dma.h"
 453              		.file 9 "Drivers/STM32F4xx_HAL_Driver/Inc/stm32f4xx_hal_spi.h"
 454              		.file 10 "Drivers/STM32F4xx_HAL_Driver/Inc/stm32f4xx_hal_uart.h"
 455              		.file 11 "Inc/globals.h"
 456              		.file 12 "Inc/midi.h"
 457              		.file 13 "/usr/include/newlib/sys/lock.h"
 458              		.file 14 "/usr/include/newlib/sys/_types.h"
 459              		.file 15 "/usr/lib/gcc/arm-none-eabi/6.3.1/include/stddef.h"
 460              		.file 16 "/usr/include/newlib/sys/reent.h"
 461              		.file 17 "/usr/include/newlib/stdlib.h"
 462              		.file 18 "Inc/waves.h"
ARM GAS  /tmp/ccqz7oVG.s 			page 11

