ARM GAS  /tmp/ccpqV8Ds.s 			page 1


   1              		.cpu cortex-m4
   2              		.eabi_attribute 27, 1
   3              		.eabi_attribute 28, 1
   4              		.eabi_attribute 20, 1
   5              		.eabi_attribute 21, 1
   6              		.eabi_attribute 23, 3
   7              		.eabi_attribute 24, 1
   8              		.eabi_attribute 25, 1
   9              		.eabi_attribute 26, 1
  10              		.eabi_attribute 30, 1
  11              		.eabi_attribute 34, 1
  12              		.eabi_attribute 18, 4
  13              		.file	"midi.c"
  14              		.text
  15              	.Ltext0:
  16              		.cfi_sections	.debug_frame
  17              		.section	.text.Receive_MIDI,"ax",%progbits
  18              		.align	1
  19              		.global	Receive_MIDI
  20              		.syntax unified
  21              		.thumb
  22              		.thumb_func
  23              		.fpu fpv4-sp-d16
  25              	Receive_MIDI:
  26              	.LFB130:
  27              		.file 1 "Src/midi.c"
   1:Src/midi.c    **** #include "midi.h"
   2:Src/midi.c    **** #include <stdint.h>
   3:Src/midi.c    **** 
   4:Src/midi.c    **** const float midi_notes[88] = {
   5:Src/midi.c    ****                                27.5,
   6:Src/midi.c    ****                                29.13524,
   7:Src/midi.c    ****                                30.86771,
   8:Src/midi.c    ****                                32.7032,
   9:Src/midi.c    ****                                34.64783,
  10:Src/midi.c    ****                                36.7081,
  11:Src/midi.c    ****                                38.89087,
  12:Src/midi.c    ****                                41.20344,
  13:Src/midi.c    ****                                43.65353,
  14:Src/midi.c    ****                                46.2493,
  15:Src/midi.c    ****                                48.99943,
  16:Src/midi.c    ****                                51.91309,
  17:Src/midi.c    ****                                55,
  18:Src/midi.c    ****                                58.27047,
  19:Src/midi.c    ****                                61.73541,
  20:Src/midi.c    ****                                65.40639,
  21:Src/midi.c    ****                                69.29566,
  22:Src/midi.c    ****                                73.41619,
  23:Src/midi.c    ****                                77.78175,
  24:Src/midi.c    ****                                82.40689,
  25:Src/midi.c    ****                                87.30706,
  26:Src/midi.c    ****                                92.49861,
  27:Src/midi.c    ****                                97.99886,
  28:Src/midi.c    ****                                103.8262,
  29:Src/midi.c    ****                                110,
  30:Src/midi.c    ****                                116.5409,
  31:Src/midi.c    ****                                123.4708,
ARM GAS  /tmp/ccpqV8Ds.s 			page 2


  32:Src/midi.c    ****                                130.8128,
  33:Src/midi.c    ****                                138.5913,
  34:Src/midi.c    ****                                146.8324,
  35:Src/midi.c    ****                                155.5635,
  36:Src/midi.c    ****                                164.8138,
  37:Src/midi.c    ****                                174.6141,
  38:Src/midi.c    ****                                184.9972,
  39:Src/midi.c    ****                                195.9977,
  40:Src/midi.c    ****                                207.6523,
  41:Src/midi.c    ****                                220,
  42:Src/midi.c    ****                                233.0819,
  43:Src/midi.c    ****                                246.9417,
  44:Src/midi.c    ****                                261.6256,
  45:Src/midi.c    ****                                277.1826,
  46:Src/midi.c    ****                                293.6648,
  47:Src/midi.c    ****                                311.127,
  48:Src/midi.c    ****                                329.6276,
  49:Src/midi.c    ****                                349.2282,
  50:Src/midi.c    ****                                369.9944,
  51:Src/midi.c    ****                                391.9954,
  52:Src/midi.c    ****                                415.3047,
  53:Src/midi.c    ****                                440,
  54:Src/midi.c    ****                                466.1638,
  55:Src/midi.c    ****                                493.8833,
  56:Src/midi.c    ****                                523.2511,
  57:Src/midi.c    ****                                554.3653,
  58:Src/midi.c    ****                                587.3295,
  59:Src/midi.c    ****                                622.254,
  60:Src/midi.c    ****                                659.2551,
  61:Src/midi.c    ****                                698.4565,
  62:Src/midi.c    ****                                739.9888,
  63:Src/midi.c    ****                                783.9909,
  64:Src/midi.c    ****                                830.6094,
  65:Src/midi.c    ****                                880     ,
  66:Src/midi.c    ****                                932.3275,
  67:Src/midi.c    ****                                987.7666,
  68:Src/midi.c    ****                                1046.502,
  69:Src/midi.c    ****                                1108.731,
  70:Src/midi.c    ****                                1174.659,
  71:Src/midi.c    ****                                1244.508,
  72:Src/midi.c    ****                                1318.51 ,
  73:Src/midi.c    ****                                1396.913,
  74:Src/midi.c    ****                                1479.978,
  75:Src/midi.c    ****                                1567.982,
  76:Src/midi.c    ****                                1661.219,
  77:Src/midi.c    ****                                1760    ,
  78:Src/midi.c    ****                                1864.655,
  79:Src/midi.c    ****                                1975.533,
  80:Src/midi.c    ****                                2093.005,
  81:Src/midi.c    ****                                2217.461,
  82:Src/midi.c    ****                                2349.318,
  83:Src/midi.c    ****                                2489.016,
  84:Src/midi.c    ****                                2637.02 ,
  85:Src/midi.c    ****                                2793.826,
  86:Src/midi.c    ****                                2959.955,
  87:Src/midi.c    ****                                3135.963,
  88:Src/midi.c    ****                                3322.438,
ARM GAS  /tmp/ccpqV8Ds.s 			page 3


  89:Src/midi.c    ****                                3520    ,
  90:Src/midi.c    ****                                3729.31 ,
  91:Src/midi.c    ****                                3951.066,
  92:Src/midi.c    **** };
  93:Src/midi.c    **** 
  94:Src/midi.c    **** void Receive_MIDI(SPI_HandleTypeDef* hspi, uint8_t* spi_rx_buffer) {
  28              		.loc 1 94 0
  29              		.cfi_startproc
  30              		@ args = 0, pretend = 0, frame = 8
  31              		@ frame_needed = 0, uses_anonymous_args = 0
  32              	.LVL0:
  33 0000 30B5     		push	{r4, r5, lr}
  34              	.LCFI0:
  35              		.cfi_def_cfa_offset 12
  36              		.cfi_offset 4, -12
  37              		.cfi_offset 5, -8
  38              		.cfi_offset 14, -4
  39 0002 83B0     		sub	sp, sp, #12
  40              	.LCFI1:
  41              		.cfi_def_cfa_offset 24
  42 0004 0446     		mov	r4, r0
  43 0006 0D46     		mov	r5, r1
  95:Src/midi.c    ****   //  if(!HAL_GPIO_ReadPin(GPIOF,GPIO_PIN_6) &&
  96:Src/midi.c    ****   if(HAL_SPI_GetState(hspi) == HAL_SPI_STATE_READY) {
  44              		.loc 1 96 0
  45 0008 FFF7FEFF 		bl	HAL_SPI_GetState
  46              	.LVL1:
  47 000c 0128     		cmp	r0, #1
  48 000e 01D0     		beq	.L4
  49              	.L1:
  97:Src/midi.c    ****     uint8_t data = 0xAA;
  98:Src/midi.c    ****     HAL_SPI_TransmitReceive_IT(hspi, &data, spi_rx_buffer, 1);
  99:Src/midi.c    ****   }
 100:Src/midi.c    **** }
  50              		.loc 1 100 0
  51 0010 03B0     		add	sp, sp, #12
  52              	.LCFI2:
  53              		.cfi_remember_state
  54              		.cfi_def_cfa_offset 12
  55              		@ sp needed
  56 0012 30BD     		pop	{r4, r5, pc}
  57              	.LVL2:
  58              	.L4:
  59              	.LCFI3:
  60              		.cfi_restore_state
  61              	.LBB2:
  97:Src/midi.c    ****     uint8_t data = 0xAA;
  62              		.loc 1 97 0
  63 0014 02A9     		add	r1, sp, #8
  64 0016 AA23     		movs	r3, #170
  65 0018 01F8013D 		strb	r3, [r1, #-1]!
  98:Src/midi.c    ****   }
  66              		.loc 1 98 0
  67 001c 0123     		movs	r3, #1
  68 001e 2A46     		mov	r2, r5
  69 0020 2046     		mov	r0, r4
  70 0022 FFF7FEFF 		bl	HAL_SPI_TransmitReceive_IT
ARM GAS  /tmp/ccpqV8Ds.s 			page 4


  71              	.LVL3:
  72              	.LBE2:
  73              		.loc 1 100 0
  74 0026 F3E7     		b	.L1
  75              		.cfi_endproc
  76              	.LFE130:
  78              		.global	midi_notes
  79              		.section	.rodata.midi_notes,"a",%progbits
  80              		.align	2
  83              	midi_notes:
  84 0000 0000DC41 		.word	1104936960
  85 0004 F914E941 		.word	1105794297
  86 0008 12F1F641 		.word	1106702610
  87 000c 14D00242 		.word	1107480596
  88 0010 61970A42 		.word	1107990369
  89 0014 18D51242 		.word	1108530456
  90 0018 40901B42 		.word	1109102656
  91 001c 53D02442 		.word	1109708883
  92 0020 379D2E42 		.word	1110351159
  93 0024 48FF3842 		.word	1111031624
  94 0028 6BFF4342 		.word	1111752555
  95 002c 01A74F42 		.word	1112516353
  96 0030 00005C42 		.word	1113325568
  97 0034 F6146942 		.word	1114182902
  98 0038 0FF17642 		.word	1115091215
  99 003c 12D08242 		.word	1115869202
 100 0040 61978A42 		.word	1116378977
 101 0044 17D59242 		.word	1116919063
 102 0048 42909B42 		.word	1117491266
 103 004c 54D0A442 		.word	1118097492
 104 0050 379DAE42 		.word	1118739767
 105 0054 4AFFB842 		.word	1119420234
 106 0058 6BFFC342 		.word	1120141163
 107 005c 04A7CF42 		.word	1120904964
 108 0060 0000DC42 		.word	1121714176
 109 0064 F114E942 		.word	1122571505
 110 0068 0DF1F642 		.word	1123479821
 111 006c 14D00243 		.word	1124257812
 112 0070 5F970A43 		.word	1124767583
 113 0074 18D51243 		.word	1125307672
 114 0078 42901B43 		.word	1125879874
 115 007c 55D02443 		.word	1126486101
 116 0080 369D2E43 		.word	1127128374
 117 0084 48FF3843 		.word	1127808840
 118 0088 69FF4343 		.word	1128529769
 119 008c FDA64F43 		.word	1129293565
 120 0090 00005C43 		.word	1130102784
 121 0094 F7146943 		.word	1130960119
 122 0098 13F17643 		.word	1131868435
 123 009c 14D08243 		.word	1132646420
 124 00a0 5F978A43 		.word	1133156191
 125 00a4 18D59243 		.word	1133696280
 126 00a8 42909B43 		.word	1134268482
 127 00ac 55D0A443 		.word	1134874709
 128 00b0 369DAE43 		.word	1135516982
 129 00b4 48FFB843 		.word	1136197448
 130 00b8 69FFC343 		.word	1136918377
ARM GAS  /tmp/ccpqV8Ds.s 			page 5


 131 00bc 00A7CF43 		.word	1137682176
 132 00c0 0000DC43 		.word	1138491392
 133 00c4 F714E943 		.word	1139348727
 134 00c8 10F1F643 		.word	1140257040
 135 00cc 12D00244 		.word	1141035026
 136 00d0 61970A44 		.word	1141544801
 137 00d4 17D51244 		.word	1142084887
 138 00d8 42901B44 		.word	1142657090
 139 00dc 54D02444 		.word	1143263316
 140 00e0 379D2E44 		.word	1143905591
 141 00e4 48FF3844 		.word	1144586056
 142 00e8 6BFF4344 		.word	1145306987
 143 00ec 00A74F44 		.word	1146070784
 144 00f0 00005C44 		.word	1146880000
 145 00f4 F6146944 		.word	1147737334
 146 00f8 10F17644 		.word	1148645648
 147 00fc 10D08244 		.word	1149423632
 148 0100 64978A44 		.word	1149933412
 149 0104 17D59244 		.word	1150473495
 150 0108 42909B44 		.word	1151045698
 151 010c 52D0A444 		.word	1151651922
 152 0110 379DAE44 		.word	1152294199
 153 0114 4CFFB844 		.word	1152974668
 154 0118 6DFFC344 		.word	1153695597
 155 011c 02A7CF44 		.word	1154459394
 156 0120 0000DC44 		.word	1155268608
 157 0124 F614E944 		.word	1156125942
 158 0128 0EF1F644 		.word	1157034254
 159 012c 14D00245 		.word	1157812244
 160 0130 60970A45 		.word	1158322016
 161 0134 17D51245 		.word	1158862103
 162 0138 42901B45 		.word	1159434306
 163 013c 52D02445 		.word	1160040530
 164 0140 379D2E45 		.word	1160682807
 165 0144 48FF3845 		.word	1161363272
 166 0148 68FF4345 		.word	1162084200
 167 014c 02A74F45 		.word	1162848002
 168 0150 00005C45 		.word	1163657216
 169 0154 F6146945 		.word	1164514550
 170 0158 0EF17645 		.word	1165422862
 171 015c 00000000 		.space	4
 172              		.text
 173              	.Letext0:
 174              		.file 2 "/usr/include/newlib/machine/_default_types.h"
 175              		.file 3 "/usr/include/newlib/sys/_stdint.h"
 176              		.file 4 "Drivers/CMSIS/Include/core_cm4.h"
 177              		.file 5 "Drivers/CMSIS/Device/ST/STM32F4xx/Include/system_stm32f4xx.h"
 178              		.file 6 "Drivers/CMSIS/Device/ST/STM32F4xx/Include/stm32f429xx.h"
 179              		.file 7 "Drivers/STM32F4xx_HAL_Driver/Inc/stm32f4xx_hal_def.h"
 180              		.file 8 "Drivers/STM32F4xx_HAL_Driver/Inc/stm32f4xx_hal_dma.h"
 181              		.file 9 "Drivers/STM32F4xx_HAL_Driver/Inc/stm32f4xx_hal_spi.h"
 182              		.file 10 "Inc/midi.h"
ARM GAS  /tmp/ccpqV8Ds.s 			page 6


DEFINED SYMBOLS
                            *ABS*:0000000000000000 midi.c
     /tmp/ccpqV8Ds.s:18     .text.Receive_MIDI:0000000000000000 $t
     /tmp/ccpqV8Ds.s:25     .text.Receive_MIDI:0000000000000000 Receive_MIDI
     /tmp/ccpqV8Ds.s:83     .rodata.midi_notes:0000000000000000 midi_notes
     /tmp/ccpqV8Ds.s:80     .rodata.midi_notes:0000000000000000 $d
                     .debug_frame:0000000000000010 $d

UNDEFINED SYMBOLS
HAL_SPI_GetState
HAL_SPI_TransmitReceive_IT
