ARM GAS  /tmp/ccPoUljW.s 			page 1


   1              		.cpu cortex-m4
   2              		.eabi_attribute 27, 1
   3              		.eabi_attribute 28, 1
   4              		.eabi_attribute 20, 1
   5              		.eabi_attribute 21, 1
   6              		.eabi_attribute 23, 3
   7              		.eabi_attribute 24, 1
   8              		.eabi_attribute 25, 1
   9              		.eabi_attribute 26, 1
  10              		.eabi_attribute 30, 1
  11              		.eabi_attribute 34, 1
  12              		.eabi_attribute 18, 4
  13              		.file	"midi.c"
  14              		.text
  15              	.Ltext0:
  16              		.cfi_sections	.debug_frame
  17              		.section	.text.Receive_MIDI,"ax",%progbits
  18              		.align	1
  19              		.global	Receive_MIDI
  20              		.syntax unified
  21              		.thumb
  22              		.thumb_func
  23              		.fpu fpv4-sp-d16
  25              	Receive_MIDI:
  26              	.LFB130:
  27              		.file 1 "Src/midi.c"
   1:Src/midi.c    **** #include "midi.h"
   2:Src/midi.c    **** #include <stdint.h>
   3:Src/midi.c    **** 
   4:Src/midi.c    **** const uint16_t midi_notes[127] = {
   5:Src/midi.c    ****   275,
   6:Src/midi.c    ****   291,
   7:Src/midi.c    ****   309,
   8:Src/midi.c    ****   327,
   9:Src/midi.c    ****   346,
  10:Src/midi.c    ****   367,
  11:Src/midi.c    ****   389,
  12:Src/midi.c    ****   412,
  13:Src/midi.c    ****   437,
  14:Src/midi.c    ****   462,
  15:Src/midi.c    ****   490,
  16:Src/midi.c    ****   519,
  17:Src/midi.c    ****   550,
  18:Src/midi.c    ****   583,
  19:Src/midi.c    ****   617,
  20:Src/midi.c    ****   654,
  21:Src/midi.c    ****   693,
  22:Src/midi.c    ****   734,
  23:Src/midi.c    ****   778,
  24:Src/midi.c    ****   824,
  25:Src/midi.c    ****   873,
  26:Src/midi.c    ****   925,
  27:Src/midi.c    ****   980,
  28:Src/midi.c    ****   1038,
  29:Src/midi.c    ****   1100,
  30:Src/midi.c    ****   1165,
  31:Src/midi.c    ****   1235,
ARM GAS  /tmp/ccPoUljW.s 			page 2


  32:Src/midi.c    ****   1308,
  33:Src/midi.c    ****   1386,
  34:Src/midi.c    ****   1468,
  35:Src/midi.c    ****   1556,
  36:Src/midi.c    ****   1648,
  37:Src/midi.c    ****   1746,
  38:Src/midi.c    ****   1850,
  39:Src/midi.c    ****   1960,
  40:Src/midi.c    ****   2077,
  41:Src/midi.c    ****   2200,
  42:Src/midi.c    ****   2331,
  43:Src/midi.c    ****   2469,
  44:Src/midi.c    ****   2616,
  45:Src/midi.c    ****   2772,
  46:Src/midi.c    ****   2937,
  47:Src/midi.c    ****   3111,
  48:Src/midi.c    ****   3296,
  49:Src/midi.c    ****   3492,
  50:Src/midi.c    ****   3700,
  51:Src/midi.c    ****   3920,
  52:Src/midi.c    ****   4153,
  53:Src/midi.c    ****   4400,
  54:Src/midi.c    ****   4662,
  55:Src/midi.c    ****   4939,
  56:Src/midi.c    ****   5233,
  57:Src/midi.c    ****   5544,
  58:Src/midi.c    ****   5873,
  59:Src/midi.c    ****   6223,
  60:Src/midi.c    ****   6593,
  61:Src/midi.c    ****   6985,
  62:Src/midi.c    ****   7400,
  63:Src/midi.c    ****   7840,
  64:Src/midi.c    ****   8306,
  65:Src/midi.c    ****   8800,
  66:Src/midi.c    ****   9323,
  67:Src/midi.c    ****   9878,
  68:Src/midi.c    ****   10465,
  69:Src/midi.c    ****   11087,
  70:Src/midi.c    ****   11747,
  71:Src/midi.c    ****   12445,
  72:Src/midi.c    ****   13185,
  73:Src/midi.c    ****   13969,
  74:Src/midi.c    ****   14800,
  75:Src/midi.c    ****   15680,
  76:Src/midi.c    ****   16612,
  77:Src/midi.c    ****   17600,
  78:Src/midi.c    ****   18647,
  79:Src/midi.c    ****   19755,
  80:Src/midi.c    ****   20930,
  81:Src/midi.c    ****   22175,
  82:Src/midi.c    ****   23493,
  83:Src/midi.c    ****   24890,
  84:Src/midi.c    ****   26370,
  85:Src/midi.c    ****   27938,
  86:Src/midi.c    ****   29600,
  87:Src/midi.c    ****   31360,
  88:Src/midi.c    ****   33224,
ARM GAS  /tmp/ccPoUljW.s 			page 3


  89:Src/midi.c    ****   35200,
  90:Src/midi.c    ****   37293,
  91:Src/midi.c    ****   39511,
  92:Src/midi.c    ****   41860
  93:Src/midi.c    **** };
  94:Src/midi.c    **** 
  95:Src/midi.c    **** void Receive_MIDI(SPI_HandleTypeDef* hspi, uint8_t* spi_rx_buffer) {
  28              		.loc 1 95 0
  29              		.cfi_startproc
  30              		@ args = 0, pretend = 0, frame = 8
  31              		@ frame_needed = 0, uses_anonymous_args = 0
  32              	.LVL0:
  33 0000 10B5     		push	{r4, lr}
  34              	.LCFI0:
  35              		.cfi_def_cfa_offset 8
  36              		.cfi_offset 4, -8
  37              		.cfi_offset 14, -4
  38 0002 82B0     		sub	sp, sp, #8
  39              	.LCFI1:
  40              		.cfi_def_cfa_offset 16
  96:Src/midi.c    ****   //  if(!HAL_GPIO_ReadPin(GPIOF,GPIO_PIN_6) &&
  97:Src/midi.c    ****   //     HAL_SPI_GetState(hspi) == HAL_SPI_STATE_READY){
  98:Src/midi.c    ****     uint8_t data = 0xAB;
  41              		.loc 1 98 0
  42 0004 02AC     		add	r4, sp, #8
  43 0006 AB23     		movs	r3, #171
  44 0008 04F8013D 		strb	r3, [r4, #-1]!
  99:Src/midi.c    ****     HAL_SPI_TransmitReceive_IT(hspi, &data, spi_rx_buffer, 3);
  45              		.loc 1 99 0
  46 000c 0323     		movs	r3, #3
  47 000e 0A46     		mov	r2, r1
  48 0010 2146     		mov	r1, r4
  49              	.LVL1:
  50 0012 FFF7FEFF 		bl	HAL_SPI_TransmitReceive_IT
  51              	.LVL2:
 100:Src/midi.c    ****     //  }
 101:Src/midi.c    **** }
  52              		.loc 1 101 0
  53 0016 02B0     		add	sp, sp, #8
  54              	.LCFI2:
  55              		.cfi_def_cfa_offset 8
  56              		@ sp needed
  57 0018 10BD     		pop	{r4, pc}
  58              		.cfi_endproc
  59              	.LFE130:
  61              		.global	midi_notes
  62              		.section	.rodata.midi_notes,"a",%progbits
  63              		.align	2
  66              	midi_notes:
  67 0000 1301     		.short	275
  68 0002 2301     		.short	291
  69 0004 3501     		.short	309
  70 0006 4701     		.short	327
  71 0008 5A01     		.short	346
  72 000a 6F01     		.short	367
  73 000c 8501     		.short	389
  74 000e 9C01     		.short	412
ARM GAS  /tmp/ccPoUljW.s 			page 4


  75 0010 B501     		.short	437
  76 0012 CE01     		.short	462
  77 0014 EA01     		.short	490
  78 0016 0702     		.short	519
  79 0018 2602     		.short	550
  80 001a 4702     		.short	583
  81 001c 6902     		.short	617
  82 001e 8E02     		.short	654
  83 0020 B502     		.short	693
  84 0022 DE02     		.short	734
  85 0024 0A03     		.short	778
  86 0026 3803     		.short	824
  87 0028 6903     		.short	873
  88 002a 9D03     		.short	925
  89 002c D403     		.short	980
  90 002e 0E04     		.short	1038
  91 0030 4C04     		.short	1100
  92 0032 8D04     		.short	1165
  93 0034 D304     		.short	1235
  94 0036 1C05     		.short	1308
  95 0038 6A05     		.short	1386
  96 003a BC05     		.short	1468
  97 003c 1406     		.short	1556
  98 003e 7006     		.short	1648
  99 0040 D206     		.short	1746
 100 0042 3A07     		.short	1850
 101 0044 A807     		.short	1960
 102 0046 1D08     		.short	2077
 103 0048 9808     		.short	2200
 104 004a 1B09     		.short	2331
 105 004c A509     		.short	2469
 106 004e 380A     		.short	2616
 107 0050 D40A     		.short	2772
 108 0052 790B     		.short	2937
 109 0054 270C     		.short	3111
 110 0056 E00C     		.short	3296
 111 0058 A40D     		.short	3492
 112 005a 740E     		.short	3700
 113 005c 500F     		.short	3920
 114 005e 3910     		.short	4153
 115 0060 3011     		.short	4400
 116 0062 3612     		.short	4662
 117 0064 4B13     		.short	4939
 118 0066 7114     		.short	5233
 119 0068 A815     		.short	5544
 120 006a F116     		.short	5873
 121 006c 4F18     		.short	6223
 122 006e C119     		.short	6593
 123 0070 491B     		.short	6985
 124 0072 E81C     		.short	7400
 125 0074 A01E     		.short	7840
 126 0076 7220     		.short	8306
 127 0078 6022     		.short	8800
 128 007a 6B24     		.short	9323
 129 007c 9626     		.short	9878
 130 007e E128     		.short	10465
 131 0080 4F2B     		.short	11087
ARM GAS  /tmp/ccPoUljW.s 			page 5


 132 0082 E32D     		.short	11747
 133 0084 9D30     		.short	12445
 134 0086 8133     		.short	13185
 135 0088 9136     		.short	13969
 136 008a D039     		.short	14800
 137 008c 403D     		.short	15680
 138 008e E440     		.short	16612
 139 0090 C044     		.short	17600
 140 0092 D748     		.short	18647
 141 0094 2B4D     		.short	19755
 142 0096 C251     		.short	20930
 143 0098 9F56     		.short	22175
 144 009a C55B     		.short	23493
 145 009c 3A61     		.short	24890
 146 009e 0267     		.short	26370
 147 00a0 226D     		.short	27938
 148 00a2 A073     		.short	29600
 149 00a4 807A     		.short	31360
 150 00a6 C881     		.short	-32312
 151 00a8 8089     		.short	-30336
 152 00aa AD91     		.short	-28243
 153 00ac 579A     		.short	-26025
 154 00ae 84A3     		.short	-23676
 155 00b0 00000000 		.space	78
 155      00000000 
 155      00000000 
 155      00000000 
 155      00000000 
 156              		.text
 157              	.Letext0:
 158              		.file 2 "/usr/include/newlib/machine/_default_types.h"
 159              		.file 3 "/usr/include/newlib/sys/_stdint.h"
 160              		.file 4 "Drivers/CMSIS/Include/core_cm4.h"
 161              		.file 5 "Drivers/CMSIS/Device/ST/STM32F4xx/Include/system_stm32f4xx.h"
 162              		.file 6 "Drivers/CMSIS/Device/ST/STM32F4xx/Include/stm32f429xx.h"
 163              		.file 7 "Drivers/STM32F4xx_HAL_Driver/Inc/stm32f4xx_hal_def.h"
 164              		.file 8 "Drivers/STM32F4xx_HAL_Driver/Inc/stm32f4xx_hal_dma.h"
 165              		.file 9 "Drivers/STM32F4xx_HAL_Driver/Inc/stm32f4xx_hal_spi.h"
 166              		.file 10 "Inc/midi.h"
ARM GAS  /tmp/ccPoUljW.s 			page 6

