ARM GAS  /tmp/ccofneAW.s 			page 1


   1              		.cpu cortex-m4
   2              		.eabi_attribute 27, 1
   3              		.eabi_attribute 28, 1
   4              		.eabi_attribute 20, 1
   5              		.eabi_attribute 21, 1
   6              		.eabi_attribute 23, 3
   7              		.eabi_attribute 24, 1
   8              		.eabi_attribute 25, 1
   9              		.eabi_attribute 26, 1
  10              		.eabi_attribute 30, 1
  11              		.eabi_attribute 34, 1
  12              		.eabi_attribute 18, 4
  13              		.file	"midi.c"
  14              		.text
  15              	.Ltext0:
  16              		.cfi_sections	.debug_frame
  17              		.section	.text.Receive_MIDI,"ax",%progbits
  18              		.align	1
  19              		.global	Receive_MIDI
  20              		.syntax unified
  21              		.thumb
  22              		.thumb_func
  23              		.fpu fpv4-sp-d16
  25              	Receive_MIDI:
  26              	.LFB130:
  27              		.file 1 "Src/midi.c"
   1:Src/midi.c    **** #include "midi.h"
   2:Src/midi.c    **** #include <stdint.h>
   3:Src/midi.c    **** 
   4:Src/midi.c    **** const uint16_t midi_notes[127] = {
   5:Src/midi.c    ****   275,
   6:Src/midi.c    ****   291,
   7:Src/midi.c    ****   309,
   8:Src/midi.c    ****   327,
   9:Src/midi.c    ****   346,
  10:Src/midi.c    ****   367,
  11:Src/midi.c    ****   389,
  12:Src/midi.c    ****   412,
  13:Src/midi.c    ****   437,
  14:Src/midi.c    ****   462,
  15:Src/midi.c    ****   490,
  16:Src/midi.c    ****   519,
  17:Src/midi.c    ****   550,
  18:Src/midi.c    ****   583,
  19:Src/midi.c    ****   617,
  20:Src/midi.c    ****   654,
  21:Src/midi.c    ****   693,
  22:Src/midi.c    ****   734,
  23:Src/midi.c    ****   778,
  24:Src/midi.c    ****   824,
  25:Src/midi.c    ****   873,
  26:Src/midi.c    ****   925,
  27:Src/midi.c    ****   980,
  28:Src/midi.c    ****   1038,
  29:Src/midi.c    ****   1100,
  30:Src/midi.c    ****   1165,
  31:Src/midi.c    ****   1235,
ARM GAS  /tmp/ccofneAW.s 			page 2


  32:Src/midi.c    ****   1308,
  33:Src/midi.c    ****   1386,
  34:Src/midi.c    ****   1468,
  35:Src/midi.c    ****   1556,
  36:Src/midi.c    ****   1648,
  37:Src/midi.c    ****   1746,
  38:Src/midi.c    ****   1850,
  39:Src/midi.c    ****   1960,
  40:Src/midi.c    ****   2077,
  41:Src/midi.c    ****   2200,
  42:Src/midi.c    ****   2331,
  43:Src/midi.c    ****   2469,
  44:Src/midi.c    ****   2616,
  45:Src/midi.c    ****   2772,
  46:Src/midi.c    ****   2937,
  47:Src/midi.c    ****   3111,
  48:Src/midi.c    ****   3296,
  49:Src/midi.c    ****   3492,
  50:Src/midi.c    ****   3700,
  51:Src/midi.c    ****   3920,
  52:Src/midi.c    ****   4153,
  53:Src/midi.c    ****   4400,
  54:Src/midi.c    ****   4662,
  55:Src/midi.c    ****   4939,
  56:Src/midi.c    ****   5233,
  57:Src/midi.c    ****   5544,
  58:Src/midi.c    ****   5873,
  59:Src/midi.c    ****   6223,
  60:Src/midi.c    ****   6593,
  61:Src/midi.c    ****   6985,
  62:Src/midi.c    ****   7400,
  63:Src/midi.c    ****   7840,
  64:Src/midi.c    ****   8306,
  65:Src/midi.c    ****   8800,
  66:Src/midi.c    ****   9323,
  67:Src/midi.c    ****   9878,
  68:Src/midi.c    ****   10465,
  69:Src/midi.c    ****   11087,
  70:Src/midi.c    ****   11747,
  71:Src/midi.c    ****   12445,
  72:Src/midi.c    ****   13185,
  73:Src/midi.c    ****   13969,
  74:Src/midi.c    ****   14800,
  75:Src/midi.c    ****   15680,
  76:Src/midi.c    ****   16612,
  77:Src/midi.c    ****   17600,
  78:Src/midi.c    ****   18647,
  79:Src/midi.c    ****   19755,
  80:Src/midi.c    ****   20930,
  81:Src/midi.c    ****   22175,
  82:Src/midi.c    ****   23493,
  83:Src/midi.c    ****   24890,
  84:Src/midi.c    ****   26370,
  85:Src/midi.c    ****   27938,
  86:Src/midi.c    ****   29600,
  87:Src/midi.c    ****   31360,
  88:Src/midi.c    ****   33224,
ARM GAS  /tmp/ccofneAW.s 			page 3


  89:Src/midi.c    ****   35200,
  90:Src/midi.c    ****   37293,
  91:Src/midi.c    ****   39511,
  92:Src/midi.c    ****   41860
  93:Src/midi.c    **** };
  94:Src/midi.c    **** 
  95:Src/midi.c    **** 
  96:Src/midi.c    **** void Receive_MIDI(SPI_HandleTypeDef* hspi) {
  28              		.loc 1 96 0
  29              		.cfi_startproc
  30              		@ args = 0, pretend = 0, frame = 8
  31              		@ frame_needed = 0, uses_anonymous_args = 0
  32              	.LVL0:
  33 0000 10B5     		push	{r4, lr}
  34              	.LCFI0:
  35              		.cfi_def_cfa_offset 8
  36              		.cfi_offset 4, -8
  37              		.cfi_offset 14, -4
  38 0002 84B0     		sub	sp, sp, #16
  39              	.LCFI1:
  40              		.cfi_def_cfa_offset 24
  41 0004 0446     		mov	r4, r0
  97:Src/midi.c    ****   static uint8_t spi_receive_buffer = 0;
  98:Src/midi.c    ****   static uint8_t spi_byte_counter = 0;
  99:Src/midi.c    ****   static struct midi_note_msg current_midi_note_msg = {0,0,0};
 100:Src/midi.c    **** 
 101:Src/midi.c    ****   if(!HAL_GPIO_ReadPin(GPIOF,GPIO_PIN_6) &&
  42              		.loc 1 101 0
  43 0006 4021     		movs	r1, #64
  44 0008 3448     		ldr	r0, .L23
  45              	.LVL1:
  46 000a FFF7FEFF 		bl	HAL_GPIO_ReadPin
  47              	.LVL2:
  48 000e 08B1     		cbz	r0, .L17
  49              	.L1:
 102:Src/midi.c    ****      HAL_SPI_GetState(hspi) == HAL_SPI_STATE_READY){
 103:Src/midi.c    ****     uint8_t data = 0xAB;
 104:Src/midi.c    ****     HAL_SPI_TransmitReceive(hspi, &data, &spi_receive_buffer, 8, 20);
 105:Src/midi.c    **** 
 106:Src/midi.c    ****     spi_byte_counter++;
 107:Src/midi.c    **** 
 108:Src/midi.c    ****     if(spi_byte_counter == 1) {
 109:Src/midi.c    ****       switch(spi_receive_buffer){
 110:Src/midi.c    ****       case (MIDI_NOTE_ON):
 111:Src/midi.c    ****         spi_byte_counter = 0;
 112:Src/midi.c    ****         current_midi_note_msg.command = MIDI_NOTE_ON;
 113:Src/midi.c    ****         break;
 114:Src/midi.c    ****       case(MIDI_NOTE_OFF):
 115:Src/midi.c    ****         spi_byte_counter = 0;
 116:Src/midi.c    ****         current_midi_note_msg.command = MIDI_NOTE_OFF;
 117:Src/midi.c    ****         break;
 118:Src/midi.c    ****       default:
 119:Src/midi.c    ****         current_midi_note_msg.command = 0;
 120:Src/midi.c    ****       }
 121:Src/midi.c    ****     }
 122:Src/midi.c    **** 
 123:Src/midi.c    ****     switch(current_midi_note_msg.command){
ARM GAS  /tmp/ccofneAW.s 			page 4


 124:Src/midi.c    ****     case(MIDI_NOTE_ON):
 125:Src/midi.c    ****       if(spi_byte_counter == 1){
 126:Src/midi.c    ****         current_midi_note_msg.note = spi_receive_buffer;
 127:Src/midi.c    ****       }
 128:Src/midi.c    ****       else if(spi_byte_counter == 2){
 129:Src/midi.c    ****         current_midi_note_msg.velocity = spi_receive_buffer;
 130:Src/midi.c    ****       }
 131:Src/midi.c    ****       else {
 132:Src/midi.c    ****         spi_byte_counter = 0;
 133:Src/midi.c    ****       }
 134:Src/midi.c    ****       break;
 135:Src/midi.c    ****     case(MIDI_NOTE_OFF):
 136:Src/midi.c    ****       if(spi_byte_counter == 1){
 137:Src/midi.c    ****         current_midi_note_msg.note = spi_receive_buffer;
 138:Src/midi.c    ****       }
 139:Src/midi.c    ****       else if(spi_byte_counter == 2){
 140:Src/midi.c    ****         current_midi_note_msg.velocity = spi_receive_buffer;
 141:Src/midi.c    ****       }
 142:Src/midi.c    ****       else {
 143:Src/midi.c    ****         spi_byte_counter = 0;
 144:Src/midi.c    ****       }
 145:Src/midi.c    ****       break;
 146:Src/midi.c    ****     case(0):
 147:Src/midi.c    ****       spi_byte_counter = 0;
 148:Src/midi.c    ****       break;
 149:Src/midi.c    ****     }
 150:Src/midi.c    ****   }
 151:Src/midi.c    **** }
  50              		.loc 1 151 0
  51 0010 04B0     		add	sp, sp, #16
  52              	.LCFI2:
  53              		.cfi_remember_state
  54              		.cfi_def_cfa_offset 8
  55              		@ sp needed
  56 0012 10BD     		pop	{r4, pc}
  57              	.LVL3:
  58              	.L17:
  59              	.LCFI3:
  60              		.cfi_restore_state
 102:Src/midi.c    ****      HAL_SPI_GetState(hspi) == HAL_SPI_STATE_READY){
  61              		.loc 1 102 0 discriminator 1
  62 0014 2046     		mov	r0, r4
  63 0016 FFF7FEFF 		bl	HAL_SPI_GetState
  64              	.LVL4:
 101:Src/midi.c    ****      HAL_SPI_GetState(hspi) == HAL_SPI_STATE_READY){
  65              		.loc 1 101 0 discriminator 1
  66 001a 0128     		cmp	r0, #1
  67 001c F8D1     		bne	.L1
  68              	.LBB2:
 103:Src/midi.c    ****     HAL_SPI_TransmitReceive(hspi, &data, &spi_receive_buffer, 8, 20);
  69              		.loc 1 103 0
  70 001e 04A9     		add	r1, sp, #16
  71 0020 AB23     		movs	r3, #171
  72 0022 01F8013D 		strb	r3, [r1, #-1]!
 104:Src/midi.c    **** 
  73              		.loc 1 104 0
  74 0026 1423     		movs	r3, #20
ARM GAS  /tmp/ccofneAW.s 			page 5


  75 0028 0093     		str	r3, [sp]
  76 002a 0823     		movs	r3, #8
  77 002c 2C4A     		ldr	r2, .L23+4
  78 002e 2046     		mov	r0, r4
  79 0030 FFF7FEFF 		bl	HAL_SPI_TransmitReceive
  80              	.LVL5:
 106:Src/midi.c    **** 
  81              		.loc 1 106 0
  82 0034 2B4A     		ldr	r2, .L23+8
  83 0036 1378     		ldrb	r3, [r2]	@ zero_extendqisi2
  84 0038 0133     		adds	r3, r3, #1
  85 003a DBB2     		uxtb	r3, r3
  86 003c 1370     		strb	r3, [r2]
 108:Src/midi.c    ****       switch(spi_receive_buffer){
  87              		.loc 1 108 0
  88 003e 012B     		cmp	r3, #1
  89 0040 0BD0     		beq	.L18
  90              	.L3:
 123:Src/midi.c    ****     case(MIDI_NOTE_ON):
  91              		.loc 1 123 0
  92 0042 294B     		ldr	r3, .L23+12
  93 0044 1B78     		ldrb	r3, [r3]	@ zero_extendqisi2
  94 0046 802B     		cmp	r3, #128
  95 0048 33D0     		beq	.L8
  96 004a 902B     		cmp	r3, #144
  97 004c 1DD0     		beq	.L9
  98 004e 002B     		cmp	r3, #0
  99 0050 DED1     		bne	.L1
 147:Src/midi.c    ****       break;
 100              		.loc 1 147 0
 101 0052 0022     		movs	r2, #0
 102 0054 234B     		ldr	r3, .L23+8
 103 0056 1A70     		strb	r2, [r3]
 104              	.LBE2:
 105              		.loc 1 151 0
 106 0058 DAE7     		b	.L1
 107              	.L18:
 108              	.LBB3:
 109:Src/midi.c    ****       case (MIDI_NOTE_ON):
 109              		.loc 1 109 0
 110 005a 214B     		ldr	r3, .L23+4
 111 005c 1B78     		ldrb	r3, [r3]	@ zero_extendqisi2
 112 005e 802B     		cmp	r3, #128
 113 0060 08D0     		beq	.L5
 114 0062 902B     		cmp	r3, #144
 115 0064 0DD1     		bne	.L15
 111:Src/midi.c    ****         current_midi_note_msg.command = MIDI_NOTE_ON;
 116              		.loc 1 111 0
 117 0066 0022     		movs	r2, #0
 118 0068 1E4B     		ldr	r3, .L23+8
 119 006a 1A70     		strb	r2, [r3]
 112:Src/midi.c    ****         break;
 120              		.loc 1 112 0
 121 006c 9022     		movs	r2, #144
 122 006e 1E4B     		ldr	r3, .L23+12
 123 0070 1A70     		strb	r2, [r3]
 113:Src/midi.c    ****       case(MIDI_NOTE_OFF):
ARM GAS  /tmp/ccofneAW.s 			page 6


 124              		.loc 1 113 0
 125 0072 E6E7     		b	.L3
 126              	.L5:
 115:Src/midi.c    ****         current_midi_note_msg.command = MIDI_NOTE_OFF;
 127              		.loc 1 115 0
 128 0074 0022     		movs	r2, #0
 129 0076 1B4B     		ldr	r3, .L23+8
 130 0078 1A70     		strb	r2, [r3]
 116:Src/midi.c    ****         break;
 131              		.loc 1 116 0
 132 007a 8022     		movs	r2, #128
 133 007c 1A4B     		ldr	r3, .L23+12
 134 007e 1A70     		strb	r2, [r3]
 117:Src/midi.c    ****       default:
 135              		.loc 1 117 0
 136 0080 DFE7     		b	.L3
 137              	.L15:
 119:Src/midi.c    ****       }
 138              		.loc 1 119 0
 139 0082 0022     		movs	r2, #0
 140 0084 184B     		ldr	r3, .L23+12
 141 0086 1A70     		strb	r2, [r3]
 142 0088 DBE7     		b	.L3
 143              	.L9:
 125:Src/midi.c    ****         current_midi_note_msg.note = spi_receive_buffer;
 144              		.loc 1 125 0
 145 008a 164B     		ldr	r3, .L23+8
 146 008c 1B78     		ldrb	r3, [r3]	@ zero_extendqisi2
 147 008e 012B     		cmp	r3, #1
 148 0090 05D0     		beq	.L19
 128:Src/midi.c    ****         current_midi_note_msg.velocity = spi_receive_buffer;
 149              		.loc 1 128 0
 150 0092 022B     		cmp	r3, #2
 151 0094 08D0     		beq	.L20
 132:Src/midi.c    ****       }
 152              		.loc 1 132 0
 153 0096 0022     		movs	r2, #0
 154 0098 124B     		ldr	r3, .L23+8
 155 009a 1A70     		strb	r2, [r3]
 156 009c B8E7     		b	.L1
 157              	.L19:
 126:Src/midi.c    ****       }
 158              		.loc 1 126 0
 159 009e 104B     		ldr	r3, .L23+4
 160 00a0 1A78     		ldrb	r2, [r3]	@ zero_extendqisi2
 161 00a2 114B     		ldr	r3, .L23+12
 162 00a4 5A70     		strb	r2, [r3, #1]
 163 00a6 B3E7     		b	.L1
 164              	.L20:
 129:Src/midi.c    ****       }
 165              		.loc 1 129 0
 166 00a8 0D4B     		ldr	r3, .L23+4
 167 00aa 1A78     		ldrb	r2, [r3]	@ zero_extendqisi2
 168 00ac 0E4B     		ldr	r3, .L23+12
 169 00ae 9A70     		strb	r2, [r3, #2]
 170 00b0 AEE7     		b	.L1
 171              	.L8:
ARM GAS  /tmp/ccofneAW.s 			page 7


 136:Src/midi.c    ****         current_midi_note_msg.note = spi_receive_buffer;
 172              		.loc 1 136 0
 173 00b2 0C4B     		ldr	r3, .L23+8
 174 00b4 1B78     		ldrb	r3, [r3]	@ zero_extendqisi2
 175 00b6 012B     		cmp	r3, #1
 176 00b8 05D0     		beq	.L21
 139:Src/midi.c    ****         current_midi_note_msg.velocity = spi_receive_buffer;
 177              		.loc 1 139 0
 178 00ba 022B     		cmp	r3, #2
 179 00bc 08D0     		beq	.L22
 143:Src/midi.c    ****       }
 180              		.loc 1 143 0
 181 00be 0022     		movs	r2, #0
 182 00c0 084B     		ldr	r3, .L23+8
 183 00c2 1A70     		strb	r2, [r3]
 184 00c4 A4E7     		b	.L1
 185              	.L21:
 137:Src/midi.c    ****       }
 186              		.loc 1 137 0
 187 00c6 064B     		ldr	r3, .L23+4
 188 00c8 1A78     		ldrb	r2, [r3]	@ zero_extendqisi2
 189 00ca 074B     		ldr	r3, .L23+12
 190 00cc 5A70     		strb	r2, [r3, #1]
 191 00ce 9FE7     		b	.L1
 192              	.L22:
 140:Src/midi.c    ****       }
 193              		.loc 1 140 0
 194 00d0 034B     		ldr	r3, .L23+4
 195 00d2 1A78     		ldrb	r2, [r3]	@ zero_extendqisi2
 196 00d4 044B     		ldr	r3, .L23+12
 197 00d6 9A70     		strb	r2, [r3, #2]
 198 00d8 9AE7     		b	.L1
 199              	.L24:
 200 00da 00BF     		.align	2
 201              	.L23:
 202 00dc 00140240 		.word	1073878016
 203 00e0 00000000 		.word	.LANCHOR0
 204 00e4 00000000 		.word	.LANCHOR1
 205 00e8 00000000 		.word	.LANCHOR2
 206              	.LBE3:
 207              		.cfi_endproc
 208              	.LFE130:
 210              		.global	midi_notes
 211              		.section	.bss.current_midi_note_msg.7641,"aw",%nobits
 212              		.align	2
 213              		.set	.LANCHOR2,. + 0
 216              	current_midi_note_msg.7641:
 217 0000 000000   		.space	3
 218              		.section	.bss.spi_byte_counter.7640,"aw",%nobits
 219              		.set	.LANCHOR1,. + 0
 222              	spi_byte_counter.7640:
 223 0000 00       		.space	1
 224              		.section	.bss.spi_receive_buffer.7639,"aw",%nobits
 225              		.set	.LANCHOR0,. + 0
 228              	spi_receive_buffer.7639:
 229 0000 00       		.space	1
 230              		.section	.rodata.midi_notes,"a",%progbits
ARM GAS  /tmp/ccofneAW.s 			page 8


 231              		.align	2
 234              	midi_notes:
 235 0000 1301     		.short	275
 236 0002 2301     		.short	291
 237 0004 3501     		.short	309
 238 0006 4701     		.short	327
 239 0008 5A01     		.short	346
 240 000a 6F01     		.short	367
 241 000c 8501     		.short	389
 242 000e 9C01     		.short	412
 243 0010 B501     		.short	437
 244 0012 CE01     		.short	462
 245 0014 EA01     		.short	490
 246 0016 0702     		.short	519
 247 0018 2602     		.short	550
 248 001a 4702     		.short	583
 249 001c 6902     		.short	617
 250 001e 8E02     		.short	654
 251 0020 B502     		.short	693
 252 0022 DE02     		.short	734
 253 0024 0A03     		.short	778
 254 0026 3803     		.short	824
 255 0028 6903     		.short	873
 256 002a 9D03     		.short	925
 257 002c D403     		.short	980
 258 002e 0E04     		.short	1038
 259 0030 4C04     		.short	1100
 260 0032 8D04     		.short	1165
 261 0034 D304     		.short	1235
 262 0036 1C05     		.short	1308
 263 0038 6A05     		.short	1386
 264 003a BC05     		.short	1468
 265 003c 1406     		.short	1556
 266 003e 7006     		.short	1648
 267 0040 D206     		.short	1746
 268 0042 3A07     		.short	1850
 269 0044 A807     		.short	1960
 270 0046 1D08     		.short	2077
 271 0048 9808     		.short	2200
 272 004a 1B09     		.short	2331
 273 004c A509     		.short	2469
 274 004e 380A     		.short	2616
 275 0050 D40A     		.short	2772
 276 0052 790B     		.short	2937
 277 0054 270C     		.short	3111
 278 0056 E00C     		.short	3296
 279 0058 A40D     		.short	3492
 280 005a 740E     		.short	3700
 281 005c 500F     		.short	3920
 282 005e 3910     		.short	4153
 283 0060 3011     		.short	4400
 284 0062 3612     		.short	4662
 285 0064 4B13     		.short	4939
 286 0066 7114     		.short	5233
 287 0068 A815     		.short	5544
 288 006a F116     		.short	5873
 289 006c 4F18     		.short	6223
ARM GAS  /tmp/ccofneAW.s 			page 9


 290 006e C119     		.short	6593
 291 0070 491B     		.short	6985
 292 0072 E81C     		.short	7400
 293 0074 A01E     		.short	7840
 294 0076 7220     		.short	8306
 295 0078 6022     		.short	8800
 296 007a 6B24     		.short	9323
 297 007c 9626     		.short	9878
 298 007e E128     		.short	10465
 299 0080 4F2B     		.short	11087
 300 0082 E32D     		.short	11747
 301 0084 9D30     		.short	12445
 302 0086 8133     		.short	13185
 303 0088 9136     		.short	13969
 304 008a D039     		.short	14800
 305 008c 403D     		.short	15680
 306 008e E440     		.short	16612
 307 0090 C044     		.short	17600
 308 0092 D748     		.short	18647
 309 0094 2B4D     		.short	19755
 310 0096 C251     		.short	20930
 311 0098 9F56     		.short	22175
 312 009a C55B     		.short	23493
 313 009c 3A61     		.short	24890
 314 009e 0267     		.short	26370
 315 00a0 226D     		.short	27938
 316 00a2 A073     		.short	29600
 317 00a4 807A     		.short	31360
 318 00a6 C881     		.short	-32312
 319 00a8 8089     		.short	-30336
 320 00aa AD91     		.short	-28243
 321 00ac 579A     		.short	-26025
 322 00ae 84A3     		.short	-23676
 323 00b0 00000000 		.space	78
 323      00000000 
 323      00000000 
 323      00000000 
 323      00000000 
 324              		.text
 325              	.Letext0:
 326              		.file 2 "/usr/include/newlib/machine/_default_types.h"
 327              		.file 3 "/usr/include/newlib/sys/_stdint.h"
 328              		.file 4 "Drivers/CMSIS/Include/core_cm4.h"
 329              		.file 5 "Drivers/CMSIS/Device/ST/STM32F4xx/Include/system_stm32f4xx.h"
 330              		.file 6 "Drivers/CMSIS/Device/ST/STM32F4xx/Include/stm32f429xx.h"
 331              		.file 7 "Drivers/STM32F4xx_HAL_Driver/Inc/stm32f4xx_hal_def.h"
 332              		.file 8 "Drivers/STM32F4xx_HAL_Driver/Inc/stm32f4xx_hal_dma.h"
 333              		.file 9 "Drivers/STM32F4xx_HAL_Driver/Inc/stm32f4xx_hal_spi.h"
 334              		.file 10 "Inc/midi.h"
 335              		.file 11 "Drivers/STM32F4xx_HAL_Driver/Inc/stm32f4xx_hal_gpio.h"
ARM GAS  /tmp/ccofneAW.s 			page 10


DEFINED SYMBOLS
                            *ABS*:0000000000000000 midi.c
     /tmp/ccofneAW.s:18     .text.Receive_MIDI:0000000000000000 $t
     /tmp/ccofneAW.s:25     .text.Receive_MIDI:0000000000000000 Receive_MIDI
     /tmp/ccofneAW.s:202    .text.Receive_MIDI:00000000000000dc $d
     /tmp/ccofneAW.s:234    .rodata.midi_notes:0000000000000000 midi_notes
     /tmp/ccofneAW.s:212    .bss.current_midi_note_msg.7641:0000000000000000 $d
     /tmp/ccofneAW.s:216    .bss.current_midi_note_msg.7641:0000000000000000 current_midi_note_msg.7641
     /tmp/ccofneAW.s:222    .bss.spi_byte_counter.7640:0000000000000000 spi_byte_counter.7640
     /tmp/ccofneAW.s:223    .bss.spi_byte_counter.7640:0000000000000000 $d
     /tmp/ccofneAW.s:228    .bss.spi_receive_buffer.7639:0000000000000000 spi_receive_buffer.7639
     /tmp/ccofneAW.s:229    .bss.spi_receive_buffer.7639:0000000000000000 $d
     /tmp/ccofneAW.s:231    .rodata.midi_notes:0000000000000000 $d
                     .debug_frame:0000000000000010 $d

UNDEFINED SYMBOLS
HAL_GPIO_ReadPin
HAL_SPI_GetState
HAL_SPI_TransmitReceive
