ARM GAS  /tmp/ccbWf67K.s 			page 1


   1              		.cpu cortex-m4
   2              		.eabi_attribute 27, 1
   3              		.eabi_attribute 28, 1
   4              		.eabi_attribute 20, 1
   5              		.eabi_attribute 21, 1
   6              		.eabi_attribute 23, 3
   7              		.eabi_attribute 24, 1
   8              		.eabi_attribute 25, 1
   9              		.eabi_attribute 26, 1
  10              		.eabi_attribute 30, 1
  11              		.eabi_attribute 34, 1
  12              		.eabi_attribute 18, 4
  13              		.file	"stm32f4xx_hal_msp.c"
  14              		.text
  15              	.Ltext0:
  16              		.cfi_sections	.debug_frame
  17              		.section	.text.HAL_MspInit,"ax",%progbits
  18              		.align	1
  19              		.global	HAL_MspInit
  20              		.syntax unified
  21              		.thumb
  22              		.thumb_func
  23              		.fpu fpv4-sp-d16
  25              	HAL_MspInit:
  26              	.LFB130:
  27              		.file 1 "Src/stm32f4xx_hal_msp.c"
   1:Src/stm32f4xx_hal_msp.c **** /* USER CODE BEGIN Header */
   2:Src/stm32f4xx_hal_msp.c **** /**
   3:Src/stm32f4xx_hal_msp.c ****   ******************************************************************************
   4:Src/stm32f4xx_hal_msp.c ****   * File Name          : stm32f4xx_hal_msp.c
   5:Src/stm32f4xx_hal_msp.c ****   * Description        : This file provides code for the MSP Initialization 
   6:Src/stm32f4xx_hal_msp.c ****   *                      and de-Initialization codes.
   7:Src/stm32f4xx_hal_msp.c ****   ******************************************************************************
   8:Src/stm32f4xx_hal_msp.c ****   * @attention
   9:Src/stm32f4xx_hal_msp.c ****   *
  10:Src/stm32f4xx_hal_msp.c ****   * <h2><center>&copy; Copyright (c) 2019 STMicroelectronics.
  11:Src/stm32f4xx_hal_msp.c ****   * All rights reserved.</center></h2>
  12:Src/stm32f4xx_hal_msp.c ****   *
  13:Src/stm32f4xx_hal_msp.c ****   * This software component is licensed by ST under BSD 3-Clause license,
  14:Src/stm32f4xx_hal_msp.c ****   * the "License"; You may not use this file except in compliance with the
  15:Src/stm32f4xx_hal_msp.c ****   * License. You may obtain a copy of the License at:
  16:Src/stm32f4xx_hal_msp.c ****   *                        opensource.org/licenses/BSD-3-Clause
  17:Src/stm32f4xx_hal_msp.c ****   *
  18:Src/stm32f4xx_hal_msp.c ****   ******************************************************************************
  19:Src/stm32f4xx_hal_msp.c ****   */
  20:Src/stm32f4xx_hal_msp.c **** /* USER CODE END Header */
  21:Src/stm32f4xx_hal_msp.c **** 
  22:Src/stm32f4xx_hal_msp.c **** /* Includes ------------------------------------------------------------------*/
  23:Src/stm32f4xx_hal_msp.c **** #include "main.h"
  24:Src/stm32f4xx_hal_msp.c **** /* USER CODE BEGIN Includes */
  25:Src/stm32f4xx_hal_msp.c **** 
  26:Src/stm32f4xx_hal_msp.c **** /* USER CODE END Includes */
  27:Src/stm32f4xx_hal_msp.c **** 
  28:Src/stm32f4xx_hal_msp.c **** /* Private typedef -----------------------------------------------------------*/
  29:Src/stm32f4xx_hal_msp.c **** /* USER CODE BEGIN TD */
  30:Src/stm32f4xx_hal_msp.c **** 
  31:Src/stm32f4xx_hal_msp.c **** /* USER CODE END TD */
ARM GAS  /tmp/ccbWf67K.s 			page 2


  32:Src/stm32f4xx_hal_msp.c **** 
  33:Src/stm32f4xx_hal_msp.c **** /* Private define ------------------------------------------------------------*/
  34:Src/stm32f4xx_hal_msp.c **** /* USER CODE BEGIN Define */
  35:Src/stm32f4xx_hal_msp.c ****  
  36:Src/stm32f4xx_hal_msp.c **** /* USER CODE END Define */
  37:Src/stm32f4xx_hal_msp.c **** 
  38:Src/stm32f4xx_hal_msp.c **** /* Private macro -------------------------------------------------------------*/
  39:Src/stm32f4xx_hal_msp.c **** /* USER CODE BEGIN Macro */
  40:Src/stm32f4xx_hal_msp.c **** 
  41:Src/stm32f4xx_hal_msp.c **** /* USER CODE END Macro */
  42:Src/stm32f4xx_hal_msp.c **** 
  43:Src/stm32f4xx_hal_msp.c **** /* Private variables ---------------------------------------------------------*/
  44:Src/stm32f4xx_hal_msp.c **** /* USER CODE BEGIN PV */
  45:Src/stm32f4xx_hal_msp.c **** 
  46:Src/stm32f4xx_hal_msp.c **** /* USER CODE END PV */
  47:Src/stm32f4xx_hal_msp.c **** 
  48:Src/stm32f4xx_hal_msp.c **** /* Private function prototypes -----------------------------------------------*/
  49:Src/stm32f4xx_hal_msp.c **** /* USER CODE BEGIN PFP */
  50:Src/stm32f4xx_hal_msp.c **** 
  51:Src/stm32f4xx_hal_msp.c **** /* USER CODE END PFP */
  52:Src/stm32f4xx_hal_msp.c **** 
  53:Src/stm32f4xx_hal_msp.c **** /* External functions --------------------------------------------------------*/
  54:Src/stm32f4xx_hal_msp.c **** /* USER CODE BEGIN ExternalFunctions */
  55:Src/stm32f4xx_hal_msp.c **** 
  56:Src/stm32f4xx_hal_msp.c **** /* USER CODE END ExternalFunctions */
  57:Src/stm32f4xx_hal_msp.c **** 
  58:Src/stm32f4xx_hal_msp.c **** /* USER CODE BEGIN 0 */
  59:Src/stm32f4xx_hal_msp.c **** 
  60:Src/stm32f4xx_hal_msp.c **** /* USER CODE END 0 */
  61:Src/stm32f4xx_hal_msp.c **** /**
  62:Src/stm32f4xx_hal_msp.c ****   * Initializes the Global MSP.
  63:Src/stm32f4xx_hal_msp.c ****   */
  64:Src/stm32f4xx_hal_msp.c **** void HAL_MspInit(void)
  65:Src/stm32f4xx_hal_msp.c **** {
  28              		.loc 1 65 0
  29              		.cfi_startproc
  30              		@ args = 0, pretend = 0, frame = 8
  31              		@ frame_needed = 0, uses_anonymous_args = 0
  32 0000 00B5     		push	{lr}
  33              	.LCFI0:
  34              		.cfi_def_cfa_offset 4
  35              		.cfi_offset 14, -4
  36 0002 83B0     		sub	sp, sp, #12
  37              	.LCFI1:
  38              		.cfi_def_cfa_offset 16
  39              	.LBB2:
  66:Src/stm32f4xx_hal_msp.c ****   /* USER CODE BEGIN MspInit 0 */
  67:Src/stm32f4xx_hal_msp.c **** 
  68:Src/stm32f4xx_hal_msp.c ****   /* USER CODE END MspInit 0 */
  69:Src/stm32f4xx_hal_msp.c **** 
  70:Src/stm32f4xx_hal_msp.c ****   __HAL_RCC_SYSCFG_CLK_ENABLE();
  40              		.loc 1 70 0
  41 0004 0021     		movs	r1, #0
  42 0006 0091     		str	r1, [sp]
  43 0008 0C4B     		ldr	r3, .L3
  44 000a 5A6C     		ldr	r2, [r3, #68]
  45 000c 42F48042 		orr	r2, r2, #16384
ARM GAS  /tmp/ccbWf67K.s 			page 3


  46 0010 5A64     		str	r2, [r3, #68]
  47 0012 5A6C     		ldr	r2, [r3, #68]
  48 0014 02F48042 		and	r2, r2, #16384
  49 0018 0092     		str	r2, [sp]
  50 001a 009A     		ldr	r2, [sp]
  51              	.LBE2:
  52              	.LBB3:
  71:Src/stm32f4xx_hal_msp.c ****   __HAL_RCC_PWR_CLK_ENABLE();
  53              		.loc 1 71 0
  54 001c 0191     		str	r1, [sp, #4]
  55 001e 1A6C     		ldr	r2, [r3, #64]
  56 0020 42F08052 		orr	r2, r2, #268435456
  57 0024 1A64     		str	r2, [r3, #64]
  58 0026 1B6C     		ldr	r3, [r3, #64]
  59 0028 03F08053 		and	r3, r3, #268435456
  60 002c 0193     		str	r3, [sp, #4]
  61 002e 019B     		ldr	r3, [sp, #4]
  62              	.LBE3:
  72:Src/stm32f4xx_hal_msp.c **** 
  73:Src/stm32f4xx_hal_msp.c ****   HAL_NVIC_SetPriorityGrouping(NVIC_PRIORITYGROUP_0);
  63              		.loc 1 73 0
  64 0030 0720     		movs	r0, #7
  65 0032 FFF7FEFF 		bl	HAL_NVIC_SetPriorityGrouping
  66              	.LVL0:
  74:Src/stm32f4xx_hal_msp.c **** 
  75:Src/stm32f4xx_hal_msp.c ****   /* System interrupt init*/
  76:Src/stm32f4xx_hal_msp.c **** 
  77:Src/stm32f4xx_hal_msp.c ****   /* USER CODE BEGIN MspInit 1 */
  78:Src/stm32f4xx_hal_msp.c **** 
  79:Src/stm32f4xx_hal_msp.c ****   /* USER CODE END MspInit 1 */
  80:Src/stm32f4xx_hal_msp.c **** }
  67              		.loc 1 80 0
  68 0036 03B0     		add	sp, sp, #12
  69              	.LCFI2:
  70              		.cfi_def_cfa_offset 4
  71              		@ sp needed
  72 0038 5DF804FB 		ldr	pc, [sp], #4
  73              	.L4:
  74              		.align	2
  75              	.L3:
  76 003c 00380240 		.word	1073887232
  77              		.cfi_endproc
  78              	.LFE130:
  80              		.section	.text.HAL_DAC_MspInit,"ax",%progbits
  81              		.align	1
  82              		.global	HAL_DAC_MspInit
  83              		.syntax unified
  84              		.thumb
  85              		.thumb_func
  86              		.fpu fpv4-sp-d16
  88              	HAL_DAC_MspInit:
  89              	.LFB131:
  81:Src/stm32f4xx_hal_msp.c **** 
  82:Src/stm32f4xx_hal_msp.c **** /**
  83:Src/stm32f4xx_hal_msp.c **** * @brief DAC MSP Initialization
  84:Src/stm32f4xx_hal_msp.c **** * This function configures the hardware resources used in this example
  85:Src/stm32f4xx_hal_msp.c **** * @param hdac: DAC handle pointer
ARM GAS  /tmp/ccbWf67K.s 			page 4


  86:Src/stm32f4xx_hal_msp.c **** * @retval None
  87:Src/stm32f4xx_hal_msp.c **** */
  88:Src/stm32f4xx_hal_msp.c **** void HAL_DAC_MspInit(DAC_HandleTypeDef* hdac)
  89:Src/stm32f4xx_hal_msp.c **** {
  90              		.loc 1 89 0
  91              		.cfi_startproc
  92              		@ args = 0, pretend = 0, frame = 32
  93              		@ frame_needed = 0, uses_anonymous_args = 0
  94              	.LVL1:
  95 0000 10B5     		push	{r4, lr}
  96              	.LCFI3:
  97              		.cfi_def_cfa_offset 8
  98              		.cfi_offset 4, -8
  99              		.cfi_offset 14, -4
 100 0002 88B0     		sub	sp, sp, #32
 101              	.LCFI4:
 102              		.cfi_def_cfa_offset 40
  90:Src/stm32f4xx_hal_msp.c ****   GPIO_InitTypeDef GPIO_InitStruct = {0};
 103              		.loc 1 90 0
 104 0004 0023     		movs	r3, #0
 105 0006 0393     		str	r3, [sp, #12]
 106 0008 0493     		str	r3, [sp, #16]
 107 000a 0593     		str	r3, [sp, #20]
 108 000c 0693     		str	r3, [sp, #24]
 109 000e 0793     		str	r3, [sp, #28]
  91:Src/stm32f4xx_hal_msp.c ****   if(hdac->Instance==DAC)
 110              		.loc 1 91 0
 111 0010 0268     		ldr	r2, [r0]
 112 0012 164B     		ldr	r3, .L9
 113 0014 9A42     		cmp	r2, r3
 114 0016 01D0     		beq	.L8
 115              	.LVL2:
 116              	.L5:
  92:Src/stm32f4xx_hal_msp.c ****   {
  93:Src/stm32f4xx_hal_msp.c ****   /* USER CODE BEGIN DAC_MspInit 0 */
  94:Src/stm32f4xx_hal_msp.c **** 
  95:Src/stm32f4xx_hal_msp.c ****   /* USER CODE END DAC_MspInit 0 */
  96:Src/stm32f4xx_hal_msp.c ****     /* Peripheral clock enable */
  97:Src/stm32f4xx_hal_msp.c ****     __HAL_RCC_DAC_CLK_ENABLE();
  98:Src/stm32f4xx_hal_msp.c ****   
  99:Src/stm32f4xx_hal_msp.c ****     __HAL_RCC_GPIOA_CLK_ENABLE();
 100:Src/stm32f4xx_hal_msp.c ****     /**DAC GPIO Configuration    
 101:Src/stm32f4xx_hal_msp.c ****     PA5     ------> DAC_OUT2 
 102:Src/stm32f4xx_hal_msp.c ****     */
 103:Src/stm32f4xx_hal_msp.c ****     GPIO_InitStruct.Pin = GPIO_PIN_5;
 104:Src/stm32f4xx_hal_msp.c ****     GPIO_InitStruct.Mode = GPIO_MODE_ANALOG;
 105:Src/stm32f4xx_hal_msp.c ****     GPIO_InitStruct.Pull = GPIO_NOPULL;
 106:Src/stm32f4xx_hal_msp.c ****     HAL_GPIO_Init(GPIOA, &GPIO_InitStruct);
 107:Src/stm32f4xx_hal_msp.c **** 
 108:Src/stm32f4xx_hal_msp.c ****     /* DAC interrupt Init */
 109:Src/stm32f4xx_hal_msp.c ****     HAL_NVIC_SetPriority(TIM6_DAC_IRQn, 0, 0);
 110:Src/stm32f4xx_hal_msp.c ****     HAL_NVIC_EnableIRQ(TIM6_DAC_IRQn);
 111:Src/stm32f4xx_hal_msp.c ****   /* USER CODE BEGIN DAC_MspInit 1 */
 112:Src/stm32f4xx_hal_msp.c **** 
 113:Src/stm32f4xx_hal_msp.c ****   /* USER CODE END DAC_MspInit 1 */
 114:Src/stm32f4xx_hal_msp.c ****   }
 115:Src/stm32f4xx_hal_msp.c **** 
ARM GAS  /tmp/ccbWf67K.s 			page 5


 116:Src/stm32f4xx_hal_msp.c **** }
 117              		.loc 1 116 0
 118 0018 08B0     		add	sp, sp, #32
 119              	.LCFI5:
 120              		.cfi_remember_state
 121              		.cfi_def_cfa_offset 8
 122              		@ sp needed
 123 001a 10BD     		pop	{r4, pc}
 124              	.LVL3:
 125              	.L8:
 126              	.LCFI6:
 127              		.cfi_restore_state
 128              	.LBB4:
  97:Src/stm32f4xx_hal_msp.c ****   
 129              		.loc 1 97 0
 130 001c 0024     		movs	r4, #0
 131 001e 0194     		str	r4, [sp, #4]
 132 0020 03F5E233 		add	r3, r3, #115712
 133 0024 1A6C     		ldr	r2, [r3, #64]
 134 0026 42F00052 		orr	r2, r2, #536870912
 135 002a 1A64     		str	r2, [r3, #64]
 136 002c 1A6C     		ldr	r2, [r3, #64]
 137 002e 02F00052 		and	r2, r2, #536870912
 138 0032 0192     		str	r2, [sp, #4]
 139 0034 019A     		ldr	r2, [sp, #4]
 140              	.LBE4:
 141              	.LBB5:
  99:Src/stm32f4xx_hal_msp.c ****     /**DAC GPIO Configuration    
 142              		.loc 1 99 0
 143 0036 0294     		str	r4, [sp, #8]
 144 0038 1A6B     		ldr	r2, [r3, #48]
 145 003a 42F00102 		orr	r2, r2, #1
 146 003e 1A63     		str	r2, [r3, #48]
 147 0040 1B6B     		ldr	r3, [r3, #48]
 148 0042 03F00103 		and	r3, r3, #1
 149 0046 0293     		str	r3, [sp, #8]
 150 0048 029B     		ldr	r3, [sp, #8]
 151              	.LBE5:
 103:Src/stm32f4xx_hal_msp.c ****     GPIO_InitStruct.Mode = GPIO_MODE_ANALOG;
 152              		.loc 1 103 0
 153 004a 2023     		movs	r3, #32
 154 004c 0393     		str	r3, [sp, #12]
 104:Src/stm32f4xx_hal_msp.c ****     GPIO_InitStruct.Pull = GPIO_NOPULL;
 155              		.loc 1 104 0
 156 004e 0323     		movs	r3, #3
 157 0050 0493     		str	r3, [sp, #16]
 106:Src/stm32f4xx_hal_msp.c **** 
 158              		.loc 1 106 0
 159 0052 03A9     		add	r1, sp, #12
 160 0054 0648     		ldr	r0, .L9+4
 161              	.LVL4:
 162 0056 FFF7FEFF 		bl	HAL_GPIO_Init
 163              	.LVL5:
 109:Src/stm32f4xx_hal_msp.c ****     HAL_NVIC_EnableIRQ(TIM6_DAC_IRQn);
 164              		.loc 1 109 0
 165 005a 2246     		mov	r2, r4
 166 005c 2146     		mov	r1, r4
ARM GAS  /tmp/ccbWf67K.s 			page 6


 167 005e 3620     		movs	r0, #54
 168 0060 FFF7FEFF 		bl	HAL_NVIC_SetPriority
 169              	.LVL6:
 110:Src/stm32f4xx_hal_msp.c ****   /* USER CODE BEGIN DAC_MspInit 1 */
 170              		.loc 1 110 0
 171 0064 3620     		movs	r0, #54
 172 0066 FFF7FEFF 		bl	HAL_NVIC_EnableIRQ
 173              	.LVL7:
 174              		.loc 1 116 0
 175 006a D5E7     		b	.L5
 176              	.L10:
 177              		.align	2
 178              	.L9:
 179 006c 00740040 		.word	1073771520
 180 0070 00000240 		.word	1073872896
 181              		.cfi_endproc
 182              	.LFE131:
 184              		.section	.text.HAL_DAC_MspDeInit,"ax",%progbits
 185              		.align	1
 186              		.global	HAL_DAC_MspDeInit
 187              		.syntax unified
 188              		.thumb
 189              		.thumb_func
 190              		.fpu fpv4-sp-d16
 192              	HAL_DAC_MspDeInit:
 193              	.LFB132:
 117:Src/stm32f4xx_hal_msp.c **** 
 118:Src/stm32f4xx_hal_msp.c **** /**
 119:Src/stm32f4xx_hal_msp.c **** * @brief DAC MSP De-Initialization
 120:Src/stm32f4xx_hal_msp.c **** * This function freeze the hardware resources used in this example
 121:Src/stm32f4xx_hal_msp.c **** * @param hdac: DAC handle pointer
 122:Src/stm32f4xx_hal_msp.c **** * @retval None
 123:Src/stm32f4xx_hal_msp.c **** */
 124:Src/stm32f4xx_hal_msp.c **** void HAL_DAC_MspDeInit(DAC_HandleTypeDef* hdac)
 125:Src/stm32f4xx_hal_msp.c **** {
 194              		.loc 1 125 0
 195              		.cfi_startproc
 196              		@ args = 0, pretend = 0, frame = 0
 197              		@ frame_needed = 0, uses_anonymous_args = 0
 198              	.LVL8:
 199 0000 08B5     		push	{r3, lr}
 200              	.LCFI7:
 201              		.cfi_def_cfa_offset 8
 202              		.cfi_offset 3, -8
 203              		.cfi_offset 14, -4
 126:Src/stm32f4xx_hal_msp.c ****   if(hdac->Instance==DAC)
 204              		.loc 1 126 0
 205 0002 0268     		ldr	r2, [r0]
 206 0004 064B     		ldr	r3, .L15
 207 0006 9A42     		cmp	r2, r3
 208 0008 00D0     		beq	.L14
 209              	.LVL9:
 210              	.L11:
 211 000a 08BD     		pop	{r3, pc}
 212              	.LVL10:
 213              	.L14:
 127:Src/stm32f4xx_hal_msp.c ****   {
ARM GAS  /tmp/ccbWf67K.s 			page 7


 128:Src/stm32f4xx_hal_msp.c ****   /* USER CODE BEGIN DAC_MspDeInit 0 */
 129:Src/stm32f4xx_hal_msp.c **** 
 130:Src/stm32f4xx_hal_msp.c ****   /* USER CODE END DAC_MspDeInit 0 */
 131:Src/stm32f4xx_hal_msp.c ****     /* Peripheral clock disable */
 132:Src/stm32f4xx_hal_msp.c ****     __HAL_RCC_DAC_CLK_DISABLE();
 214              		.loc 1 132 0
 215 000c 054A     		ldr	r2, .L15+4
 216 000e 136C     		ldr	r3, [r2, #64]
 217 0010 23F00053 		bic	r3, r3, #536870912
 218 0014 1364     		str	r3, [r2, #64]
 133:Src/stm32f4xx_hal_msp.c ****   
 134:Src/stm32f4xx_hal_msp.c ****     /**DAC GPIO Configuration    
 135:Src/stm32f4xx_hal_msp.c ****     PA5     ------> DAC_OUT2 
 136:Src/stm32f4xx_hal_msp.c ****     */
 137:Src/stm32f4xx_hal_msp.c ****     HAL_GPIO_DeInit(GPIOA, GPIO_PIN_5);
 219              		.loc 1 137 0
 220 0016 2021     		movs	r1, #32
 221 0018 0348     		ldr	r0, .L15+8
 222              	.LVL11:
 223 001a FFF7FEFF 		bl	HAL_GPIO_DeInit
 224              	.LVL12:
 138:Src/stm32f4xx_hal_msp.c **** 
 139:Src/stm32f4xx_hal_msp.c ****     /* DAC interrupt DeInit */
 140:Src/stm32f4xx_hal_msp.c ****   /* USER CODE BEGIN DAC:TIM6_DAC_IRQn disable */
 141:Src/stm32f4xx_hal_msp.c ****     /**
 142:Src/stm32f4xx_hal_msp.c ****     * Uncomment the line below to disable the "TIM6_DAC_IRQn" interrupt
 143:Src/stm32f4xx_hal_msp.c ****     * Be aware, disabling shared interrupt may affect other IPs
 144:Src/stm32f4xx_hal_msp.c ****     */
 145:Src/stm32f4xx_hal_msp.c ****     /* HAL_NVIC_DisableIRQ(TIM6_DAC_IRQn); */
 146:Src/stm32f4xx_hal_msp.c ****   /* USER CODE END DAC:TIM6_DAC_IRQn disable */
 147:Src/stm32f4xx_hal_msp.c **** 
 148:Src/stm32f4xx_hal_msp.c ****   /* USER CODE BEGIN DAC_MspDeInit 1 */
 149:Src/stm32f4xx_hal_msp.c **** 
 150:Src/stm32f4xx_hal_msp.c ****   /* USER CODE END DAC_MspDeInit 1 */
 151:Src/stm32f4xx_hal_msp.c ****   }
 152:Src/stm32f4xx_hal_msp.c **** 
 153:Src/stm32f4xx_hal_msp.c **** }
 225              		.loc 1 153 0
 226 001e F4E7     		b	.L11
 227              	.L16:
 228              		.align	2
 229              	.L15:
 230 0020 00740040 		.word	1073771520
 231 0024 00380240 		.word	1073887232
 232 0028 00000240 		.word	1073872896
 233              		.cfi_endproc
 234              	.LFE132:
 236              		.section	.text.HAL_SPI_MspInit,"ax",%progbits
 237              		.align	1
 238              		.global	HAL_SPI_MspInit
 239              		.syntax unified
 240              		.thumb
 241              		.thumb_func
 242              		.fpu fpv4-sp-d16
 244              	HAL_SPI_MspInit:
 245              	.LFB133:
 154:Src/stm32f4xx_hal_msp.c **** 
ARM GAS  /tmp/ccbWf67K.s 			page 8


 155:Src/stm32f4xx_hal_msp.c **** /**
 156:Src/stm32f4xx_hal_msp.c **** * @brief SPI MSP Initialization
 157:Src/stm32f4xx_hal_msp.c **** * This function configures the hardware resources used in this example
 158:Src/stm32f4xx_hal_msp.c **** * @param hspi: SPI handle pointer
 159:Src/stm32f4xx_hal_msp.c **** * @retval None
 160:Src/stm32f4xx_hal_msp.c **** */
 161:Src/stm32f4xx_hal_msp.c **** void HAL_SPI_MspInit(SPI_HandleTypeDef* hspi)
 162:Src/stm32f4xx_hal_msp.c **** {
 246              		.loc 1 162 0
 247              		.cfi_startproc
 248              		@ args = 0, pretend = 0, frame = 32
 249              		@ frame_needed = 0, uses_anonymous_args = 0
 250              	.LVL13:
 251 0000 F0B5     		push	{r4, r5, r6, r7, lr}
 252              	.LCFI8:
 253              		.cfi_def_cfa_offset 20
 254              		.cfi_offset 4, -20
 255              		.cfi_offset 5, -16
 256              		.cfi_offset 6, -12
 257              		.cfi_offset 7, -8
 258              		.cfi_offset 14, -4
 259 0002 89B0     		sub	sp, sp, #36
 260              	.LCFI9:
 261              		.cfi_def_cfa_offset 56
 163:Src/stm32f4xx_hal_msp.c ****   GPIO_InitTypeDef GPIO_InitStruct = {0};
 262              		.loc 1 163 0
 263 0004 0023     		movs	r3, #0
 264 0006 0393     		str	r3, [sp, #12]
 265 0008 0493     		str	r3, [sp, #16]
 266 000a 0593     		str	r3, [sp, #20]
 267 000c 0693     		str	r3, [sp, #24]
 268 000e 0793     		str	r3, [sp, #28]
 164:Src/stm32f4xx_hal_msp.c ****   if(hspi->Instance==SPI5)
 269              		.loc 1 164 0
 270 0010 0268     		ldr	r2, [r0]
 271 0012 1E4B     		ldr	r3, .L21
 272 0014 9A42     		cmp	r2, r3
 273 0016 01D0     		beq	.L20
 274              	.LVL14:
 275              	.L17:
 165:Src/stm32f4xx_hal_msp.c ****   {
 166:Src/stm32f4xx_hal_msp.c ****   /* USER CODE BEGIN SPI5_MspInit 0 */
 167:Src/stm32f4xx_hal_msp.c **** 
 168:Src/stm32f4xx_hal_msp.c ****   /* USER CODE END SPI5_MspInit 0 */
 169:Src/stm32f4xx_hal_msp.c ****     /* Peripheral clock enable */
 170:Src/stm32f4xx_hal_msp.c ****     __HAL_RCC_SPI5_CLK_ENABLE();
 171:Src/stm32f4xx_hal_msp.c ****   
 172:Src/stm32f4xx_hal_msp.c ****     __HAL_RCC_GPIOF_CLK_ENABLE();
 173:Src/stm32f4xx_hal_msp.c ****     /**SPI5 GPIO Configuration    
 174:Src/stm32f4xx_hal_msp.c ****     PF6     ------> SPI5_NSS
 175:Src/stm32f4xx_hal_msp.c ****     PF7     ------> SPI5_SCK
 176:Src/stm32f4xx_hal_msp.c ****     PF8     ------> SPI5_MISO
 177:Src/stm32f4xx_hal_msp.c ****     PF9     ------> SPI5_MOSI 
 178:Src/stm32f4xx_hal_msp.c ****     */
 179:Src/stm32f4xx_hal_msp.c ****     GPIO_InitStruct.Pin = GPIO_PIN_6;
 180:Src/stm32f4xx_hal_msp.c ****     GPIO_InitStruct.Mode = GPIO_MODE_AF_PP;
 181:Src/stm32f4xx_hal_msp.c ****     GPIO_InitStruct.Pull = GPIO_NOPULL;
ARM GAS  /tmp/ccbWf67K.s 			page 9


 182:Src/stm32f4xx_hal_msp.c ****     GPIO_InitStruct.Speed = GPIO_SPEED_FREQ_VERY_HIGH;
 183:Src/stm32f4xx_hal_msp.c ****     GPIO_InitStruct.Alternate = GPIO_AF5_SPI5;
 184:Src/stm32f4xx_hal_msp.c ****     HAL_GPIO_Init(GPIOF, &GPIO_InitStruct);
 185:Src/stm32f4xx_hal_msp.c **** 
 186:Src/stm32f4xx_hal_msp.c ****     GPIO_InitStruct.Pin = SPI5_SCK_Pin|SPI5_MISO_Pin|SPI5_MOSI_Pin;
 187:Src/stm32f4xx_hal_msp.c ****     GPIO_InitStruct.Mode = GPIO_MODE_AF_PP;
 188:Src/stm32f4xx_hal_msp.c ****     GPIO_InitStruct.Pull = GPIO_NOPULL;
 189:Src/stm32f4xx_hal_msp.c ****     GPIO_InitStruct.Speed = GPIO_SPEED_FREQ_LOW;
 190:Src/stm32f4xx_hal_msp.c ****     GPIO_InitStruct.Alternate = GPIO_AF5_SPI5;
 191:Src/stm32f4xx_hal_msp.c ****     HAL_GPIO_Init(GPIOF, &GPIO_InitStruct);
 192:Src/stm32f4xx_hal_msp.c **** 
 193:Src/stm32f4xx_hal_msp.c ****     /* SPI5 interrupt Init */
 194:Src/stm32f4xx_hal_msp.c ****     HAL_NVIC_SetPriority(SPI5_IRQn, 0, 0);
 195:Src/stm32f4xx_hal_msp.c ****     HAL_NVIC_EnableIRQ(SPI5_IRQn);
 196:Src/stm32f4xx_hal_msp.c ****   /* USER CODE BEGIN SPI5_MspInit 1 */
 197:Src/stm32f4xx_hal_msp.c **** 
 198:Src/stm32f4xx_hal_msp.c ****   /* USER CODE END SPI5_MspInit 1 */
 199:Src/stm32f4xx_hal_msp.c ****   }
 200:Src/stm32f4xx_hal_msp.c **** 
 201:Src/stm32f4xx_hal_msp.c **** }
 276              		.loc 1 201 0
 277 0018 09B0     		add	sp, sp, #36
 278              	.LCFI10:
 279              		.cfi_remember_state
 280              		.cfi_def_cfa_offset 20
 281              		@ sp needed
 282 001a F0BD     		pop	{r4, r5, r6, r7, pc}
 283              	.LVL15:
 284              	.L20:
 285              	.LCFI11:
 286              		.cfi_restore_state
 287              	.LBB6:
 170:Src/stm32f4xx_hal_msp.c ****   
 288              		.loc 1 170 0
 289 001c 0024     		movs	r4, #0
 290 001e 0194     		str	r4, [sp, #4]
 291 0020 03F56843 		add	r3, r3, #59392
 292 0024 5A6C     		ldr	r2, [r3, #68]
 293 0026 42F48012 		orr	r2, r2, #1048576
 294 002a 5A64     		str	r2, [r3, #68]
 295 002c 5A6C     		ldr	r2, [r3, #68]
 296 002e 02F48012 		and	r2, r2, #1048576
 297 0032 0192     		str	r2, [sp, #4]
 298 0034 019A     		ldr	r2, [sp, #4]
 299              	.LBE6:
 300              	.LBB7:
 172:Src/stm32f4xx_hal_msp.c ****     /**SPI5 GPIO Configuration    
 301              		.loc 1 172 0
 302 0036 0294     		str	r4, [sp, #8]
 303 0038 1A6B     		ldr	r2, [r3, #48]
 304 003a 42F02002 		orr	r2, r2, #32
 305 003e 1A63     		str	r2, [r3, #48]
 306 0040 1B6B     		ldr	r3, [r3, #48]
 307 0042 03F02003 		and	r3, r3, #32
 308 0046 0293     		str	r3, [sp, #8]
 309 0048 029B     		ldr	r3, [sp, #8]
 310              	.LBE7:
ARM GAS  /tmp/ccbWf67K.s 			page 10


 179:Src/stm32f4xx_hal_msp.c ****     GPIO_InitStruct.Mode = GPIO_MODE_AF_PP;
 311              		.loc 1 179 0
 312 004a 4023     		movs	r3, #64
 313 004c 0393     		str	r3, [sp, #12]
 180:Src/stm32f4xx_hal_msp.c ****     GPIO_InitStruct.Pull = GPIO_NOPULL;
 314              		.loc 1 180 0
 315 004e 0227     		movs	r7, #2
 316 0050 0497     		str	r7, [sp, #16]
 182:Src/stm32f4xx_hal_msp.c ****     GPIO_InitStruct.Alternate = GPIO_AF5_SPI5;
 317              		.loc 1 182 0
 318 0052 0323     		movs	r3, #3
 319 0054 0693     		str	r3, [sp, #24]
 183:Src/stm32f4xx_hal_msp.c ****     HAL_GPIO_Init(GPIOF, &GPIO_InitStruct);
 320              		.loc 1 183 0
 321 0056 0526     		movs	r6, #5
 322 0058 0796     		str	r6, [sp, #28]
 184:Src/stm32f4xx_hal_msp.c **** 
 323              		.loc 1 184 0
 324 005a 0D4D     		ldr	r5, .L21+4
 325 005c 03A9     		add	r1, sp, #12
 326 005e 2846     		mov	r0, r5
 327              	.LVL16:
 328 0060 FFF7FEFF 		bl	HAL_GPIO_Init
 329              	.LVL17:
 186:Src/stm32f4xx_hal_msp.c ****     GPIO_InitStruct.Mode = GPIO_MODE_AF_PP;
 330              		.loc 1 186 0
 331 0064 4FF46073 		mov	r3, #896
 332 0068 0393     		str	r3, [sp, #12]
 187:Src/stm32f4xx_hal_msp.c ****     GPIO_InitStruct.Pull = GPIO_NOPULL;
 333              		.loc 1 187 0
 334 006a 0497     		str	r7, [sp, #16]
 188:Src/stm32f4xx_hal_msp.c ****     GPIO_InitStruct.Speed = GPIO_SPEED_FREQ_LOW;
 335              		.loc 1 188 0
 336 006c 0594     		str	r4, [sp, #20]
 189:Src/stm32f4xx_hal_msp.c ****     GPIO_InitStruct.Alternate = GPIO_AF5_SPI5;
 337              		.loc 1 189 0
 338 006e 0694     		str	r4, [sp, #24]
 190:Src/stm32f4xx_hal_msp.c ****     HAL_GPIO_Init(GPIOF, &GPIO_InitStruct);
 339              		.loc 1 190 0
 340 0070 0796     		str	r6, [sp, #28]
 191:Src/stm32f4xx_hal_msp.c **** 
 341              		.loc 1 191 0
 342 0072 03A9     		add	r1, sp, #12
 343 0074 2846     		mov	r0, r5
 344 0076 FFF7FEFF 		bl	HAL_GPIO_Init
 345              	.LVL18:
 194:Src/stm32f4xx_hal_msp.c ****     HAL_NVIC_EnableIRQ(SPI5_IRQn);
 346              		.loc 1 194 0
 347 007a 2246     		mov	r2, r4
 348 007c 2146     		mov	r1, r4
 349 007e 5520     		movs	r0, #85
 350 0080 FFF7FEFF 		bl	HAL_NVIC_SetPriority
 351              	.LVL19:
 195:Src/stm32f4xx_hal_msp.c ****   /* USER CODE BEGIN SPI5_MspInit 1 */
 352              		.loc 1 195 0
 353 0084 5520     		movs	r0, #85
 354 0086 FFF7FEFF 		bl	HAL_NVIC_EnableIRQ
ARM GAS  /tmp/ccbWf67K.s 			page 11


 355              	.LVL20:
 356              		.loc 1 201 0
 357 008a C5E7     		b	.L17
 358              	.L22:
 359              		.align	2
 360              	.L21:
 361 008c 00500140 		.word	1073827840
 362 0090 00140240 		.word	1073878016
 363              		.cfi_endproc
 364              	.LFE133:
 366              		.section	.text.HAL_SPI_MspDeInit,"ax",%progbits
 367              		.align	1
 368              		.global	HAL_SPI_MspDeInit
 369              		.syntax unified
 370              		.thumb
 371              		.thumb_func
 372              		.fpu fpv4-sp-d16
 374              	HAL_SPI_MspDeInit:
 375              	.LFB134:
 202:Src/stm32f4xx_hal_msp.c **** 
 203:Src/stm32f4xx_hal_msp.c **** /**
 204:Src/stm32f4xx_hal_msp.c **** * @brief SPI MSP De-Initialization
 205:Src/stm32f4xx_hal_msp.c **** * This function freeze the hardware resources used in this example
 206:Src/stm32f4xx_hal_msp.c **** * @param hspi: SPI handle pointer
 207:Src/stm32f4xx_hal_msp.c **** * @retval None
 208:Src/stm32f4xx_hal_msp.c **** */
 209:Src/stm32f4xx_hal_msp.c **** void HAL_SPI_MspDeInit(SPI_HandleTypeDef* hspi)
 210:Src/stm32f4xx_hal_msp.c **** {
 376              		.loc 1 210 0
 377              		.cfi_startproc
 378              		@ args = 0, pretend = 0, frame = 0
 379              		@ frame_needed = 0, uses_anonymous_args = 0
 380              	.LVL21:
 381 0000 08B5     		push	{r3, lr}
 382              	.LCFI12:
 383              		.cfi_def_cfa_offset 8
 384              		.cfi_offset 3, -8
 385              		.cfi_offset 14, -4
 211:Src/stm32f4xx_hal_msp.c ****   if(hspi->Instance==SPI5)
 386              		.loc 1 211 0
 387 0002 0268     		ldr	r2, [r0]
 388 0004 084B     		ldr	r3, .L27
 389 0006 9A42     		cmp	r2, r3
 390 0008 00D0     		beq	.L26
 391              	.LVL22:
 392              	.L23:
 393 000a 08BD     		pop	{r3, pc}
 394              	.LVL23:
 395              	.L26:
 212:Src/stm32f4xx_hal_msp.c ****   {
 213:Src/stm32f4xx_hal_msp.c ****   /* USER CODE BEGIN SPI5_MspDeInit 0 */
 214:Src/stm32f4xx_hal_msp.c **** 
 215:Src/stm32f4xx_hal_msp.c ****   /* USER CODE END SPI5_MspDeInit 0 */
 216:Src/stm32f4xx_hal_msp.c ****     /* Peripheral clock disable */
 217:Src/stm32f4xx_hal_msp.c ****     __HAL_RCC_SPI5_CLK_DISABLE();
 396              		.loc 1 217 0
 397 000c 074A     		ldr	r2, .L27+4
ARM GAS  /tmp/ccbWf67K.s 			page 12


 398 000e 536C     		ldr	r3, [r2, #68]
 399 0010 23F48013 		bic	r3, r3, #1048576
 400 0014 5364     		str	r3, [r2, #68]
 218:Src/stm32f4xx_hal_msp.c ****   
 219:Src/stm32f4xx_hal_msp.c ****     /**SPI5 GPIO Configuration    
 220:Src/stm32f4xx_hal_msp.c ****     PF6     ------> SPI5_NSS
 221:Src/stm32f4xx_hal_msp.c ****     PF7     ------> SPI5_SCK
 222:Src/stm32f4xx_hal_msp.c ****     PF8     ------> SPI5_MISO
 223:Src/stm32f4xx_hal_msp.c ****     PF9     ------> SPI5_MOSI 
 224:Src/stm32f4xx_hal_msp.c ****     */
 225:Src/stm32f4xx_hal_msp.c ****     HAL_GPIO_DeInit(GPIOF, GPIO_PIN_6|SPI5_SCK_Pin|SPI5_MISO_Pin|SPI5_MOSI_Pin);
 401              		.loc 1 225 0
 402 0016 4FF47071 		mov	r1, #960
 403 001a 0548     		ldr	r0, .L27+8
 404              	.LVL24:
 405 001c FFF7FEFF 		bl	HAL_GPIO_DeInit
 406              	.LVL25:
 226:Src/stm32f4xx_hal_msp.c **** 
 227:Src/stm32f4xx_hal_msp.c ****     /* SPI5 interrupt DeInit */
 228:Src/stm32f4xx_hal_msp.c ****     HAL_NVIC_DisableIRQ(SPI5_IRQn);
 407              		.loc 1 228 0
 408 0020 5520     		movs	r0, #85
 409 0022 FFF7FEFF 		bl	HAL_NVIC_DisableIRQ
 410              	.LVL26:
 229:Src/stm32f4xx_hal_msp.c ****   /* USER CODE BEGIN SPI5_MspDeInit 1 */
 230:Src/stm32f4xx_hal_msp.c **** 
 231:Src/stm32f4xx_hal_msp.c ****   /* USER CODE END SPI5_MspDeInit 1 */
 232:Src/stm32f4xx_hal_msp.c ****   }
 233:Src/stm32f4xx_hal_msp.c **** 
 234:Src/stm32f4xx_hal_msp.c **** }
 411              		.loc 1 234 0
 412 0026 F0E7     		b	.L23
 413              	.L28:
 414              		.align	2
 415              	.L27:
 416 0028 00500140 		.word	1073827840
 417 002c 00380240 		.word	1073887232
 418 0030 00140240 		.word	1073878016
 419              		.cfi_endproc
 420              	.LFE134:
 422              		.section	.text.HAL_TIM_Base_MspInit,"ax",%progbits
 423              		.align	1
 424              		.global	HAL_TIM_Base_MspInit
 425              		.syntax unified
 426              		.thumb
 427              		.thumb_func
 428              		.fpu fpv4-sp-d16
 430              	HAL_TIM_Base_MspInit:
 431              	.LFB135:
 235:Src/stm32f4xx_hal_msp.c **** 
 236:Src/stm32f4xx_hal_msp.c **** /**
 237:Src/stm32f4xx_hal_msp.c **** * @brief TIM_Base MSP Initialization
 238:Src/stm32f4xx_hal_msp.c **** * This function configures the hardware resources used in this example
 239:Src/stm32f4xx_hal_msp.c **** * @param htim_base: TIM_Base handle pointer
 240:Src/stm32f4xx_hal_msp.c **** * @retval None
 241:Src/stm32f4xx_hal_msp.c **** */
 242:Src/stm32f4xx_hal_msp.c **** void HAL_TIM_Base_MspInit(TIM_HandleTypeDef* htim_base)
ARM GAS  /tmp/ccbWf67K.s 			page 13


 243:Src/stm32f4xx_hal_msp.c **** {
 432              		.loc 1 243 0
 433              		.cfi_startproc
 434              		@ args = 0, pretend = 0, frame = 8
 435              		@ frame_needed = 0, uses_anonymous_args = 0
 436              	.LVL27:
 437 0000 00B5     		push	{lr}
 438              	.LCFI13:
 439              		.cfi_def_cfa_offset 4
 440              		.cfi_offset 14, -4
 441 0002 83B0     		sub	sp, sp, #12
 442              	.LCFI14:
 443              		.cfi_def_cfa_offset 16
 244:Src/stm32f4xx_hal_msp.c ****   if(htim_base->Instance==TIM6)
 444              		.loc 1 244 0
 445 0004 0368     		ldr	r3, [r0]
 446 0006 184A     		ldr	r2, .L35
 447 0008 9342     		cmp	r3, r2
 448 000a 05D0     		beq	.L33
 245:Src/stm32f4xx_hal_msp.c ****   {
 246:Src/stm32f4xx_hal_msp.c ****   /* USER CODE BEGIN TIM6_MspInit 0 */
 247:Src/stm32f4xx_hal_msp.c **** 
 248:Src/stm32f4xx_hal_msp.c ****   /* USER CODE END TIM6_MspInit 0 */
 249:Src/stm32f4xx_hal_msp.c ****     /* Peripheral clock enable */
 250:Src/stm32f4xx_hal_msp.c ****     __HAL_RCC_TIM6_CLK_ENABLE();
 251:Src/stm32f4xx_hal_msp.c ****     /* TIM6 interrupt Init */
 252:Src/stm32f4xx_hal_msp.c ****     HAL_NVIC_SetPriority(TIM6_DAC_IRQn, 0, 0);
 253:Src/stm32f4xx_hal_msp.c ****     HAL_NVIC_EnableIRQ(TIM6_DAC_IRQn);
 254:Src/stm32f4xx_hal_msp.c ****   /* USER CODE BEGIN TIM6_MspInit 1 */
 255:Src/stm32f4xx_hal_msp.c **** 
 256:Src/stm32f4xx_hal_msp.c ****   /* USER CODE END TIM6_MspInit 1 */
 257:Src/stm32f4xx_hal_msp.c ****   }
 258:Src/stm32f4xx_hal_msp.c ****   else if(htim_base->Instance==TIM7)
 449              		.loc 1 258 0
 450 000c 174A     		ldr	r2, .L35+4
 451 000e 9342     		cmp	r3, r2
 452 0010 16D0     		beq	.L34
 453              	.LVL28:
 454              	.L29:
 259:Src/stm32f4xx_hal_msp.c ****   {
 260:Src/stm32f4xx_hal_msp.c ****   /* USER CODE BEGIN TIM7_MspInit 0 */
 261:Src/stm32f4xx_hal_msp.c **** 
 262:Src/stm32f4xx_hal_msp.c ****   /* USER CODE END TIM7_MspInit 0 */
 263:Src/stm32f4xx_hal_msp.c ****     /* Peripheral clock enable */
 264:Src/stm32f4xx_hal_msp.c ****     __HAL_RCC_TIM7_CLK_ENABLE();
 265:Src/stm32f4xx_hal_msp.c ****     /* TIM7 interrupt Init */
 266:Src/stm32f4xx_hal_msp.c ****     HAL_NVIC_SetPriority(TIM7_IRQn, 0, 0);
 267:Src/stm32f4xx_hal_msp.c ****     HAL_NVIC_EnableIRQ(TIM7_IRQn);
 268:Src/stm32f4xx_hal_msp.c ****   /* USER CODE BEGIN TIM7_MspInit 1 */
 269:Src/stm32f4xx_hal_msp.c **** 
 270:Src/stm32f4xx_hal_msp.c ****   /* USER CODE END TIM7_MspInit 1 */
 271:Src/stm32f4xx_hal_msp.c ****   }
 272:Src/stm32f4xx_hal_msp.c **** 
 273:Src/stm32f4xx_hal_msp.c **** }
 455              		.loc 1 273 0
 456 0012 03B0     		add	sp, sp, #12
 457              	.LCFI15:
ARM GAS  /tmp/ccbWf67K.s 			page 14


 458              		.cfi_remember_state
 459              		.cfi_def_cfa_offset 4
 460              		@ sp needed
 461 0014 5DF804FB 		ldr	pc, [sp], #4
 462              	.LVL29:
 463              	.L33:
 464              	.LCFI16:
 465              		.cfi_restore_state
 466              	.LBB8:
 250:Src/stm32f4xx_hal_msp.c ****     /* TIM6 interrupt Init */
 467              		.loc 1 250 0
 468 0018 0021     		movs	r1, #0
 469 001a 0091     		str	r1, [sp]
 470 001c 144B     		ldr	r3, .L35+8
 471 001e 1A6C     		ldr	r2, [r3, #64]
 472 0020 42F01002 		orr	r2, r2, #16
 473 0024 1A64     		str	r2, [r3, #64]
 474 0026 1B6C     		ldr	r3, [r3, #64]
 475 0028 03F01003 		and	r3, r3, #16
 476 002c 0093     		str	r3, [sp]
 477 002e 009B     		ldr	r3, [sp]
 478              	.LBE8:
 252:Src/stm32f4xx_hal_msp.c ****     HAL_NVIC_EnableIRQ(TIM6_DAC_IRQn);
 479              		.loc 1 252 0
 480 0030 0A46     		mov	r2, r1
 481 0032 3620     		movs	r0, #54
 482              	.LVL30:
 483 0034 FFF7FEFF 		bl	HAL_NVIC_SetPriority
 484              	.LVL31:
 253:Src/stm32f4xx_hal_msp.c ****   /* USER CODE BEGIN TIM6_MspInit 1 */
 485              		.loc 1 253 0
 486 0038 3620     		movs	r0, #54
 487 003a FFF7FEFF 		bl	HAL_NVIC_EnableIRQ
 488              	.LVL32:
 489 003e E8E7     		b	.L29
 490              	.LVL33:
 491              	.L34:
 492              	.LBB9:
 264:Src/stm32f4xx_hal_msp.c ****     /* TIM7 interrupt Init */
 493              		.loc 1 264 0
 494 0040 0021     		movs	r1, #0
 495 0042 0191     		str	r1, [sp, #4]
 496 0044 0A4B     		ldr	r3, .L35+8
 497 0046 1A6C     		ldr	r2, [r3, #64]
 498 0048 42F02002 		orr	r2, r2, #32
 499 004c 1A64     		str	r2, [r3, #64]
 500 004e 1B6C     		ldr	r3, [r3, #64]
 501 0050 03F02003 		and	r3, r3, #32
 502 0054 0193     		str	r3, [sp, #4]
 503 0056 019B     		ldr	r3, [sp, #4]
 504              	.LBE9:
 266:Src/stm32f4xx_hal_msp.c ****     HAL_NVIC_EnableIRQ(TIM7_IRQn);
 505              		.loc 1 266 0
 506 0058 0A46     		mov	r2, r1
 507 005a 3720     		movs	r0, #55
 508              	.LVL34:
 509 005c FFF7FEFF 		bl	HAL_NVIC_SetPriority
ARM GAS  /tmp/ccbWf67K.s 			page 15


 510              	.LVL35:
 267:Src/stm32f4xx_hal_msp.c ****   /* USER CODE BEGIN TIM7_MspInit 1 */
 511              		.loc 1 267 0
 512 0060 3720     		movs	r0, #55
 513 0062 FFF7FEFF 		bl	HAL_NVIC_EnableIRQ
 514              	.LVL36:
 515              		.loc 1 273 0
 516 0066 D4E7     		b	.L29
 517              	.L36:
 518              		.align	2
 519              	.L35:
 520 0068 00100040 		.word	1073745920
 521 006c 00140040 		.word	1073746944
 522 0070 00380240 		.word	1073887232
 523              		.cfi_endproc
 524              	.LFE135:
 526              		.section	.text.HAL_TIM_Base_MspDeInit,"ax",%progbits
 527              		.align	1
 528              		.global	HAL_TIM_Base_MspDeInit
 529              		.syntax unified
 530              		.thumb
 531              		.thumb_func
 532              		.fpu fpv4-sp-d16
 534              	HAL_TIM_Base_MspDeInit:
 535              	.LFB136:
 274:Src/stm32f4xx_hal_msp.c **** 
 275:Src/stm32f4xx_hal_msp.c **** /**
 276:Src/stm32f4xx_hal_msp.c **** * @brief TIM_Base MSP De-Initialization
 277:Src/stm32f4xx_hal_msp.c **** * This function freeze the hardware resources used in this example
 278:Src/stm32f4xx_hal_msp.c **** * @param htim_base: TIM_Base handle pointer
 279:Src/stm32f4xx_hal_msp.c **** * @retval None
 280:Src/stm32f4xx_hal_msp.c **** */
 281:Src/stm32f4xx_hal_msp.c **** void HAL_TIM_Base_MspDeInit(TIM_HandleTypeDef* htim_base)
 282:Src/stm32f4xx_hal_msp.c **** {
 536              		.loc 1 282 0
 537              		.cfi_startproc
 538              		@ args = 0, pretend = 0, frame = 0
 539              		@ frame_needed = 0, uses_anonymous_args = 0
 540              	.LVL37:
 541 0000 08B5     		push	{r3, lr}
 542              	.LCFI17:
 543              		.cfi_def_cfa_offset 8
 544              		.cfi_offset 3, -8
 545              		.cfi_offset 14, -4
 283:Src/stm32f4xx_hal_msp.c ****   if(htim_base->Instance==TIM6)
 546              		.loc 1 283 0
 547 0002 0368     		ldr	r3, [r0]
 548 0004 0B4A     		ldr	r2, .L43
 549 0006 9342     		cmp	r3, r2
 550 0008 03D0     		beq	.L41
 284:Src/stm32f4xx_hal_msp.c ****   {
 285:Src/stm32f4xx_hal_msp.c ****   /* USER CODE BEGIN TIM6_MspDeInit 0 */
 286:Src/stm32f4xx_hal_msp.c **** 
 287:Src/stm32f4xx_hal_msp.c ****   /* USER CODE END TIM6_MspDeInit 0 */
 288:Src/stm32f4xx_hal_msp.c ****     /* Peripheral clock disable */
 289:Src/stm32f4xx_hal_msp.c ****     __HAL_RCC_TIM6_CLK_DISABLE();
 290:Src/stm32f4xx_hal_msp.c **** 
ARM GAS  /tmp/ccbWf67K.s 			page 16


 291:Src/stm32f4xx_hal_msp.c ****     /* TIM6 interrupt DeInit */
 292:Src/stm32f4xx_hal_msp.c ****   /* USER CODE BEGIN TIM6:TIM6_DAC_IRQn disable */
 293:Src/stm32f4xx_hal_msp.c ****     /**
 294:Src/stm32f4xx_hal_msp.c ****     * Uncomment the line below to disable the "TIM6_DAC_IRQn" interrupt
 295:Src/stm32f4xx_hal_msp.c ****     * Be aware, disabling shared interrupt may affect other IPs
 296:Src/stm32f4xx_hal_msp.c ****     */
 297:Src/stm32f4xx_hal_msp.c ****     /* HAL_NVIC_DisableIRQ(TIM6_DAC_IRQn); */
 298:Src/stm32f4xx_hal_msp.c ****   /* USER CODE END TIM6:TIM6_DAC_IRQn disable */
 299:Src/stm32f4xx_hal_msp.c **** 
 300:Src/stm32f4xx_hal_msp.c ****   /* USER CODE BEGIN TIM6_MspDeInit 1 */
 301:Src/stm32f4xx_hal_msp.c **** 
 302:Src/stm32f4xx_hal_msp.c ****   /* USER CODE END TIM6_MspDeInit 1 */
 303:Src/stm32f4xx_hal_msp.c ****   }
 304:Src/stm32f4xx_hal_msp.c ****   else if(htim_base->Instance==TIM7)
 551              		.loc 1 304 0
 552 000a 0B4A     		ldr	r2, .L43+4
 553 000c 9342     		cmp	r3, r2
 554 000e 07D0     		beq	.L42
 555              	.LVL38:
 556              	.L37:
 557 0010 08BD     		pop	{r3, pc}
 558              	.LVL39:
 559              	.L41:
 289:Src/stm32f4xx_hal_msp.c **** 
 560              		.loc 1 289 0
 561 0012 02F50A32 		add	r2, r2, #141312
 562 0016 136C     		ldr	r3, [r2, #64]
 563 0018 23F01003 		bic	r3, r3, #16
 564 001c 1364     		str	r3, [r2, #64]
 565 001e 08BD     		pop	{r3, pc}
 566              	.L42:
 305:Src/stm32f4xx_hal_msp.c ****   {
 306:Src/stm32f4xx_hal_msp.c ****   /* USER CODE BEGIN TIM7_MspDeInit 0 */
 307:Src/stm32f4xx_hal_msp.c **** 
 308:Src/stm32f4xx_hal_msp.c ****   /* USER CODE END TIM7_MspDeInit 0 */
 309:Src/stm32f4xx_hal_msp.c ****     /* Peripheral clock disable */
 310:Src/stm32f4xx_hal_msp.c ****     __HAL_RCC_TIM7_CLK_DISABLE();
 567              		.loc 1 310 0
 568 0020 02F50932 		add	r2, r2, #140288
 569 0024 136C     		ldr	r3, [r2, #64]
 570 0026 23F02003 		bic	r3, r3, #32
 571 002a 1364     		str	r3, [r2, #64]
 311:Src/stm32f4xx_hal_msp.c **** 
 312:Src/stm32f4xx_hal_msp.c ****     /* TIM7 interrupt DeInit */
 313:Src/stm32f4xx_hal_msp.c ****     HAL_NVIC_DisableIRQ(TIM7_IRQn);
 572              		.loc 1 313 0
 573 002c 3720     		movs	r0, #55
 574              	.LVL40:
 575 002e FFF7FEFF 		bl	HAL_NVIC_DisableIRQ
 576              	.LVL41:
 314:Src/stm32f4xx_hal_msp.c ****   /* USER CODE BEGIN TIM7_MspDeInit 1 */
 315:Src/stm32f4xx_hal_msp.c **** 
 316:Src/stm32f4xx_hal_msp.c ****   /* USER CODE END TIM7_MspDeInit 1 */
 317:Src/stm32f4xx_hal_msp.c ****   }
 318:Src/stm32f4xx_hal_msp.c **** 
 319:Src/stm32f4xx_hal_msp.c **** }
 577              		.loc 1 319 0
ARM GAS  /tmp/ccbWf67K.s 			page 17


 578 0032 EDE7     		b	.L37
 579              	.L44:
 580              		.align	2
 581              	.L43:
 582 0034 00100040 		.word	1073745920
 583 0038 00140040 		.word	1073746944
 584              		.cfi_endproc
 585              	.LFE136:
 587              		.section	.text.HAL_UART_MspInit,"ax",%progbits
 588              		.align	1
 589              		.global	HAL_UART_MspInit
 590              		.syntax unified
 591              		.thumb
 592              		.thumb_func
 593              		.fpu fpv4-sp-d16
 595              	HAL_UART_MspInit:
 596              	.LFB137:
 320:Src/stm32f4xx_hal_msp.c **** 
 321:Src/stm32f4xx_hal_msp.c **** /**
 322:Src/stm32f4xx_hal_msp.c **** * @brief UART MSP Initialization
 323:Src/stm32f4xx_hal_msp.c **** * This function configures the hardware resources used in this example
 324:Src/stm32f4xx_hal_msp.c **** * @param huart: UART handle pointer
 325:Src/stm32f4xx_hal_msp.c **** * @retval None
 326:Src/stm32f4xx_hal_msp.c **** */
 327:Src/stm32f4xx_hal_msp.c **** void HAL_UART_MspInit(UART_HandleTypeDef* huart)
 328:Src/stm32f4xx_hal_msp.c **** {
 597              		.loc 1 328 0
 598              		.cfi_startproc
 599              		@ args = 0, pretend = 0, frame = 32
 600              		@ frame_needed = 0, uses_anonymous_args = 0
 601              	.LVL42:
 602 0000 00B5     		push	{lr}
 603              	.LCFI18:
 604              		.cfi_def_cfa_offset 4
 605              		.cfi_offset 14, -4
 606 0002 89B0     		sub	sp, sp, #36
 607              	.LCFI19:
 608              		.cfi_def_cfa_offset 40
 329:Src/stm32f4xx_hal_msp.c ****   GPIO_InitTypeDef GPIO_InitStruct = {0};
 609              		.loc 1 329 0
 610 0004 0023     		movs	r3, #0
 611 0006 0393     		str	r3, [sp, #12]
 612 0008 0493     		str	r3, [sp, #16]
 613 000a 0593     		str	r3, [sp, #20]
 614 000c 0693     		str	r3, [sp, #24]
 615 000e 0793     		str	r3, [sp, #28]
 330:Src/stm32f4xx_hal_msp.c ****   if(huart->Instance==USART1)
 616              		.loc 1 330 0
 617 0010 0268     		ldr	r2, [r0]
 618 0012 03F18043 		add	r3, r3, #1073741824
 619 0016 03F58833 		add	r3, r3, #69632
 620 001a 9A42     		cmp	r2, r3
 621 001c 02D0     		beq	.L48
 622              	.LVL43:
 623              	.L45:
 331:Src/stm32f4xx_hal_msp.c ****   {
 332:Src/stm32f4xx_hal_msp.c ****   /* USER CODE BEGIN USART1_MspInit 0 */
ARM GAS  /tmp/ccbWf67K.s 			page 18


 333:Src/stm32f4xx_hal_msp.c **** 
 334:Src/stm32f4xx_hal_msp.c ****   /* USER CODE END USART1_MspInit 0 */
 335:Src/stm32f4xx_hal_msp.c ****     /* Peripheral clock enable */
 336:Src/stm32f4xx_hal_msp.c ****     __HAL_RCC_USART1_CLK_ENABLE();
 337:Src/stm32f4xx_hal_msp.c ****   
 338:Src/stm32f4xx_hal_msp.c ****     __HAL_RCC_GPIOA_CLK_ENABLE();
 339:Src/stm32f4xx_hal_msp.c ****     /**USART1 GPIO Configuration    
 340:Src/stm32f4xx_hal_msp.c ****     PA9     ------> USART1_TX
 341:Src/stm32f4xx_hal_msp.c ****     PA10     ------> USART1_RX 
 342:Src/stm32f4xx_hal_msp.c ****     */
 343:Src/stm32f4xx_hal_msp.c ****     GPIO_InitStruct.Pin = STLINK_RX_Pin|STLINK_TX_Pin;
 344:Src/stm32f4xx_hal_msp.c ****     GPIO_InitStruct.Mode = GPIO_MODE_AF_PP;
 345:Src/stm32f4xx_hal_msp.c ****     GPIO_InitStruct.Pull = GPIO_PULLUP;
 346:Src/stm32f4xx_hal_msp.c ****     GPIO_InitStruct.Speed = GPIO_SPEED_FREQ_VERY_HIGH;
 347:Src/stm32f4xx_hal_msp.c ****     GPIO_InitStruct.Alternate = GPIO_AF7_USART1;
 348:Src/stm32f4xx_hal_msp.c ****     HAL_GPIO_Init(GPIOA, &GPIO_InitStruct);
 349:Src/stm32f4xx_hal_msp.c **** 
 350:Src/stm32f4xx_hal_msp.c ****   /* USER CODE BEGIN USART1_MspInit 1 */
 351:Src/stm32f4xx_hal_msp.c **** 
 352:Src/stm32f4xx_hal_msp.c ****   /* USER CODE END USART1_MspInit 1 */
 353:Src/stm32f4xx_hal_msp.c ****   }
 354:Src/stm32f4xx_hal_msp.c **** 
 355:Src/stm32f4xx_hal_msp.c **** }
 624              		.loc 1 355 0
 625 001e 09B0     		add	sp, sp, #36
 626              	.LCFI20:
 627              		.cfi_remember_state
 628              		.cfi_def_cfa_offset 4
 629              		@ sp needed
 630 0020 5DF804FB 		ldr	pc, [sp], #4
 631              	.LVL44:
 632              	.L48:
 633              	.LCFI21:
 634              		.cfi_restore_state
 635              	.LBB10:
 336:Src/stm32f4xx_hal_msp.c ****   
 636              		.loc 1 336 0
 637 0024 0021     		movs	r1, #0
 638 0026 0191     		str	r1, [sp, #4]
 639 0028 03F59433 		add	r3, r3, #75776
 640 002c 5A6C     		ldr	r2, [r3, #68]
 641 002e 42F01002 		orr	r2, r2, #16
 642 0032 5A64     		str	r2, [r3, #68]
 643 0034 5A6C     		ldr	r2, [r3, #68]
 644 0036 02F01002 		and	r2, r2, #16
 645 003a 0192     		str	r2, [sp, #4]
 646 003c 019A     		ldr	r2, [sp, #4]
 647              	.LBE10:
 648              	.LBB11:
 338:Src/stm32f4xx_hal_msp.c ****     /**USART1 GPIO Configuration    
 649              		.loc 1 338 0
 650 003e 0291     		str	r1, [sp, #8]
 651 0040 1A6B     		ldr	r2, [r3, #48]
 652 0042 42F00102 		orr	r2, r2, #1
 653 0046 1A63     		str	r2, [r3, #48]
 654 0048 1B6B     		ldr	r3, [r3, #48]
 655 004a 03F00103 		and	r3, r3, #1
ARM GAS  /tmp/ccbWf67K.s 			page 19


 656 004e 0293     		str	r3, [sp, #8]
 657 0050 029B     		ldr	r3, [sp, #8]
 658              	.LBE11:
 343:Src/stm32f4xx_hal_msp.c ****     GPIO_InitStruct.Mode = GPIO_MODE_AF_PP;
 659              		.loc 1 343 0
 660 0052 4FF4C063 		mov	r3, #1536
 661 0056 0393     		str	r3, [sp, #12]
 344:Src/stm32f4xx_hal_msp.c ****     GPIO_InitStruct.Pull = GPIO_PULLUP;
 662              		.loc 1 344 0
 663 0058 0223     		movs	r3, #2
 664 005a 0493     		str	r3, [sp, #16]
 345:Src/stm32f4xx_hal_msp.c ****     GPIO_InitStruct.Speed = GPIO_SPEED_FREQ_VERY_HIGH;
 665              		.loc 1 345 0
 666 005c 0123     		movs	r3, #1
 667 005e 0593     		str	r3, [sp, #20]
 346:Src/stm32f4xx_hal_msp.c ****     GPIO_InitStruct.Alternate = GPIO_AF7_USART1;
 668              		.loc 1 346 0
 669 0060 0323     		movs	r3, #3
 670 0062 0693     		str	r3, [sp, #24]
 347:Src/stm32f4xx_hal_msp.c ****     HAL_GPIO_Init(GPIOA, &GPIO_InitStruct);
 671              		.loc 1 347 0
 672 0064 0723     		movs	r3, #7
 673 0066 0793     		str	r3, [sp, #28]
 348:Src/stm32f4xx_hal_msp.c **** 
 674              		.loc 1 348 0
 675 0068 03A9     		add	r1, sp, #12
 676 006a 0248     		ldr	r0, .L49
 677              	.LVL45:
 678 006c FFF7FEFF 		bl	HAL_GPIO_Init
 679              	.LVL46:
 680              		.loc 1 355 0
 681 0070 D5E7     		b	.L45
 682              	.L50:
 683 0072 00BF     		.align	2
 684              	.L49:
 685 0074 00000240 		.word	1073872896
 686              		.cfi_endproc
 687              	.LFE137:
 689              		.section	.text.HAL_UART_MspDeInit,"ax",%progbits
 690              		.align	1
 691              		.global	HAL_UART_MspDeInit
 692              		.syntax unified
 693              		.thumb
 694              		.thumb_func
 695              		.fpu fpv4-sp-d16
 697              	HAL_UART_MspDeInit:
 698              	.LFB138:
 356:Src/stm32f4xx_hal_msp.c **** 
 357:Src/stm32f4xx_hal_msp.c **** /**
 358:Src/stm32f4xx_hal_msp.c **** * @brief UART MSP De-Initialization
 359:Src/stm32f4xx_hal_msp.c **** * This function freeze the hardware resources used in this example
 360:Src/stm32f4xx_hal_msp.c **** * @param huart: UART handle pointer
 361:Src/stm32f4xx_hal_msp.c **** * @retval None
 362:Src/stm32f4xx_hal_msp.c **** */
 363:Src/stm32f4xx_hal_msp.c **** void HAL_UART_MspDeInit(UART_HandleTypeDef* huart)
 364:Src/stm32f4xx_hal_msp.c **** {
 699              		.loc 1 364 0
ARM GAS  /tmp/ccbWf67K.s 			page 20


 700              		.cfi_startproc
 701              		@ args = 0, pretend = 0, frame = 0
 702              		@ frame_needed = 0, uses_anonymous_args = 0
 703              	.LVL47:
 704 0000 08B5     		push	{r3, lr}
 705              	.LCFI22:
 706              		.cfi_def_cfa_offset 8
 707              		.cfi_offset 3, -8
 708              		.cfi_offset 14, -4
 365:Src/stm32f4xx_hal_msp.c ****   if(huart->Instance==USART1)
 709              		.loc 1 365 0
 710 0002 0268     		ldr	r2, [r0]
 711 0004 074B     		ldr	r3, .L55
 712 0006 9A42     		cmp	r2, r3
 713 0008 00D0     		beq	.L54
 714              	.LVL48:
 715              	.L51:
 716 000a 08BD     		pop	{r3, pc}
 717              	.LVL49:
 718              	.L54:
 366:Src/stm32f4xx_hal_msp.c ****   {
 367:Src/stm32f4xx_hal_msp.c ****   /* USER CODE BEGIN USART1_MspDeInit 0 */
 368:Src/stm32f4xx_hal_msp.c **** 
 369:Src/stm32f4xx_hal_msp.c ****   /* USER CODE END USART1_MspDeInit 0 */
 370:Src/stm32f4xx_hal_msp.c ****     /* Peripheral clock disable */
 371:Src/stm32f4xx_hal_msp.c ****     __HAL_RCC_USART1_CLK_DISABLE();
 719              		.loc 1 371 0
 720 000c 064A     		ldr	r2, .L55+4
 721 000e 536C     		ldr	r3, [r2, #68]
 722 0010 23F01003 		bic	r3, r3, #16
 723 0014 5364     		str	r3, [r2, #68]
 372:Src/stm32f4xx_hal_msp.c ****   
 373:Src/stm32f4xx_hal_msp.c ****     /**USART1 GPIO Configuration    
 374:Src/stm32f4xx_hal_msp.c ****     PA9     ------> USART1_TX
 375:Src/stm32f4xx_hal_msp.c ****     PA10     ------> USART1_RX 
 376:Src/stm32f4xx_hal_msp.c ****     */
 377:Src/stm32f4xx_hal_msp.c ****     HAL_GPIO_DeInit(GPIOA, STLINK_RX_Pin|STLINK_TX_Pin);
 724              		.loc 1 377 0
 725 0016 4FF4C061 		mov	r1, #1536
 726 001a 0448     		ldr	r0, .L55+8
 727              	.LVL50:
 728 001c FFF7FEFF 		bl	HAL_GPIO_DeInit
 729              	.LVL51:
 378:Src/stm32f4xx_hal_msp.c **** 
 379:Src/stm32f4xx_hal_msp.c ****   /* USER CODE BEGIN USART1_MspDeInit 1 */
 380:Src/stm32f4xx_hal_msp.c **** 
 381:Src/stm32f4xx_hal_msp.c ****   /* USER CODE END USART1_MspDeInit 1 */
 382:Src/stm32f4xx_hal_msp.c ****   }
 383:Src/stm32f4xx_hal_msp.c **** 
 384:Src/stm32f4xx_hal_msp.c **** }
 730              		.loc 1 384 0
 731 0020 F3E7     		b	.L51
 732              	.L56:
 733 0022 00BF     		.align	2
 734              	.L55:
 735 0024 00100140 		.word	1073811456
 736 0028 00380240 		.word	1073887232
ARM GAS  /tmp/ccbWf67K.s 			page 21


 737 002c 00000240 		.word	1073872896
 738              		.cfi_endproc
 739              	.LFE138:
 741              		.text
 742              	.Letext0:
 743              		.file 2 "/usr/include/newlib/machine/_default_types.h"
 744              		.file 3 "/usr/include/newlib/sys/_stdint.h"
 745              		.file 4 "Drivers/CMSIS/Include/core_cm4.h"
 746              		.file 5 "Drivers/CMSIS/Device/ST/STM32F4xx/Include/system_stm32f4xx.h"
 747              		.file 6 "Drivers/CMSIS/Device/ST/STM32F4xx/Include/stm32f429xx.h"
 748              		.file 7 "Drivers/STM32F4xx_HAL_Driver/Inc/stm32f4xx_hal_def.h"
 749              		.file 8 "Drivers/STM32F4xx_HAL_Driver/Inc/stm32f4xx_hal_gpio.h"
 750              		.file 9 "Drivers/STM32F4xx_HAL_Driver/Inc/stm32f4xx_hal_dma.h"
 751              		.file 10 "Drivers/STM32F4xx_HAL_Driver/Inc/stm32f4xx_hal_dac.h"
 752              		.file 11 "Drivers/STM32F4xx_HAL_Driver/Inc/stm32f4xx_hal_spi.h"
 753              		.file 12 "Drivers/STM32F4xx_HAL_Driver/Inc/stm32f4xx_hal_tim.h"
 754              		.file 13 "Drivers/STM32F4xx_HAL_Driver/Inc/stm32f4xx_hal_uart.h"
 755              		.file 14 "Drivers/STM32F4xx_HAL_Driver/Inc/stm32f4xx_hal_cortex.h"
ARM GAS  /tmp/ccbWf67K.s 			page 22


DEFINED SYMBOLS
                            *ABS*:0000000000000000 stm32f4xx_hal_msp.c
     /tmp/ccbWf67K.s:18     .text.HAL_MspInit:0000000000000000 $t
     /tmp/ccbWf67K.s:25     .text.HAL_MspInit:0000000000000000 HAL_MspInit
     /tmp/ccbWf67K.s:76     .text.HAL_MspInit:000000000000003c $d
     /tmp/ccbWf67K.s:81     .text.HAL_DAC_MspInit:0000000000000000 $t
     /tmp/ccbWf67K.s:88     .text.HAL_DAC_MspInit:0000000000000000 HAL_DAC_MspInit
     /tmp/ccbWf67K.s:179    .text.HAL_DAC_MspInit:000000000000006c $d
     /tmp/ccbWf67K.s:185    .text.HAL_DAC_MspDeInit:0000000000000000 $t
     /tmp/ccbWf67K.s:192    .text.HAL_DAC_MspDeInit:0000000000000000 HAL_DAC_MspDeInit
     /tmp/ccbWf67K.s:230    .text.HAL_DAC_MspDeInit:0000000000000020 $d
     /tmp/ccbWf67K.s:237    .text.HAL_SPI_MspInit:0000000000000000 $t
     /tmp/ccbWf67K.s:244    .text.HAL_SPI_MspInit:0000000000000000 HAL_SPI_MspInit
     /tmp/ccbWf67K.s:361    .text.HAL_SPI_MspInit:000000000000008c $d
     /tmp/ccbWf67K.s:367    .text.HAL_SPI_MspDeInit:0000000000000000 $t
     /tmp/ccbWf67K.s:374    .text.HAL_SPI_MspDeInit:0000000000000000 HAL_SPI_MspDeInit
     /tmp/ccbWf67K.s:416    .text.HAL_SPI_MspDeInit:0000000000000028 $d
     /tmp/ccbWf67K.s:423    .text.HAL_TIM_Base_MspInit:0000000000000000 $t
     /tmp/ccbWf67K.s:430    .text.HAL_TIM_Base_MspInit:0000000000000000 HAL_TIM_Base_MspInit
     /tmp/ccbWf67K.s:520    .text.HAL_TIM_Base_MspInit:0000000000000068 $d
     /tmp/ccbWf67K.s:527    .text.HAL_TIM_Base_MspDeInit:0000000000000000 $t
     /tmp/ccbWf67K.s:534    .text.HAL_TIM_Base_MspDeInit:0000000000000000 HAL_TIM_Base_MspDeInit
     /tmp/ccbWf67K.s:582    .text.HAL_TIM_Base_MspDeInit:0000000000000034 $d
     /tmp/ccbWf67K.s:588    .text.HAL_UART_MspInit:0000000000000000 $t
     /tmp/ccbWf67K.s:595    .text.HAL_UART_MspInit:0000000000000000 HAL_UART_MspInit
     /tmp/ccbWf67K.s:685    .text.HAL_UART_MspInit:0000000000000074 $d
     /tmp/ccbWf67K.s:690    .text.HAL_UART_MspDeInit:0000000000000000 $t
     /tmp/ccbWf67K.s:697    .text.HAL_UART_MspDeInit:0000000000000000 HAL_UART_MspDeInit
     /tmp/ccbWf67K.s:735    .text.HAL_UART_MspDeInit:0000000000000024 $d
                     .debug_frame:0000000000000010 $d

UNDEFINED SYMBOLS
HAL_NVIC_SetPriorityGrouping
HAL_GPIO_Init
HAL_NVIC_SetPriority
HAL_NVIC_EnableIRQ
HAL_GPIO_DeInit
HAL_NVIC_DisableIRQ
