ARM GAS  /tmp/ccTjGYTE.s 			page 1


   1              		.cpu cortex-m4
   2              		.eabi_attribute 27, 1
   3              		.eabi_attribute 28, 1
   4              		.eabi_attribute 20, 1
   5              		.eabi_attribute 21, 1
   6              		.eabi_attribute 23, 3
   7              		.eabi_attribute 24, 1
   8              		.eabi_attribute 25, 1
   9              		.eabi_attribute 26, 1
  10              		.eabi_attribute 30, 1
  11              		.eabi_attribute 34, 1
  12              		.eabi_attribute 18, 4
  13              		.file	"stm32f4xx_hal_msp.c"
  14              		.text
  15              	.Ltext0:
  16              		.cfi_sections	.debug_frame
  17              		.section	.text.HAL_MspInit,"ax",%progbits
  18              		.align	1
  19              		.global	HAL_MspInit
  20              		.syntax unified
  21              		.thumb
  22              		.thumb_func
  23              		.fpu fpv4-sp-d16
  25              	HAL_MspInit:
  26              	.LFB130:
  27              		.file 1 "Src/stm32f4xx_hal_msp.c"
   1:Src/stm32f4xx_hal_msp.c **** /* USER CODE BEGIN Header */
   2:Src/stm32f4xx_hal_msp.c **** /**
   3:Src/stm32f4xx_hal_msp.c ****   ******************************************************************************
   4:Src/stm32f4xx_hal_msp.c ****   * File Name          : stm32f4xx_hal_msp.c
   5:Src/stm32f4xx_hal_msp.c ****   * Description        : This file provides code for the MSP Initialization 
   6:Src/stm32f4xx_hal_msp.c ****   *                      and de-Initialization codes.
   7:Src/stm32f4xx_hal_msp.c ****   ******************************************************************************
   8:Src/stm32f4xx_hal_msp.c ****   * @attention
   9:Src/stm32f4xx_hal_msp.c ****   *
  10:Src/stm32f4xx_hal_msp.c ****   * <h2><center>&copy; Copyright (c) 2019 STMicroelectronics.
  11:Src/stm32f4xx_hal_msp.c ****   * All rights reserved.</center></h2>
  12:Src/stm32f4xx_hal_msp.c ****   *
  13:Src/stm32f4xx_hal_msp.c ****   * This software component is licensed by ST under BSD 3-Clause license,
  14:Src/stm32f4xx_hal_msp.c ****   * the "License"; You may not use this file except in compliance with the
  15:Src/stm32f4xx_hal_msp.c ****   * License. You may obtain a copy of the License at:
  16:Src/stm32f4xx_hal_msp.c ****   *                        opensource.org/licenses/BSD-3-Clause
  17:Src/stm32f4xx_hal_msp.c ****   *
  18:Src/stm32f4xx_hal_msp.c ****   ******************************************************************************
  19:Src/stm32f4xx_hal_msp.c ****   */
  20:Src/stm32f4xx_hal_msp.c **** /* USER CODE END Header */
  21:Src/stm32f4xx_hal_msp.c **** 
  22:Src/stm32f4xx_hal_msp.c **** /* Includes ------------------------------------------------------------------*/
  23:Src/stm32f4xx_hal_msp.c **** #include "main.h"
  24:Src/stm32f4xx_hal_msp.c **** /* USER CODE BEGIN Includes */
  25:Src/stm32f4xx_hal_msp.c **** 
  26:Src/stm32f4xx_hal_msp.c **** /* USER CODE END Includes */
  27:Src/stm32f4xx_hal_msp.c **** 
  28:Src/stm32f4xx_hal_msp.c **** /* Private typedef -----------------------------------------------------------*/
  29:Src/stm32f4xx_hal_msp.c **** /* USER CODE BEGIN TD */
  30:Src/stm32f4xx_hal_msp.c **** 
  31:Src/stm32f4xx_hal_msp.c **** /* USER CODE END TD */
ARM GAS  /tmp/ccTjGYTE.s 			page 2


  32:Src/stm32f4xx_hal_msp.c **** 
  33:Src/stm32f4xx_hal_msp.c **** /* Private define ------------------------------------------------------------*/
  34:Src/stm32f4xx_hal_msp.c **** /* USER CODE BEGIN Define */
  35:Src/stm32f4xx_hal_msp.c ****  
  36:Src/stm32f4xx_hal_msp.c **** /* USER CODE END Define */
  37:Src/stm32f4xx_hal_msp.c **** 
  38:Src/stm32f4xx_hal_msp.c **** /* Private macro -------------------------------------------------------------*/
  39:Src/stm32f4xx_hal_msp.c **** /* USER CODE BEGIN Macro */
  40:Src/stm32f4xx_hal_msp.c **** 
  41:Src/stm32f4xx_hal_msp.c **** /* USER CODE END Macro */
  42:Src/stm32f4xx_hal_msp.c **** 
  43:Src/stm32f4xx_hal_msp.c **** /* Private variables ---------------------------------------------------------*/
  44:Src/stm32f4xx_hal_msp.c **** /* USER CODE BEGIN PV */
  45:Src/stm32f4xx_hal_msp.c **** 
  46:Src/stm32f4xx_hal_msp.c **** /* USER CODE END PV */
  47:Src/stm32f4xx_hal_msp.c **** 
  48:Src/stm32f4xx_hal_msp.c **** /* Private function prototypes -----------------------------------------------*/
  49:Src/stm32f4xx_hal_msp.c **** /* USER CODE BEGIN PFP */
  50:Src/stm32f4xx_hal_msp.c **** 
  51:Src/stm32f4xx_hal_msp.c **** /* USER CODE END PFP */
  52:Src/stm32f4xx_hal_msp.c **** 
  53:Src/stm32f4xx_hal_msp.c **** /* External functions --------------------------------------------------------*/
  54:Src/stm32f4xx_hal_msp.c **** /* USER CODE BEGIN ExternalFunctions */
  55:Src/stm32f4xx_hal_msp.c **** 
  56:Src/stm32f4xx_hal_msp.c **** /* USER CODE END ExternalFunctions */
  57:Src/stm32f4xx_hal_msp.c **** 
  58:Src/stm32f4xx_hal_msp.c **** /* USER CODE BEGIN 0 */
  59:Src/stm32f4xx_hal_msp.c **** 
  60:Src/stm32f4xx_hal_msp.c **** /* USER CODE END 0 */
  61:Src/stm32f4xx_hal_msp.c **** /**
  62:Src/stm32f4xx_hal_msp.c ****   * Initializes the Global MSP.
  63:Src/stm32f4xx_hal_msp.c ****   */
  64:Src/stm32f4xx_hal_msp.c **** void HAL_MspInit(void)
  65:Src/stm32f4xx_hal_msp.c **** {
  28              		.loc 1 65 0
  29              		.cfi_startproc
  30              		@ args = 0, pretend = 0, frame = 8
  31              		@ frame_needed = 0, uses_anonymous_args = 0
  32 0000 00B5     		push	{lr}
  33              	.LCFI0:
  34              		.cfi_def_cfa_offset 4
  35              		.cfi_offset 14, -4
  36 0002 83B0     		sub	sp, sp, #12
  37              	.LCFI1:
  38              		.cfi_def_cfa_offset 16
  39              	.LBB2:
  66:Src/stm32f4xx_hal_msp.c ****   /* USER CODE BEGIN MspInit 0 */
  67:Src/stm32f4xx_hal_msp.c **** 
  68:Src/stm32f4xx_hal_msp.c ****   /* USER CODE END MspInit 0 */
  69:Src/stm32f4xx_hal_msp.c **** 
  70:Src/stm32f4xx_hal_msp.c ****   __HAL_RCC_SYSCFG_CLK_ENABLE();
  40              		.loc 1 70 0
  41 0004 0021     		movs	r1, #0
  42 0006 0091     		str	r1, [sp]
  43 0008 0C4B     		ldr	r3, .L3
  44 000a 5A6C     		ldr	r2, [r3, #68]
  45 000c 42F48042 		orr	r2, r2, #16384
ARM GAS  /tmp/ccTjGYTE.s 			page 3


  46 0010 5A64     		str	r2, [r3, #68]
  47 0012 5A6C     		ldr	r2, [r3, #68]
  48 0014 02F48042 		and	r2, r2, #16384
  49 0018 0092     		str	r2, [sp]
  50 001a 009A     		ldr	r2, [sp]
  51              	.LBE2:
  52              	.LBB3:
  71:Src/stm32f4xx_hal_msp.c ****   __HAL_RCC_PWR_CLK_ENABLE();
  53              		.loc 1 71 0
  54 001c 0191     		str	r1, [sp, #4]
  55 001e 1A6C     		ldr	r2, [r3, #64]
  56 0020 42F08052 		orr	r2, r2, #268435456
  57 0024 1A64     		str	r2, [r3, #64]
  58 0026 1B6C     		ldr	r3, [r3, #64]
  59 0028 03F08053 		and	r3, r3, #268435456
  60 002c 0193     		str	r3, [sp, #4]
  61 002e 019B     		ldr	r3, [sp, #4]
  62              	.LBE3:
  72:Src/stm32f4xx_hal_msp.c **** 
  73:Src/stm32f4xx_hal_msp.c ****   HAL_NVIC_SetPriorityGrouping(NVIC_PRIORITYGROUP_0);
  63              		.loc 1 73 0
  64 0030 0720     		movs	r0, #7
  65 0032 FFF7FEFF 		bl	HAL_NVIC_SetPriorityGrouping
  66              	.LVL0:
  74:Src/stm32f4xx_hal_msp.c **** 
  75:Src/stm32f4xx_hal_msp.c ****   /* System interrupt init*/
  76:Src/stm32f4xx_hal_msp.c **** 
  77:Src/stm32f4xx_hal_msp.c ****   /* USER CODE BEGIN MspInit 1 */
  78:Src/stm32f4xx_hal_msp.c **** 
  79:Src/stm32f4xx_hal_msp.c ****   /* USER CODE END MspInit 1 */
  80:Src/stm32f4xx_hal_msp.c **** }
  67              		.loc 1 80 0
  68 0036 03B0     		add	sp, sp, #12
  69              	.LCFI2:
  70              		.cfi_def_cfa_offset 4
  71              		@ sp needed
  72 0038 5DF804FB 		ldr	pc, [sp], #4
  73              	.L4:
  74              		.align	2
  75              	.L3:
  76 003c 00380240 		.word	1073887232
  77              		.cfi_endproc
  78              	.LFE130:
  80              		.section	.text.HAL_DAC_MspInit,"ax",%progbits
  81              		.align	1
  82              		.global	HAL_DAC_MspInit
  83              		.syntax unified
  84              		.thumb
  85              		.thumb_func
  86              		.fpu fpv4-sp-d16
  88              	HAL_DAC_MspInit:
  89              	.LFB131:
  81:Src/stm32f4xx_hal_msp.c **** 
  82:Src/stm32f4xx_hal_msp.c **** /**
  83:Src/stm32f4xx_hal_msp.c **** * @brief DAC MSP Initialization
  84:Src/stm32f4xx_hal_msp.c **** * This function configures the hardware resources used in this example
  85:Src/stm32f4xx_hal_msp.c **** * @param hdac: DAC handle pointer
ARM GAS  /tmp/ccTjGYTE.s 			page 4


  86:Src/stm32f4xx_hal_msp.c **** * @retval None
  87:Src/stm32f4xx_hal_msp.c **** */
  88:Src/stm32f4xx_hal_msp.c **** void HAL_DAC_MspInit(DAC_HandleTypeDef* hdac)
  89:Src/stm32f4xx_hal_msp.c **** {
  90              		.loc 1 89 0
  91              		.cfi_startproc
  92              		@ args = 0, pretend = 0, frame = 32
  93              		@ frame_needed = 0, uses_anonymous_args = 0
  94              	.LVL1:
  95 0000 10B5     		push	{r4, lr}
  96              	.LCFI3:
  97              		.cfi_def_cfa_offset 8
  98              		.cfi_offset 4, -8
  99              		.cfi_offset 14, -4
 100 0002 88B0     		sub	sp, sp, #32
 101              	.LCFI4:
 102              		.cfi_def_cfa_offset 40
  90:Src/stm32f4xx_hal_msp.c ****   GPIO_InitTypeDef GPIO_InitStruct = {0};
 103              		.loc 1 90 0
 104 0004 0023     		movs	r3, #0
 105 0006 0393     		str	r3, [sp, #12]
 106 0008 0493     		str	r3, [sp, #16]
 107 000a 0593     		str	r3, [sp, #20]
 108 000c 0693     		str	r3, [sp, #24]
 109 000e 0793     		str	r3, [sp, #28]
  91:Src/stm32f4xx_hal_msp.c ****   if(hdac->Instance==DAC)
 110              		.loc 1 91 0
 111 0010 0268     		ldr	r2, [r0]
 112 0012 164B     		ldr	r3, .L9
 113 0014 9A42     		cmp	r2, r3
 114 0016 01D0     		beq	.L8
 115              	.LVL2:
 116              	.L5:
  92:Src/stm32f4xx_hal_msp.c ****   {
  93:Src/stm32f4xx_hal_msp.c ****   /* USER CODE BEGIN DAC_MspInit 0 */
  94:Src/stm32f4xx_hal_msp.c **** 
  95:Src/stm32f4xx_hal_msp.c ****   /* USER CODE END DAC_MspInit 0 */
  96:Src/stm32f4xx_hal_msp.c ****     /* Peripheral clock enable */
  97:Src/stm32f4xx_hal_msp.c ****     __HAL_RCC_DAC_CLK_ENABLE();
  98:Src/stm32f4xx_hal_msp.c ****   
  99:Src/stm32f4xx_hal_msp.c ****     __HAL_RCC_GPIOA_CLK_ENABLE();
 100:Src/stm32f4xx_hal_msp.c ****     /**DAC GPIO Configuration    
 101:Src/stm32f4xx_hal_msp.c ****     PA5     ------> DAC_OUT2 
 102:Src/stm32f4xx_hal_msp.c ****     */
 103:Src/stm32f4xx_hal_msp.c ****     GPIO_InitStruct.Pin = GPIO_PIN_5;
 104:Src/stm32f4xx_hal_msp.c ****     GPIO_InitStruct.Mode = GPIO_MODE_ANALOG;
 105:Src/stm32f4xx_hal_msp.c ****     GPIO_InitStruct.Pull = GPIO_NOPULL;
 106:Src/stm32f4xx_hal_msp.c ****     HAL_GPIO_Init(GPIOA, &GPIO_InitStruct);
 107:Src/stm32f4xx_hal_msp.c **** 
 108:Src/stm32f4xx_hal_msp.c ****     /* DAC interrupt Init */
 109:Src/stm32f4xx_hal_msp.c ****     HAL_NVIC_SetPriority(TIM6_DAC_IRQn, 0, 0);
 110:Src/stm32f4xx_hal_msp.c ****     HAL_NVIC_EnableIRQ(TIM6_DAC_IRQn);
 111:Src/stm32f4xx_hal_msp.c ****   /* USER CODE BEGIN DAC_MspInit 1 */
 112:Src/stm32f4xx_hal_msp.c **** 
 113:Src/stm32f4xx_hal_msp.c ****   /* USER CODE END DAC_MspInit 1 */
 114:Src/stm32f4xx_hal_msp.c ****   }
 115:Src/stm32f4xx_hal_msp.c **** 
ARM GAS  /tmp/ccTjGYTE.s 			page 5


 116:Src/stm32f4xx_hal_msp.c **** }
 117              		.loc 1 116 0
 118 0018 08B0     		add	sp, sp, #32
 119              	.LCFI5:
 120              		.cfi_remember_state
 121              		.cfi_def_cfa_offset 8
 122              		@ sp needed
 123 001a 10BD     		pop	{r4, pc}
 124              	.LVL3:
 125              	.L8:
 126              	.LCFI6:
 127              		.cfi_restore_state
 128              	.LBB4:
  97:Src/stm32f4xx_hal_msp.c ****   
 129              		.loc 1 97 0
 130 001c 0024     		movs	r4, #0
 131 001e 0194     		str	r4, [sp, #4]
 132 0020 03F5E233 		add	r3, r3, #115712
 133 0024 1A6C     		ldr	r2, [r3, #64]
 134 0026 42F00052 		orr	r2, r2, #536870912
 135 002a 1A64     		str	r2, [r3, #64]
 136 002c 1A6C     		ldr	r2, [r3, #64]
 137 002e 02F00052 		and	r2, r2, #536870912
 138 0032 0192     		str	r2, [sp, #4]
 139 0034 019A     		ldr	r2, [sp, #4]
 140              	.LBE4:
 141              	.LBB5:
  99:Src/stm32f4xx_hal_msp.c ****     /**DAC GPIO Configuration    
 142              		.loc 1 99 0
 143 0036 0294     		str	r4, [sp, #8]
 144 0038 1A6B     		ldr	r2, [r3, #48]
 145 003a 42F00102 		orr	r2, r2, #1
 146 003e 1A63     		str	r2, [r3, #48]
 147 0040 1B6B     		ldr	r3, [r3, #48]
 148 0042 03F00103 		and	r3, r3, #1
 149 0046 0293     		str	r3, [sp, #8]
 150 0048 029B     		ldr	r3, [sp, #8]
 151              	.LBE5:
 103:Src/stm32f4xx_hal_msp.c ****     GPIO_InitStruct.Mode = GPIO_MODE_ANALOG;
 152              		.loc 1 103 0
 153 004a 2023     		movs	r3, #32
 154 004c 0393     		str	r3, [sp, #12]
 104:Src/stm32f4xx_hal_msp.c ****     GPIO_InitStruct.Pull = GPIO_NOPULL;
 155              		.loc 1 104 0
 156 004e 0323     		movs	r3, #3
 157 0050 0493     		str	r3, [sp, #16]
 106:Src/stm32f4xx_hal_msp.c **** 
 158              		.loc 1 106 0
 159 0052 03A9     		add	r1, sp, #12
 160 0054 0648     		ldr	r0, .L9+4
 161              	.LVL4:
 162 0056 FFF7FEFF 		bl	HAL_GPIO_Init
 163              	.LVL5:
 109:Src/stm32f4xx_hal_msp.c ****     HAL_NVIC_EnableIRQ(TIM6_DAC_IRQn);
 164              		.loc 1 109 0
 165 005a 2246     		mov	r2, r4
 166 005c 2146     		mov	r1, r4
ARM GAS  /tmp/ccTjGYTE.s 			page 6


 167 005e 3620     		movs	r0, #54
 168 0060 FFF7FEFF 		bl	HAL_NVIC_SetPriority
 169              	.LVL6:
 110:Src/stm32f4xx_hal_msp.c ****   /* USER CODE BEGIN DAC_MspInit 1 */
 170              		.loc 1 110 0
 171 0064 3620     		movs	r0, #54
 172 0066 FFF7FEFF 		bl	HAL_NVIC_EnableIRQ
 173              	.LVL7:
 174              		.loc 1 116 0
 175 006a D5E7     		b	.L5
 176              	.L10:
 177              		.align	2
 178              	.L9:
 179 006c 00740040 		.word	1073771520
 180 0070 00000240 		.word	1073872896
 181              		.cfi_endproc
 182              	.LFE131:
 184              		.section	.text.HAL_DAC_MspDeInit,"ax",%progbits
 185              		.align	1
 186              		.global	HAL_DAC_MspDeInit
 187              		.syntax unified
 188              		.thumb
 189              		.thumb_func
 190              		.fpu fpv4-sp-d16
 192              	HAL_DAC_MspDeInit:
 193              	.LFB132:
 117:Src/stm32f4xx_hal_msp.c **** 
 118:Src/stm32f4xx_hal_msp.c **** /**
 119:Src/stm32f4xx_hal_msp.c **** * @brief DAC MSP De-Initialization
 120:Src/stm32f4xx_hal_msp.c **** * This function freeze the hardware resources used in this example
 121:Src/stm32f4xx_hal_msp.c **** * @param hdac: DAC handle pointer
 122:Src/stm32f4xx_hal_msp.c **** * @retval None
 123:Src/stm32f4xx_hal_msp.c **** */
 124:Src/stm32f4xx_hal_msp.c **** void HAL_DAC_MspDeInit(DAC_HandleTypeDef* hdac)
 125:Src/stm32f4xx_hal_msp.c **** {
 194              		.loc 1 125 0
 195              		.cfi_startproc
 196              		@ args = 0, pretend = 0, frame = 0
 197              		@ frame_needed = 0, uses_anonymous_args = 0
 198              	.LVL8:
 199 0000 08B5     		push	{r3, lr}
 200              	.LCFI7:
 201              		.cfi_def_cfa_offset 8
 202              		.cfi_offset 3, -8
 203              		.cfi_offset 14, -4
 126:Src/stm32f4xx_hal_msp.c ****   if(hdac->Instance==DAC)
 204              		.loc 1 126 0
 205 0002 0268     		ldr	r2, [r0]
 206 0004 064B     		ldr	r3, .L15
 207 0006 9A42     		cmp	r2, r3
 208 0008 00D0     		beq	.L14
 209              	.LVL9:
 210              	.L11:
 211 000a 08BD     		pop	{r3, pc}
 212              	.LVL10:
 213              	.L14:
 127:Src/stm32f4xx_hal_msp.c ****   {
ARM GAS  /tmp/ccTjGYTE.s 			page 7


 128:Src/stm32f4xx_hal_msp.c ****   /* USER CODE BEGIN DAC_MspDeInit 0 */
 129:Src/stm32f4xx_hal_msp.c **** 
 130:Src/stm32f4xx_hal_msp.c ****   /* USER CODE END DAC_MspDeInit 0 */
 131:Src/stm32f4xx_hal_msp.c ****     /* Peripheral clock disable */
 132:Src/stm32f4xx_hal_msp.c ****     __HAL_RCC_DAC_CLK_DISABLE();
 214              		.loc 1 132 0
 215 000c 054A     		ldr	r2, .L15+4
 216 000e 136C     		ldr	r3, [r2, #64]
 217 0010 23F00053 		bic	r3, r3, #536870912
 218 0014 1364     		str	r3, [r2, #64]
 133:Src/stm32f4xx_hal_msp.c ****   
 134:Src/stm32f4xx_hal_msp.c ****     /**DAC GPIO Configuration    
 135:Src/stm32f4xx_hal_msp.c ****     PA5     ------> DAC_OUT2 
 136:Src/stm32f4xx_hal_msp.c ****     */
 137:Src/stm32f4xx_hal_msp.c ****     HAL_GPIO_DeInit(GPIOA, GPIO_PIN_5);
 219              		.loc 1 137 0
 220 0016 2021     		movs	r1, #32
 221 0018 0348     		ldr	r0, .L15+8
 222              	.LVL11:
 223 001a FFF7FEFF 		bl	HAL_GPIO_DeInit
 224              	.LVL12:
 138:Src/stm32f4xx_hal_msp.c **** 
 139:Src/stm32f4xx_hal_msp.c ****     /* DAC interrupt DeInit */
 140:Src/stm32f4xx_hal_msp.c ****   /* USER CODE BEGIN DAC:TIM6_DAC_IRQn disable */
 141:Src/stm32f4xx_hal_msp.c ****     /**
 142:Src/stm32f4xx_hal_msp.c ****     * Uncomment the line below to disable the "TIM6_DAC_IRQn" interrupt
 143:Src/stm32f4xx_hal_msp.c ****     * Be aware, disabling shared interrupt may affect other IPs
 144:Src/stm32f4xx_hal_msp.c ****     */
 145:Src/stm32f4xx_hal_msp.c ****     /* HAL_NVIC_DisableIRQ(TIM6_DAC_IRQn); */
 146:Src/stm32f4xx_hal_msp.c ****   /* USER CODE END DAC:TIM6_DAC_IRQn disable */
 147:Src/stm32f4xx_hal_msp.c **** 
 148:Src/stm32f4xx_hal_msp.c ****   /* USER CODE BEGIN DAC_MspDeInit 1 */
 149:Src/stm32f4xx_hal_msp.c **** 
 150:Src/stm32f4xx_hal_msp.c ****   /* USER CODE END DAC_MspDeInit 1 */
 151:Src/stm32f4xx_hal_msp.c ****   }
 152:Src/stm32f4xx_hal_msp.c **** 
 153:Src/stm32f4xx_hal_msp.c **** }
 225              		.loc 1 153 0
 226 001e F4E7     		b	.L11
 227              	.L16:
 228              		.align	2
 229              	.L15:
 230 0020 00740040 		.word	1073771520
 231 0024 00380240 		.word	1073887232
 232 0028 00000240 		.word	1073872896
 233              		.cfi_endproc
 234              	.LFE132:
 236              		.section	.text.HAL_SPI_MspInit,"ax",%progbits
 237              		.align	1
 238              		.global	HAL_SPI_MspInit
 239              		.syntax unified
 240              		.thumb
 241              		.thumb_func
 242              		.fpu fpv4-sp-d16
 244              	HAL_SPI_MspInit:
 245              	.LFB133:
 154:Src/stm32f4xx_hal_msp.c **** 
ARM GAS  /tmp/ccTjGYTE.s 			page 8


 155:Src/stm32f4xx_hal_msp.c **** /**
 156:Src/stm32f4xx_hal_msp.c **** * @brief SPI MSP Initialization
 157:Src/stm32f4xx_hal_msp.c **** * This function configures the hardware resources used in this example
 158:Src/stm32f4xx_hal_msp.c **** * @param hspi: SPI handle pointer
 159:Src/stm32f4xx_hal_msp.c **** * @retval None
 160:Src/stm32f4xx_hal_msp.c **** */
 161:Src/stm32f4xx_hal_msp.c **** void HAL_SPI_MspInit(SPI_HandleTypeDef* hspi)
 162:Src/stm32f4xx_hal_msp.c **** {
 246              		.loc 1 162 0
 247              		.cfi_startproc
 248              		@ args = 0, pretend = 0, frame = 32
 249              		@ frame_needed = 0, uses_anonymous_args = 0
 250              	.LVL13:
 251 0000 10B5     		push	{r4, lr}
 252              	.LCFI8:
 253              		.cfi_def_cfa_offset 8
 254              		.cfi_offset 4, -8
 255              		.cfi_offset 14, -4
 256 0002 88B0     		sub	sp, sp, #32
 257              	.LCFI9:
 258              		.cfi_def_cfa_offset 40
 163:Src/stm32f4xx_hal_msp.c ****   GPIO_InitTypeDef GPIO_InitStruct = {0};
 259              		.loc 1 163 0
 260 0004 0023     		movs	r3, #0
 261 0006 0393     		str	r3, [sp, #12]
 262 0008 0493     		str	r3, [sp, #16]
 263 000a 0593     		str	r3, [sp, #20]
 264 000c 0693     		str	r3, [sp, #24]
 265 000e 0793     		str	r3, [sp, #28]
 164:Src/stm32f4xx_hal_msp.c ****   if(hspi->Instance==SPI5)
 266              		.loc 1 164 0
 267 0010 0268     		ldr	r2, [r0]
 268 0012 194B     		ldr	r3, .L21
 269 0014 9A42     		cmp	r2, r3
 270 0016 01D0     		beq	.L20
 271              	.LVL14:
 272              	.L17:
 165:Src/stm32f4xx_hal_msp.c ****   {
 166:Src/stm32f4xx_hal_msp.c ****   /* USER CODE BEGIN SPI5_MspInit 0 */
 167:Src/stm32f4xx_hal_msp.c **** 
 168:Src/stm32f4xx_hal_msp.c ****   /* USER CODE END SPI5_MspInit 0 */
 169:Src/stm32f4xx_hal_msp.c ****     /* Peripheral clock enable */
 170:Src/stm32f4xx_hal_msp.c ****     __HAL_RCC_SPI5_CLK_ENABLE();
 171:Src/stm32f4xx_hal_msp.c ****   
 172:Src/stm32f4xx_hal_msp.c ****     __HAL_RCC_GPIOF_CLK_ENABLE();
 173:Src/stm32f4xx_hal_msp.c ****     /**SPI5 GPIO Configuration    
 174:Src/stm32f4xx_hal_msp.c ****     PF6     ------> SPI5_NSS
 175:Src/stm32f4xx_hal_msp.c ****     PF7     ------> SPI5_SCK
 176:Src/stm32f4xx_hal_msp.c ****     PF8     ------> SPI5_MISO
 177:Src/stm32f4xx_hal_msp.c ****     PF9     ------> SPI5_MOSI 
 178:Src/stm32f4xx_hal_msp.c ****     */
 179:Src/stm32f4xx_hal_msp.c ****     GPIO_InitStruct.Pin = GPIO_PIN_6|SPI5_SCK_Pin|SPI5_MISO_Pin|SPI5_MOSI_Pin;
 180:Src/stm32f4xx_hal_msp.c ****     GPIO_InitStruct.Mode = GPIO_MODE_AF_PP;
 181:Src/stm32f4xx_hal_msp.c ****     GPIO_InitStruct.Pull = GPIO_NOPULL;
 182:Src/stm32f4xx_hal_msp.c ****     GPIO_InitStruct.Speed = GPIO_SPEED_FREQ_VERY_HIGH;
 183:Src/stm32f4xx_hal_msp.c ****     GPIO_InitStruct.Alternate = GPIO_AF5_SPI5;
 184:Src/stm32f4xx_hal_msp.c ****     HAL_GPIO_Init(GPIOF, &GPIO_InitStruct);
ARM GAS  /tmp/ccTjGYTE.s 			page 9


 185:Src/stm32f4xx_hal_msp.c **** 
 186:Src/stm32f4xx_hal_msp.c ****     /* SPI5 interrupt Init */
 187:Src/stm32f4xx_hal_msp.c ****     HAL_NVIC_SetPriority(SPI5_IRQn, 0, 0);
 188:Src/stm32f4xx_hal_msp.c ****     HAL_NVIC_EnableIRQ(SPI5_IRQn);
 189:Src/stm32f4xx_hal_msp.c ****   /* USER CODE BEGIN SPI5_MspInit 1 */
 190:Src/stm32f4xx_hal_msp.c **** 
 191:Src/stm32f4xx_hal_msp.c ****   /* USER CODE END SPI5_MspInit 1 */
 192:Src/stm32f4xx_hal_msp.c ****   }
 193:Src/stm32f4xx_hal_msp.c **** 
 194:Src/stm32f4xx_hal_msp.c **** }
 273              		.loc 1 194 0
 274 0018 08B0     		add	sp, sp, #32
 275              	.LCFI10:
 276              		.cfi_remember_state
 277              		.cfi_def_cfa_offset 8
 278              		@ sp needed
 279 001a 10BD     		pop	{r4, pc}
 280              	.LVL15:
 281              	.L20:
 282              	.LCFI11:
 283              		.cfi_restore_state
 284              	.LBB6:
 170:Src/stm32f4xx_hal_msp.c ****   
 285              		.loc 1 170 0
 286 001c 0024     		movs	r4, #0
 287 001e 0194     		str	r4, [sp, #4]
 288 0020 03F56843 		add	r3, r3, #59392
 289 0024 5A6C     		ldr	r2, [r3, #68]
 290 0026 42F48012 		orr	r2, r2, #1048576
 291 002a 5A64     		str	r2, [r3, #68]
 292 002c 5A6C     		ldr	r2, [r3, #68]
 293 002e 02F48012 		and	r2, r2, #1048576
 294 0032 0192     		str	r2, [sp, #4]
 295 0034 019A     		ldr	r2, [sp, #4]
 296              	.LBE6:
 297              	.LBB7:
 172:Src/stm32f4xx_hal_msp.c ****     /**SPI5 GPIO Configuration    
 298              		.loc 1 172 0
 299 0036 0294     		str	r4, [sp, #8]
 300 0038 1A6B     		ldr	r2, [r3, #48]
 301 003a 42F02002 		orr	r2, r2, #32
 302 003e 1A63     		str	r2, [r3, #48]
 303 0040 1B6B     		ldr	r3, [r3, #48]
 304 0042 03F02003 		and	r3, r3, #32
 305 0046 0293     		str	r3, [sp, #8]
 306 0048 029B     		ldr	r3, [sp, #8]
 307              	.LBE7:
 179:Src/stm32f4xx_hal_msp.c ****     GPIO_InitStruct.Mode = GPIO_MODE_AF_PP;
 308              		.loc 1 179 0
 309 004a 4FF47073 		mov	r3, #960
 310 004e 0393     		str	r3, [sp, #12]
 180:Src/stm32f4xx_hal_msp.c ****     GPIO_InitStruct.Pull = GPIO_NOPULL;
 311              		.loc 1 180 0
 312 0050 0223     		movs	r3, #2
 313 0052 0493     		str	r3, [sp, #16]
 182:Src/stm32f4xx_hal_msp.c ****     GPIO_InitStruct.Alternate = GPIO_AF5_SPI5;
 314              		.loc 1 182 0
ARM GAS  /tmp/ccTjGYTE.s 			page 10


 315 0054 0323     		movs	r3, #3
 316 0056 0693     		str	r3, [sp, #24]
 183:Src/stm32f4xx_hal_msp.c ****     HAL_GPIO_Init(GPIOF, &GPIO_InitStruct);
 317              		.loc 1 183 0
 318 0058 0523     		movs	r3, #5
 319 005a 0793     		str	r3, [sp, #28]
 184:Src/stm32f4xx_hal_msp.c **** 
 320              		.loc 1 184 0
 321 005c 03A9     		add	r1, sp, #12
 322 005e 0748     		ldr	r0, .L21+4
 323              	.LVL16:
 324 0060 FFF7FEFF 		bl	HAL_GPIO_Init
 325              	.LVL17:
 187:Src/stm32f4xx_hal_msp.c ****     HAL_NVIC_EnableIRQ(SPI5_IRQn);
 326              		.loc 1 187 0
 327 0064 2246     		mov	r2, r4
 328 0066 2146     		mov	r1, r4
 329 0068 5520     		movs	r0, #85
 330 006a FFF7FEFF 		bl	HAL_NVIC_SetPriority
 331              	.LVL18:
 188:Src/stm32f4xx_hal_msp.c ****   /* USER CODE BEGIN SPI5_MspInit 1 */
 332              		.loc 1 188 0
 333 006e 5520     		movs	r0, #85
 334 0070 FFF7FEFF 		bl	HAL_NVIC_EnableIRQ
 335              	.LVL19:
 336              		.loc 1 194 0
 337 0074 D0E7     		b	.L17
 338              	.L22:
 339 0076 00BF     		.align	2
 340              	.L21:
 341 0078 00500140 		.word	1073827840
 342 007c 00140240 		.word	1073878016
 343              		.cfi_endproc
 344              	.LFE133:
 346              		.section	.text.HAL_SPI_MspDeInit,"ax",%progbits
 347              		.align	1
 348              		.global	HAL_SPI_MspDeInit
 349              		.syntax unified
 350              		.thumb
 351              		.thumb_func
 352              		.fpu fpv4-sp-d16
 354              	HAL_SPI_MspDeInit:
 355              	.LFB134:
 195:Src/stm32f4xx_hal_msp.c **** 
 196:Src/stm32f4xx_hal_msp.c **** /**
 197:Src/stm32f4xx_hal_msp.c **** * @brief SPI MSP De-Initialization
 198:Src/stm32f4xx_hal_msp.c **** * This function freeze the hardware resources used in this example
 199:Src/stm32f4xx_hal_msp.c **** * @param hspi: SPI handle pointer
 200:Src/stm32f4xx_hal_msp.c **** * @retval None
 201:Src/stm32f4xx_hal_msp.c **** */
 202:Src/stm32f4xx_hal_msp.c **** void HAL_SPI_MspDeInit(SPI_HandleTypeDef* hspi)
 203:Src/stm32f4xx_hal_msp.c **** {
 356              		.loc 1 203 0
 357              		.cfi_startproc
 358              		@ args = 0, pretend = 0, frame = 0
 359              		@ frame_needed = 0, uses_anonymous_args = 0
 360              	.LVL20:
ARM GAS  /tmp/ccTjGYTE.s 			page 11


 361 0000 08B5     		push	{r3, lr}
 362              	.LCFI12:
 363              		.cfi_def_cfa_offset 8
 364              		.cfi_offset 3, -8
 365              		.cfi_offset 14, -4
 204:Src/stm32f4xx_hal_msp.c ****   if(hspi->Instance==SPI5)
 366              		.loc 1 204 0
 367 0002 0268     		ldr	r2, [r0]
 368 0004 084B     		ldr	r3, .L27
 369 0006 9A42     		cmp	r2, r3
 370 0008 00D0     		beq	.L26
 371              	.LVL21:
 372              	.L23:
 373 000a 08BD     		pop	{r3, pc}
 374              	.LVL22:
 375              	.L26:
 205:Src/stm32f4xx_hal_msp.c ****   {
 206:Src/stm32f4xx_hal_msp.c ****   /* USER CODE BEGIN SPI5_MspDeInit 0 */
 207:Src/stm32f4xx_hal_msp.c **** 
 208:Src/stm32f4xx_hal_msp.c ****   /* USER CODE END SPI5_MspDeInit 0 */
 209:Src/stm32f4xx_hal_msp.c ****     /* Peripheral clock disable */
 210:Src/stm32f4xx_hal_msp.c ****     __HAL_RCC_SPI5_CLK_DISABLE();
 376              		.loc 1 210 0
 377 000c 074A     		ldr	r2, .L27+4
 378 000e 536C     		ldr	r3, [r2, #68]
 379 0010 23F48013 		bic	r3, r3, #1048576
 380 0014 5364     		str	r3, [r2, #68]
 211:Src/stm32f4xx_hal_msp.c ****   
 212:Src/stm32f4xx_hal_msp.c ****     /**SPI5 GPIO Configuration    
 213:Src/stm32f4xx_hal_msp.c ****     PF6     ------> SPI5_NSS
 214:Src/stm32f4xx_hal_msp.c ****     PF7     ------> SPI5_SCK
 215:Src/stm32f4xx_hal_msp.c ****     PF8     ------> SPI5_MISO
 216:Src/stm32f4xx_hal_msp.c ****     PF9     ------> SPI5_MOSI 
 217:Src/stm32f4xx_hal_msp.c ****     */
 218:Src/stm32f4xx_hal_msp.c ****     HAL_GPIO_DeInit(GPIOF, GPIO_PIN_6|SPI5_SCK_Pin|SPI5_MISO_Pin|SPI5_MOSI_Pin);
 381              		.loc 1 218 0
 382 0016 4FF47071 		mov	r1, #960
 383 001a 0548     		ldr	r0, .L27+8
 384              	.LVL23:
 385 001c FFF7FEFF 		bl	HAL_GPIO_DeInit
 386              	.LVL24:
 219:Src/stm32f4xx_hal_msp.c **** 
 220:Src/stm32f4xx_hal_msp.c ****     /* SPI5 interrupt DeInit */
 221:Src/stm32f4xx_hal_msp.c ****     HAL_NVIC_DisableIRQ(SPI5_IRQn);
 387              		.loc 1 221 0
 388 0020 5520     		movs	r0, #85
 389 0022 FFF7FEFF 		bl	HAL_NVIC_DisableIRQ
 390              	.LVL25:
 222:Src/stm32f4xx_hal_msp.c ****   /* USER CODE BEGIN SPI5_MspDeInit 1 */
 223:Src/stm32f4xx_hal_msp.c **** 
 224:Src/stm32f4xx_hal_msp.c ****   /* USER CODE END SPI5_MspDeInit 1 */
 225:Src/stm32f4xx_hal_msp.c ****   }
 226:Src/stm32f4xx_hal_msp.c **** 
 227:Src/stm32f4xx_hal_msp.c **** }
 391              		.loc 1 227 0
 392 0026 F0E7     		b	.L23
 393              	.L28:
ARM GAS  /tmp/ccTjGYTE.s 			page 12


 394              		.align	2
 395              	.L27:
 396 0028 00500140 		.word	1073827840
 397 002c 00380240 		.word	1073887232
 398 0030 00140240 		.word	1073878016
 399              		.cfi_endproc
 400              	.LFE134:
 402              		.section	.text.HAL_TIM_Base_MspInit,"ax",%progbits
 403              		.align	1
 404              		.global	HAL_TIM_Base_MspInit
 405              		.syntax unified
 406              		.thumb
 407              		.thumb_func
 408              		.fpu fpv4-sp-d16
 410              	HAL_TIM_Base_MspInit:
 411              	.LFB135:
 228:Src/stm32f4xx_hal_msp.c **** 
 229:Src/stm32f4xx_hal_msp.c **** /**
 230:Src/stm32f4xx_hal_msp.c **** * @brief TIM_Base MSP Initialization
 231:Src/stm32f4xx_hal_msp.c **** * This function configures the hardware resources used in this example
 232:Src/stm32f4xx_hal_msp.c **** * @param htim_base: TIM_Base handle pointer
 233:Src/stm32f4xx_hal_msp.c **** * @retval None
 234:Src/stm32f4xx_hal_msp.c **** */
 235:Src/stm32f4xx_hal_msp.c **** void HAL_TIM_Base_MspInit(TIM_HandleTypeDef* htim_base)
 236:Src/stm32f4xx_hal_msp.c **** {
 412              		.loc 1 236 0
 413              		.cfi_startproc
 414              		@ args = 0, pretend = 0, frame = 8
 415              		@ frame_needed = 0, uses_anonymous_args = 0
 416              	.LVL26:
 417 0000 00B5     		push	{lr}
 418              	.LCFI13:
 419              		.cfi_def_cfa_offset 4
 420              		.cfi_offset 14, -4
 421 0002 83B0     		sub	sp, sp, #12
 422              	.LCFI14:
 423              		.cfi_def_cfa_offset 16
 237:Src/stm32f4xx_hal_msp.c ****   if(htim_base->Instance==TIM6)
 424              		.loc 1 237 0
 425 0004 0368     		ldr	r3, [r0]
 426 0006 184A     		ldr	r2, .L35
 427 0008 9342     		cmp	r3, r2
 428 000a 05D0     		beq	.L33
 238:Src/stm32f4xx_hal_msp.c ****   {
 239:Src/stm32f4xx_hal_msp.c ****   /* USER CODE BEGIN TIM6_MspInit 0 */
 240:Src/stm32f4xx_hal_msp.c **** 
 241:Src/stm32f4xx_hal_msp.c ****   /* USER CODE END TIM6_MspInit 0 */
 242:Src/stm32f4xx_hal_msp.c ****     /* Peripheral clock enable */
 243:Src/stm32f4xx_hal_msp.c ****     __HAL_RCC_TIM6_CLK_ENABLE();
 244:Src/stm32f4xx_hal_msp.c ****     /* TIM6 interrupt Init */
 245:Src/stm32f4xx_hal_msp.c ****     HAL_NVIC_SetPriority(TIM6_DAC_IRQn, 0, 0);
 246:Src/stm32f4xx_hal_msp.c ****     HAL_NVIC_EnableIRQ(TIM6_DAC_IRQn);
 247:Src/stm32f4xx_hal_msp.c ****   /* USER CODE BEGIN TIM6_MspInit 1 */
 248:Src/stm32f4xx_hal_msp.c **** 
 249:Src/stm32f4xx_hal_msp.c ****   /* USER CODE END TIM6_MspInit 1 */
 250:Src/stm32f4xx_hal_msp.c ****   }
 251:Src/stm32f4xx_hal_msp.c ****   else if(htim_base->Instance==TIM7)
ARM GAS  /tmp/ccTjGYTE.s 			page 13


 429              		.loc 1 251 0
 430 000c 174A     		ldr	r2, .L35+4
 431 000e 9342     		cmp	r3, r2
 432 0010 16D0     		beq	.L34
 433              	.LVL27:
 434              	.L29:
 252:Src/stm32f4xx_hal_msp.c ****   {
 253:Src/stm32f4xx_hal_msp.c ****   /* USER CODE BEGIN TIM7_MspInit 0 */
 254:Src/stm32f4xx_hal_msp.c **** 
 255:Src/stm32f4xx_hal_msp.c ****   /* USER CODE END TIM7_MspInit 0 */
 256:Src/stm32f4xx_hal_msp.c ****     /* Peripheral clock enable */
 257:Src/stm32f4xx_hal_msp.c ****     __HAL_RCC_TIM7_CLK_ENABLE();
 258:Src/stm32f4xx_hal_msp.c ****     /* TIM7 interrupt Init */
 259:Src/stm32f4xx_hal_msp.c ****     HAL_NVIC_SetPriority(TIM7_IRQn, 0, 0);
 260:Src/stm32f4xx_hal_msp.c ****     HAL_NVIC_EnableIRQ(TIM7_IRQn);
 261:Src/stm32f4xx_hal_msp.c ****   /* USER CODE BEGIN TIM7_MspInit 1 */
 262:Src/stm32f4xx_hal_msp.c **** 
 263:Src/stm32f4xx_hal_msp.c ****   /* USER CODE END TIM7_MspInit 1 */
 264:Src/stm32f4xx_hal_msp.c ****   }
 265:Src/stm32f4xx_hal_msp.c **** 
 266:Src/stm32f4xx_hal_msp.c **** }
 435              		.loc 1 266 0
 436 0012 03B0     		add	sp, sp, #12
 437              	.LCFI15:
 438              		.cfi_remember_state
 439              		.cfi_def_cfa_offset 4
 440              		@ sp needed
 441 0014 5DF804FB 		ldr	pc, [sp], #4
 442              	.LVL28:
 443              	.L33:
 444              	.LCFI16:
 445              		.cfi_restore_state
 446              	.LBB8:
 243:Src/stm32f4xx_hal_msp.c ****     /* TIM6 interrupt Init */
 447              		.loc 1 243 0
 448 0018 0021     		movs	r1, #0
 449 001a 0091     		str	r1, [sp]
 450 001c 144B     		ldr	r3, .L35+8
 451 001e 1A6C     		ldr	r2, [r3, #64]
 452 0020 42F01002 		orr	r2, r2, #16
 453 0024 1A64     		str	r2, [r3, #64]
 454 0026 1B6C     		ldr	r3, [r3, #64]
 455 0028 03F01003 		and	r3, r3, #16
 456 002c 0093     		str	r3, [sp]
 457 002e 009B     		ldr	r3, [sp]
 458              	.LBE8:
 245:Src/stm32f4xx_hal_msp.c ****     HAL_NVIC_EnableIRQ(TIM6_DAC_IRQn);
 459              		.loc 1 245 0
 460 0030 0A46     		mov	r2, r1
 461 0032 3620     		movs	r0, #54
 462              	.LVL29:
 463 0034 FFF7FEFF 		bl	HAL_NVIC_SetPriority
 464              	.LVL30:
 246:Src/stm32f4xx_hal_msp.c ****   /* USER CODE BEGIN TIM6_MspInit 1 */
 465              		.loc 1 246 0
 466 0038 3620     		movs	r0, #54
 467 003a FFF7FEFF 		bl	HAL_NVIC_EnableIRQ
ARM GAS  /tmp/ccTjGYTE.s 			page 14


 468              	.LVL31:
 469 003e E8E7     		b	.L29
 470              	.LVL32:
 471              	.L34:
 472              	.LBB9:
 257:Src/stm32f4xx_hal_msp.c ****     /* TIM7 interrupt Init */
 473              		.loc 1 257 0
 474 0040 0021     		movs	r1, #0
 475 0042 0191     		str	r1, [sp, #4]
 476 0044 0A4B     		ldr	r3, .L35+8
 477 0046 1A6C     		ldr	r2, [r3, #64]
 478 0048 42F02002 		orr	r2, r2, #32
 479 004c 1A64     		str	r2, [r3, #64]
 480 004e 1B6C     		ldr	r3, [r3, #64]
 481 0050 03F02003 		and	r3, r3, #32
 482 0054 0193     		str	r3, [sp, #4]
 483 0056 019B     		ldr	r3, [sp, #4]
 484              	.LBE9:
 259:Src/stm32f4xx_hal_msp.c ****     HAL_NVIC_EnableIRQ(TIM7_IRQn);
 485              		.loc 1 259 0
 486 0058 0A46     		mov	r2, r1
 487 005a 3720     		movs	r0, #55
 488              	.LVL33:
 489 005c FFF7FEFF 		bl	HAL_NVIC_SetPriority
 490              	.LVL34:
 260:Src/stm32f4xx_hal_msp.c ****   /* USER CODE BEGIN TIM7_MspInit 1 */
 491              		.loc 1 260 0
 492 0060 3720     		movs	r0, #55
 493 0062 FFF7FEFF 		bl	HAL_NVIC_EnableIRQ
 494              	.LVL35:
 495              		.loc 1 266 0
 496 0066 D4E7     		b	.L29
 497              	.L36:
 498              		.align	2
 499              	.L35:
 500 0068 00100040 		.word	1073745920
 501 006c 00140040 		.word	1073746944
 502 0070 00380240 		.word	1073887232
 503              		.cfi_endproc
 504              	.LFE135:
 506              		.section	.text.HAL_TIM_Base_MspDeInit,"ax",%progbits
 507              		.align	1
 508              		.global	HAL_TIM_Base_MspDeInit
 509              		.syntax unified
 510              		.thumb
 511              		.thumb_func
 512              		.fpu fpv4-sp-d16
 514              	HAL_TIM_Base_MspDeInit:
 515              	.LFB136:
 267:Src/stm32f4xx_hal_msp.c **** 
 268:Src/stm32f4xx_hal_msp.c **** /**
 269:Src/stm32f4xx_hal_msp.c **** * @brief TIM_Base MSP De-Initialization
 270:Src/stm32f4xx_hal_msp.c **** * This function freeze the hardware resources used in this example
 271:Src/stm32f4xx_hal_msp.c **** * @param htim_base: TIM_Base handle pointer
 272:Src/stm32f4xx_hal_msp.c **** * @retval None
 273:Src/stm32f4xx_hal_msp.c **** */
 274:Src/stm32f4xx_hal_msp.c **** void HAL_TIM_Base_MspDeInit(TIM_HandleTypeDef* htim_base)
ARM GAS  /tmp/ccTjGYTE.s 			page 15


 275:Src/stm32f4xx_hal_msp.c **** {
 516              		.loc 1 275 0
 517              		.cfi_startproc
 518              		@ args = 0, pretend = 0, frame = 0
 519              		@ frame_needed = 0, uses_anonymous_args = 0
 520              	.LVL36:
 521 0000 08B5     		push	{r3, lr}
 522              	.LCFI17:
 523              		.cfi_def_cfa_offset 8
 524              		.cfi_offset 3, -8
 525              		.cfi_offset 14, -4
 276:Src/stm32f4xx_hal_msp.c ****   if(htim_base->Instance==TIM6)
 526              		.loc 1 276 0
 527 0002 0368     		ldr	r3, [r0]
 528 0004 0B4A     		ldr	r2, .L43
 529 0006 9342     		cmp	r3, r2
 530 0008 03D0     		beq	.L41
 277:Src/stm32f4xx_hal_msp.c ****   {
 278:Src/stm32f4xx_hal_msp.c ****   /* USER CODE BEGIN TIM6_MspDeInit 0 */
 279:Src/stm32f4xx_hal_msp.c **** 
 280:Src/stm32f4xx_hal_msp.c ****   /* USER CODE END TIM6_MspDeInit 0 */
 281:Src/stm32f4xx_hal_msp.c ****     /* Peripheral clock disable */
 282:Src/stm32f4xx_hal_msp.c ****     __HAL_RCC_TIM6_CLK_DISABLE();
 283:Src/stm32f4xx_hal_msp.c **** 
 284:Src/stm32f4xx_hal_msp.c ****     /* TIM6 interrupt DeInit */
 285:Src/stm32f4xx_hal_msp.c ****   /* USER CODE BEGIN TIM6:TIM6_DAC_IRQn disable */
 286:Src/stm32f4xx_hal_msp.c ****     /**
 287:Src/stm32f4xx_hal_msp.c ****     * Uncomment the line below to disable the "TIM6_DAC_IRQn" interrupt
 288:Src/stm32f4xx_hal_msp.c ****     * Be aware, disabling shared interrupt may affect other IPs
 289:Src/stm32f4xx_hal_msp.c ****     */
 290:Src/stm32f4xx_hal_msp.c ****     /* HAL_NVIC_DisableIRQ(TIM6_DAC_IRQn); */
 291:Src/stm32f4xx_hal_msp.c ****   /* USER CODE END TIM6:TIM6_DAC_IRQn disable */
 292:Src/stm32f4xx_hal_msp.c **** 
 293:Src/stm32f4xx_hal_msp.c ****   /* USER CODE BEGIN TIM6_MspDeInit 1 */
 294:Src/stm32f4xx_hal_msp.c **** 
 295:Src/stm32f4xx_hal_msp.c ****   /* USER CODE END TIM6_MspDeInit 1 */
 296:Src/stm32f4xx_hal_msp.c ****   }
 297:Src/stm32f4xx_hal_msp.c ****   else if(htim_base->Instance==TIM7)
 531              		.loc 1 297 0
 532 000a 0B4A     		ldr	r2, .L43+4
 533 000c 9342     		cmp	r3, r2
 534 000e 07D0     		beq	.L42
 535              	.LVL37:
 536              	.L37:
 537 0010 08BD     		pop	{r3, pc}
 538              	.LVL38:
 539              	.L41:
 282:Src/stm32f4xx_hal_msp.c **** 
 540              		.loc 1 282 0
 541 0012 02F50A32 		add	r2, r2, #141312
 542 0016 136C     		ldr	r3, [r2, #64]
 543 0018 23F01003 		bic	r3, r3, #16
 544 001c 1364     		str	r3, [r2, #64]
 545 001e 08BD     		pop	{r3, pc}
 546              	.L42:
 298:Src/stm32f4xx_hal_msp.c ****   {
 299:Src/stm32f4xx_hal_msp.c ****   /* USER CODE BEGIN TIM7_MspDeInit 0 */
ARM GAS  /tmp/ccTjGYTE.s 			page 16


 300:Src/stm32f4xx_hal_msp.c **** 
 301:Src/stm32f4xx_hal_msp.c ****   /* USER CODE END TIM7_MspDeInit 0 */
 302:Src/stm32f4xx_hal_msp.c ****     /* Peripheral clock disable */
 303:Src/stm32f4xx_hal_msp.c ****     __HAL_RCC_TIM7_CLK_DISABLE();
 547              		.loc 1 303 0
 548 0020 02F50932 		add	r2, r2, #140288
 549 0024 136C     		ldr	r3, [r2, #64]
 550 0026 23F02003 		bic	r3, r3, #32
 551 002a 1364     		str	r3, [r2, #64]
 304:Src/stm32f4xx_hal_msp.c **** 
 305:Src/stm32f4xx_hal_msp.c ****     /* TIM7 interrupt DeInit */
 306:Src/stm32f4xx_hal_msp.c ****     HAL_NVIC_DisableIRQ(TIM7_IRQn);
 552              		.loc 1 306 0
 553 002c 3720     		movs	r0, #55
 554              	.LVL39:
 555 002e FFF7FEFF 		bl	HAL_NVIC_DisableIRQ
 556              	.LVL40:
 307:Src/stm32f4xx_hal_msp.c ****   /* USER CODE BEGIN TIM7_MspDeInit 1 */
 308:Src/stm32f4xx_hal_msp.c **** 
 309:Src/stm32f4xx_hal_msp.c ****   /* USER CODE END TIM7_MspDeInit 1 */
 310:Src/stm32f4xx_hal_msp.c ****   }
 311:Src/stm32f4xx_hal_msp.c **** 
 312:Src/stm32f4xx_hal_msp.c **** }
 557              		.loc 1 312 0
 558 0032 EDE7     		b	.L37
 559              	.L44:
 560              		.align	2
 561              	.L43:
 562 0034 00100040 		.word	1073745920
 563 0038 00140040 		.word	1073746944
 564              		.cfi_endproc
 565              	.LFE136:
 567              		.section	.text.HAL_UART_MspInit,"ax",%progbits
 568              		.align	1
 569              		.global	HAL_UART_MspInit
 570              		.syntax unified
 571              		.thumb
 572              		.thumb_func
 573              		.fpu fpv4-sp-d16
 575              	HAL_UART_MspInit:
 576              	.LFB137:
 313:Src/stm32f4xx_hal_msp.c **** 
 314:Src/stm32f4xx_hal_msp.c **** /**
 315:Src/stm32f4xx_hal_msp.c **** * @brief UART MSP Initialization
 316:Src/stm32f4xx_hal_msp.c **** * This function configures the hardware resources used in this example
 317:Src/stm32f4xx_hal_msp.c **** * @param huart: UART handle pointer
 318:Src/stm32f4xx_hal_msp.c **** * @retval None
 319:Src/stm32f4xx_hal_msp.c **** */
 320:Src/stm32f4xx_hal_msp.c **** void HAL_UART_MspInit(UART_HandleTypeDef* huart)
 321:Src/stm32f4xx_hal_msp.c **** {
 577              		.loc 1 321 0
 578              		.cfi_startproc
 579              		@ args = 0, pretend = 0, frame = 32
 580              		@ frame_needed = 0, uses_anonymous_args = 0
 581              	.LVL41:
 582 0000 00B5     		push	{lr}
 583              	.LCFI18:
ARM GAS  /tmp/ccTjGYTE.s 			page 17


 584              		.cfi_def_cfa_offset 4
 585              		.cfi_offset 14, -4
 586 0002 89B0     		sub	sp, sp, #36
 587              	.LCFI19:
 588              		.cfi_def_cfa_offset 40
 322:Src/stm32f4xx_hal_msp.c ****   GPIO_InitTypeDef GPIO_InitStruct = {0};
 589              		.loc 1 322 0
 590 0004 0023     		movs	r3, #0
 591 0006 0393     		str	r3, [sp, #12]
 592 0008 0493     		str	r3, [sp, #16]
 593 000a 0593     		str	r3, [sp, #20]
 594 000c 0693     		str	r3, [sp, #24]
 595 000e 0793     		str	r3, [sp, #28]
 323:Src/stm32f4xx_hal_msp.c ****   if(huart->Instance==USART1)
 596              		.loc 1 323 0
 597 0010 0268     		ldr	r2, [r0]
 598 0012 03F18043 		add	r3, r3, #1073741824
 599 0016 03F58833 		add	r3, r3, #69632
 600 001a 9A42     		cmp	r2, r3
 601 001c 02D0     		beq	.L48
 602              	.LVL42:
 603              	.L45:
 324:Src/stm32f4xx_hal_msp.c ****   {
 325:Src/stm32f4xx_hal_msp.c ****   /* USER CODE BEGIN USART1_MspInit 0 */
 326:Src/stm32f4xx_hal_msp.c **** 
 327:Src/stm32f4xx_hal_msp.c ****   /* USER CODE END USART1_MspInit 0 */
 328:Src/stm32f4xx_hal_msp.c ****     /* Peripheral clock enable */
 329:Src/stm32f4xx_hal_msp.c ****     __HAL_RCC_USART1_CLK_ENABLE();
 330:Src/stm32f4xx_hal_msp.c ****   
 331:Src/stm32f4xx_hal_msp.c ****     __HAL_RCC_GPIOA_CLK_ENABLE();
 332:Src/stm32f4xx_hal_msp.c ****     /**USART1 GPIO Configuration    
 333:Src/stm32f4xx_hal_msp.c ****     PA9     ------> USART1_TX
 334:Src/stm32f4xx_hal_msp.c ****     PA10     ------> USART1_RX 
 335:Src/stm32f4xx_hal_msp.c ****     */
 336:Src/stm32f4xx_hal_msp.c ****     GPIO_InitStruct.Pin = STLINK_RX_Pin|STLINK_TX_Pin;
 337:Src/stm32f4xx_hal_msp.c ****     GPIO_InitStruct.Mode = GPIO_MODE_AF_PP;
 338:Src/stm32f4xx_hal_msp.c ****     GPIO_InitStruct.Pull = GPIO_PULLUP;
 339:Src/stm32f4xx_hal_msp.c ****     GPIO_InitStruct.Speed = GPIO_SPEED_FREQ_VERY_HIGH;
 340:Src/stm32f4xx_hal_msp.c ****     GPIO_InitStruct.Alternate = GPIO_AF7_USART1;
 341:Src/stm32f4xx_hal_msp.c ****     HAL_GPIO_Init(GPIOA, &GPIO_InitStruct);
 342:Src/stm32f4xx_hal_msp.c **** 
 343:Src/stm32f4xx_hal_msp.c ****   /* USER CODE BEGIN USART1_MspInit 1 */
 344:Src/stm32f4xx_hal_msp.c **** 
 345:Src/stm32f4xx_hal_msp.c ****   /* USER CODE END USART1_MspInit 1 */
 346:Src/stm32f4xx_hal_msp.c ****   }
 347:Src/stm32f4xx_hal_msp.c **** 
 348:Src/stm32f4xx_hal_msp.c **** }
 604              		.loc 1 348 0
 605 001e 09B0     		add	sp, sp, #36
 606              	.LCFI20:
 607              		.cfi_remember_state
 608              		.cfi_def_cfa_offset 4
 609              		@ sp needed
 610 0020 5DF804FB 		ldr	pc, [sp], #4
 611              	.LVL43:
 612              	.L48:
 613              	.LCFI21:
ARM GAS  /tmp/ccTjGYTE.s 			page 18


 614              		.cfi_restore_state
 615              	.LBB10:
 329:Src/stm32f4xx_hal_msp.c ****   
 616              		.loc 1 329 0
 617 0024 0021     		movs	r1, #0
 618 0026 0191     		str	r1, [sp, #4]
 619 0028 03F59433 		add	r3, r3, #75776
 620 002c 5A6C     		ldr	r2, [r3, #68]
 621 002e 42F01002 		orr	r2, r2, #16
 622 0032 5A64     		str	r2, [r3, #68]
 623 0034 5A6C     		ldr	r2, [r3, #68]
 624 0036 02F01002 		and	r2, r2, #16
 625 003a 0192     		str	r2, [sp, #4]
 626 003c 019A     		ldr	r2, [sp, #4]
 627              	.LBE10:
 628              	.LBB11:
 331:Src/stm32f4xx_hal_msp.c ****     /**USART1 GPIO Configuration    
 629              		.loc 1 331 0
 630 003e 0291     		str	r1, [sp, #8]
 631 0040 1A6B     		ldr	r2, [r3, #48]
 632 0042 42F00102 		orr	r2, r2, #1
 633 0046 1A63     		str	r2, [r3, #48]
 634 0048 1B6B     		ldr	r3, [r3, #48]
 635 004a 03F00103 		and	r3, r3, #1
 636 004e 0293     		str	r3, [sp, #8]
 637 0050 029B     		ldr	r3, [sp, #8]
 638              	.LBE11:
 336:Src/stm32f4xx_hal_msp.c ****     GPIO_InitStruct.Mode = GPIO_MODE_AF_PP;
 639              		.loc 1 336 0
 640 0052 4FF4C063 		mov	r3, #1536
 641 0056 0393     		str	r3, [sp, #12]
 337:Src/stm32f4xx_hal_msp.c ****     GPIO_InitStruct.Pull = GPIO_PULLUP;
 642              		.loc 1 337 0
 643 0058 0223     		movs	r3, #2
 644 005a 0493     		str	r3, [sp, #16]
 338:Src/stm32f4xx_hal_msp.c ****     GPIO_InitStruct.Speed = GPIO_SPEED_FREQ_VERY_HIGH;
 645              		.loc 1 338 0
 646 005c 0123     		movs	r3, #1
 647 005e 0593     		str	r3, [sp, #20]
 339:Src/stm32f4xx_hal_msp.c ****     GPIO_InitStruct.Alternate = GPIO_AF7_USART1;
 648              		.loc 1 339 0
 649 0060 0323     		movs	r3, #3
 650 0062 0693     		str	r3, [sp, #24]
 340:Src/stm32f4xx_hal_msp.c ****     HAL_GPIO_Init(GPIOA, &GPIO_InitStruct);
 651              		.loc 1 340 0
 652 0064 0723     		movs	r3, #7
 653 0066 0793     		str	r3, [sp, #28]
 341:Src/stm32f4xx_hal_msp.c **** 
 654              		.loc 1 341 0
 655 0068 03A9     		add	r1, sp, #12
 656 006a 0248     		ldr	r0, .L49
 657              	.LVL44:
 658 006c FFF7FEFF 		bl	HAL_GPIO_Init
 659              	.LVL45:
 660              		.loc 1 348 0
 661 0070 D5E7     		b	.L45
 662              	.L50:
ARM GAS  /tmp/ccTjGYTE.s 			page 19


 663 0072 00BF     		.align	2
 664              	.L49:
 665 0074 00000240 		.word	1073872896
 666              		.cfi_endproc
 667              	.LFE137:
 669              		.section	.text.HAL_UART_MspDeInit,"ax",%progbits
 670              		.align	1
 671              		.global	HAL_UART_MspDeInit
 672              		.syntax unified
 673              		.thumb
 674              		.thumb_func
 675              		.fpu fpv4-sp-d16
 677              	HAL_UART_MspDeInit:
 678              	.LFB138:
 349:Src/stm32f4xx_hal_msp.c **** 
 350:Src/stm32f4xx_hal_msp.c **** /**
 351:Src/stm32f4xx_hal_msp.c **** * @brief UART MSP De-Initialization
 352:Src/stm32f4xx_hal_msp.c **** * This function freeze the hardware resources used in this example
 353:Src/stm32f4xx_hal_msp.c **** * @param huart: UART handle pointer
 354:Src/stm32f4xx_hal_msp.c **** * @retval None
 355:Src/stm32f4xx_hal_msp.c **** */
 356:Src/stm32f4xx_hal_msp.c **** void HAL_UART_MspDeInit(UART_HandleTypeDef* huart)
 357:Src/stm32f4xx_hal_msp.c **** {
 679              		.loc 1 357 0
 680              		.cfi_startproc
 681              		@ args = 0, pretend = 0, frame = 0
 682              		@ frame_needed = 0, uses_anonymous_args = 0
 683              	.LVL46:
 684 0000 08B5     		push	{r3, lr}
 685              	.LCFI22:
 686              		.cfi_def_cfa_offset 8
 687              		.cfi_offset 3, -8
 688              		.cfi_offset 14, -4
 358:Src/stm32f4xx_hal_msp.c ****   if(huart->Instance==USART1)
 689              		.loc 1 358 0
 690 0002 0268     		ldr	r2, [r0]
 691 0004 074B     		ldr	r3, .L55
 692 0006 9A42     		cmp	r2, r3
 693 0008 00D0     		beq	.L54
 694              	.LVL47:
 695              	.L51:
 696 000a 08BD     		pop	{r3, pc}
 697              	.LVL48:
 698              	.L54:
 359:Src/stm32f4xx_hal_msp.c ****   {
 360:Src/stm32f4xx_hal_msp.c ****   /* USER CODE BEGIN USART1_MspDeInit 0 */
 361:Src/stm32f4xx_hal_msp.c **** 
 362:Src/stm32f4xx_hal_msp.c ****   /* USER CODE END USART1_MspDeInit 0 */
 363:Src/stm32f4xx_hal_msp.c ****     /* Peripheral clock disable */
 364:Src/stm32f4xx_hal_msp.c ****     __HAL_RCC_USART1_CLK_DISABLE();
 699              		.loc 1 364 0
 700 000c 064A     		ldr	r2, .L55+4
 701 000e 536C     		ldr	r3, [r2, #68]
 702 0010 23F01003 		bic	r3, r3, #16
 703 0014 5364     		str	r3, [r2, #68]
 365:Src/stm32f4xx_hal_msp.c ****   
 366:Src/stm32f4xx_hal_msp.c ****     /**USART1 GPIO Configuration    
ARM GAS  /tmp/ccTjGYTE.s 			page 20


 367:Src/stm32f4xx_hal_msp.c ****     PA9     ------> USART1_TX
 368:Src/stm32f4xx_hal_msp.c ****     PA10     ------> USART1_RX 
 369:Src/stm32f4xx_hal_msp.c ****     */
 370:Src/stm32f4xx_hal_msp.c ****     HAL_GPIO_DeInit(GPIOA, STLINK_RX_Pin|STLINK_TX_Pin);
 704              		.loc 1 370 0
 705 0016 4FF4C061 		mov	r1, #1536
 706 001a 0448     		ldr	r0, .L55+8
 707              	.LVL49:
 708 001c FFF7FEFF 		bl	HAL_GPIO_DeInit
 709              	.LVL50:
 371:Src/stm32f4xx_hal_msp.c **** 
 372:Src/stm32f4xx_hal_msp.c ****   /* USER CODE BEGIN USART1_MspDeInit 1 */
 373:Src/stm32f4xx_hal_msp.c **** 
 374:Src/stm32f4xx_hal_msp.c ****   /* USER CODE END USART1_MspDeInit 1 */
 375:Src/stm32f4xx_hal_msp.c ****   }
 376:Src/stm32f4xx_hal_msp.c **** 
 377:Src/stm32f4xx_hal_msp.c **** }
 710              		.loc 1 377 0
 711 0020 F3E7     		b	.L51
 712              	.L56:
 713 0022 00BF     		.align	2
 714              	.L55:
 715 0024 00100140 		.word	1073811456
 716 0028 00380240 		.word	1073887232
 717 002c 00000240 		.word	1073872896
 718              		.cfi_endproc
 719              	.LFE138:
 721              		.text
 722              	.Letext0:
 723              		.file 2 "/usr/include/newlib/machine/_default_types.h"
 724              		.file 3 "/usr/include/newlib/sys/_stdint.h"
 725              		.file 4 "Drivers/CMSIS/Include/core_cm4.h"
 726              		.file 5 "Drivers/CMSIS/Device/ST/STM32F4xx/Include/system_stm32f4xx.h"
 727              		.file 6 "Drivers/CMSIS/Device/ST/STM32F4xx/Include/stm32f429xx.h"
 728              		.file 7 "Drivers/STM32F4xx_HAL_Driver/Inc/stm32f4xx_hal_def.h"
 729              		.file 8 "Drivers/STM32F4xx_HAL_Driver/Inc/stm32f4xx_hal_gpio.h"
 730              		.file 9 "Drivers/STM32F4xx_HAL_Driver/Inc/stm32f4xx_hal_dma.h"
 731              		.file 10 "Drivers/STM32F4xx_HAL_Driver/Inc/stm32f4xx_hal_dac.h"
 732              		.file 11 "Drivers/STM32F4xx_HAL_Driver/Inc/stm32f4xx_hal_spi.h"
 733              		.file 12 "Drivers/STM32F4xx_HAL_Driver/Inc/stm32f4xx_hal_tim.h"
 734              		.file 13 "Drivers/STM32F4xx_HAL_Driver/Inc/stm32f4xx_hal_uart.h"
 735              		.file 14 "Drivers/STM32F4xx_HAL_Driver/Inc/stm32f4xx_hal_cortex.h"
ARM GAS  /tmp/ccTjGYTE.s 			page 21

