ARM GAS  /tmp/ccEb4zHK.s 			page 1


   1              		.cpu cortex-m4
   2              		.eabi_attribute 27, 1
   3              		.eabi_attribute 28, 1
   4              		.eabi_attribute 20, 1
   5              		.eabi_attribute 21, 1
   6              		.eabi_attribute 23, 3
   7              		.eabi_attribute 24, 1
   8              		.eabi_attribute 25, 1
   9              		.eabi_attribute 26, 1
  10              		.eabi_attribute 30, 1
  11              		.eabi_attribute 34, 1
  12              		.eabi_attribute 18, 4
  13              		.file	"waves.c"
  14              		.text
  15              	.Ltext0:
  16              		.cfi_sections	.debug_frame
  17              		.global	__aeabi_i2d
  18              		.global	__aeabi_dmul
  19              		.global	__aeabi_dadd
  20              		.global	__aeabi_d2uiz
  21              		.section	.text.generate_base_sine,"ax",%progbits
  22              		.align	1
  23              		.global	generate_base_sine
  24              		.syntax unified
  25              		.thumb
  26              		.thumb_func
  27              		.fpu fpv4-sp-d16
  29              	generate_base_sine:
  30              	.LFB1:
  31              		.file 1 "Src/waves.c"
   1:Src/waves.c   **** #include "waves.h"
   2:Src/waves.c   **** #include <math.h>
   3:Src/waves.c   **** #include <stdint.h>
   4:Src/waves.c   **** 
   5:Src/waves.c   **** void init_wavetable(){   
   6:Src/waves.c   ****     generate_base_sine(base_sine);
   7:Src/waves.c   ****     //generate_base_pos_saw(base_pos_saw);
   8:Src/waves.c   ****     //generate_base_neg_saw(base_neg_saw);
   9:Src/waves.c   ****     //generate_base_tri(base_tri);
  10:Src/waves.c   ****     //generate_base_sq(base_sq);
  11:Src/waves.c   **** 
  12:Src/waves.c   ****     generate_lfo_sine(lfo_sine);
  13:Src/waves.c   **** }
  14:Src/waves.c   **** 
  15:Src/waves.c   **** void generate_base_sine(uint16_t* buffer){
  32              		.loc 1 15 0
  33              		.cfi_startproc
  34              		@ args = 0, pretend = 0, frame = 0
  35              		@ frame_needed = 0, uses_anonymous_args = 0
  36              	.LVL0:
  37 0000 38B5     		push	{r3, r4, r5, lr}
  38              	.LCFI0:
  39              		.cfi_def_cfa_offset 16
  40              		.cfi_offset 3, -16
  41              		.cfi_offset 4, -12
  42              		.cfi_offset 5, -8
  43              		.cfi_offset 14, -4
ARM GAS  /tmp/ccEb4zHK.s 			page 2


  44 0002 0546     		mov	r5, r0
  45              	.LVL1:
  46              	.LBB2:
  16:Src/waves.c   ****   for(int i = 0; i < N; i++){
  47              		.loc 1 16 0
  48 0004 0024     		movs	r4, #0
  49 0006 1AE0     		b	.L2
  50              	.LVL2:
  51              	.L3:
  52              	.LBB3:
  17:Src/waves.c   ****     double delta = 2*M_PI/N;
  18:Src/waves.c   ****     double x = delta * i;
  53              		.loc 1 18 0 discriminator 3
  54 0008 2046     		mov	r0, r4
  55 000a FFF7FEFF 		bl	__aeabi_i2d
  56              	.LVL3:
  57 000e 0FA3     		adr	r3, .L5+4
  58 0010 D3E90023 		ldrd	r2, [r3]
  59 0014 FFF7FEFF 		bl	__aeabi_dmul
  60              	.LVL4:
  19:Src/waves.c   ****     buffer[i] = (65536/2) * sin(x) + (65536/2);
  61              		.loc 1 19 0 discriminator 3
  62 0018 41EC100B 		vmov	d0, r0, r1
  63 001c FFF7FEFF 		bl	sin
  64              	.LVL5:
  65 0020 0022     		movs	r2, #0
  66 0022 094B     		ldr	r3, .L5
  67 0024 51EC100B 		vmov	r0, r1, d0
  68 0028 FFF7FEFF 		bl	__aeabi_dmul
  69              	.LVL6:
  70 002c 0022     		movs	r2, #0
  71 002e 064B     		ldr	r3, .L5
  72 0030 FFF7FEFF 		bl	__aeabi_dadd
  73              	.LVL7:
  74 0034 FFF7FEFF 		bl	__aeabi_d2uiz
  75              	.LVL8:
  76 0038 25F81400 		strh	r0, [r5, r4, lsl #1]	@ movhi
  77              	.LBE3:
  16:Src/waves.c   ****   for(int i = 0; i < N; i++){
  78              		.loc 1 16 0 discriminator 3
  79 003c 0134     		adds	r4, r4, #1
  80              	.LVL9:
  81              	.L2:
  16:Src/waves.c   ****   for(int i = 0; i < N; i++){
  82              		.loc 1 16 0 is_stmt 0 discriminator 1
  83 003e B4F5805F 		cmp	r4, #4096
  84 0042 E1DB     		blt	.L3
  85              	.LBE2:
  20:Src/waves.c   ****   }
  21:Src/waves.c   **** }
  86              		.loc 1 21 0 is_stmt 1
  87 0044 38BD     		pop	{r3, r4, r5, pc}
  88              	.LVL10:
  89              	.L6:
  90 0046 00BF     		.align	3
  91              	.L5:
  92 0048 0000E040 		.word	1088421888
ARM GAS  /tmp/ccEb4zHK.s 			page 3


  93 004c 182D4454 		.word	1413754136
  94 0050 FB21593F 		.word	1062806011
  95              		.cfi_endproc
  96              	.LFE1:
  98              		.section	.text.generate_base_pos_saw,"ax",%progbits
  99              		.align	1
 100              		.global	generate_base_pos_saw
 101              		.syntax unified
 102              		.thumb
 103              		.thumb_func
 104              		.fpu fpv4-sp-d16
 106              	generate_base_pos_saw:
 107              	.LFB2:
  22:Src/waves.c   **** 
  23:Src/waves.c   **** void generate_base_pos_saw(int8_t* buffer){
 108              		.loc 1 23 0
 109              		.cfi_startproc
 110              		@ args = 0, pretend = 0, frame = 0
 111              		@ frame_needed = 0, uses_anonymous_args = 0
 112              		@ link register save eliminated.
 113              	.LVL11:
 114              	.LBB4:
  24:Src/waves.c   ****   for(int i = 0; i < N; i++){
 115              		.loc 1 24 0
 116 0000 0023     		movs	r3, #0
 117              	.LVL12:
 118 0002 B3F5805F 		cmp	r3, #4096
 119 0006 14DA     		bge	.L14
 120              	.LBE4:
  23:Src/waves.c   ****   for(int i = 0; i < N; i++){
 121              		.loc 1 23 0
 122 0008 10B4     		push	{r4}
 123              	.LCFI1:
 124              		.cfi_def_cfa_offset 4
 125              		.cfi_offset 4, -4
 126 000a 05E0     		b	.L10
 127              	.L9:
 128              	.LBB5:
  25:Src/waves.c   ****     buffer[i] = (AMPLITUDE * i)/N;
 129              		.loc 1 25 0 discriminator 3
 130 000c 1213     		asrs	r2, r2, #12
 131 000e 2270     		strb	r2, [r4]
  24:Src/waves.c   ****   for(int i = 0; i < N; i++){
 132              		.loc 1 24 0 discriminator 3
 133 0010 0133     		adds	r3, r3, #1
 134              	.LVL13:
 135 0012 B3F5805F 		cmp	r3, #4096
 136 0016 09DA     		bge	.L15
 137              	.L10:
 138              		.loc 1 25 0 discriminator 3
 139 0018 C418     		adds	r4, r0, r3
 140 001a C3EB8312 		rsb	r2, r3, r3, lsl #6
 141 001e 5100     		lsls	r1, r2, #1
 142 0020 0A46     		mov	r2, r1
 143 0022 0029     		cmp	r1, #0
 144 0024 F2DA     		bge	.L9
 145 0026 01F6FF72 		addw	r2, r1, #4095
ARM GAS  /tmp/ccEb4zHK.s 			page 4


 146 002a EFE7     		b	.L9
 147              	.L15:
 148              	.LBE5:
  26:Src/waves.c   ****   }
  27:Src/waves.c   **** }
 149              		.loc 1 27 0
 150 002c 5DF8044B 		ldr	r4, [sp], #4
 151              	.LCFI2:
 152              		.cfi_restore 4
 153              		.cfi_def_cfa_offset 0
 154 0030 7047     		bx	lr
 155              	.L14:
 156 0032 7047     		bx	lr
 157              		.cfi_endproc
 158              	.LFE2:
 160              		.section	.text.generate_base_neg_saw,"ax",%progbits
 161              		.align	1
 162              		.global	generate_base_neg_saw
 163              		.syntax unified
 164              		.thumb
 165              		.thumb_func
 166              		.fpu fpv4-sp-d16
 168              	generate_base_neg_saw:
 169              	.LFB3:
  28:Src/waves.c   **** 
  29:Src/waves.c   **** void generate_base_neg_saw(int8_t* buffer){
 170              		.loc 1 29 0
 171              		.cfi_startproc
 172              		@ args = 0, pretend = 0, frame = 0
 173              		@ frame_needed = 0, uses_anonymous_args = 0
 174              		@ link register save eliminated.
 175              	.LVL14:
 176              	.LBB6:
  30:Src/waves.c   ****   for(int i = 0; i < N; i++){
 177              		.loc 1 30 0
 178 0000 0023     		movs	r3, #0
 179              	.LVL15:
 180 0002 B3F5805F 		cmp	r3, #4096
 181 0006 16DA     		bge	.L23
 182              	.LBE6:
  29:Src/waves.c   ****   for(int i = 0; i < N; i++){
 183              		.loc 1 29 0
 184 0008 10B4     		push	{r4}
 185              	.LCFI3:
 186              		.cfi_def_cfa_offset 4
 187              		.cfi_offset 4, -4
 188 000a 05E0     		b	.L19
 189              	.L18:
 190              	.LBB7:
  31:Src/waves.c   ****     buffer[(int)N-i-1] = (AMPLITUDE * i)/N;
 191              		.loc 1 31 0 discriminator 3
 192 000c 1213     		asrs	r2, r2, #12
 193 000e 0255     		strb	r2, [r0, r4]
  30:Src/waves.c   ****   for(int i = 0; i < N; i++){
 194              		.loc 1 30 0 discriminator 3
 195 0010 0133     		adds	r3, r3, #1
 196              	.LVL16:
ARM GAS  /tmp/ccEb4zHK.s 			page 5


 197 0012 B3F5805F 		cmp	r3, #4096
 198 0016 0BDA     		bge	.L24
 199              	.L19:
 200              		.loc 1 31 0 discriminator 3
 201 0018 C3F57F64 		rsb	r4, r3, #4080
 202 001c 0F34     		adds	r4, r4, #15
 203 001e C3EB8312 		rsb	r2, r3, r3, lsl #6
 204 0022 5100     		lsls	r1, r2, #1
 205 0024 0A46     		mov	r2, r1
 206 0026 0029     		cmp	r1, #0
 207 0028 F0DA     		bge	.L18
 208 002a 01F6FF72 		addw	r2, r1, #4095
 209 002e EDE7     		b	.L18
 210              	.L24:
 211              	.LBE7:
  32:Src/waves.c   ****   }
  33:Src/waves.c   **** }
 212              		.loc 1 33 0
 213 0030 5DF8044B 		ldr	r4, [sp], #4
 214              	.LCFI4:
 215              		.cfi_restore 4
 216              		.cfi_def_cfa_offset 0
 217 0034 7047     		bx	lr
 218              	.L23:
 219 0036 7047     		bx	lr
 220              		.cfi_endproc
 221              	.LFE3:
 223              		.section	.text.generate_base_tri,"ax",%progbits
 224              		.align	1
 225              		.global	generate_base_tri
 226              		.syntax unified
 227              		.thumb
 228              		.thumb_func
 229              		.fpu fpv4-sp-d16
 231              	generate_base_tri:
 232              	.LFB4:
  34:Src/waves.c   **** 
  35:Src/waves.c   **** void generate_base_tri(int8_t* buffer){
 233              		.loc 1 35 0
 234              		.cfi_startproc
 235              		@ args = 0, pretend = 0, frame = 0
 236              		@ frame_needed = 0, uses_anonymous_args = 0
 237              		@ link register save eliminated.
 238              	.LVL17:
 239 0000 10B4     		push	{r4}
 240              	.LCFI5:
 241              		.cfi_def_cfa_offset 4
 242              		.cfi_offset 4, -4
 243              	.LVL18:
 244              	.LBB8:
  36:Src/waves.c   ****   for(int i = 0; i < N/2; i++){
 245              		.loc 1 36 0
 246 0002 0023     		movs	r3, #0
 247 0004 02E0     		b	.L26
 248              	.LVL19:
 249              	.L27:
  37:Src/waves.c   ****     buffer[i] = (AMPLITUDE * 2*i)/N;
ARM GAS  /tmp/ccEb4zHK.s 			page 6


 250              		.loc 1 37 0 discriminator 3
 251 0006 1213     		asrs	r2, r2, #12
 252 0008 2270     		strb	r2, [r4]
  36:Src/waves.c   ****   for(int i = 0; i < N/2; i++){
 253              		.loc 1 36 0 discriminator 3
 254 000a 0133     		adds	r3, r3, #1
 255              	.LVL20:
 256              	.L26:
  36:Src/waves.c   ****   for(int i = 0; i < N/2; i++){
 257              		.loc 1 36 0 is_stmt 0 discriminator 1
 258 000c B3F5006F 		cmp	r3, #2048
 259 0010 09DA     		bge	.L33
 260              		.loc 1 37 0 is_stmt 1 discriminator 3
 261 0012 C418     		adds	r4, r0, r3
 262 0014 C3EB8312 		rsb	r2, r3, r3, lsl #6
 263 0018 9100     		lsls	r1, r2, #2
 264 001a 0A46     		mov	r2, r1
 265 001c 0029     		cmp	r1, #0
 266 001e F2DA     		bge	.L27
 267 0020 01F6FF72 		addw	r2, r1, #4095
 268 0024 EFE7     		b	.L27
 269              	.L33:
 270 0026 4FF40062 		mov	r2, #2048
 271 002a 02E0     		b	.L29
 272              	.LVL21:
 273              	.L30:
 274              	.LBE8:
 275              	.LBB9:
  38:Src/waves.c   ****   }
  39:Src/waves.c   ****   for(int i = N/2; i < N; i++){
  40:Src/waves.c   ****     buffer[i] = (AMPLITUDE * 2*(N-i))/N;
 276              		.loc 1 40 0 discriminator 3
 277 002c 1B13     		asrs	r3, r3, #12
 278 002e 2370     		strb	r3, [r4]
  39:Src/waves.c   ****     buffer[i] = (AMPLITUDE * 2*(N-i))/N;
 279              		.loc 1 39 0 discriminator 3
 280 0030 0132     		adds	r2, r2, #1
 281              	.LVL22:
 282              	.L29:
  39:Src/waves.c   ****     buffer[i] = (AMPLITUDE * 2*(N-i))/N;
 283              		.loc 1 39 0 is_stmt 0 discriminator 1
 284 0032 B2F5805F 		cmp	r2, #4096
 285 0036 0BDA     		bge	.L34
 286              		.loc 1 40 0 is_stmt 1 discriminator 3
 287 0038 8418     		adds	r4, r0, r2
 288 003a C2F58053 		rsb	r3, r2, #4096
 289 003e C3EB8313 		rsb	r3, r3, r3, lsl #6
 290 0042 9900     		lsls	r1, r3, #2
 291 0044 0B46     		mov	r3, r1
 292 0046 0029     		cmp	r1, #0
 293 0048 F0DA     		bge	.L30
 294 004a 01F6FF73 		addw	r3, r1, #4095
 295 004e EDE7     		b	.L30
 296              	.L34:
 297              	.LBE9:
  41:Src/waves.c   ****   }
  42:Src/waves.c   **** }
ARM GAS  /tmp/ccEb4zHK.s 			page 7


 298              		.loc 1 42 0
 299 0050 5DF8044B 		ldr	r4, [sp], #4
 300              	.LCFI6:
 301              		.cfi_restore 4
 302              		.cfi_def_cfa_offset 0
 303 0054 7047     		bx	lr
 304              		.cfi_endproc
 305              	.LFE4:
 307              		.section	.text.generate_base_sq,"ax",%progbits
 308              		.align	1
 309              		.global	generate_base_sq
 310              		.syntax unified
 311              		.thumb
 312              		.thumb_func
 313              		.fpu fpv4-sp-d16
 315              	generate_base_sq:
 316              	.LFB5:
  43:Src/waves.c   **** 
  44:Src/waves.c   **** void generate_base_sq(int8_t* buffer){
 317              		.loc 1 44 0
 318              		.cfi_startproc
 319              		@ args = 0, pretend = 0, frame = 0
 320              		@ frame_needed = 0, uses_anonymous_args = 0
 321              		@ link register save eliminated.
 322              	.LVL23:
 323              	.LBB10:
  45:Src/waves.c   ****   for(int i = 0; i < N; i++){
 324              		.loc 1 45 0
 325 0000 0023     		movs	r3, #0
 326 0002 02E0     		b	.L36
 327              	.LVL24:
 328              	.L37:
  46:Src/waves.c   ****     if(i < N/2){
  47:Src/waves.c   ****       buffer[i] = AMPLITUDE;
  48:Src/waves.c   ****     }
  49:Src/waves.c   ****     else{
  50:Src/waves.c   ****       buffer[i] = -AMPLITUDE;
 329              		.loc 1 50 0
 330 0004 8222     		movs	r2, #130
 331 0006 C254     		strb	r2, [r0, r3]
 332              	.L38:
  45:Src/waves.c   ****   for(int i = 0; i < N; i++){
 333              		.loc 1 45 0 discriminator 2
 334 0008 0133     		adds	r3, r3, #1
 335              	.LVL25:
 336              	.L36:
  45:Src/waves.c   ****   for(int i = 0; i < N; i++){
 337              		.loc 1 45 0 is_stmt 0 discriminator 1
 338 000a B3F5805F 		cmp	r3, #4096
 339 000e 05DA     		bge	.L40
  46:Src/waves.c   ****     if(i < N/2){
 340              		.loc 1 46 0 is_stmt 1
 341 0010 B3F5006F 		cmp	r3, #2048
 342 0014 F6DA     		bge	.L37
  47:Src/waves.c   ****     }
 343              		.loc 1 47 0
 344 0016 7E22     		movs	r2, #126
ARM GAS  /tmp/ccEb4zHK.s 			page 8


 345 0018 C254     		strb	r2, [r0, r3]
 346 001a F5E7     		b	.L38
 347              	.L40:
 348              	.LBE10:
  51:Src/waves.c   ****     }
  52:Src/waves.c   ****   }
  53:Src/waves.c   **** }
 349              		.loc 1 53 0
 350 001c 7047     		bx	lr
 351              		.cfi_endproc
 352              	.LFE5:
 354              		.section	.text.generate_lfo_sine,"ax",%progbits
 355              		.align	1
 356              		.global	generate_lfo_sine
 357              		.syntax unified
 358              		.thumb
 359              		.thumb_func
 360              		.fpu fpv4-sp-d16
 362              	generate_lfo_sine:
 363              	.LFB6:
  54:Src/waves.c   **** 
  55:Src/waves.c   **** void generate_lfo_sine(uint8_t* buffer){
 364              		.loc 1 55 0
 365              		.cfi_startproc
 366              		@ args = 0, pretend = 0, frame = 0
 367              		@ frame_needed = 0, uses_anonymous_args = 0
 368              	.LVL26:
 369 0000 38B5     		push	{r3, r4, r5, lr}
 370              	.LCFI7:
 371              		.cfi_def_cfa_offset 16
 372              		.cfi_offset 3, -16
 373              		.cfi_offset 4, -12
 374              		.cfi_offset 5, -8
 375              		.cfi_offset 14, -4
 376 0002 0546     		mov	r5, r0
 377              	.LVL27:
 378              	.LBB11:
  56:Src/waves.c   ****     for(int i = 0; i < 256; i++){
 379              		.loc 1 56 0
 380 0004 0024     		movs	r4, #0
 381 0006 19E0     		b	.L42
 382              	.LVL28:
 383              	.L43:
 384              	.LBB12:
  57:Src/waves.c   ****         double delta = 2*M_PI/256;
  58:Src/waves.c   ****         double x = delta * i;
 385              		.loc 1 58 0 discriminator 3
 386 0008 2046     		mov	r0, r4
 387 000a FFF7FEFF 		bl	__aeabi_i2d
 388              	.LVL29:
 389 000e 0FA3     		adr	r3, .L45+4
 390 0010 D3E90023 		ldrd	r2, [r3]
 391 0014 FFF7FEFF 		bl	__aeabi_dmul
 392              	.LVL30:
  59:Src/waves.c   ****         buffer[i] = sin(x) * 126 + 126;
 393              		.loc 1 59 0 discriminator 3
 394 0018 41EC100B 		vmov	d0, r0, r1
ARM GAS  /tmp/ccEb4zHK.s 			page 9


 395 001c FFF7FEFF 		bl	sin
 396              	.LVL31:
 397 0020 0022     		movs	r2, #0
 398 0022 094B     		ldr	r3, .L45
 399 0024 51EC100B 		vmov	r0, r1, d0
 400 0028 FFF7FEFF 		bl	__aeabi_dmul
 401              	.LVL32:
 402 002c 0022     		movs	r2, #0
 403 002e 064B     		ldr	r3, .L45
 404 0030 FFF7FEFF 		bl	__aeabi_dadd
 405              	.LVL33:
 406 0034 FFF7FEFF 		bl	__aeabi_d2uiz
 407              	.LVL34:
 408 0038 2855     		strb	r0, [r5, r4]
 409              	.LBE12:
  56:Src/waves.c   ****     for(int i = 0; i < 256; i++){
 410              		.loc 1 56 0 discriminator 3
 411 003a 0134     		adds	r4, r4, #1
 412              	.LVL35:
 413              	.L42:
  56:Src/waves.c   ****     for(int i = 0; i < 256; i++){
 414              		.loc 1 56 0 is_stmt 0 discriminator 1
 415 003c FF2C     		cmp	r4, #255
 416 003e E3DD     		ble	.L43
 417              	.LBE11:
  60:Src/waves.c   ****     }
  61:Src/waves.c   **** }
 418              		.loc 1 61 0 is_stmt 1
 419 0040 38BD     		pop	{r3, r4, r5, pc}
 420              	.LVL36:
 421              	.L46:
 422 0042 00BFAFF3 		.align	3
 422      0080
 423              	.L45:
 424 0048 00805F40 		.word	1080000512
 425 004c 182D4454 		.word	1413754136
 426 0050 FB21993F 		.word	1067000315
 427              		.cfi_endproc
 428              	.LFE6:
 430              		.section	.text.init_wavetable,"ax",%progbits
 431              		.align	1
 432              		.global	init_wavetable
 433              		.syntax unified
 434              		.thumb
 435              		.thumb_func
 436              		.fpu fpv4-sp-d16
 438              	init_wavetable:
 439              	.LFB0:
   5:Src/waves.c   ****     generate_base_sine(base_sine);
 440              		.loc 1 5 0
 441              		.cfi_startproc
 442              		@ args = 0, pretend = 0, frame = 0
 443              		@ frame_needed = 0, uses_anonymous_args = 0
 444 0000 08B5     		push	{r3, lr}
 445              	.LCFI8:
 446              		.cfi_def_cfa_offset 8
 447              		.cfi_offset 3, -8
ARM GAS  /tmp/ccEb4zHK.s 			page 10


 448              		.cfi_offset 14, -4
   6:Src/waves.c   ****     //generate_base_pos_saw(base_pos_saw);
 449              		.loc 1 6 0
 450 0002 0348     		ldr	r0, .L49
 451 0004 FFF7FEFF 		bl	generate_base_sine
 452              	.LVL37:
  12:Src/waves.c   **** }
 453              		.loc 1 12 0
 454 0008 0248     		ldr	r0, .L49+4
 455 000a FFF7FEFF 		bl	generate_lfo_sine
 456              	.LVL38:
 457 000e 08BD     		pop	{r3, pc}
 458              	.L50:
 459              		.align	2
 460              	.L49:
 461 0010 00000000 		.word	base_sine
 462 0014 00000000 		.word	lfo_sine
 463              		.cfi_endproc
 464              	.LFE0:
 466              		.comm	lfo_sine,256,4
 467              		.comm	base_sine,8192,4
 468              		.text
 469              	.Letext0:
 470              		.file 2 "/usr/include/newlib/machine/_default_types.h"
 471              		.file 3 "/usr/include/newlib/sys/lock.h"
 472              		.file 4 "/usr/include/newlib/sys/_types.h"
 473              		.file 5 "/usr/lib/gcc/arm-none-eabi/6.3.1/include/stddef.h"
 474              		.file 6 "/usr/include/newlib/sys/reent.h"
 475              		.file 7 "/usr/include/newlib/stdlib.h"
 476              		.file 8 "/usr/include/newlib/sys/_stdint.h"
 477              		.file 9 "Inc/waves.h"
 478              		.file 10 "/usr/include/newlib/math.h"
ARM GAS  /tmp/ccEb4zHK.s 			page 11

