ARM GAS  /tmp/ccrzXCfd.s 			page 1


   1              		.cpu cortex-m4
   2              		.eabi_attribute 27, 1
   3              		.eabi_attribute 28, 1
   4              		.eabi_attribute 20, 1
   5              		.eabi_attribute 21, 1
   6              		.eabi_attribute 23, 3
   7              		.eabi_attribute 24, 1
   8              		.eabi_attribute 25, 1
   9              		.eabi_attribute 26, 1
  10              		.eabi_attribute 30, 1
  11              		.eabi_attribute 34, 1
  12              		.eabi_attribute 18, 4
  13              		.file	"waves.c"
  14              		.text
  15              	.Ltext0:
  16              		.cfi_sections	.debug_frame
  17              		.global	__aeabi_i2d
  18              		.global	__aeabi_dmul
  19              		.global	__aeabi_dadd
  20              		.global	__aeabi_d2uiz
  21              		.section	.text.generate_base_sine,"ax",%progbits
  22              		.align	1
  23              		.global	generate_base_sine
  24              		.syntax unified
  25              		.thumb
  26              		.thumb_func
  27              		.fpu fpv4-sp-d16
  29              	generate_base_sine:
  30              	.LFB1:
  31              		.file 1 "Src/waves.c"
   1:Src/waves.c   **** #include "waves.h"
   2:Src/waves.c   **** #include <math.h>
   3:Src/waves.c   **** #include <stdint.h>
   4:Src/waves.c   **** 
   5:Src/waves.c   **** void init_wavetable(){
   6:Src/waves.c   ****     generate_base_sine(base_sine);
   7:Src/waves.c   ****     generate_base_pos_saw(base_pos_saw);
   8:Src/waves.c   ****     generate_base_neg_saw(base_neg_saw);
   9:Src/waves.c   ****     generate_base_tri(base_tri);
  10:Src/waves.c   ****     generate_base_sq(base_sq);
  11:Src/waves.c   ****     generate_lfo_sine(lfo_sine);
  12:Src/waves.c   **** }
  13:Src/waves.c   **** 
  14:Src/waves.c   **** void generate_base_sine(uint8_t* buffer){
  32              		.loc 1 14 0
  33              		.cfi_startproc
  34              		@ args = 0, pretend = 0, frame = 0
  35              		@ frame_needed = 0, uses_anonymous_args = 0
  36              	.LVL0:
  37 0000 38B5     		push	{r3, r4, r5, lr}
  38              	.LCFI0:
  39              		.cfi_def_cfa_offset 16
  40              		.cfi_offset 3, -16
  41              		.cfi_offset 4, -12
  42              		.cfi_offset 5, -8
  43              		.cfi_offset 14, -4
  44 0002 0546     		mov	r5, r0
ARM GAS  /tmp/ccrzXCfd.s 			page 2


  45              	.LVL1:
  46              	.LBB2:
  15:Src/waves.c   ****   for(int i = 0; i < N; i++){
  47              		.loc 1 15 0
  48 0004 0024     		movs	r4, #0
  49 0006 1BE0     		b	.L2
  50              	.LVL2:
  51              	.L3:
  52              	.LBB3:
  16:Src/waves.c   ****     double delta = 2*M_PI/N;
  17:Src/waves.c   ****     double x = delta * i;
  53              		.loc 1 17 0 discriminator 3
  54 0008 2046     		mov	r0, r4
  55 000a FFF7FEFF 		bl	__aeabi_i2d
  56              	.LVL3:
  57 000e 0EA3     		adr	r3, .L5
  58 0010 D3E90023 		ldrd	r2, [r3]
  59 0014 FFF7FEFF 		bl	__aeabi_dmul
  60              	.LVL4:
  18:Src/waves.c   ****     buffer[i] = (AMPLITUDE/2) * sin(x) + (AMPLITUDE/2);
  61              		.loc 1 18 0 discriminator 3
  62 0018 41EC100B 		vmov	d0, r0, r1
  63 001c FFF7FEFF 		bl	sin
  64              	.LVL5:
  65 0020 0BA3     		adr	r3, .L5+8
  66 0022 D3E90023 		ldrd	r2, [r3]
  67 0026 51EC100B 		vmov	r0, r1, d0
  68 002a FFF7FEFF 		bl	__aeabi_dmul
  69              	.LVL6:
  70 002e 08A3     		adr	r3, .L5+8
  71 0030 D3E90023 		ldrd	r2, [r3]
  72 0034 FFF7FEFF 		bl	__aeabi_dadd
  73              	.LVL7:
  74 0038 FFF7FEFF 		bl	__aeabi_d2uiz
  75              	.LVL8:
  76 003c 2855     		strb	r0, [r5, r4]
  77              	.LBE3:
  15:Src/waves.c   ****   for(int i = 0; i < N; i++){
  78              		.loc 1 15 0 discriminator 3
  79 003e 0134     		adds	r4, r4, #1
  80              	.LVL9:
  81              	.L2:
  15:Src/waves.c   ****   for(int i = 0; i < N; i++){
  82              		.loc 1 15 0 is_stmt 0 discriminator 1
  83 0040 B4F5805F 		cmp	r4, #4096
  84 0044 E0DB     		blt	.L3
  85              	.LBE2:
  19:Src/waves.c   ****   }
  20:Src/waves.c   **** }
  86              		.loc 1 20 0 is_stmt 1
  87 0046 38BD     		pop	{r3, r4, r5, pc}
  88              	.LVL10:
  89              	.L6:
  90              		.align	3
  91              	.L5:
  92 0048 182D4454 		.word	1413754136
  93 004c FB21593F 		.word	1062806011
ARM GAS  /tmp/ccrzXCfd.s 			page 3


  94 0050 00000000 		.word	0
  95 0054 00C05F40 		.word	1080016896
  96              		.cfi_endproc
  97              	.LFE1:
  99              		.section	.text.generate_base_pos_saw,"ax",%progbits
 100              		.align	1
 101              		.global	generate_base_pos_saw
 102              		.syntax unified
 103              		.thumb
 104              		.thumb_func
 105              		.fpu fpv4-sp-d16
 107              	generate_base_pos_saw:
 108              	.LFB2:
  21:Src/waves.c   **** 
  22:Src/waves.c   **** void generate_base_pos_saw(uint8_t* buffer){
 109              		.loc 1 22 0
 110              		.cfi_startproc
 111              		@ args = 0, pretend = 0, frame = 0
 112              		@ frame_needed = 0, uses_anonymous_args = 0
 113              		@ link register save eliminated.
 114              	.LVL11:
 115              	.LBB4:
  23:Src/waves.c   ****   for(int i = 0; i < N; i++){
 116              		.loc 1 23 0
 117 0000 0023     		movs	r3, #0
 118              	.LVL12:
 119 0002 B3F5805F 		cmp	r3, #4096
 120 0006 13DA     		bge	.L14
 121              	.LBE4:
  22:Src/waves.c   ****   for(int i = 0; i < N; i++){
 122              		.loc 1 22 0
 123 0008 10B4     		push	{r4}
 124              	.LCFI1:
 125              		.cfi_def_cfa_offset 4
 126              		.cfi_offset 4, -4
 127 000a 05E0     		b	.L10
 128              	.L9:
 129              	.LBB5:
  24:Src/waves.c   ****     buffer[i] = (AMPLITUDE * i)/N;
 130              		.loc 1 24 0 discriminator 3
 131 000c 1213     		asrs	r2, r2, #12
 132 000e 2270     		strb	r2, [r4]
  23:Src/waves.c   ****   for(int i = 0; i < N; i++){
 133              		.loc 1 23 0 discriminator 3
 134 0010 0133     		adds	r3, r3, #1
 135              	.LVL13:
 136 0012 B3F5805F 		cmp	r3, #4096
 137 0016 08DA     		bge	.L15
 138              	.L10:
 139              		.loc 1 24 0 discriminator 3
 140 0018 C418     		adds	r4, r0, r3
 141 001a C3EB0321 		rsb	r1, r3, r3, lsl #8
 142 001e 0A46     		mov	r2, r1
 143 0020 0029     		cmp	r1, #0
 144 0022 F3DA     		bge	.L9
 145 0024 01F6FF72 		addw	r2, r1, #4095
 146 0028 F0E7     		b	.L9
ARM GAS  /tmp/ccrzXCfd.s 			page 4


 147              	.L15:
 148              	.LBE5:
  25:Src/waves.c   ****   }
  26:Src/waves.c   **** }
 149              		.loc 1 26 0
 150 002a 5DF8044B 		ldr	r4, [sp], #4
 151              	.LCFI2:
 152              		.cfi_restore 4
 153              		.cfi_def_cfa_offset 0
 154 002e 7047     		bx	lr
 155              	.L14:
 156 0030 7047     		bx	lr
 157              		.cfi_endproc
 158              	.LFE2:
 160              		.section	.text.generate_base_neg_saw,"ax",%progbits
 161              		.align	1
 162              		.global	generate_base_neg_saw
 163              		.syntax unified
 164              		.thumb
 165              		.thumb_func
 166              		.fpu fpv4-sp-d16
 168              	generate_base_neg_saw:
 169              	.LFB3:
  27:Src/waves.c   **** 
  28:Src/waves.c   **** void generate_base_neg_saw(uint8_t* buffer){
 170              		.loc 1 28 0
 171              		.cfi_startproc
 172              		@ args = 0, pretend = 0, frame = 0
 173              		@ frame_needed = 0, uses_anonymous_args = 0
 174              		@ link register save eliminated.
 175              	.LVL14:
 176              	.LBB6:
  29:Src/waves.c   ****   for(int i = 0; i < N; i++){
 177              		.loc 1 29 0
 178 0000 0023     		movs	r3, #0
 179              	.LVL15:
 180 0002 B3F5805F 		cmp	r3, #4096
 181 0006 15DA     		bge	.L23
 182              	.LBE6:
  28:Src/waves.c   ****   for(int i = 0; i < N; i++){
 183              		.loc 1 28 0
 184 0008 10B4     		push	{r4}
 185              	.LCFI3:
 186              		.cfi_def_cfa_offset 4
 187              		.cfi_offset 4, -4
 188 000a 05E0     		b	.L19
 189              	.L18:
 190              	.LBB7:
  30:Src/waves.c   ****     buffer[(int)N-i-1] = (AMPLITUDE * i)/N;
 191              		.loc 1 30 0 discriminator 3
 192 000c 1213     		asrs	r2, r2, #12
 193 000e 4254     		strb	r2, [r0, r1]
  29:Src/waves.c   ****   for(int i = 0; i < N; i++){
 194              		.loc 1 29 0 discriminator 3
 195 0010 0133     		adds	r3, r3, #1
 196              	.LVL16:
 197 0012 B3F5805F 		cmp	r3, #4096
ARM GAS  /tmp/ccrzXCfd.s 			page 5


 198 0016 0ADA     		bge	.L24
 199              	.L19:
 200              		.loc 1 30 0 discriminator 3
 201 0018 C3F57F61 		rsb	r1, r3, #4080
 202 001c 0F31     		adds	r1, r1, #15
 203 001e C3EB0324 		rsb	r4, r3, r3, lsl #8
 204 0022 2246     		mov	r2, r4
 205 0024 002C     		cmp	r4, #0
 206 0026 F1DA     		bge	.L18
 207 0028 04F6FF72 		addw	r2, r4, #4095
 208 002c EEE7     		b	.L18
 209              	.L24:
 210              	.LBE7:
  31:Src/waves.c   ****   }
  32:Src/waves.c   **** }
 211              		.loc 1 32 0
 212 002e 5DF8044B 		ldr	r4, [sp], #4
 213              	.LCFI4:
 214              		.cfi_restore 4
 215              		.cfi_def_cfa_offset 0
 216 0032 7047     		bx	lr
 217              	.L23:
 218 0034 7047     		bx	lr
 219              		.cfi_endproc
 220              	.LFE3:
 222              		.section	.text.generate_base_tri,"ax",%progbits
 223              		.align	1
 224              		.global	generate_base_tri
 225              		.syntax unified
 226              		.thumb
 227              		.thumb_func
 228              		.fpu fpv4-sp-d16
 230              	generate_base_tri:
 231              	.LFB4:
  33:Src/waves.c   **** 
  34:Src/waves.c   **** void generate_base_tri(uint8_t* buffer){
 232              		.loc 1 34 0
 233              		.cfi_startproc
 234              		@ args = 0, pretend = 0, frame = 0
 235              		@ frame_needed = 0, uses_anonymous_args = 0
 236              		@ link register save eliminated.
 237              	.LVL17:
 238 0000 10B4     		push	{r4}
 239              	.LCFI5:
 240              		.cfi_def_cfa_offset 4
 241              		.cfi_offset 4, -4
 242              	.LVL18:
 243              	.LBB8:
  35:Src/waves.c   ****   for(int i = 0; i < N/2; i++){
 244              		.loc 1 35 0
 245 0002 0023     		movs	r3, #0
 246 0004 02E0     		b	.L26
 247              	.LVL19:
 248              	.L27:
  36:Src/waves.c   ****     buffer[i] = (AMPLITUDE * 2*i)/N;
 249              		.loc 1 36 0 discriminator 3
 250 0006 1213     		asrs	r2, r2, #12
ARM GAS  /tmp/ccrzXCfd.s 			page 6


 251 0008 2270     		strb	r2, [r4]
  35:Src/waves.c   ****   for(int i = 0; i < N/2; i++){
 252              		.loc 1 35 0 discriminator 3
 253 000a 0133     		adds	r3, r3, #1
 254              	.LVL20:
 255              	.L26:
  35:Src/waves.c   ****   for(int i = 0; i < N/2; i++){
 256              		.loc 1 35 0 is_stmt 0 discriminator 1
 257 000c B3F5006F 		cmp	r3, #2048
 258 0010 09DA     		bge	.L33
 259              		.loc 1 36 0 is_stmt 1 discriminator 3
 260 0012 C418     		adds	r4, r0, r3
 261 0014 C3EB0322 		rsb	r2, r3, r3, lsl #8
 262 0018 5100     		lsls	r1, r2, #1
 263 001a 0A46     		mov	r2, r1
 264 001c 0029     		cmp	r1, #0
 265 001e F2DA     		bge	.L27
 266 0020 01F6FF72 		addw	r2, r1, #4095
 267 0024 EFE7     		b	.L27
 268              	.L33:
 269 0026 4FF40062 		mov	r2, #2048
 270 002a 02E0     		b	.L29
 271              	.LVL21:
 272              	.L30:
 273              	.LBE8:
 274              	.LBB9:
  37:Src/waves.c   ****   }
  38:Src/waves.c   ****   for(int i = N/2; i < N; i++){
  39:Src/waves.c   ****     buffer[i] = (AMPLITUDE * 2*(N-i))/N;
 275              		.loc 1 39 0 discriminator 3
 276 002c 1B13     		asrs	r3, r3, #12
 277 002e 2370     		strb	r3, [r4]
  38:Src/waves.c   ****     buffer[i] = (AMPLITUDE * 2*(N-i))/N;
 278              		.loc 1 38 0 discriminator 3
 279 0030 0132     		adds	r2, r2, #1
 280              	.LVL22:
 281              	.L29:
  38:Src/waves.c   ****     buffer[i] = (AMPLITUDE * 2*(N-i))/N;
 282              		.loc 1 38 0 is_stmt 0 discriminator 1
 283 0032 B2F5805F 		cmp	r2, #4096
 284 0036 0BDA     		bge	.L34
 285              		.loc 1 39 0 is_stmt 1 discriminator 3
 286 0038 8418     		adds	r4, r0, r2
 287 003a C2F58053 		rsb	r3, r2, #4096
 288 003e C3EB0323 		rsb	r3, r3, r3, lsl #8
 289 0042 5900     		lsls	r1, r3, #1
 290 0044 0B46     		mov	r3, r1
 291 0046 0029     		cmp	r1, #0
 292 0048 F0DA     		bge	.L30
 293 004a 01F6FF73 		addw	r3, r1, #4095
 294 004e EDE7     		b	.L30
 295              	.L34:
 296              	.LBE9:
  40:Src/waves.c   ****   }
  41:Src/waves.c   **** }
 297              		.loc 1 41 0
 298 0050 5DF8044B 		ldr	r4, [sp], #4
ARM GAS  /tmp/ccrzXCfd.s 			page 7


 299              	.LCFI6:
 300              		.cfi_restore 4
 301              		.cfi_def_cfa_offset 0
 302 0054 7047     		bx	lr
 303              		.cfi_endproc
 304              	.LFE4:
 306              		.section	.text.generate_base_sq,"ax",%progbits
 307              		.align	1
 308              		.global	generate_base_sq
 309              		.syntax unified
 310              		.thumb
 311              		.thumb_func
 312              		.fpu fpv4-sp-d16
 314              	generate_base_sq:
 315              	.LFB5:
  42:Src/waves.c   **** 
  43:Src/waves.c   **** void generate_base_sq(uint8_t* buffer){
 316              		.loc 1 43 0
 317              		.cfi_startproc
 318              		@ args = 0, pretend = 0, frame = 0
 319              		@ frame_needed = 0, uses_anonymous_args = 0
 320              		@ link register save eliminated.
 321              	.LVL23:
 322              	.LBB10:
  44:Src/waves.c   ****   for(int i = 0; i < N; i++){
 323              		.loc 1 44 0
 324 0000 0023     		movs	r3, #0
 325 0002 02E0     		b	.L36
 326              	.LVL24:
 327              	.L37:
  45:Src/waves.c   ****     if(i < N/2){
  46:Src/waves.c   ****       buffer[i] = AMPLITUDE;
  47:Src/waves.c   ****     }
  48:Src/waves.c   ****     else{
  49:Src/waves.c   ****       buffer[i] = 0;
 328              		.loc 1 49 0
 329 0004 0022     		movs	r2, #0
 330 0006 C254     		strb	r2, [r0, r3]
 331              	.L38:
  44:Src/waves.c   ****   for(int i = 0; i < N; i++){
 332              		.loc 1 44 0 discriminator 2
 333 0008 0133     		adds	r3, r3, #1
 334              	.LVL25:
 335              	.L36:
  44:Src/waves.c   ****   for(int i = 0; i < N; i++){
 336              		.loc 1 44 0 is_stmt 0 discriminator 1
 337 000a B3F5805F 		cmp	r3, #4096
 338 000e 05DA     		bge	.L40
  45:Src/waves.c   ****     if(i < N/2){
 339              		.loc 1 45 0 is_stmt 1
 340 0010 B3F5006F 		cmp	r3, #2048
 341 0014 F6DA     		bge	.L37
  46:Src/waves.c   ****     }
 342              		.loc 1 46 0
 343 0016 FF22     		movs	r2, #255
 344 0018 C254     		strb	r2, [r0, r3]
 345 001a F5E7     		b	.L38
ARM GAS  /tmp/ccrzXCfd.s 			page 8


 346              	.L40:
 347              	.LBE10:
  50:Src/waves.c   ****     }
  51:Src/waves.c   ****   }
  52:Src/waves.c   **** }
 348              		.loc 1 52 0
 349 001c 7047     		bx	lr
 350              		.cfi_endproc
 351              	.LFE5:
 353              		.section	.text.generate_lfo_sine,"ax",%progbits
 354              		.align	1
 355              		.global	generate_lfo_sine
 356              		.syntax unified
 357              		.thumb
 358              		.thumb_func
 359              		.fpu fpv4-sp-d16
 361              	generate_lfo_sine:
 362              	.LFB6:
  53:Src/waves.c   **** 
  54:Src/waves.c   **** void generate_lfo_sine(uint8_t* buffer){
 363              		.loc 1 54 0
 364              		.cfi_startproc
 365              		@ args = 0, pretend = 0, frame = 0
 366              		@ frame_needed = 0, uses_anonymous_args = 0
 367              	.LVL26:
 368 0000 38B5     		push	{r3, r4, r5, lr}
 369              	.LCFI7:
 370              		.cfi_def_cfa_offset 16
 371              		.cfi_offset 3, -16
 372              		.cfi_offset 4, -12
 373              		.cfi_offset 5, -8
 374              		.cfi_offset 14, -4
 375 0002 0546     		mov	r5, r0
 376              	.LVL27:
 377              	.LBB11:
  55:Src/waves.c   ****     for(int i = 0; i < 256; i++){
 378              		.loc 1 55 0
 379 0004 0024     		movs	r4, #0
 380 0006 19E0     		b	.L42
 381              	.LVL28:
 382              	.L43:
 383              	.LBB12:
  56:Src/waves.c   ****         double delta = 2*M_PI/256;
  57:Src/waves.c   ****         double x = delta * i;
 384              		.loc 1 57 0 discriminator 3
 385 0008 2046     		mov	r0, r4
 386 000a FFF7FEFF 		bl	__aeabi_i2d
 387              	.LVL29:
 388 000e 0FA3     		adr	r3, .L45+4
 389 0010 D3E90023 		ldrd	r2, [r3]
 390 0014 FFF7FEFF 		bl	__aeabi_dmul
 391              	.LVL30:
  58:Src/waves.c   ****         buffer[i] = sin(x) * 126 + 126;
 392              		.loc 1 58 0 discriminator 3
 393 0018 41EC100B 		vmov	d0, r0, r1
 394 001c FFF7FEFF 		bl	sin
 395              	.LVL31:
ARM GAS  /tmp/ccrzXCfd.s 			page 9


 396 0020 0022     		movs	r2, #0
 397 0022 094B     		ldr	r3, .L45
 398 0024 51EC100B 		vmov	r0, r1, d0
 399 0028 FFF7FEFF 		bl	__aeabi_dmul
 400              	.LVL32:
 401 002c 0022     		movs	r2, #0
 402 002e 064B     		ldr	r3, .L45
 403 0030 FFF7FEFF 		bl	__aeabi_dadd
 404              	.LVL33:
 405 0034 FFF7FEFF 		bl	__aeabi_d2uiz
 406              	.LVL34:
 407 0038 2855     		strb	r0, [r5, r4]
 408              	.LBE12:
  55:Src/waves.c   ****     for(int i = 0; i < 256; i++){
 409              		.loc 1 55 0 discriminator 3
 410 003a 0134     		adds	r4, r4, #1
 411              	.LVL35:
 412              	.L42:
  55:Src/waves.c   ****     for(int i = 0; i < 256; i++){
 413              		.loc 1 55 0 is_stmt 0 discriminator 1
 414 003c FF2C     		cmp	r4, #255
 415 003e E3DD     		ble	.L43
 416              	.LBE11:
  59:Src/waves.c   ****     }
  60:Src/waves.c   **** }
 417              		.loc 1 60 0 is_stmt 1
 418 0040 38BD     		pop	{r3, r4, r5, pc}
 419              	.LVL36:
 420              	.L46:
 421 0042 00BFAFF3 		.align	3
 421      0080
 422              	.L45:
 423 0048 00805F40 		.word	1080000512
 424 004c 182D4454 		.word	1413754136
 425 0050 FB21993F 		.word	1067000315
 426              		.cfi_endproc
 427              	.LFE6:
 429              		.section	.text.init_wavetable,"ax",%progbits
 430              		.align	1
 431              		.global	init_wavetable
 432              		.syntax unified
 433              		.thumb
 434              		.thumb_func
 435              		.fpu fpv4-sp-d16
 437              	init_wavetable:
 438              	.LFB0:
   5:Src/waves.c   ****     generate_base_sine(base_sine);
 439              		.loc 1 5 0
 440              		.cfi_startproc
 441              		@ args = 0, pretend = 0, frame = 0
 442              		@ frame_needed = 0, uses_anonymous_args = 0
 443 0000 08B5     		push	{r3, lr}
 444              	.LCFI8:
 445              		.cfi_def_cfa_offset 8
 446              		.cfi_offset 3, -8
 447              		.cfi_offset 14, -4
   6:Src/waves.c   ****     generate_base_pos_saw(base_pos_saw);
ARM GAS  /tmp/ccrzXCfd.s 			page 10


 448              		.loc 1 6 0
 449 0002 0948     		ldr	r0, .L49
 450 0004 FFF7FEFF 		bl	generate_base_sine
 451              	.LVL37:
   7:Src/waves.c   ****     generate_base_neg_saw(base_neg_saw);
 452              		.loc 1 7 0
 453 0008 0848     		ldr	r0, .L49+4
 454 000a FFF7FEFF 		bl	generate_base_pos_saw
 455              	.LVL38:
   8:Src/waves.c   ****     generate_base_tri(base_tri);
 456              		.loc 1 8 0
 457 000e 0848     		ldr	r0, .L49+8
 458 0010 FFF7FEFF 		bl	generate_base_neg_saw
 459              	.LVL39:
   9:Src/waves.c   ****     generate_base_sq(base_sq);
 460              		.loc 1 9 0
 461 0014 0748     		ldr	r0, .L49+12
 462 0016 FFF7FEFF 		bl	generate_base_tri
 463              	.LVL40:
  10:Src/waves.c   ****     generate_lfo_sine(lfo_sine);
 464              		.loc 1 10 0
 465 001a 0748     		ldr	r0, .L49+16
 466 001c FFF7FEFF 		bl	generate_base_sq
 467              	.LVL41:
  11:Src/waves.c   **** }
 468              		.loc 1 11 0
 469 0020 0648     		ldr	r0, .L49+20
 470 0022 FFF7FEFF 		bl	generate_lfo_sine
 471              	.LVL42:
 472 0026 08BD     		pop	{r3, pc}
 473              	.L50:
 474              		.align	2
 475              	.L49:
 476 0028 00000000 		.word	base_sine
 477 002c 00000000 		.word	base_pos_saw
 478 0030 00000000 		.word	base_neg_saw
 479 0034 00000000 		.word	base_tri
 480 0038 00000000 		.word	base_sq
 481 003c 00000000 		.word	lfo_sine
 482              		.cfi_endproc
 483              	.LFE0:
 485              		.comm	lfo_sine,256,4
 486              		.comm	base_sq,4096,4
 487              		.comm	base_tri,4096,4
 488              		.comm	base_neg_saw,4096,4
 489              		.comm	base_pos_saw,4096,4
 490              		.comm	base_sine,4096,4
 491              		.text
 492              	.Letext0:
 493              		.file 2 "/usr/include/newlib/machine/_default_types.h"
 494              		.file 3 "/usr/include/newlib/sys/lock.h"
 495              		.file 4 "/usr/include/newlib/sys/_types.h"
 496              		.file 5 "/usr/lib/gcc/arm-none-eabi/6.3.1/include/stddef.h"
 497              		.file 6 "/usr/include/newlib/sys/reent.h"
 498              		.file 7 "/usr/include/newlib/stdlib.h"
 499              		.file 8 "/usr/include/newlib/sys/_stdint.h"
 500              		.file 9 "Inc/waves.h"
ARM GAS  /tmp/ccrzXCfd.s 			page 11


 501              		.file 10 "/usr/include/newlib/math.h"
ARM GAS  /tmp/ccrzXCfd.s 			page 12


DEFINED SYMBOLS
                            *ABS*:0000000000000000 waves.c
     /tmp/ccrzXCfd.s:22     .text.generate_base_sine:0000000000000000 $t
     /tmp/ccrzXCfd.s:29     .text.generate_base_sine:0000000000000000 generate_base_sine
     /tmp/ccrzXCfd.s:92     .text.generate_base_sine:0000000000000048 $d
     /tmp/ccrzXCfd.s:100    .text.generate_base_pos_saw:0000000000000000 $t
     /tmp/ccrzXCfd.s:107    .text.generate_base_pos_saw:0000000000000000 generate_base_pos_saw
     /tmp/ccrzXCfd.s:161    .text.generate_base_neg_saw:0000000000000000 $t
     /tmp/ccrzXCfd.s:168    .text.generate_base_neg_saw:0000000000000000 generate_base_neg_saw
     /tmp/ccrzXCfd.s:223    .text.generate_base_tri:0000000000000000 $t
     /tmp/ccrzXCfd.s:230    .text.generate_base_tri:0000000000000000 generate_base_tri
     /tmp/ccrzXCfd.s:307    .text.generate_base_sq:0000000000000000 $t
     /tmp/ccrzXCfd.s:314    .text.generate_base_sq:0000000000000000 generate_base_sq
     /tmp/ccrzXCfd.s:354    .text.generate_lfo_sine:0000000000000000 $t
     /tmp/ccrzXCfd.s:361    .text.generate_lfo_sine:0000000000000000 generate_lfo_sine
     /tmp/ccrzXCfd.s:423    .text.generate_lfo_sine:0000000000000048 $d
     /tmp/ccrzXCfd.s:430    .text.init_wavetable:0000000000000000 $t
     /tmp/ccrzXCfd.s:437    .text.init_wavetable:0000000000000000 init_wavetable
     /tmp/ccrzXCfd.s:476    .text.init_wavetable:0000000000000028 $d
                            *COM*:0000000000001000 base_sine
                            *COM*:0000000000001000 base_pos_saw
                            *COM*:0000000000001000 base_neg_saw
                            *COM*:0000000000001000 base_tri
                            *COM*:0000000000001000 base_sq
                            *COM*:0000000000000100 lfo_sine
                     .debug_frame:0000000000000010 $d

UNDEFINED SYMBOLS
__aeabi_i2d
__aeabi_dmul
__aeabi_dadd
__aeabi_d2uiz
sin
